(dp1
S'MET-MET'
p2
F-0.92300000000000004
sS'PRO-ILE'
p3
F0.29999999999999999
sS'TYR-LYS'
p4
F-0.35499999999999998
sS'VAL-ASP'
p5
F0.68200000000000005
sS'ASP-GLN'
p6
F-0.11899999999999999
sS'HIS-TYR'
p7
F-0.71699999999999997
sS'ASP-GLU'
p8
F0.16
sS'ALA-ASP'
p9
F0.67500000000000004
sS'ASP-GLY'
p10
F0.54100000000000004
sS'LEU-VAL'
p11
F0.60799999999999998
sS'TRP-TYR'
p12
F-0.27100000000000002
sS'GLN-TRP'
p13
F-0.22800000000000001
sS'TRP-PHE'
p14
F-0.35999999999999999
sS'ARG-TYR'
p15
F-0.81000000000000005
sS'GLU-LYS'
p16
F-0.66400000000000003
sS'ILE-HIS'
p17
F0.26300000000000001
sS'LEU-MET'
p18
F0.46899999999999997
sS'GLU-HIS'
p19
F-0.57099999999999995
sS'GLY-THR'
p20
F0.34000000000000002
sS'ARG-GLU'
p21
F-1.093
sS'PHE-ASN'
p22
F-0.057000000000000002
sS'ASN-MET'
p23
F0.438
sS'PRO-THR'
p24
F-0.115
sS'TYR-GLN'
p25
F-0.48599999999999999
sS'ARG-GLY'
p26
F-0.39100000000000001
sS'VAL-THR'
p27
F0.58699999999999997
sS'ASP-ILE'
p28
F0.68899999999999995
sS'THR-HIS'
p29
F0.051999999999999998
sS'TYR-GLU'
p30
F-0.44500000000000001
sS'ARG-GLN'
p31
F-0.74199999999999999
sS'TYR-GLY'
p32
F-0.070999999999999994
sS'PHE-ASP'
p33
F0.35199999999999998
sS'CYS-ARG'
p34
F0.68000000000000005
sS'GLY-ASN'
p35
F-0.13600000000000001
sS'VAL-LYS'
p36
F0.78500000000000003
sS'LEU-ILE'
p37
F0.38500000000000001
sS'GLN-LEU'
p38
F0.14699999999999999
sS'GLU-MET'
p39
F0.33000000000000002
sS'ASP-THR'
p40
F0.16700000000000001
sS'ASN-PHE'
p41
F-0.082000000000000003
sS'GLU-PRO'
p42
F-0.182
sS'TYR-LEU'
p43
F-0.083000000000000004
sS'LYS-ARG'
p44
F-0.014
sS'GLY-ASP'
p45
F0.41899999999999998
sS'PRO-GLN'
p46
F-0.47899999999999998
sS'CYS-MET'
p47
F1.397
sS'HIS-ARG'
p48
F-0.46400000000000002
sS'GLU-THR'
p49
F-0.066000000000000003
sS'ILE-THR'
p50
F0.52000000000000002
sS'SER-PRO'
p51
F-0.025999999999999999
sS'GLY-CYS'
p52
F0.498
sS'ARG-LEU'
p53
F-0.089999999999999997
sS'PRO-GLU'
p54
F-0.128
sS'ASP-LEU'
p55
F0.61799999999999999
sS'PHE-VAL'
p56
F0.308
sS'ASN-VAL'
p57
F0.38100000000000001
sS'ALA-MET'
p58
F0.88800000000000001
sS'LEU-PRO'
p59
F0.29599999999999999
sS'LEU-SER'
p60
F0.55100000000000005
sS'ASN-ARG'
p61
F-0.621
sS'SER-THR'
p62
F0.36299999999999999
sS'LYS-VAL'
p63
F0.68899999999999995
sS'LYS-GLN'
p64
F-0.378
sS'GLN-VAL'
p65
F0.36799999999999999
sS'TYR-PHE'
p66
F-0.316
sS'ASP-VAL'
p67
F0.78700000000000003
sS'ASN-GLY'
p68
F-0.010999999999999999
sS'ARG-PHE'
p69
F-0.39400000000000002
sS'SER-HIS'
p70
F-0.104
sS'ALA-ILE'
p71
F0.623
sS'ASN-GLU'
p72
F-0.38
sS'CYS-GLN'
p73
F0.71299999999999997
sS'TYR-PRO'
p74
F-0.63700000000000001
sS'LYS-GLU'
p75
F-0.626
sS'CYS-GLU'
p76
F1.413
sS'ASN-GLN'
p77
F-0.67600000000000005
sS'CYS-GLY'
p78
F1.1739999999999999
sS'GLN-SER'
p79
F-0.34399999999999997
sS'HIS-LYS'
p80
F0.017999999999999999
sS'LYS-GLY'
p81
F0.30299999999999999
sS'VAL-MET'
p82
F0.78200000000000003
sS'GLU-GLY'
p83
F0.34899999999999998
sS'THR-SER'
p84
F0.36399999999999999
sS'TYR-THR'
p85
F-0.062
sS'PRO-PRO'
p86
F-0.69699999999999995
sS'ILE-PHE'
p87
F0.13600000000000001
sS'PHE-LEU'
p88
F-0.014999999999999999
sS'GLU-GLU'
p89
F-0.33700000000000002
sS'SER-ARG'
p90
F-0.33200000000000002
sS'GLY-ALA'
p91
F0.64800000000000002
sS'TYR-ASN'
p92
F-0.53300000000000003
sS'GLU-GLN'
p93
F-0.13500000000000001
sS'TRP-ARG'
p94
F-0.59799999999999998
sS'LEU-GLU'
p95
F0.57199999999999995
sS'LEU-GLY'
p96
F0.81899999999999995
sS'LYS-SER'
p97
F0.064000000000000001
sS'MET-VAL'
p98
F0.79900000000000004
sS'SER-ALA'
p99
F0.38700000000000001
sS'PRO-HIS'
p100
F-0.318
sS'MET-THR'
p101
F0.40300000000000002
sS'ALA-PHE'
p102
F0.223
sS'MET-PRO'
p103
F0.41199999999999998
sS'GLY-SER'
p104
F0.34699999999999998
sS'LEU-GLN'
p105
F0.121
sS'VAL-LEU'
p106
F0.51200000000000001
sS'LEU-CYS'
p107
F1.2969999999999999
sS'LYS-TYR'
p108
F-0.33000000000000002
sS'ASP-ALA'
p109
F0.76700000000000002
sS'ILE-LEU'
p110
F0.36299999999999999
sS'TRP-VAL'
p111
F0.111
sS'PHE-PRO'
p112
F-0.255
sS'ALA-ALA'
p113
F0.17199999999999999
sS'ARG-TRP'
p114
F-0.73399999999999999
sS'MET-GLN'
p115
F0.070999999999999994
sS'ILE-LYS'
p116
F0.83199999999999996
sS'MET-ARG'
p117
F0.33200000000000002
sS'ALA-CYS'
p118
F1.1240000000000001
sS'THR-ARG'
p119
F0.044999999999999998
sS'CYS-ILE'
p120
F0.98399999999999999
sS'LEU-ASN'
p121
F0.23100000000000001
sS'LEU-ASP'
p122
F0.61499999999999999
sS'PHE-TRP'
p123
F-0.193
sS'MET-GLY'
p124
F1.0209999999999999
sS'THR-PHE'
p125
F0.18099999999999999
sS'MET-GLU'
p126
F0.51700000000000002
sS'THR-TRP'
p127
F0.44700000000000001
sS'THR-TYR'
p128
F-0.17000000000000001
sS'CYS-VAL'
p129
F1.05
sS'ARG-ALA'
p130
F0.17399999999999999
sS'ALA-TYR'
p131
F0.014999999999999999
sS'ASP-PRO'
p132
F-0.040000000000000001
sS'ARG-CYS'
p133
F0.56899999999999995
sS'GLN-ARG'
p134
F-0.73099999999999998
sS'HIS-TRP'
p135
F-0.13800000000000001
sS'PRO-SER'
p136
F0.033000000000000002
sS'VAL-VAL'
p137
F0.16200000000000001
sS'LEU-LYS'
p138
F0.57399999999999995
sS'GLY-LYS'
p139
F0.19400000000000001
sS'CYS-ASN'
p140
F0.65700000000000003
sS'GLY-TRP'
p141
F0.114
sS'THR-CYS'
p142
F1.341
sS'LYS-LYS'
p143
F-0.044999999999999998
sS'CYS-ASP'
p144
F1.05
sS'TYR-ASP'
p145
F-0.32500000000000001
sS'VAL-PRO'
p146
F0.52000000000000002
sS'THR-VAL'
p147
F0.53800000000000003
sS'ASP-TYR'
p148
F-0.40899999999999997
sS'PRO-CYS'
p149
F0.80200000000000005
sS'VAL-SER'
p150
F0.59399999999999997
sS'ARG-HIS'
p151
F-0.63800000000000001
sS'CYS-PRO'
p152
F0.52400000000000002
sS'MET-LYS'
p153
F0.252
sS'ALA-SER'
p154
F0.5
sS'TYR-SER'
p155
F-0.13900000000000001
sS'GLY-ARG'
p156
F-0.23799999999999999
sS'GLN-ALA'
p157
F0.28799999999999998
sS'MET-LEU'
p158
F0.28499999999999998
sS'ASN-HIS'
p159
F-0.308
sS'VAL-CYS'
p160
F1.296
sS'GLN-TYR'
p161
F-0.54300000000000004
sS'GLN-PHE'
p162
F-0.029999999999999999
sS'ILE-ASN'
p163
F0.38
sS'GLU-ASN'
p164
F-0.42199999999999999
sS'CYS-ALA'
p165
F0.97899999999999998
sS'ASN-ASP'
p166
F-0.21299999999999999
sS'ASN-PRO'
p167
F-0.38300000000000001
sS'PRO-ARG'
p168
F-0.49199999999999999
sS'LYS-TRP'
p169
F-0.108
sS'ASN-ASN'
p170
F-1.204
sS'ASN-THR'
p171
F-0.19400000000000001
sS'THR-ALA'
p172
F0.71499999999999997
sS'LYS-ALA'
p173
F0.65600000000000003
sS'LYS-PRO'
p174
F0.14099999999999999
sS'SER-GLN'
p175
F-0.24399999999999999
sS'ILE-VAL'
p176
F0.60099999999999998
sS'ASP-ARG'
p177
F-1.0609999999999999
sS'ASP-MET'
p178
F0.83999999999999997
sS'CYS-TYR'
p179
F0.77400000000000002
sS'PRO-TRP'
p180
F-0.33500000000000002
sS'THR-GLU'
p181
F-0.068000000000000005
sS'TRP-ALA'
p182
F0.085999999999999993
sS'ILE-CYS'
p183
F0.92200000000000004
sS'LYS-ILE'
p184
F0.63900000000000001
sS'GLN-CYS'
p185
F0.94499999999999995
sS'TYR-ALA'
p186
F0.13
sS'ARG-ASP'
p187
F-1.1910000000000001
sS'SER-GLU'
p188
F-0.17100000000000001
sS'TRP-HIS'
p189
F-0.27500000000000002
sS'ALA-ASN'
p190
F0.33900000000000002
sS'GLU-CYS'
p191
F1.4339999999999999
sS'PRO-MET'
p192
F0.251
sS'TYR-HIS'
p193
F-0.60999999999999999
sS'PHE-MET'
p194
F-0.25600000000000001
sS'GLU-TYR'
p195
F-0.38
sS'SER-TRP'
p196
F0.057000000000000002
sS'PHE-ARG'
p197
F-0.29399999999999998
sS'GLY-ILE'
p198
F0.96399999999999997
sS'TYR-VAL'
p199
F0.26900000000000002
sS'ASN-TYR'
p200
F-0.443
sS'SER-ILE'
p201
F0.49399999999999999
sS'GLN-PRO'
p202
F-0.40300000000000002
sS'PHE-TYR'
p203
F-0.38500000000000001
sS'ALA-VAL'
p204
F0.75600000000000001
sS'HIS-HIS'
p205
F-2.0830000000000002
sS'THR-ASN'
p206
F-0.13900000000000001
sS'CYS-LEU'
p207
F1.3320000000000001
sS'LYS-MET'
p208
F0.27400000000000002
sS'LYS-ASP'
p209
F-0.56999999999999995
sS'HIS-ASN'
p210
F-0.35299999999999998
sS'ILE-GLN'
p211
F0.22700000000000001
sS'VAL-HIS'
p212
F0.443
sS'ALA-LEU'
p213
F0.52500000000000002
sS'HIS-ASP'
p214
F-0.53200000000000003
sS'ILE-TYR'
p215
F-0.107
sS'ILE-GLU'
p216
F0.51300000000000001
sS'ASN-TRP'
p217
F-0.0050000000000000001
sS'ILE-GLY'
p218
F1.1160000000000001
sS'ASN-CYS'
p219
F0.627
sS'GLU-SER'
p220
F-0.070000000000000007
sS'ALA-TRP'
p221
F-0.023
sS'HIS-CYS'
p222
F0.82699999999999996
sS'HIS-MET'
p223
F0.54000000000000004
sS'ILE-PRO'
p224
F0.313
sS'LYS-PHE'
p225
F0.23000000000000001
sS'TRP-PRO'
p226
F-0.26900000000000002
sS'GLU-TRP'
p227
F-0.123
sS'PHE-HIS'
p228
F0.02
sS'GLY-TYR'
p229
F-0.128
sS'SER-GLY'
p230
F0.29899999999999999
sS'CYS-TRP'
p231
F1.2010000000000001
sS'ASP-LYS'
p232
F-0.55100000000000005
sS'ASN-ILE'
p233
F0.27900000000000003
sS'HIS-SER'
p234
F-0.081000000000000003
sS'LYS-CYS'
p235
F0.98499999999999999
sS'GLY-PHE'
p236
F0.53600000000000003
sS'GLY-LEU'
p237
F0.71599999999999997
sS'MET-SER'
p238
F0.53100000000000003
sS'VAL-ALA'
p239
F0.84799999999999998
sS'SER-LEU'
p240
F0.55200000000000005
sS'TRP-LYS'
p241
F-0.039
sS'VAL-TYR'
p242
F0.31900000000000001
sS'VAL-PHE'
p243
F0.32200000000000001
sS'ARG-THR'
p244
F0.014
sS'TYR-TRP'
p245
F-0.41399999999999998
sS'GLN-GLN'
p246
F-1.3620000000000001
sS'GLU-PHE'
p247
F0.109
sS'VAL-ILE'
p248
F0.59299999999999997
sS'HIS-GLN'
p249
F-0.33800000000000002
sS'GLN-GLY'
p250
F-0.161
sS'PHE-ALA'
p251
F0.219
sS'HIS-GLU'
p252
F-0.60399999999999998
sS'ARG-PRO'
p253
F-0.497
sS'HIS-GLY'
p254
F0.28399999999999997
sS'SER-ASN'
p255
F-0.113
sS'ALA-THR'
p256
F0.69199999999999995
sS'GLN-GLU'
p257
F-0.35099999999999998
sS'GLN-LYS'
p258
F-0.32000000000000001
sS'CYS-HIS'
p259
F0.83099999999999996
sS'GLN-ASP'
p260
F-0.21199999999999999
sS'LEU-HIS'
p261
F0.035999999999999997
sS'SER-LYS'
p262
F0.10000000000000001
sS'TRP-LEU'
p263
F-0.072999999999999995
sS'CYS-SER'
p264
F1.056
sS'LYS-THR'
p265
F0.436
sS'HIS-LEU'
p266
F0.224
sS'LEU-ARG'
p267
F0.014
sS'GLY-VAL'
p268
F0.70599999999999996
sS'GLN-ASN'
p269
F-0.54400000000000004
sS'TYR-ARG'
p270
F-0.754
sS'PRO-TYR'
p271
F-0.60999999999999999
sS'ASP-PHE'
p272
F0.48499999999999999
sS'TRP-CYS'
p273
F1.4810000000000001
sS'ASN-LEU'
p274
F0.23699999999999999
sS'SER-MET'
p275
F0.67700000000000005
sS'HIS-ILE'
p276
F0.41999999999999998
sS'SER-TYR'
p277
F-0.16700000000000001
sS'MET-TYR'
p278
F-0.32000000000000001
sS'GLU-ILE'
p279
F0.50900000000000001
sS'PHE-CYS'
p280
F0.46700000000000003
sS'PRO-LEU'
p281
F0.28799999999999998
sS'GLY-MET'
p282
F0.79900000000000004
sS'ARG-ILE'
p283
F0.222
sS'HIS-THR'
p284
F-0.02
sS'THR-GLN'
p285
F-0.33100000000000002
sS'TRP-THR'
p286
F0.28699999999999998
sS'LYS-LEU'
p287
F0.66300000000000003
sS'THR-GLY'
p288
F0.314
sS'ASP-TRP'
p289
F0.46500000000000002
sS'TYR-MET'
p290
F-0.247
sS'PHE-ILE'
p291
F0.127
sS'PRO-VAL'
p292
F0.53300000000000003
sS'MET-ASN'
p293
F0.17699999999999999
sS'LEU-TYR'
p294
F-0.086999999999999994
sS'PHE-PHE'
p295
F-1.0720000000000001
sS'CYS-PHE'
p296
F0.74099999999999999
sS'TRP-ILE'
p297
F0.254
sS'PRO-ASN'
p298
F-0.129
sS'CYS-CYS'
p299
F-2.4969999999999999
sS'SER-ASP'
p300
F0.111
sS'ARG-MET'
p301
F0.20100000000000001
sS'SER-PHE'
p302
F0.27900000000000003
sS'SER-SER'
p303
F-0.40500000000000003
sS'ASN-LYS'
p304
F-0.058000000000000003
sS'CYS-THR'
p305
F1.522
sS'ILE-TRP'
p306
F0.032000000000000001
sS'PRO-ASP'
p307
F0.016
sS'THR-ASP'
p308
F0.121
sS'SER-CYS'
p309
F1.0900000000000001
sS'MET-ASP'
p310
F0.78300000000000003
sS'GLN-MET'
p311
F0.17100000000000001
sS'MET-TRP'
p312
F0.012999999999999999
sS'ARG-VAL'
p313
F0.124
sS'GLY-GLN'
p314
F-0.10299999999999999
sS'THR-LYS'
p315
F0.46999999999999997
sS'TRP-MET'
p316
F0.087999999999999995
sS'ARG-ARG'
p317
F-1.4339999999999999
sS'ILE-ASP'
p318
F0.68300000000000005
sS'GLY-GLY'
p319
F-0.050000000000000003
sS'GLY-GLU'
p320
F0.497
sS'ALA-ARG'
p321
F0.089999999999999997
sS'GLU-ARG'
p322
F-1.0920000000000001
sS'HIS-VAL'
p323
F0.495
sS'VAL-ARG'
p324
F0.128
sS'ASN-SER'
p325
F-0.186
sS'ALA-LYS'
p326
F0.65800000000000003
sS'VAL-GLN'
p327
F0.32000000000000001
sS'TRP-ASN'
p328
F-0.32900000000000001
sS'TYR-ILE'
p329
F-0.115
sS'TRP-GLY'
p330
F-0.033000000000000002
sS'PRO-PHE'
p331
F-0.26500000000000001
sS'GLY-HIS'
p332
F0.094
sS'PHE-SER'
p333
F0.29899999999999999
sS'TRP-ASP'
p334
F0.35299999999999998
sS'TRP-GLN'
p335
F-0.36499999999999999
sS'LEU-ALA'
p336
F0.61899999999999999
sS'VAL-GLU'
p337
F0.53600000000000003
sS'ALA-HIS'
p338
F0.19400000000000001
sS'ARG-ASN'
p339
F-0.78500000000000003
sS'LEU-THR'
p340
F0.58499999999999996
sS'TYR-CYS'
p341
F1.1040000000000001
sS'THR-THR'
p342
F-0.441
sS'THR-LEU'
p343
F0.502
sS'VAL-ASN'
p344
F0.35099999999999998
sS'LEU-TRP'
p345
F-0.074999999999999997
sS'GLU-ASP'
p346
F0.17100000000000001
sS'ILE-SER'
p347
F0.54600000000000004
sS'ILE-ARG'
p348
F0.20999999999999999
sS'TRP-GLU'
p349
F-0.106
sS'ILE-MET'
p350
F0.60899999999999999
sS'MET-PHE'
p351
F-0.20000000000000001
sS'PRO-ALA'
p352
F0.107
sS'PRO-GLY'
p353
F0.312
sS'GLN-THR'
p354
F-0.129
sS'MET-ALA'
p355
F0.97999999999999998
sS'TRP-SER'
p356
F0.088999999999999996
sS'ASP-HIS'
p357
F-0.45200000000000001
sS'ARG-SER'
p358
F-0.35999999999999999
sS'GLN-HIS'
p359
F-0.57099999999999995
sS'HIS-PHE'
p360
F-0.10100000000000001
sS'LEU-LEU'
p361
F-0.111
sS'ALA-GLN'
p362
F0.13300000000000001
sS'ASP-ASN'
p363
F-0.26700000000000002
sS'SER-VAL'
p364
F0.65900000000000003
sS'MET-ILE'
p365
F0.73899999999999999
sS'ALA-PRO'
p366
F0.442
sS'ASP-ASP'
p367
F-0.22500000000000001
sS'ALA-GLY'
p368
F0.751
sS'TRP-TRP'
p369
F-1.538
sS'MET-CYS'
p370
F1.589
sS'ALA-GLU'
p371
F0.53600000000000003
sS'THR-PRO'
p372
F-0.124
sS'HIS-ALA'
p373
F0.38900000000000001
sS'GLN-ILE'
p374
F0.070999999999999994
sS'GLU-VAL'
p375
F0.433
sS'LYS-ASN'
p376
F-0.053999999999999999
sS'ASN-ALA'
p377
F0.35099999999999998
sS'THR-ILE'
p378
F0.35599999999999998
sS'ASP-CYS'
p379
F1.337
sS'PRO-LYS'
p380
F0.23400000000000001
sS'TYR-TYR'
p381
F-1.2629999999999999
sS'ARG-LYS'
p382
F-0.113
sS'ILE-ALA'
p383
F0.70499999999999996
sS'ASP-SER'
p384
F0.076999999999999999
sS'CYS-LYS'
p385
F1.163
sS'GLU-ALA'
p386
F0.46700000000000003
sS'PHE-GLU'
p387
F0.17699999999999999
sS'GLU-LEU'
p388
F0.45800000000000002
sS'PHE-GLY'
p389
F0.47099999999999997
sS'LYS-HIS'
p390
F-0.11799999999999999
sS'HIS-PRO'
p391
F-0.28499999999999998
sS'ILE-ILE'
p392
F-0.247
sS'MET-HIS'
p393
F0.33300000000000002
sS'VAL-GLY'
p394
F0.82399999999999995
sS'THR-MET'
p395
F0.54500000000000004
sS'PHE-THR'
p396
F0.314
sS'VAL-TRP'
p397
F0.26600000000000001
sS'PHE-LYS'
p398
F0.14499999999999999
sS'GLY-PRO'
p399
F0.157
sS'PHE-GLN'
p400
F-0.088999999999999996
sS'LEU-PHE'
p401
F-0.024
s.