(dp1
S'MET-MET'
p2
F-1.3420000000000001
sS'PRO-ILE'
p3
F-0.35699999999999998
sS'TYR-LYS'
p4
F-0.88800000000000001
sS'VAL-ASP'
p5
F0.255
sS'ASP-GLN'
p6
F-0.64800000000000002
sS'HIS-TYR'
p7
F-1.2
sS'ASP-GLU'
p8
F-0.443
sS'ALA-ASP'
p9
F0.29899999999999999
sS'ASP-GLY'
p10
F0.224
sS'LEU-VAL'
p11
F0.42899999999999999
sS'TRP-TYR'
p12
F-0.69699999999999995
sS'GLN-TRP'
p13
F-0.64800000000000002
sS'TRP-PHE'
p14
F-0.74099999999999999
sS'ARG-TYR'
p15
F-1.506
sS'GLU-LYS'
p16
F-1.373
sS'ILE-HIS'
p17
F0.021999999999999999
sS'LEU-MET'
p18
F-0.19400000000000001
sS'GLU-HIS'
p19
F-1.415
sS'GLY-THR'
p20
F0.091999999999999998
sS'ARG-GLU'
p21
F-1.663
sS'PHE-ASN'
p22
F-0.50800000000000001
sS'ASN-MET'
p23
F-0.253
sS'PRO-THR'
p24
F-0.438
sS'TYR-GLN'
p25
F-0.98799999999999999
sS'ARG-GLY'
p26
F-0.747
sS'VAL-THR'
p27
F0.29799999999999999
sS'ASP-ILE'
p28
F0.26000000000000001
sS'THR-HIS'
p29
F-0.45800000000000002
sS'TYR-GLU'
p30
F-0.91600000000000004
sS'ARG-GLN'
p31
F-1.325
sS'TYR-GLY'
p32
F-0.54900000000000004
sS'PHE-ASP'
p33
F-0.25800000000000001
sS'CYS-ARG'
p34
F0.20999999999999999
sS'GLY-ASN'
p35
F-0.47099999999999997
sS'VAL-LYS'
p36
F0.45800000000000002
sS'LEU-ILE'
p37
F0.071999999999999995
sS'GLN-LEU'
p38
F-0.38300000000000001
sS'GLU-MET'
p39
F-0.106
sS'ASP-THR'
p40
F-0.19400000000000001
sS'ASN-PHE'
p41
F-0.55800000000000005
sS'GLU-PRO'
p42
F-0.46500000000000002
sS'TYR-LEU'
p43
F-0.38800000000000001
sS'LYS-ARG'
p44
F-0.67300000000000004
sS'GLY-ASP'
p45
F0.115
sS'PRO-GLN'
p46
F-1.081
sS'CYS-MET'
p47
F0.124
sS'HIS-ARG'
p48
F-0.99199999999999999
sS'GLU-THR'
p49
F-0.498
sS'ILE-THR'
p50
F0.041000000000000002
sS'SER-PRO'
p51
F-0.53000000000000003
sS'GLY-CYS'
p52
F0.182
sS'ARG-LEU'
p53
F-0.59999999999999998
sS'PRO-GLU'
p54
F-0.77900000000000003
sS'ASP-LEU'
p55
F0.20499999999999999
sS'PHE-VAL'
p56
F0.153
sS'ASN-VAL'
p57
F0.01
sS'ALA-MET'
p58
F0.033000000000000002
sS'LEU-PRO'
p59
F-0.124
sS'LEU-SER'
p60
F0.439
sS'ASN-ARG'
p61
F-1.0429999999999999
sS'SER-THR'
p62
F0.057000000000000002
sS'LYS-VAL'
p63
F0.46500000000000002
sS'LYS-GLN'
p64
F-0.98899999999999999
sS'GLN-VAL'
p65
F0.215
sS'TYR-PHE'
p66
F-0.70099999999999996
sS'ASP-VAL'
p67
F0.58399999999999996
sS'ASN-GLY'
p68
F-0.40000000000000002
sS'ARG-PHE'
p69
F-0.77600000000000002
sS'SER-HIS'
p70
F-0.621
sS'ALA-ILE'
p71
F0.317
sS'ASN-GLU'
p72
F-0.82799999999999996
sS'CYS-GLN'
p73
F-0.098000000000000004
sS'TYR-PRO'
p74
F-0.97799999999999998
sS'LYS-GLU'
p75
F-1.24
sS'CYS-GLU'
p76
F0.72399999999999998
sS'ASN-GLN'
p77
F-1.157
sS'CYS-GLY'
p78
F0.82099999999999995
sS'GLN-SER'
p79
F-0.74399999999999999
sS'HIS-LYS'
p80
F-0.64400000000000002
sS'LYS-GLY'
p81
F-0.34599999999999997
sS'VAL-MET'
p82
F-0.065000000000000002
sS'GLU-GLY'
p83
F-0.058999999999999997
sS'THR-SER'
p84
F0.060999999999999999
sS'TYR-THR'
p85
F-0.628
sS'PRO-PRO'
p86
F-1.1279999999999999
sS'ILE-PHE'
p87
F-0.51600000000000001
sS'PHE-LEU'
p88
F-0.57399999999999995
sS'GLU-GLU'
p89
F-0.754
sS'SER-ARG'
p90
F-0.83599999999999997
sS'GLY-ALA'
p91
F0.40200000000000002
sS'TYR-ASN'
p92
F-1.0700000000000001
sS'GLU-GLN'
p93
F-0.65700000000000003
sS'TRP-ARG'
p94
F-1.1930000000000001
sS'LEU-GLU'
p95
F0.47699999999999998
sS'LEU-GLY'
p96
F0.70499999999999996
sS'LYS-SER'
p97
F-0.56599999999999995
sS'MET-VAL'
p98
F0.21099999999999999
sS'SER-ALA'
p99
F0.26000000000000001
sS'PRO-HIS'
p100
F-0.75800000000000001
sS'MET-THR'
p101
F-0.070999999999999994
sS'ALA-PHE'
p102
F-0.18099999999999999
sS'MET-PRO'
p103
F-0.29699999999999999
sS'GLY-SER'
p104
F0.010999999999999999
sS'LEU-GLN'
p105
F-0.35999999999999999
sS'VAL-LEU'
p106
F0.20699999999999999
sS'LEU-CYS'
p107
F0.86599999999999999
sS'LYS-TYR'
p108
F-0.93200000000000005
sS'ASP-ALA'
p109
F0.35499999999999998
sS'ILE-LEU'
p110
F-0.36699999999999999
sS'TRP-VAL'
p111
F-0.57799999999999996
sS'PHE-PRO'
p112
F-0.78800000000000003
sS'ALA-ALA'
p113
F-0.17199999999999999
sS'ARG-TRP'
p114
F-1.3460000000000001
sS'MET-GLN'
p115
F-0.099000000000000005
sS'ILE-LYS'
p116
F-0.048000000000000001
sS'MET-ARG'
p117
F-0.375
sS'ALA-CYS'
p118
F0.65600000000000003
sS'THR-ARG'
p119
F-0.28000000000000003
sS'CYS-ILE'
p120
F0.20799999999999999
sS'LEU-ASN'
p121
F-0.27300000000000002
sS'LEU-ASP'
p122
F0.31
sS'PHE-TRP'
p123
F-0.65200000000000002
sS'MET-GLY'
p124
F0.497
sS'THR-PHE'
p125
F-0.40300000000000002
sS'MET-GLU'
p126
F0.017000000000000001
sS'THR-TRP'
p127
F0.055
sS'THR-TYR'
p128
F-0.89800000000000002
sS'CYS-VAL'
p129
F0.33100000000000002
sS'ARG-ALA'
p130
F-0.38300000000000001
sS'ALA-TYR'
p131
F-0.42499999999999999
sS'ASP-PRO'
p132
F-0.442
sS'ARG-CYS'
p133
F0.17799999999999999
sS'GLN-ARG'
p134
F-1.28
sS'HIS-TRP'
p135
F-0.67500000000000004
sS'PRO-SER'
p136
F-0.23999999999999999
sS'VAL-VAL'
p137
F-0.17599999999999999
sS'LEU-LYS'
p138
F0.058999999999999997
sS'GLY-LYS'
p139
F-0.16700000000000001
sS'CYS-ASN'
p140
F-0.16200000000000001
sS'GLY-TRP'
p141
F-0.14299999999999999
sS'THR-CYS'
p142
F0.86299999999999999
sS'LYS-LYS'
p143
F-0.46000000000000002
sS'CYS-ASP'
p144
F0.59299999999999997
sS'TYR-ASP'
p145
F-0.91400000000000003
sS'VAL-PRO'
p146
F0.044999999999999998
sS'THR-VAL'
p147
F0.23999999999999999
sS'ASP-TYR'
p148
F-0.92600000000000005
sS'PRO-CYS'
p149
F0.16800000000000001
sS'VAL-SER'
p150
F0.41299999999999998
sS'ARG-HIS'
p151
F-1.272
sS'CYS-PRO'
p152
F0.025999999999999999
sS'MET-LYS'
p153
F-0.51700000000000002
sS'ALA-SER'
p154
F0.36499999999999999
sS'TYR-SER'
p155
F-0.57399999999999995
sS'GLY-ARG'
p156
F-0.51900000000000002
sS'GLN-ALA'
p157
F-0.14699999999999999
sS'MET-LEU'
p158
F-0.31
sS'ASN-HIS'
p159
F-0.89000000000000001
sS'VAL-CYS'
p160
F0.26900000000000002
sS'GLN-TYR'
p161
F-1.0089999999999999
sS'GLN-PHE'
p162
F-0.53000000000000003
sS'ILE-ASN'
p163
F0.11700000000000001
sS'GLU-ASN'
p164
F-0.90200000000000002
sS'CYS-ALA'
p165
F0.38300000000000001
sS'ASN-ASP'
p166
F-0.63400000000000001
sS'ASN-PRO'
p167
F-0.94299999999999995
sS'PRO-ARG'
p168
F-1.05
sS'LYS-TRP'
p169
F-0.66400000000000003
sS'ASN-ASN'
p170
F-1.667
sS'ASN-THR'
p171
F-0.51500000000000001
sS'THR-ALA'
p172
F0.497
sS'LYS-ALA'
p173
F0.247
sS'LYS-PRO'
p174
F-0.26600000000000001
sS'SER-GLN'
p175
F-0.64800000000000002
sS'ILE-VAL'
p176
F0.26500000000000001
sS'ASP-ARG'
p177
F-1.776
sS'ASP-MET'
p178
F0.106
sS'CYS-TYR'
p179
F-0.070999999999999994
sS'PRO-TRP'
p180
F-0.621
sS'THR-GLU'
p181
F-0.46500000000000002
sS'TRP-ALA'
p182
F-0.157
sS'ILE-CYS'
p183
F0.313
sS'LYS-ILE'
p184
F0.26600000000000001
sS'GLN-CYS'
p185
F0.23999999999999999
sS'TYR-ALA'
p186
F-0.012999999999999999
sS'ARG-ASP'
p187
F-1.8759999999999999
sS'SER-GLU'
p188
F-0.66100000000000003
sS'TRP-HIS'
p189
F-0.71099999999999997
sS'ALA-ASN'
p190
F-0.128
sS'GLU-CYS'
p191
F0.86699999999999999
sS'PRO-MET'
p192
F-0.36899999999999999
sS'TYR-HIS'
p193
F-1.0680000000000001
sS'PHE-MET'
p194
F-0.83399999999999996
sS'GLU-TYR'
p195
F-1.018
sS'SER-TRP'
p196
F-0.30599999999999999
sS'PHE-ARG'
p197
F-0.84799999999999998
sS'GLY-ILE'
p198
F0.66900000000000004
sS'TYR-VAL'
p199
F0.13400000000000001
sS'ASN-TYR'
p200
F-0.83599999999999997
sS'SER-ILE'
p201
F0.251
sS'GLN-PRO'
p202
F-0.92700000000000005
sS'PHE-TYR'
p203
F-0.65700000000000003
sS'ALA-VAL'
p204
F0.44600000000000001
sS'HIS-HIS'
p205
F-2.8929999999999998
sS'THR-ASN'
p206
F-0.63
sS'CYS-LEU'
p207
F1.121
sS'LYS-MET'
p208
F-0.23599999999999999
sS'LYS-ASP'
p209
F-1.169
sS'HIS-ASN'
p210
F-0.94499999999999995
sS'ILE-GLN'
p211
F-0.087999999999999995
sS'VAL-HIS'
p212
F-0.23200000000000001
sS'ALA-LEU'
p213
F0.20300000000000001
sS'HIS-ASP'
p214
F-1.173
sS'ILE-TYR'
p215
F-0.48799999999999999
sS'ILE-GLU'
p216
F0.13600000000000001
sS'ASN-TRP'
p217
F-0.54800000000000004
sS'ILE-GLY'
p218
F0.83399999999999996
sS'ASN-CYS'
p219
F-0.124
sS'GLU-SER'
p220
F-0.51300000000000001
sS'ALA-TRP'
p221
F-0.29099999999999998
sS'HIS-CYS'
p222
F-0.17999999999999999
sS'HIS-MET'
p223
F-0.16600000000000001
sS'ILE-PRO'
p224
F-0.28899999999999998
sS'LYS-PHE'
p225
F-0.222
sS'TRP-PRO'
p226
F-0.53400000000000003
sS'GLU-TRP'
p227
F-0.63
sS'PHE-HIS'
p228
F-0.443
sS'GLY-TYR'
p229
F-0.56200000000000006
sS'SER-GLY'
p230
F-0.056000000000000001
sS'CYS-TRP'
p231
F0.72999999999999998
sS'ASP-LYS'
p232
F-1.135
sS'ASN-ILE'
p233
F-0.16200000000000001
sS'HIS-SER'
p234
F-0.78000000000000003
sS'LYS-CYS'
p235
F0.24399999999999999
sS'GLY-PHE'
p236
F0.54900000000000004
sS'GLY-LEU'
p237
F0.57699999999999996
sS'MET-SER'
p238
F0.14399999999999999
sS'VAL-ALA'
p239
F0.56000000000000005
sS'SER-LEU'
p240
F0.33900000000000002
sS'TRP-LYS'
p241
F-0.42599999999999999
sS'VAL-TYR'
p242
F0.216
sS'VAL-PHE'
p243
F-0.20999999999999999
sS'ARG-THR'
p244
F-0.35699999999999998
sS'TYR-TRP'
p245
F-0.91700000000000004
sS'GLN-GLN'
p246
F-1.915
sS'GLU-PHE'
p247
F-0.28299999999999997
sS'VAL-ILE'
p248
F0.19600000000000001
sS'HIS-GLN'
p249
F-0.91300000000000003
sS'GLN-GLY'
p250
F-0.60099999999999998
sS'PHE-ALA'
p251
F-0.17000000000000001
sS'HIS-GLU'
p252
F-1.2769999999999999
sS'ARG-PRO'
p253
F-1.2210000000000001
sS'HIS-GLY'
p254
F-0.25800000000000001
sS'SER-ASN'
p255
F-0.52200000000000002
sS'ALA-THR'
p256
F0.48799999999999999
sS'GLN-GLU'
p257
F-0.97799999999999998
sS'GLN-LYS'
p258
F-0.99099999999999999
sS'CYS-HIS'
p259
F0.060999999999999999
sS'GLN-ASP'
p260
F-0.57599999999999996
sS'LEU-HIS'
p261
F-0.48499999999999999
sS'SER-LYS'
p262
F-0.56699999999999995
sS'TRP-LEU'
p263
F-0.44900000000000001
sS'CYS-SER'
p264
F0.64400000000000002
sS'LYS-THR'
p265
F0.050999999999999997
sS'HIS-LEU'
p266
F-0.19800000000000001
sS'LEU-ARG'
p267
F-0.42799999999999999
sS'GLY-VAL'
p268
F0.52400000000000002
sS'GLN-ASN'
p269
F-1.0129999999999999
sS'TYR-ARG'
p270
F-1.337
sS'PRO-TYR'
p271
F-1.0349999999999999
sS'ASP-PHE'
p272
F-0.098000000000000004
sS'TRP-CYS'
p273
F1.0429999999999999
sS'ASN-LEU'
p274
F-0.066000000000000003
sS'SER-MET'
p275
F0.26800000000000002
sS'HIS-ILE'
p276
F-0.182
sS'SER-TYR'
p277
F-0.55400000000000005
sS'MET-TYR'
p278
F-0.90100000000000002
sS'GLU-ILE'
p279
F0.23100000000000001
sS'PHE-CYS'
p280
F-0.28699999999999998
sS'PRO-LEU'
p281
F-0.084000000000000005
sS'GLY-MET'
p282
F0.072999999999999995
sS'ARG-ILE'
p283
F-0.20699999999999999
sS'HIS-THR'
p284
F-0.54100000000000004
sS'THR-GLN'
p285
F-0.82699999999999996
sS'TRP-THR'
p286
F-0.21299999999999999
sS'LYS-LEU'
p287
F0.42799999999999999
sS'THR-GLY'
p288
F0.029999999999999999
sS'ASP-TRP'
p289
F0.086999999999999994
sS'TYR-MET'
p290
F-0.70899999999999996
sS'PHE-ILE'
p291
F-0.372
sS'PRO-VAL'
p292
F0.27200000000000002
sS'MET-ASN'
p293
F-0.35699999999999998
sS'LEU-TYR'
p294
F-0.41299999999999998
sS'PHE-PHE'
p295
F-1.587
sS'CYS-PHE'
p296
F0.16600000000000001
sS'TRP-ILE'
p297
F-0.39100000000000001
sS'PRO-ASN'
p298
F-0.68799999999999994
sS'CYS-CYS'
p299
F-3.2749999999999999
sS'SER-ASP'
p300
F-0.28799999999999998
sS'ARG-MET'
p301
F-0.28000000000000003
sS'SER-PHE'
p302
F-0.041000000000000002
sS'SER-SER'
p303
F-0.75700000000000001
sS'ASN-LYS'
p304
F-0.27000000000000002
sS'CYS-THR'
p305
F1.083
sS'ILE-TRP'
p306
F-0.76200000000000001
sS'PRO-ASP'
p307
F-0.496
sS'THR-ASP'
p308
F-0.23200000000000001
sS'SER-CYS'
p309
F0.39700000000000002
sS'MET-ASP'
p310
F0.151
sS'GLN-MET'
p311
F-0.38700000000000001
sS'MET-TRP'
p312
F-0.67500000000000004
sS'ARG-VAL'
p313
F-0.375
sS'GLY-GLN'
p314
F-0.65400000000000003
sS'THR-LYS'
p315
F-0.017000000000000001
sS'TRP-MET'
p316
F-0.63700000000000001
sS'ARG-ARG'
p317
F-2.1030000000000002
sS'ILE-ASP'
p318
F0.32300000000000001
sS'GLY-GLY'
p319
F-0.627
sS'GLY-GLU'
p320
F0.32000000000000001
sS'ALA-ARG'
p321
F-0.29299999999999998
sS'GLU-ARG'
p322
F-1.7070000000000001
sS'HIS-VAL'
p323
F0.063
sS'VAL-ARG'
p324
F-0.38800000000000001
sS'ASN-SER'
p325
F-0.5
sS'ALA-LYS'
p326
F0.42299999999999999
sS'VAL-GLN'
p327
F-0.182
sS'TRP-ASN'
p328
F-0.83499999999999996
sS'TYR-ILE'
p329
F-0.58199999999999996
sS'TRP-GLY'
p330
F-0.34799999999999998
sS'PRO-PHE'
p331
F-0.79000000000000004
sS'GLY-HIS'
p332
F-0.40300000000000002
sS'PHE-SER'
p333
F-0.069000000000000006
sS'TRP-ASP'
p334
F-0.44500000000000001
sS'TRP-GLN'
p335
F-0.871
sS'LEU-ALA'
p336
F0.25700000000000001
sS'VAL-GLU'
p337
F0.41899999999999998
sS'ALA-HIS'
p338
F-0.29599999999999999
sS'ARG-ASN'
p339
F-1.3300000000000001
sS'LEU-THR'
p340
F0.495
sS'TYR-CYS'
p341
F0.20699999999999999
sS'THR-THR'
p342
F-0.70499999999999996
sS'THR-LEU'
p343
F-0.159
sS'VAL-ASN'
p344
F-0.0089999999999999993
sS'LEU-TRP'
p345
F-0.41699999999999998
sS'GLU-ASP'
p346
F-0.317
sS'ILE-SER'
p347
F0.28999999999999998
sS'ILE-ARG'
p348
F-0.45200000000000001
sS'TRP-GLU'
p349
F-0.54500000000000004
sS'ILE-MET'
p350
F0.10000000000000001
sS'MET-PHE'
p351
F-0.60399999999999998
sS'PRO-ALA'
p352
F-0.28399999999999997
sS'PRO-GLY'
p353
F-0.20599999999999999
sS'GLN-THR'
p354
F-0.64600000000000002
sS'MET-ALA'
p355
F0.501
sS'TRP-SER'
p356
F-0.36899999999999999
sS'ASP-HIS'
p357
F-1.095
sS'ARG-SER'
p358
F-0.876
sS'GLN-HIS'
p359
F-0.95399999999999996
sS'HIS-PHE'
p360
F-0.55400000000000005
sS'LEU-LEU'
p361
F-0.32800000000000001
sS'ALA-GLN'
p362
F-0.38800000000000001
sS'ASP-ASN'
p363
F-0.64900000000000002
sS'SER-VAL'
p364
F0.50900000000000001
sS'MET-ILE'
p365
F0.26200000000000001
sS'ALA-PRO'
p366
F0.46600000000000003
sS'ASP-ASP'
p367
F-0.83299999999999996
sS'ALA-GLY'
p368
F0.44400000000000001
sS'TRP-TRP'
p369
F-1.986
sS'MET-CYS'
p370
F0.95499999999999996
sS'ALA-GLU'
p371
F0.39100000000000001
sS'THR-PRO'
p372
F-0.53800000000000003
sS'HIS-ALA'
p373
F-0.104
sS'GLN-ILE'
p374
F-0.57699999999999996
sS'GLU-VAL'
p375
F0.13400000000000001
sS'LYS-ASN'
p376
F-0.28199999999999997
sS'ASN-ALA'
p377
F-0.127
sS'THR-ILE'
p378
F-0.072999999999999995
sS'ASP-CYS'
p379
F1.0509999999999999
sS'PRO-LYS'
p380
F-0.51000000000000001
sS'TYR-TYR'
p381
F-1.635
sS'ARG-LYS'
p382
F-0.76100000000000001
sS'ILE-ALA'
p383
F0.56799999999999995
sS'ASP-SER'
p384
F-0.47099999999999997
sS'CYS-LYS'
p385
F0.42299999999999999
sS'GLU-ALA'
p386
F0.10199999999999999
sS'PHE-GLU'
p387
F-0.20200000000000001
sS'GLU-LEU'
p388
F0.217
sS'PHE-GLY'
p389
F0.25
sS'LYS-HIS'
p390
F-1.0089999999999999
sS'HIS-PRO'
p391
F-0.95699999999999996
sS'ILE-ILE'
p392
F-0.42499999999999999
sS'MET-HIS'
p393
F-0.106
sS'VAL-GLY'
p394
F0.64300000000000002
sS'THR-MET'
p395
F-0.021999999999999999
sS'PHE-THR'
p396
F-0.33100000000000002
sS'VAL-TRP'
p397
F0.074999999999999997
sS'PHE-LYS'
p398
F-0.216
sS'GLY-PRO'
p399
F0.056000000000000001
sS'PHE-GLN'
p400
F-0.46500000000000002
sS'LEU-PHE'
p401
F-0.51800000000000002
s.