(dp1
S'MET-MET'
p2
F-3.617
sS'PRO-ILE'
p3
F-2.2050000000000001
sS'TYR-LYS'
p4
F-2.6819999999999999
sS'VAL-ASP'
p5
F-1.381
sS'ASP-GLN'
p6
F-2.1429999999999998
sS'HIS-TYR'
p7
F-2.8519999999999999
sS'ASP-GLU'
p8
F-1.982
sS'ALA-ASP'
p9
F-1.262
sS'ASP-GLY'
p10
F-1.2370000000000001
sS'LEU-VAL'
p11
F-1.4099999999999999
sS'TRP-TYR'
p12
F-2.5880000000000001
sS'GLN-TRP'
p13
F-2.3460000000000001
sS'TRP-PHE'
p14
F-2.5880000000000001
sS'ARG-TYR'
p15
F-3.101
sS'GLU-LYS'
p16
F-2.9710000000000001
sS'ILE-HIS'
p17
F-1.776
sS'LEU-MET'
p18
F-2.0089999999999999
sS'GLU-HIS'
p19
F-2.9199999999999999
sS'GLY-THR'
p20
F-1.399
sS'ARG-GLU'
p21
F-3.169
sS'PHE-ASN'
p22
F-2.1299999999999999
sS'ASN-MET'
p23
F-1.8720000000000001
sS'PRO-THR'
p24
F-2.1139999999999999
sS'TYR-GLN'
p25
F-2.657
sS'ARG-GLY'
p26
F-2.3759999999999999
sS'VAL-THR'
p27
F-1.389
sS'ASP-ILE'
p28
F-1.448
sS'THR-HIS'
p29
F-2.0539999999999998
sS'TYR-GLU'
p30
F-2.5870000000000002
sS'ARG-GLN'
p31
F-2.9790000000000001
sS'TYR-GLY'
p32
F-2.2120000000000002
sS'PHE-ASP'
p33
F-2.0249999999999999
sS'CYS-ARG'
p34
F-1.4990000000000001
sS'GLY-ASN'
p35
F-1.917
sS'VAL-LYS'
p36
F-1.329
sS'LEU-ILE'
p37
F-1.776
sS'GLN-LEU'
p38
F-2.1259999999999999
sS'GLU-MET'
p39
F-1.77
sS'ASP-THR'
p40
F-1.649
sS'ASN-PHE'
p41
F-2.1890000000000001
sS'GLU-PRO'
p42
F-2.137
sS'TYR-LEU'
p43
F-2.2389999999999999
sS'LYS-ARG'
p44
F-2.5110000000000001
sS'GLY-ASP'
p45
F-1.3129999999999999
sS'PRO-GLN'
p46
F-2.7109999999999999
sS'CYS-MET'
p47
F-1.7
sS'HIS-ARG'
p48
F-2.6930000000000001
sS'GLU-THR'
p49
F-2.0110000000000001
sS'ILE-THR'
p50
F-1.758
sS'SER-PRO'
p51
F-2.1219999999999999
sS'GLY-CYS'
p52
F-1.1519999999999999
sS'ARG-LEU'
p53
F-2.4279999999999999
sS'PRO-GLU'
p54
F-2.464
sS'ASP-LEU'
p55
F-1.512
sS'PHE-VAL'
p56
F-1.7110000000000001
sS'ASN-VAL'
p57
F-1.5600000000000001
sS'ALA-MET'
p58
F-1.738
sS'LEU-PRO'
p59
F-1.927
sS'LEU-SER'
p60
F-1.3029999999999999
sS'ASN-ARG'
p61
F-2.6840000000000002
sS'SER-THR'
p62
F-1.355
sS'LYS-VAL'
p63
F-1.29
sS'LYS-GLN'
p64
F-2.665
sS'GLN-VAL'
p65
F-1.5089999999999999
sS'TYR-PHE'
p66
F-2.5470000000000002
sS'ASP-VAL'
p67
F-1.075
sS'ASN-GLY'
p68
F-1.778
sS'ARG-PHE'
p69
F-2.3620000000000001
sS'SER-HIS'
p70
F-2.1269999999999998
sS'ALA-ILE'
p71
F-1.4950000000000001
sS'ASN-GLU'
p72
F-2.302
sS'CYS-GLN'
p73
F-1.8340000000000001
sS'TYR-PRO'
p74
F-2.673
sS'LYS-GLU'
p75
F-2.8370000000000002
sS'CYS-GLU'
p76
F-0.73599999999999999
sS'ASN-GLN'
p77
F-2.6600000000000001
sS'CYS-GLY'
p78
F-0.45200000000000001
sS'GLN-SER'
p79
F-2.2770000000000001
sS'HIS-LYS'
p80
F-2.343
sS'LYS-GLY'
p81
F-1.923
sS'VAL-MET'
p82
F-1.9199999999999999
sS'GLU-GLY'
p83
F-1.585
sS'THR-SER'
p84
F-1.369
sS'TYR-THR'
p85
F-2.5049999999999999
sS'PRO-PRO'
p86
F-3.3759999999999999
sS'ILE-PHE'
p87
F-2.403
sS'PHE-LEU'
p88
F-2.508
sS'GLU-GLU'
p89
F-2.9060000000000001
sS'SER-ARG'
p90
F-2.4950000000000001
sS'GLY-ALA'
p91
F-0.94599999999999995
sS'TYR-ASN'
p92
F-2.7109999999999999
sS'GLU-GLN'
p93
F-2.2160000000000002
sS'TRP-ARG'
p94
F-2.746
sS'LEU-GLU'
p95
F-1.286
sS'LEU-GLY'
p96
F-0.93500000000000005
sS'LYS-SER'
p97
F-2.21
sS'MET-VAL'
p98
F-1.6180000000000001
sS'SER-ALA'
p99
F-1.087
sS'PRO-HIS'
p100
F-2.423
sS'MET-THR'
p101
F-1.7869999999999999
sS'ALA-PHE'
p102
F-1.9430000000000001
sS'MET-PRO'
p103
F-2.0739999999999998
sS'GLY-SER'
p104
F-1.3120000000000001
sS'LEU-GLN'
p105
F-2.121
sS'VAL-LEU'
p106
F-1.673
sS'LEU-CYS'
p107
F-0.95199999999999996
sS'LYS-TYR'
p108
F-2.7130000000000001
sS'ASP-ALA'
p109
F-1.2030000000000001
sS'ILE-LEU'
p110
F-2.234
sS'TRP-VAL'
p111
F-2.5070000000000001
sS'PHE-PRO'
p112
F-2.5249999999999999
sS'ALA-ALA'
p113
F-2.1560000000000001
sS'ARG-TRP'
p114
F-2.8879999999999999
sS'MET-GLN'
p115
F-1.829
sS'ILE-LYS'
p116
F-1.9259999999999999
sS'MET-ARG'
p117
F-2.069
sS'ALA-CYS'
p118
F-0.81899999999999995
sS'THR-ARG'
p119
F-1.984
sS'CYS-ILE'
p120
F-1.6399999999999999
sS'LEU-ASN'
p121
F-1.9299999999999999
sS'LEU-ASP'
p122
F-1.4039999999999999
sS'PHE-TRP'
p123
F-2.5059999999999998
sS'MET-GLY'
p124
F-1.0209999999999999
sS'THR-PHE'
p125
F-2.21
sS'MET-GLU'
p126
F-1.5880000000000001
sS'THR-TRP'
p127
F-1.875
sS'THR-TYR'
p128
F-2.7250000000000001
sS'CYS-VAL'
p129
F-1.369
sS'ARG-ALA'
p130
F-2.0600000000000001
sS'ALA-TYR'
p131
F-2.2290000000000001
sS'ASP-PRO'
p132
F-2.0920000000000001
sS'ARG-CYS'
p133
F-1.641
sS'GLN-ARG'
p134
F-2.8929999999999998
sS'HIS-TRP'
p135
F-2.2429999999999999
sS'PRO-SER'
p136
F-1.8149999999999999
sS'VAL-VAL'
p137
F-2.4910000000000001
sS'LEU-LYS'
p138
F-1.792
sS'GLY-LYS'
p139
F-1.7350000000000001
sS'CYS-ASN'
p140
F-1.651
sS'GLY-TRP'
p141
F-1.782
sS'THR-CYS'
p142
F-0.75700000000000001
sS'LYS-LYS'
p143
F-2.8929999999999998
sS'CYS-ASP'
p144
F-1.0600000000000001
sS'TYR-ASP'
p145
F-2.556
sS'VAL-PRO'
p146
F-1.712
sS'THR-VAL'
p147
F-1.4330000000000001
sS'ASP-TYR'
p148
F-2.593
sS'PRO-CYS'
p149
F-1.494
sS'VAL-SER'
p150
F-1.1200000000000001
sS'ARG-HIS'
p151
F-2.9500000000000002
sS'CYS-PRO'
p152
F-1.7130000000000001
sS'MET-LYS'
p153
F-2.2490000000000001
sS'ALA-SER'
p154
F-0.97399999999999998
sS'TYR-SER'
p155
F-2.2930000000000001
sS'GLY-ARG'
p156
F-2.1320000000000001
sS'GLN-ALA'
p157
F-1.7949999999999999
sS'MET-LEU'
p158
F-2.1469999999999998
sS'ASN-HIS'
p159
F-2.423
sS'VAL-CYS'
p160
F-1.5229999999999999
sS'GLN-TYR'
p161
F-2.7320000000000002
sS'GLN-PHE'
p162
F-2.2450000000000001
sS'ILE-ASN'
p163
F-1.518
sS'GLU-ASN'
p164
F-2.403
sS'CYS-ALA'
p165
F-1.1699999999999999
sS'ASN-ASP'
p166
F-2.0880000000000001
sS'ASN-PRO'
p167
F-2.6419999999999999
sS'PRO-ARG'
p168
F-2.798
sS'LYS-TRP'
p169
F-2.3159999999999998
sS'ASN-ASN'
p170
F-3.6989999999999998
sS'ASN-THR'
p171
F-2.052
sS'THR-ALA'
p172
F-1.1080000000000001
sS'LYS-ALA'
p173
F-1.3779999999999999
sS'LYS-PRO'
p174
F-2.085
sS'SER-GLN'
p175
F-2.1880000000000002
sS'ILE-VAL'
p176
F-1.5449999999999999
sS'ASP-ARG'
p177
F-3.2450000000000001
sS'ASP-MET'
p178
F-1.4890000000000001
sS'CYS-TYR'
p179
F-1.968
sS'PRO-TRP'
p180
F-2.2719999999999998
sS'THR-GLU'
p181
F-2.0150000000000001
sS'TRP-ALA'
p182
F-2.0550000000000002
sS'ILE-CYS'
p183
F-1.4039999999999999
sS'LYS-ILE'
p184
F-1.556
sS'GLN-CYS'
p185
F-1.488
sS'TYR-ALA'
p186
F-1.825
sS'ARG-ASP'
p187
F-3.3799999999999999
sS'SER-GLU'
p188
F-2.1200000000000001
sS'TRP-HIS'
p189
F-2.3839999999999999
sS'ALA-ASN'
p190
F-1.647
sS'GLU-CYS'
p191
F-0.71599999999999997
sS'PRO-MET'
p192
F-2.1629999999999998
sS'TYR-HIS'
p193
F-2.6720000000000002
sS'PHE-MET'
p194
F-2.6509999999999998
sS'GLU-TYR'
p195
F-2.6509999999999998
sS'SER-TRP'
p196
F-2.0870000000000002
sS'PHE-ARG'
p197
F-2.476
sS'GLY-ILE'
p198
F-0.84599999999999997
sS'TYR-VAL'
p199
F-1.7150000000000001
sS'ASN-TYR'
p200
F-2.4590000000000001
sS'SER-ILE'
p201
F-1.383
sS'GLN-PRO'
p202
F-2.629
sS'PHE-TYR'
p203
F-2.5310000000000001
sS'ALA-VAL'
p204
F-1.1850000000000001
sS'HIS-HIS'
p205
F-4.9080000000000004
sS'THR-ASN'
p206
F-2.1760000000000002
sS'CYS-LEU'
p207
F-0.57899999999999996
sS'LYS-MET'
p208
F-1.966
sS'LYS-ASP'
p209
F-2.698
sS'HIS-ASN'
p210
F-2.4399999999999999
sS'ILE-GLN'
p211
F-1.802
sS'VAL-HIS'
p212
F-1.9490000000000001
sS'ALA-LEU'
p213
F-1.617
sS'HIS-ASP'
p214
F-2.6309999999999998
sS'ILE-TYR'
p215
F-2.3180000000000001
sS'ILE-GLU'
p216
F-1.6459999999999999
sS'ASN-TRP'
p217
F-2.1600000000000001
sS'ILE-GLY'
p218
F-0.74199999999999999
sS'ASN-CYS'
p219
F-1.6679999999999999
sS'GLU-SER'
p220
F-1.921
sS'ALA-TRP'
p221
F-2.1549999999999998
sS'HIS-CYS'
p222
F-1.869
sS'HIS-MET'
p223
F-1.909
sS'ILE-PRO'
p224
F-2.1309999999999998
sS'LYS-PHE'
p225
F-1.887
sS'TRP-PRO'
p226
F-2.1880000000000002
sS'GLU-TRP'
p227
F-2.359
sS'PHE-HIS'
p228
F-2.2029999999999998
sS'GLY-TYR'
p229
F-2.2440000000000002
sS'SER-GLY'
p230
F-1.3680000000000001
sS'CYS-TRP'
p231
F-0.89900000000000002
sS'ASP-LYS'
p232
F-2.694
sS'ASN-ILE'
p233
F-1.806
sS'HIS-SER'
p234
F-2.3690000000000002
sS'LYS-CYS'
p235
F-1.385
sS'GLY-PHE'
p236
F-1.1060000000000001
sS'GLY-LEU'
p237
F-1.05
sS'MET-SER'
p238
F-1.526
sS'VAL-ALA'
p239
F-1.0920000000000001
sS'SER-LEU'
p240
F-1.3999999999999999
sS'TRP-LYS'
p241
F-2.0990000000000002
sS'VAL-TYR'
p242
F-1.5700000000000001
sS'VAL-PHE'
p243
F-2.0699999999999998
sS'ARG-THR'
p244
F-2.0619999999999998
sS'TYR-TRP'
p245
F-2.8380000000000001
sS'GLN-GLN'
p246
F-3.9689999999999999
sS'GLU-PHE'
p247
F-2.0299999999999998
sS'VAL-ILE'
p248
F-1.6639999999999999
sS'HIS-GLN'
p249
F-2.5219999999999998
sS'GLN-GLY'
p250
F-2.1240000000000001
sS'PHE-ALA'
p251
F-1.9239999999999999
sS'HIS-GLU'
p252
F-2.806
sS'ARG-PRO'
p253
F-2.96
sS'HIS-GLY'
p254
F-1.7390000000000001
sS'SER-ASN'
p255
F-1.9159999999999999
sS'ALA-THR'
p256
F-1.083
sS'GLN-GLU'
p257
F-2.5630000000000002
sS'GLN-LYS'
p258
F-2.6920000000000002
sS'CYS-HIS'
p259
F-1.653
sS'GLN-ASP'
p260
F-2.1869999999999998
sS'LEU-HIS'
p261
F-2.3159999999999998
sS'SER-LYS'
p262
F-2.218
sS'TRP-LEU'
p263
F-2.46
sS'CYS-SER'
p264
F-0.78800000000000003
sS'LYS-THR'
p265
F-1.645
sS'HIS-LEU'
p266
F-1.9630000000000001
sS'LEU-ARG'
p267
F-2.274
sS'GLY-VAL'
p268
F-0.98099999999999998
sS'GLN-ASN'
p269
F-2.5579999999999998
sS'TYR-ARG'
p270
F-2.948
sS'PRO-TYR'
p271
F-2.7200000000000002
sS'ASP-PHE'
p272
F-1.897
sS'TRP-CYS'
p273
F-0.69699999999999995
sS'ASN-LEU'
p274
F-1.7130000000000001
sS'SER-MET'
p275
F-1.4199999999999999
sS'HIS-ILE'
p276
F-2.0139999999999998
sS'SER-TYR'
p277
F-2.2269999999999999
sS'MET-TYR'
p278
F-2.5699999999999998
sS'GLU-ILE'
p279
F-1.4810000000000001
sS'PHE-CYS'
p280
F-2.0459999999999998
sS'PRO-LEU'
p281
F-1.913
sS'GLY-MET'
p282
F-1.458
sS'ARG-ILE'
p283
F-2.077
sS'HIS-THR'
p284
F-2.1749999999999998
sS'THR-GLN'
p285
F-2.3650000000000002
sS'TRP-THR'
p286
F-2.0960000000000001
sS'LYS-LEU'
p287
F-1.389
sS'THR-GLY'
p288
F-1.478
sS'ASP-TRP'
p289
F-1.7889999999999999
sS'TYR-MET'
p290
F-2.4780000000000002
sS'PHE-ILE'
p291
F-2.298
sS'PRO-VAL'
p292
F-1.446
sS'MET-ASN'
p293
F-2.012
sS'LEU-TYR'
p294
F-2.2749999999999999
sS'PHE-PHE'
p295
F-3.8740000000000001
sS'CYS-PHE'
p296
F-1.6339999999999999
sS'TRP-ILE'
p297
F-2.3780000000000001
sS'PRO-ASN'
p298
F-2.2829999999999999
sS'CYS-CYS'
p299
F-4.8140000000000001
sS'SER-ASP'
p300
F-1.617
sS'ARG-MET'
p301
F-2.0139999999999998
sS'SER-PHE'
p302
F-1.8169999999999999
sS'SER-SER'
p303
F-2.641
sS'ASN-LYS'
p304
F-1.9419999999999999
sS'CYS-THR'
p305
F-0.57499999999999996
sS'ILE-TRP'
p306
F-2.7130000000000001
sS'PRO-ASP'
p307
F-2.1520000000000001
sS'THR-ASP'
p308
F-1.6870000000000001
sS'SER-CYS'
p309
F-1.0509999999999999
sS'MET-ASP'
p310
F-1.5940000000000001
sS'GLN-MET'
p311
F-2.153
sS'MET-TRP'
p312
F-2.3399999999999999
sS'ARG-VAL'
p313
F-2.1960000000000002
sS'GLY-GLN'
p314
F-2.169
sS'THR-LYS'
p315
F-1.7170000000000001
sS'TRP-MET'
p316
F-2.2730000000000001
sS'ARG-ARG'
p317
F-4.327
sS'ILE-ASP'
p318
F-1.419
sS'GLY-GLY'
p319
F-2.238
sS'GLY-GLU'
p320
F-1.173
sS'ALA-ARG'
p321
F-2.0150000000000001
sS'GLU-ARG'
p322
F-3.2309999999999999
sS'HIS-VAL'
p323
F-1.748
sS'VAL-ARG'
p324
F-2.1920000000000002
sS'ASN-SER'
p325
F-1.913
sS'ALA-LYS'
p326
F-1.2170000000000001
sS'VAL-GLN'
p327
F-1.9139999999999999
sS'TRP-ASN'
p328
F-2.4409999999999998
sS'TYR-ILE'
p329
F-2.415
sS'TRP-GLY'
p330
F-1.9690000000000001
sS'PRO-PHE'
p331
F-2.5099999999999998
sS'GLY-HIS'
p332
F-1.911
sS'PHE-SER'
p333
F-1.796
sS'TRP-ASP'
p334
F-2.3090000000000002
sS'TRP-GLN'
p335
F-2.5489999999999999
sS'LEU-ALA'
p336
F-1.538
sS'VAL-GLU'
p337
F-1.2869999999999999
sS'ALA-HIS'
p338
F-1.8700000000000001
sS'ARG-ASN'
p339
F-2.952
sS'LEU-THR'
p340
F-1.3029999999999999
sS'TYR-CYS'
p341
F-1.706
sS'THR-THR'
p342
F-2.8290000000000002
sS'THR-LEU'
p343
F-1.9770000000000001
sS'VAL-ASN'
p344
F-1.611
sS'LEU-TRP'
p345
F-2.415
sS'GLU-ASP'
p346
F-1.8420000000000001
sS'ILE-SER'
p347
F-1.3620000000000001
sS'ILE-ARG'
p348
F-2.3159999999999998
sS'TRP-GLU'
p349
F-2.2469999999999999
sS'ILE-MET'
p350
F-1.756
sS'MET-PHE'
p351
F-2.4039999999999999
sS'PRO-ALA'
p352
F-1.893
sS'PRO-GLY'
p353
F-1.7030000000000001
sS'GLN-THR'
p354
F-2.218
sS'MET-ALA'
p355
F-1.2070000000000001
sS'TRP-SER'
p356
F-2.0750000000000002
sS'ASP-HIS'
p357
F-2.6070000000000002
sS'ARG-SER'
p358
F-2.4900000000000002
sS'GLN-HIS'
p359
F-2.5099999999999998
sS'HIS-PHE'
p360
F-2.29
sS'LEU-LEU'
p361
F-2.8300000000000001
sS'ALA-GLN'
p362
F-2.0249999999999999
sS'ASP-ASN'
p363
F-2.1160000000000001
sS'SER-VAL'
p364
F-1.044
sS'MET-ILE'
p365
F-1.6299999999999999
sS'ALA-PRO'
p366
F-1.109
sS'ASP-ASP'
p367
F-2.8700000000000001
sS'ALA-GLY'
p368
F-0.878
sS'TRP-TRP'
p369
F-4.4589999999999996
sS'MET-CYS'
p370
F-0.73099999999999998
sS'ALA-GLU'
p371
F-1.24
sS'THR-PRO'
p372
F-2.2360000000000002
sS'HIS-ALA'
p373
F-1.7070000000000001
sS'GLN-ILE'
p374
F-2.3140000000000001
sS'GLU-VAL'
p375
F-1.6000000000000001
sS'LYS-ASN'
p376
F-1.925
sS'ASN-ALA'
p377
F-1.6659999999999999
sS'THR-ILE'
p378
F-1.921
sS'ASP-CYS'
p379
F-0.45100000000000001
sS'PRO-LYS'
p380
F-2.29
sS'TYR-TYR'
p381
F-3.9049999999999998
sS'ARG-LYS'
p382
F-2.5720000000000001
sS'ILE-ALA'
p383
F-1.194
sS'ASP-SER'
p384
F-1.829
sS'CYS-LYS'
p385
F-1.0920000000000001
sS'GLU-ALA'
p386
F-1.45
sS'PHE-GLU'
p387
F-1.9730000000000001
sS'GLU-LEU'
p388
F-1.53
sS'PHE-GLY'
p389
F-1.407
sS'LYS-HIS'
p390
F-2.7370000000000001
sS'HIS-PRO'
p391
F-2.6269999999999998
sS'ILE-ILE'
p392
F-2.891
sS'MET-HIS'
p393
F-1.843
sS'VAL-GLY'
p394
F-0.88600000000000001
sS'THR-MET'
p395
F-1.744
sS'PHE-THR'
p396
F-2.1589999999999998
sS'VAL-TRP'
p397
F-1.851
sS'PHE-LYS'
p398
F-1.9099999999999999
sS'GLY-PRO'
p399
F-1.385
sS'PHE-GLN'
p400
F-2.1779999999999999
sS'LEU-PHE'
p401
F-2.4199999999999999
s.