(dp1
S'MET-MET'
p2
F-1.147
sS'PRO-ILE'
p3
F0.096000000000000002
sS'TYR-LYS'
p4
F-0.56299999999999994
sS'VAL-ASP'
p5
F0.59099999999999997
sS'ASP-GLN'
p6
F-0.27800000000000002
sS'HIS-TYR'
p7
F-0.879
sS'ASP-GLU'
p8
F-0.019
sS'ALA-ASP'
p9
F0.59399999999999997
sS'ASP-GLY'
p10
F0.46899999999999997
sS'LEU-VAL'
p11
F0.36499999999999999
sS'TRP-TYR'
p12
F-0.53800000000000003
sS'GLN-TRP'
p13
F-0.44900000000000001
sS'TRP-PHE'
p14
F-0.51900000000000002
sS'ARG-TYR'
p15
F-1.0629999999999999
sS'GLU-LYS'
p16
F-0.95799999999999996
sS'ILE-HIS'
p17
F0.10199999999999999
sS'LEU-MET'
p18
F0.222
sS'GLU-HIS'
p19
F-0.84599999999999997
sS'GLY-THR'
p20
F0.26600000000000001
sS'ARG-GLU'
p21
F-1.349
sS'PHE-ASN'
p22
F-0.222
sS'ASN-MET'
p23
F0.27000000000000002
sS'PRO-THR'
p24
F-0.17199999999999999
sS'TYR-GLN'
p25
F-0.66400000000000003
sS'ARG-GLY'
p26
F-0.39900000000000002
sS'VAL-THR'
p27
F0.39900000000000002
sS'ASP-ILE'
p28
F0.53000000000000003
sS'THR-HIS'
p29
F-0.075999999999999998
sS'TYR-GLU'
p30
F-0.60699999999999998
sS'ARG-GLN'
p31
F-0.95099999999999996
sS'TYR-GLY'
p32
F-0.16500000000000001
sS'PHE-ASP'
p33
F0.153
sS'CYS-ARG'
p34
F0.49099999999999999
sS'GLY-ASN'
p35
F-0.17799999999999999
sS'VAL-LYS'
p36
F0.60599999999999998
sS'LEU-ILE'
p37
F0.17100000000000001
sS'GLN-LEU'
p38
F-0.042000000000000003
sS'GLU-MET'
p39
F0.20499999999999999
sS'ASP-THR'
p40
F0.075999999999999998
sS'ASN-PHE'
p41
F-0.221
sS'GLU-PRO'
p42
F-0.28799999999999998
sS'TYR-LEU'
p43
F-0.312
sS'LYS-ARG'
p44
F-0.28899999999999998
sS'GLY-ASP'
p45
F0.34499999999999997
sS'PRO-GLN'
p46
F-0.65600000000000003
sS'CYS-MET'
p47
F1.121
sS'HIS-ARG'
p48
F-0.624
sS'GLU-THR'
p49
F-0.20799999999999999
sS'ILE-THR'
p50
F0.27200000000000002
sS'SER-PRO'
p51
F-0.17399999999999999
sS'GLY-CYS'
p52
F0.29399999999999998
sS'ARG-LEU'
p53
F-0.32300000000000001
sS'PRO-GLU'
p54
F-0.23400000000000001
sS'ASP-LEU'
p55
F0.438
sS'PHE-VAL'
p56
F0.105
sS'ASN-VAL'
p57
F0.22700000000000001
sS'ALA-MET'
p58
F0.74399999999999999
sS'LEU-PRO'
p59
F0.081000000000000003
sS'LEU-SER'
p60
F0.433
sS'ASN-ARG'
p61
F-0.745
sS'SER-THR'
p62
F0.24299999999999999
sS'LYS-VAL'
p63
F0.54200000000000004
sS'LYS-GLN'
p64
F-0.59399999999999997
sS'GLN-VAL'
p65
F0.21099999999999999
sS'TYR-PHE'
p66
F-0.498
sS'ASP-VAL'
p67
F0.67000000000000004
sS'ASN-GLY'
p68
F-0.082000000000000003
sS'ARG-PHE'
p69
F-0.56899999999999995
sS'SER-HIS'
p70
F-0.28499999999999998
sS'ALA-ILE'
p71
F0.48099999999999998
sS'ASN-GLU'
p72
F-0.51600000000000001
sS'CYS-GLN'
p73
F0.5
sS'TYR-PRO'
p74
F-0.76200000000000001
sS'LYS-GLU'
p75
F-0.92200000000000004
sS'CYS-GLU'
p76
F1.2609999999999999
sS'ASN-GLN'
p77
F-0.85299999999999998
sS'CYS-GLY'
p78
F1.1120000000000001
sS'GLN-SER'
p79
F-0.42899999999999999
sS'HIS-LYS'
p80
F-0.182
sS'LYS-GLY'
p81
F0.16900000000000001
sS'VAL-MET'
p82
F0.53800000000000003
sS'GLU-GLY'
p83
F0.27500000000000002
sS'THR-SER'
p84
F0.20899999999999999
sS'TYR-THR'
p85
F-0.246
sS'PRO-PRO'
p86
F-0.88400000000000001
sS'ILE-PHE'
p87
F-0.16200000000000001
sS'PHE-LEU'
p88
F-0.23200000000000001
sS'GLU-GLU'
p89
F-0.627
sS'SER-ARG'
p90
F-0.46100000000000002
sS'GLY-ALA'
p91
F0.57299999999999995
sS'TYR-ASN'
p92
F-0.70899999999999996
sS'GLU-GLN'
p93
F-0.32600000000000001
sS'TRP-ARG'
p94
F-0.82799999999999996
sS'LEU-GLU'
p95
F0.42899999999999999
sS'LEU-GLY'
p96
F0.78300000000000003
sS'LYS-SER'
p97
F-0.086999999999999994
sS'MET-VAL'
p98
F0.60099999999999998
sS'SER-ALA'
p99
F0.316
sS'PRO-HIS'
p100
F-0.45300000000000001
sS'MET-THR'
p101
F0.17100000000000001
sS'ALA-PHE'
p102
F0.11600000000000001
sS'MET-PRO'
p103
F0.28599999999999998
sS'GLY-SER'
p104
F0.308
sS'LEU-GLN'
p105
F-0.021000000000000001
sS'VAL-LEU'
p106
F0.27200000000000002
sS'LEU-CYS'
p107
F1.0329999999999999
sS'LYS-TYR'
p108
F-0.59099999999999997
sS'ASP-ALA'
p109
F0.65300000000000002
sS'ILE-LEU'
p110
F0.012999999999999999
sS'TRP-VAL'
p111
F-0.10100000000000001
sS'PHE-PRO'
p112
F-0.41899999999999998
sS'ALA-ALA'
p113
F-0
sS'ARG-TRP'
p114
F-0.98199999999999998
sS'MET-GLN'
p115
F0.0080000000000000002
sS'ILE-LYS'
p116
F0.57299999999999995
sS'MET-ARG'
p117
F0.11600000000000001
sS'ALA-CYS'
p118
F1.038
sS'THR-ARG'
p119
F-0.246
sS'CYS-ILE'
p120
F0.80500000000000005
sS'LEU-ASN'
p121
F0.080000000000000002
sS'LEU-ASP'
p122
F0.48999999999999999
sS'PHE-TRP'
p123
F-0.39500000000000002
sS'MET-GLY'
p124
F0.87
sS'THR-PHE'
p125
F-0.14199999999999999
sS'MET-GLU'
p126
F0.314
sS'THR-TRP'
p127
F0.245
sS'THR-TYR'
p128
F-0.38200000000000001
sS'CYS-VAL'
p129
F0.92300000000000004
sS'ARG-ALA'
p130
F0.039
sS'ALA-TYR'
p131
F-0.16200000000000001
sS'ASP-PRO'
p132
F-0.129
sS'ARG-CYS'
p133
F0.38
sS'GLN-ARG'
p134
F-0.94699999999999995
sS'HIS-TRP'
p135
F-0.27300000000000002
sS'PRO-SER'
p136
F-0.065000000000000002
sS'VAL-VAL'
p137
F-0.107
sS'LEU-LYS'
p138
F0.35599999999999998
sS'GLY-LYS'
p139
F0.11600000000000001
sS'CYS-ASN'
p140
F0.49199999999999999
sS'GLY-TRP'
p141
F0.070000000000000007
sS'THR-CYS'
p142
F1.167
sS'LYS-LYS'
p143
F-0.25800000000000001
sS'CYS-ASP'
p144
F0.93400000000000005
sS'TYR-ASP'
p145
F-0.52200000000000002
sS'VAL-PRO'
p146
F0.30599999999999999
sS'THR-VAL'
p147
F0.35099999999999998
sS'ASP-TYR'
p148
F-0.63600000000000001
sS'PRO-CYS'
p149
F0.65000000000000002
sS'VAL-SER'
p150
F0.47599999999999998
sS'ARG-HIS'
p151
F-0.81000000000000005
sS'CYS-PRO'
p152
F0.38800000000000001
sS'MET-LYS'
p153
F0.0040000000000000001
sS'ALA-SER'
p154
F0.432
sS'TYR-SER'
p155
F-0.27700000000000002
sS'GLY-ARG'
p156
F-0.253
sS'GLN-ALA'
p157
F0.13900000000000001
sS'MET-LEU'
p158
F0.076999999999999999
sS'ASN-HIS'
p159
F-0.47799999999999998
sS'VAL-CYS'
p160
F1.0880000000000001
sS'GLN-TYR'
p161
F-0.73299999999999998
sS'GLN-PHE'
p162
F-0.255
sS'ILE-ASN'
p163
F0.22800000000000001
sS'GLU-ASN'
p164
F-0.57499999999999996
sS'CYS-ALA'
p165
F0.84199999999999997
sS'ASN-ASP'
p166
F-0.33500000000000002
sS'ASN-PRO'
p167
F-0.53600000000000003
sS'PRO-ARG'
p168
F-0.59499999999999997
sS'LYS-TRP'
p169
F-0.29899999999999999
sS'ASN-ASN'
p170
F-1.3859999999999999
sS'ASN-THR'
p171
F-0.27000000000000002
sS'THR-ALA'
p172
F0.502
sS'LYS-ALA'
p173
F0.56999999999999995
sS'LYS-PRO'
p174
F0.035000000000000003
sS'SER-GLN'
p175
F-0.32600000000000001
sS'ILE-VAL'
p176
F0.374
sS'ASP-ARG'
p177
F-1.264
sS'ASP-MET'
p178
F0.61299999999999999
sS'CYS-TYR'
p179
F0.58299999999999996
sS'PRO-TRP'
p180
F-0.45500000000000002
sS'THR-GLU'
p181
F-0.19800000000000001
sS'TRP-ALA'
p182
F-0.017000000000000001
sS'ILE-CYS'
p183
F0.72799999999999998
sS'LYS-ILE'
p184
F0.49199999999999999
sS'GLN-CYS'
p185
F0.76200000000000001
sS'TYR-ALA'
p186
F0.068000000000000005
sS'ARG-ASP'
p187
F-1.363
sS'SER-GLU'
p188
F-0.29099999999999998
sS'TRP-HIS'
p189
F-0.441
sS'ALA-ASN'
p190
F0.26600000000000001
sS'GLU-CYS'
p191
F1.2769999999999999
sS'PRO-MET'
p192
F0.154
sS'TYR-HIS'
p193
F-0.75600000000000001
sS'PHE-MET'
p194
F-0.437
sS'GLU-TYR'
p195
F-0.64700000000000002
sS'SER-TRP'
p196
F-0.097000000000000003
sS'PHE-ARG'
p197
F-0.48499999999999999
sS'GLY-ILE'
p198
F0.89400000000000002
sS'TYR-VAL'
p199
F0.069000000000000006
sS'ASN-TYR'
p200
F-0.62
sS'SER-ILE'
p201
F0.38900000000000001
sS'GLN-PRO'
p202
F-0.60399999999999998
sS'PHE-TYR'
p203
F-0.56399999999999995
sS'ALA-VAL'
p204
F0.60599999999999998
sS'HIS-HIS'
p205
F-2.3639999999999999
sS'THR-ASN'
p206
F-0.26800000000000002
sS'CYS-LEU'
p207
F1.1719999999999999
sS'LYS-MET'
p208
F0.13300000000000001
sS'LYS-ASP'
p209
F-0.81899999999999995
sS'HIS-ASN'
p210
F-0.52100000000000002
sS'ILE-GLN'
p211
F0.0030000000000000001
sS'VAL-HIS'
p212
F0.20000000000000001
sS'ALA-LEU'
p213
F0.374
sS'HIS-ASP'
p214
F-0.69799999999999995
sS'ILE-TYR'
p215
F-0.32100000000000001
sS'ILE-GLU'
p216
F0.30399999999999999
sS'ASN-TRP'
p217
F-0.20300000000000001
sS'ILE-GLY'
p218
F1.044
sS'ASN-CYS'
p219
F0.40400000000000003
sS'GLU-SER'
p220
F-0.25800000000000001
sS'ALA-TRP'
p221
F-0.124
sS'HIS-CYS'
p222
F0.66500000000000004
sS'HIS-MET'
p223
F0.33200000000000002
sS'ILE-PRO'
p224
F0.11
sS'LYS-PHE'
p225
F0.14000000000000001
sS'TRP-PRO'
p226
F-0.39200000000000002
sS'GLU-TRP'
p227
F-0.33300000000000002
sS'PHE-HIS'
p228
F-0.19900000000000001
sS'GLY-TYR'
p229
F-0.19900000000000001
sS'SER-GLY'
p230
F0.26200000000000001
sS'CYS-TRP'
p231
F1.0649999999999999
sS'ASP-LYS'
p232
F-0.80000000000000004
sS'ASN-ILE'
p233
F0.081000000000000003
sS'HIS-SER'
p234
F-0.27100000000000002
sS'LYS-CYS'
p235
F0.91300000000000003
sS'GLY-PHE'
p236
F0.502
sS'GLY-LEU'
p237
F0.67800000000000005
sS'MET-SER'
p238
F0.36699999999999999
sS'VAL-ALA'
p239
F0.68899999999999995
sS'SER-LEU'
p240
F0.39300000000000002
sS'TRP-LYS'
p241
F-0.19600000000000001
sS'VAL-TYR'
p242
F0.16200000000000001
sS'VAL-PHE'
p243
F0.062
sS'ARG-THR'
p244
F-0.27700000000000002
sS'TYR-TRP'
p245
F-0.67600000000000005
sS'GLN-GLN'
p246
F-1.6259999999999999
sS'GLU-PHE'
p247
F-0.055
sS'VAL-ILE'
p248
F0.35799999999999998
sS'HIS-GLN'
p249
F-0.50800000000000001
sS'GLN-GLY'
p250
F-0.22500000000000001
sS'PHE-ALA'
p251
F0.11899999999999999
sS'HIS-GLU'
p252
F-0.82899999999999996
sS'ARG-PRO'
p253
F-0.65600000000000003
sS'HIS-GLY'
p254
F0.17100000000000001
sS'SER-ASN'
p255
F-0.23499999999999999
sS'ALA-THR'
p256
F0.504
sS'GLN-GLU'
p257
F-0.503
sS'GLN-LYS'
p258
F-0.53000000000000003
sS'CYS-HIS'
p259
F0.69799999999999995
sS'GLN-ASP'
p260
F-0.35599999999999998
sS'LEU-HIS'
p261
F-0.098000000000000004
sS'SER-LYS'
p262
F-0.099000000000000005
sS'TRP-LEU'
p263
F-0.25800000000000001
sS'CYS-SER'
p264
F0.80100000000000005
sS'LYS-THR'
p265
F0.27900000000000003
sS'HIS-LEU'
p266
F0.10000000000000001
sS'LEU-ARG'
p267
F-0.23499999999999999
sS'GLY-VAL'
p268
F0.627
sS'GLN-ASN'
p269
F-0.70299999999999996
sS'TYR-ARG'
p270
F-0.92900000000000005
sS'PRO-TYR'
p271
F-0.749
sS'ASP-PHE'
p272
F0.26800000000000002
sS'TRP-CYS'
p273
F1.3009999999999999
sS'ASN-LEU'
p274
F0.092999999999999999
sS'SER-MET'
p275
F0.49299999999999999
sS'HIS-ILE'
p276
F0.16900000000000001
sS'SER-TYR'
p277
F-0.30299999999999999
sS'MET-TYR'
p278
F-0.52300000000000002
sS'GLU-ILE'
p279
F0.34100000000000003
sS'PHE-CYS'
p280
F0.28899999999999998
sS'PRO-LEU'
p281
F0.14299999999999999
sS'GLY-MET'
p282
F0.63700000000000001
sS'ARG-ILE'
p283
F-0.02
sS'HIS-THR'
p284
F-0.13400000000000001
sS'THR-GLN'
p285
F-0.50700000000000001
sS'TRP-THR'
p286
F0.109
sS'LYS-LEU'
p287
F0.501
sS'THR-GLY'
p288
F0.21199999999999999
sS'ASP-TRP'
p289
F0.28499999999999998
sS'TYR-MET'
p290
F-0.38900000000000001
sS'PHE-ILE'
p291
F-0.13900000000000001
sS'PRO-VAL'
p292
F0.374
sS'MET-ASN'
p293
F-0.024
sS'LEU-TYR'
p294
F-0.32300000000000001
sS'PHE-PHE'
p295
F-1.3280000000000001
sS'CYS-PHE'
p296
F0.55100000000000005
sS'TRP-ILE'
p297
F-0.056000000000000001
sS'PRO-ASN'
p298
F-0.311
sS'CYS-CYS'
p299
F-2.806
sS'SER-ASP'
p300
F-0.033000000000000002
sS'ARG-MET'
p301
F-0.043999999999999997
sS'SER-PHE'
p302
F0.124
sS'SER-SER'
p303
F-0.55600000000000005
sS'ASN-LYS'
p304
F-0.23999999999999999
sS'CYS-THR'
p305
F1.3400000000000001
sS'ILE-TRP'
p306
F-0.23599999999999999
sS'PRO-ASP'
p307
F-0.16600000000000001
sS'THR-ASP'
p308
F0.043999999999999997
sS'SER-CYS'
p309
F0.89100000000000001
sS'MET-ASP'
p310
F0.54400000000000004
sS'GLN-MET'
p311
F-0.010999999999999999
sS'MET-TRP'
p312
F-0.17899999999999999
sS'ARG-VAL'
p313
F-0.084000000000000005
sS'GLY-GLN'
p314
F-0.17000000000000001
sS'THR-LYS'
p315
F0.28399999999999997
sS'TRP-MET'
p316
F-0.129
sS'ARG-ARG'
p317
F-1.718
sS'ILE-ASP'
p318
F0.56100000000000005
sS'GLY-GLY'
p319
F-0.19400000000000001
sS'GLY-GLU'
p320
F0.435
sS'ALA-ARG'
p321
F0.056000000000000001
sS'GLU-ARG'
p322
F-1.3180000000000001
sS'HIS-VAL'
p323
F0.29099999999999998
sS'VAL-ARG'
p324
F-0.078
sS'ASN-SER'
p325
F-0.307
sS'ALA-LYS'
p326
F0.58599999999999997
sS'VAL-GLN'
p327
F0.13800000000000001
sS'TRP-ASN'
p328
F-0.53600000000000003
sS'TYR-ILE'
p329
F-0.34899999999999998
sS'TRP-GLY'
p330
F-0.126
sS'PRO-PHE'
p331
F-0.40100000000000002
sS'GLY-HIS'
p332
F0.057000000000000002
sS'PHE-SER'
p333
F0.189
sS'TRP-ASP'
p334
F0.20200000000000001
sS'TRP-GLN'
p335
F-0.57099999999999995
sS'LEU-ALA'
p336
F0.40999999999999998
sS'VAL-GLU'
p337
F0.42699999999999999
sS'ALA-HIS'
p338
F0.028000000000000001
sS'ARG-ASN'
p339
F-0.93100000000000005
sS'LEU-THR'
p340
F0.46999999999999997
sS'TYR-CYS'
p341
F0.96699999999999997
sS'THR-THR'
p342
F-0.627
sS'THR-LEU'
p343
F0.22800000000000001
sS'VAL-ASN'
p344
F0.224
sS'LEU-TRP'
p345
F-0.29099999999999998
sS'GLU-ASP'
p346
F-0.010999999999999999
sS'ILE-SER'
p347
F0.39200000000000002
sS'ILE-ARG'
p348
F-0.045999999999999999
sS'TRP-GLU'
p349
F-0.308
sS'ILE-MET'
p350
F0.36899999999999999
sS'MET-PHE'
p351
F-0.314
sS'PRO-ALA'
p352
F0.033000000000000002
sS'PRO-GLY'
p353
F0.16900000000000001
sS'GLN-THR'
p354
F-0.32700000000000001
sS'MET-ALA'
p355
F0.877
sS'TRP-SER'
p356
F-0.127
sS'ASP-HIS'
p357
F-0.65600000000000003
sS'ARG-SER'
p358
F-0.51800000000000002
sS'GLN-HIS'
p359
F-0.64100000000000001
sS'HIS-PHE'
p360
F-0.252
sS'LEU-LEU'
p361
F-0.45500000000000002
sS'ALA-GLN'
p362
F0.0080000000000000002
sS'ASP-ASN'
p363
F-0.36399999999999999
sS'SER-VAL'
p364
F0.54900000000000004
sS'MET-ILE'
p365
F0.45400000000000001
sS'ALA-PRO'
p366
F0.38800000000000001
sS'ASP-ASP'
p367
F-0.45300000000000001
sS'ALA-GLY'
p368
F0.68300000000000005
sS'TRP-TRP'
p369
F-1.931
sS'MET-CYS'
p370
F1.4379999999999999
sS'ALA-GLU'
p371
F0.47099999999999997
sS'THR-PRO'
p372
F-0.25900000000000001
sS'HIS-ALA'
p373
F0.23200000000000001
sS'GLN-ILE'
p374
F-0.161
sS'GLU-VAL'
p375
F0.28599999999999998
sS'LYS-ASN'
p376
F-0.22700000000000001
sS'ASN-ALA'
p377
F0.216
sS'THR-ILE'
p378
F0.14799999999999999
sS'ASP-CYS'
p379
F1.254
sS'PRO-LYS'
p380
F0.043999999999999997
sS'TYR-TYR'
p381
F-1.5409999999999999
sS'ARG-LYS'
p382
F-0.39700000000000002
sS'ILE-ALA'
p383
F0.621
sS'ASP-SER'
p384
F-0.114
sS'CYS-LYS'
p385
F0.95199999999999996
sS'GLU-ALA'
p386
F0.33800000000000002
sS'PHE-GLU'
p387
F0.076999999999999999
sS'GLU-LEU'
p388
F0.28199999999999997
sS'PHE-GLY'
p389
F0.39900000000000002
sS'LYS-HIS'
p390
F-0.38900000000000001
sS'HIS-PRO'
p391
F-0.40899999999999997
sS'ILE-ILE'
p392
F-0.51300000000000001
sS'MET-HIS'
p393
F0.13
sS'VAL-GLY'
p394
F0.77300000000000002
sS'THR-MET'
p395
F0.32900000000000001
sS'PHE-THR'
p396
F-0.017999999999999999
sS'VAL-TRP'
p397
F0.16900000000000001
sS'PHE-LYS'
p398
F0.031
sS'GLY-PRO'
p399
F0.123
sS'PHE-GLN'
p400
F-0.23499999999999999
sS'LEU-PHE'
p401
F-0.24199999999999999
s.