(dp1
S'MET-MET'
p2
F-0.49399999999999999
sS'PRO-ILE'
p3
F0.91100000000000003
sS'TYR-LYS'
p4
F0.96399999999999997
sS'VAL-ASP'
p5
F1.651
sS'ASP-GLN'
p6
F1.294
sS'HIS-TYR'
p7
F0.97699999999999998
sS'ASP-GLU'
p8
F1.4379999999999999
sS'ALA-ASP'
p9
F1.6479999999999999
sS'ASP-GLY'
p10
F1.827
sS'LEU-VAL'
p11
F1.5609999999999999
sS'TRP-TYR'
p12
F1.2709999999999999
sS'GLN-TRP'
p13
F1.923
sS'TRP-PHE'
p14
F1.468
sS'ARG-TYR'
p15
F0.65300000000000002
sS'GLU-LYS'
p16
F0.44600000000000001
sS'ILE-HIS'
p17
F1.6180000000000001
sS'LEU-MET'
p18
F1.28
sS'GLU-HIS'
p19
F0.76500000000000001
sS'GLY-THR'
p20
F1.444
sS'ARG-GLU'
p21
F0.47199999999999998
sS'PHE-ASN'
p22
F1.476
sS'ASN-MET'
p23
F1.504
sS'PRO-THR'
p24
F0.90200000000000002
sS'TYR-GLN'
p25
F0.81000000000000005
sS'ARG-GLY'
p26
F0.622
sS'VAL-THR'
p27
F1.4259999999999999
sS'ASP-ILE'
p28
F1.8440000000000001
sS'THR-HIS'
p29
F1.081
sS'TYR-GLU'
p30
F1.2609999999999999
sS'ARG-GLN'
p31
F0.70699999999999996
sS'TYR-GLY'
p32
F1.155
sS'PHE-ASP'
p33
F1.712
sS'CYS-ARG'
p34
F1.595
sS'GLY-ASN'
p35
F0.98099999999999998
sS'VAL-LYS'
p36
F1.663
sS'LEU-ILE'
p37
F1.256
sS'GLN-LEU'
p38
F1.0169999999999999
sS'GLU-MET'
p39
F1.4630000000000001
sS'ASP-THR'
p40
F1.4950000000000001
sS'ASN-PHE'
p41
F1.466
sS'GLU-PRO'
p42
F1.0289999999999999
sS'TYR-LEU'
p43
F1.4630000000000001
sS'LYS-ARG'
p44
F0.95099999999999996
sS'GLY-ASP'
p45
F1.742
sS'PRO-GLN'
p46
F0.65500000000000003
sS'CYS-MET'
p47
F1.631
sS'HIS-ARG'
p48
F1.0549999999999999
sS'GLU-THR'
p49
F1.119
sS'ILE-THR'
p50
F1.357
sS'SER-PRO'
p51
F0.77500000000000002
sS'GLY-CYS'
p52
F1.5940000000000001
sS'ARG-LEU'
p53
F1.2849999999999999
sS'PRO-GLU'
p54
F0.89000000000000001
sS'ASP-LEU'
p55
F1.73
sS'PHE-VAL'
p56
F1.788
sS'ASN-VAL'
p57
F1.798
sS'ALA-MET'
p58
F1.224
sS'LEU-PRO'
p59
F1.413
sS'LEU-SER'
p60
F1.6619999999999999
sS'ASN-ARG'
p61
F0.67500000000000004
sS'SER-THR'
p62
F1.528
sS'LYS-VAL'
p63
F1.7729999999999999
sS'LYS-GLN'
p64
F0.65400000000000003
sS'GLN-VAL'
p65
F1.736
sS'TYR-PHE'
p66
F1.089
sS'ASP-VAL'
p67
F2.2240000000000002
sS'ASN-GLY'
p68
F1.1839999999999999
sS'ARG-PHE'
p69
F1.222
sS'SER-HIS'
p70
F1.071
sS'ALA-ILE'
p71
F1.3440000000000001
sS'ASN-GLU'
p72
F0.92900000000000005
sS'CYS-GLN'
p73
F1.304
sS'TYR-PRO'
p74
F1.0169999999999999
sS'LYS-GLU'
p75
F0.38400000000000001
sS'CYS-GLU'
p76
F2.5219999999999998
sS'ASN-GLN'
p77
F0.63800000000000001
sS'CYS-GLY'
p78
F2.262
sS'GLN-SER'
p79
F0.95999999999999996
sS'HIS-LYS'
p80
F1.1220000000000001
sS'LYS-GLY'
p81
F1.228
sS'VAL-MET'
p82
F1.1850000000000001
sS'GLU-GLY'
p83
F1.52
sS'THR-SER'
p84
F1.625
sS'TYR-THR'
p85
F0.84599999999999997
sS'PRO-PRO'
p86
F-0.38900000000000001
sS'ILE-PHE'
p87
F1.0089999999999999
sS'PHE-LEU'
p88
F0.747
sS'GLU-GLU'
p89
F0.67500000000000004
sS'SER-ARG'
p90
F0.85799999999999998
sS'GLY-ALA'
p91
F1.6040000000000001
sS'TYR-ASN'
p92
F0.95199999999999996
sS'GLU-GLN'
p93
F1.0229999999999999
sS'TRP-ARG'
p94
F1.212
sS'LEU-GLU'
p95
F1.9379999999999999
sS'LEU-GLY'
p96
F1.7789999999999999
sS'LYS-SER'
p97
F1.0289999999999999
sS'MET-VAL'
p98
F1.4390000000000001
sS'SER-ALA'
p99
F1.677
sS'PRO-HIS'
p100
F1.149
sS'MET-THR'
p101
F1.4750000000000001
sS'ALA-PHE'
p102
F1.2490000000000001
sS'MET-PRO'
p103
F1.4710000000000001
sS'GLY-SER'
p104
F1.198
sS'LEU-GLN'
p105
F1.0820000000000001
sS'VAL-LEU'
p106
F1.4770000000000001
sS'LEU-CYS'
p107
F2.1880000000000002
sS'LYS-TYR'
p108
F0.95299999999999996
sS'ASP-ALA'
p109
F1.748
sS'ILE-LEU'
p110
F0.92800000000000005
sS'TRP-VAL'
p111
F1.127
sS'PHE-PRO'
p112
F0.82399999999999995
sS'ALA-ALA'
p113
F0.57899999999999996
sS'ARG-TRP'
p114
F1.0780000000000001
sS'MET-GLN'
p115
F1.3049999999999999
sS'ILE-LYS'
p116
F1.2210000000000001
sS'MET-ARG'
p117
F1.2509999999999999
sS'ALA-CYS'
p118
F1.6890000000000001
sS'THR-ARG'
p119
F1.9219999999999999
sS'CYS-ILE'
p120
F1.512
sS'LEU-ASN'
p121
F1.3080000000000001
sS'LEU-ASP'
p122
F1.6140000000000001
sS'PHE-TRP'
p123
F1.651
sS'MET-GLY'
p124
F2.085
sS'THR-PHE'
p125
F1.351
sS'MET-GLU'
p126
F1.913
sS'THR-TRP'
p127
F2.0499999999999998
sS'THR-TYR'
p128
F0.73999999999999999
sS'CYS-VAL'
p129
F1.4670000000000001
sS'ARG-ALA'
p130
F1.089
sS'ALA-TYR'
p131
F1.0720000000000001
sS'ASP-PRO'
p132
F0.94899999999999995
sS'ARG-CYS'
p133
F1.55
sS'GLN-ARG'
p134
F0.58599999999999997
sS'HIS-TRP'
p135
F1.766
sS'PRO-SER'
p136
F1.26
sS'VAL-VAL'
p137
F0.48299999999999998
sS'LEU-LYS'
p138
F1.8640000000000001
sS'GLY-LYS'
p139
F1.1220000000000001
sS'CYS-ASN'
p140
F1.5509999999999999
sS'GLY-TRP'
p141
F1.5009999999999999
sS'THR-CYS'
p142
F2.0609999999999999
sS'LYS-LYS'
p143
F0.20499999999999999
sS'CYS-ASP'
p144
F2.0680000000000001
sS'TYR-ASP'
p145
F0.69799999999999995
sS'VAL-PRO'
p146
F1.2050000000000001
sS'THR-VAL'
p147
F1.581
sS'ASP-TYR'
p148
F0.71599999999999997
sS'PRO-CYS'
p149
F1.444
sS'VAL-SER'
p150
F1.8400000000000001
sS'ARG-HIS'
p151
F0.82299999999999995
sS'CYS-PRO'
p152
F0.70399999999999996
sS'MET-LYS'
p153
F0.82399999999999995
sS'ALA-SER'
p154
F1.863
sS'TYR-SER'
p155
F1.0509999999999999
sS'GLY-ARG'
p156
F0.89500000000000002
sS'GLN-ALA'
p157
F1.266
sS'MET-LEU'
p158
F1.1359999999999999
sS'ASN-HIS'
p159
F1.167
sS'VAL-CYS'
p160
F1.7729999999999999
sS'GLN-TYR'
p161
F0.92700000000000005
sS'GLN-PHE'
p162
F1.4650000000000001
sS'ILE-ASN'
p163
F1.9099999999999999
sS'GLU-ASN'
p164
F1.048
sS'CYS-ALA'
p165
F1.5169999999999999
sS'ASN-ASP'
p166
F0.98199999999999998
sS'ASN-PRO'
p167
F0.94199999999999995
sS'PRO-ARG'
p168
F0.83499999999999996
sS'LYS-TRP'
p169
F1.7070000000000001
sS'ASN-ASN'
p170
F-0.41999999999999998
sS'ASN-THR'
p171
F1.0760000000000001
sS'THR-ALA'
p172
F2.1739999999999999
sS'LYS-ALA'
p173
F1.583
sS'LYS-PRO'
p174
F1.028
sS'SER-GLN'
p175
F0.85799999999999998
sS'ILE-VAL'
p176
F1.4550000000000001
sS'ASP-ARG'
p177
F0.38800000000000001
sS'ASP-MET'
p178
F2.0779999999999998
sS'CYS-TYR'
p179
F1.847
sS'PRO-TRP'
p180
F1.349
sS'THR-GLU'
p181
F1.1619999999999999
sS'TRP-ALA'
p182
F1.6419999999999999
sS'ILE-CYS'
p183
F1.8540000000000001
sS'LYS-ILE'
p184
F1.579
sS'GLN-CYS'
p185
F1.4359999999999999
sS'TYR-ALA'
p186
F1.113
sS'ARG-ASP'
p187
F-0.001
sS'SER-GLU'
p188
F1.1859999999999999
sS'TRP-HIS'
p189
F1.53
sS'ALA-ASN'
p190
F1.202
sS'GLU-CYS'
p191
F2.427
sS'PRO-MET'
p192
F1.1599999999999999
sS'TYR-HIS'
p193
F1.103
sS'PHE-MET'
p194
F1.0700000000000001
sS'GLU-TYR'
p195
F1.042
sS'SER-TRP'
p196
F1.3169999999999999
sS'PHE-ARG'
p197
F1.2889999999999999
sS'GLY-ILE'
p198
F2.073
sS'TYR-VAL'
p199
F1.7350000000000001
sS'ASN-TYR'
p200
F1.1919999999999999
sS'SER-ILE'
p201
F1.6699999999999999
sS'GLN-PRO'
p202
F0.68300000000000005
sS'PHE-TYR'
p203
F1.1439999999999999
sS'ALA-VAL'
p204
F1.579
sS'HIS-HIS'
p205
F-1.1180000000000001
sS'THR-ASN'
p206
F1.165
sS'CYS-LEU'
p207
F2.2639999999999998
sS'LYS-MET'
p208
F1.206
sS'LYS-ASP'
p209
F0.54300000000000004
sS'HIS-ASN'
p210
F1.167
sS'ILE-GLN'
p211
F1.6639999999999999
sS'VAL-HIS'
p212
F1.571
sS'ALA-LEU'
p213
F1.1140000000000001
sS'HIS-ASP'
p214
F0.88900000000000001
sS'ILE-TYR'
p215
F1.254
sS'ILE-GLU'
p216
F1.6439999999999999
sS'ASN-TRP'
p217
F1.6080000000000001
sS'ILE-GLY'
p218
F2.1709999999999998
sS'ASN-CYS'
p219
F1.534
sS'GLU-SER'
p220
F1.4099999999999999
sS'ALA-TRP'
p221
F1.1479999999999999
sS'HIS-CYS'
p222
F1.8819999999999999
sS'HIS-MET'
p223
F1.208
sS'ILE-PRO'
p224
F0.83499999999999996
sS'LYS-PHE'
p225
F1.7569999999999999
sS'TRP-PRO'
p226
F1.365
sS'GLU-TRP'
p227
F1.427
sS'PHE-HIS'
p228
F1.879
sS'GLY-TYR'
p229
F1.1279999999999999
sS'SER-GLY'
p230
F1.3240000000000001
sS'CYS-TRP'
p231
F2.4430000000000001
sS'ASP-LYS'
p232
F0.54700000000000004
sS'ASN-ILE'
p233
F1.5109999999999999
sS'HIS-SER'
p234
F0.77400000000000002
sS'LYS-CYS'
p235
F1.7529999999999999
sS'GLY-PHE'
p236
F1.9490000000000001
sS'GLY-LEU'
p237
F1.8540000000000001
sS'MET-SER'
p238
F1.413
sS'VAL-ALA'
p239
F1.7949999999999999
sS'SER-LEU'
p240
F1.9950000000000001
sS'TRP-LYS'
p241
F1.8460000000000001
sS'VAL-TYR'
p242
F1.734
sS'VAL-PHE'
p243
F1.278
sS'ARG-THR'
p244
F1.9339999999999999
sS'TYR-TRP'
p245
F1.1579999999999999
sS'GLN-GLN'
p246
F-0.42199999999999999
sS'GLU-PHE'
p247
F1.5209999999999999
sS'VAL-ILE'
p248
F1.288
sS'HIS-GLN'
p249
F1.1599999999999999
sS'GLN-GLY'
p250
F0.92900000000000005
sS'PHE-ALA'
p251
F1.0509999999999999
sS'HIS-GLU'
p252
F0.78700000000000003
sS'ARG-PRO'
p253
F0.45800000000000002
sS'HIS-GLY'
p254
F1.5529999999999999
sS'SER-ASN'
p255
F1.1100000000000001
sS'ALA-THR'
p256
F2.0819999999999999
sS'GLN-GLU'
p257
F1.101
sS'GLN-LYS'
p258
F0.35899999999999999
sS'CYS-HIS'
p259
F1.2529999999999999
sS'GLN-ASP'
p260
F0.80500000000000005
sS'LEU-HIS'
p261
F0.98899999999999999
sS'SER-LYS'
p262
F1.0369999999999999
sS'TRP-LEU'
p263
F0.745
sS'CYS-SER'
p264
F2.27
sS'LYS-THR'
p265
F1.448
sS'HIS-LEU'
p266
F1.4279999999999999
sS'LEU-ARG'
p267
F1.458
sS'GLY-VAL'
p268
F1.9950000000000001
sS'GLN-ASN'
p269
F0.57299999999999995
sS'TYR-ARG'
p270
F0.90900000000000003
sS'PRO-TYR'
p271
F0.66900000000000004
sS'ASP-PHE'
p272
F1.8680000000000001
sS'TRP-CYS'
p273
F2.411
sS'ASN-LEU'
p274
F1.3300000000000001
sS'SER-MET'
p275
F1.294
sS'HIS-ILE'
p276
F1.173
sS'SER-TYR'
p277
F0.95999999999999996
sS'MET-TYR'
p278
F0.77100000000000002
sS'GLU-ILE'
p279
F1.754
sS'PHE-CYS'
p280
F1.2410000000000001
sS'PRO-LEU'
p281
F1.1539999999999999
sS'GLY-MET'
p282
F1.647
sS'ARG-ILE'
p283
F1.228
sS'HIS-THR'
p284
F1.0449999999999999
sS'THR-GLN'
p285
F0.85499999999999998
sS'TRP-THR'
p286
F1.2789999999999999
sS'LYS-LEU'
p287
F1.7929999999999999
sS'THR-GLY'
p288
F1.5309999999999999
sS'ASP-TRP'
p289
F1.8
sS'TYR-MET'
p290
F1.546
sS'PHE-ILE'
p291
F0.89200000000000002
sS'PRO-VAL'
p292
F1.694
sS'MET-ASN'
p293
F1.343
sS'LEU-TYR'
p294
F1.3720000000000001
sS'PHE-PHE'
p295
F-0.107
sS'CYS-PHE'
p296
F1.593
sS'TRP-ILE'
p297
F1.105
sS'PRO-ASN'
p298
F1.075
sS'CYS-CYS'
p299
F-1.792
sS'SER-ASP'
p300
F1.347
sS'ARG-MET'
p301
F1.599
sS'SER-PHE'
p302
F1.3260000000000001
sS'SER-SER'
p303
F0.24299999999999999
sS'ASN-LYS'
p304
F1.2749999999999999
sS'CYS-THR'
p305
F2.2559999999999998
sS'ILE-TRP'
p306
F1.0620000000000001
sS'PRO-ASP'
p307
F0.89900000000000002
sS'THR-ASP'
p308
F1.6519999999999999
sS'SER-CYS'
p309
F1.851
sS'MET-ASP'
p310
F1.8520000000000001
sS'GLN-MET'
p311
F1.0109999999999999
sS'MET-TRP'
p312
F1.125
sS'ARG-VAL'
p313
F1.127
sS'GLY-GLN'
p314
F0.98799999999999999
sS'THR-LYS'
p315
F1.4830000000000001
sS'TRP-MET'
p316
F1.0840000000000001
sS'ARG-ARG'
p317
F-0.436
sS'ILE-ASP'
p318
F1.875
sS'GLY-GLY'
p319
F0.376
sS'GLY-GLU'
p320
F1.8129999999999999
sS'ALA-ARG'
p321
F1.054
sS'GLU-ARG'
p322
F0.40999999999999998
sS'HIS-VAL'
p323
F1.6459999999999999
sS'VAL-ARG'
p324
F0.99199999999999999
sS'ASN-SER'
p325
F1.2150000000000001
sS'ALA-LYS'
p326
F1.72
sS'VAL-GLN'
p327
F1.603
sS'TRP-ASN'
p328
F1.2669999999999999
sS'TYR-ILE'
p329
F0.96399999999999997
sS'TRP-GLY'
p330
F1.627
sS'PRO-PHE'
p331
F0.89500000000000002
sS'GLY-HIS'
p332
F1.3460000000000001
sS'PHE-SER'
p333
F1.3779999999999999
sS'TRP-ASP'
p334
F1.3560000000000001
sS'TRP-GLN'
p335
F1.601
sS'LEU-ALA'
p336
F1.639
sS'VAL-GLU'
p337
F1.9330000000000001
sS'ALA-HIS'
p338
F1.3740000000000001
sS'ARG-ASN'
p339
F0.318
sS'LEU-THR'
p340
F1.573
sS'TYR-CYS'
p341
F1.5609999999999999
sS'THR-THR'
p342
F0.063
sS'THR-LEU'
p343
F1.54
sS'VAL-ASN'
p344
F1.3100000000000001
sS'LEU-TRP'
p345
F0.61099999999999999
sS'GLU-ASP'
p346
F1.552
sS'ILE-SER'
p347
F1.8720000000000001
sS'ILE-ARG'
p348
F1.1950000000000001
sS'TRP-GLU'
p349
F1.234
sS'ILE-MET'
p350
F1.5469999999999999
sS'MET-PHE'
p351
F1.145
sS'PRO-ALA'
p352
F0.96399999999999997
sS'PRO-GLY'
p353
F1.179
sS'GLN-THR'
p354
F0.746
sS'MET-ALA'
p355
F1.724
sS'TRP-SER'
p356
F1.583
sS'ASP-HIS'
p357
F0.69399999999999995
sS'ARG-SER'
p358
F1.26
sS'GLN-HIS'
p359
F0.93799999999999994
sS'HIS-PHE'
p360
F1.2470000000000001
sS'LEU-LEU'
p361
F0.88700000000000001
sS'ALA-GLN'
p362
F1.0209999999999999
sS'ASP-ASN'
p363
F1.121
sS'SER-VAL'
p364
F1.7250000000000001
sS'MET-ILE'
p365
F1.415
sS'ALA-PRO'
p366
F1.6699999999999999
sS'ASP-ASP'
p367
F0.52300000000000002
sS'ALA-GLY'
p368
F1.6559999999999999
sS'TRP-TRP'
p369
F0.44400000000000001
sS'MET-CYS'
p370
F2.056
sS'ALA-GLU'
p371
F1.738
sS'THR-PRO'
p372
F0.63800000000000001
sS'HIS-ALA'
p373
F1.9359999999999999
sS'GLN-ILE'
p374
F1.1359999999999999
sS'GLU-VAL'
p375
F1.806
sS'LYS-ASN'
p376
F1.409
sS'ASN-ALA'
p377
F1.4419999999999999
sS'THR-ILE'
p378
F1.1100000000000001
sS'ASP-CYS'
p379
F2.4260000000000002
sS'PRO-LYS'
p380
F1.2490000000000001
sS'TYR-TYR'
p381
F0.39000000000000001
sS'ARG-LYS'
p382
F0.80700000000000005
sS'ILE-ALA'
p383
F1.5640000000000001
sS'ASP-SER'
p384
F1.2969999999999999
sS'CYS-LYS'
p385
F2.0499999999999998
sS'GLU-ALA'
p386
F1.712
sS'PHE-GLU'
p387
F1.446
sS'GLU-LEU'
p388
F1.7709999999999999
sS'PHE-GLY'
p389
F1.7230000000000001
sS'LYS-HIS'
p390
F1.02
sS'HIS-PRO'
p391
F0.82299999999999995
sS'ILE-ILE'
p392
F0.085999999999999993
sS'MET-HIS'
p393
F1.446
sS'VAL-GLY'
p394
F1.927
sS'THR-MET'
p395
F1.5660000000000001
sS'PHE-THR'
p396
F1.095
sS'VAL-TRP'
p397
F1.794
sS'PHE-LYS'
p398
F1.5349999999999999
sS'GLY-PRO'
p399
F1.3100000000000001
sS'PHE-GLN'
p400
F1.5449999999999999
sS'LEU-PHE'
p401
F0.98999999999999999
s.