(dp1
S'MET-MET'
p2
F1.3939999999999999
sS'PRO-ILE'
p3
F3.3140000000000001
sS'TYR-LYS'
p4
F3.0510000000000002
sS'VAL-ASP'
p5
F3.8330000000000002
sS'ASP-GLN'
p6
F3.1419999999999999
sS'HIS-TYR'
p7
F2.887
sS'ASP-GLU'
p8
F3.423
sS'ALA-ASP'
p9
F3.6040000000000001
sS'ASP-GLY'
p10
F3.3140000000000001
sS'LEU-VAL'
p11
F3.5720000000000001
sS'TRP-TYR'
p12
F3.4809999999999999
sS'GLN-TRP'
p13
F3.4089999999999998
sS'TRP-PHE'
p14
F3.3999999999999999
sS'ARG-TYR'
p15
F2.8370000000000002
sS'GLU-LYS'
p16
F2.4500000000000002
sS'ILE-HIS'
p17
F3.556
sS'LEU-MET'
p18
F3.4260000000000002
sS'GLU-HIS'
p19
F2.778
sS'GLY-THR'
p20
F3.0179999999999998
sS'ARG-GLU'
p21
F2.2610000000000001
sS'PHE-ASN'
p22
F3.367
sS'ASN-MET'
p23
F3.5470000000000002
sS'PRO-THR'
p24
F2.8969999999999998
sS'TYR-GLN'
p25
F2.9990000000000001
sS'ARG-GLY'
p26
F2.4790000000000001
sS'VAL-THR'
p27
F3.5760000000000001
sS'ASP-ILE'
p28
F3.867
sS'THR-HIS'
p29
F3.3220000000000001
sS'TYR-GLU'
p30
F3.0329999999999999
sS'ARG-GLN'
p31
F2.6219999999999999
sS'TYR-GLY'
p32
F2.9409999999999998
sS'PHE-ASP'
p33
F3.7719999999999998
sS'CYS-ARG'
p34
F3.774
sS'GLY-ASN'
p35
F2.6160000000000001
sS'VAL-LYS'
p36
F3.855
sS'LEU-ILE'
p37
F3.391
sS'GLN-LEU'
p38
F3.339
sS'GLU-MET'
p39
F3.5390000000000001
sS'ASP-THR'
p40
F3.3410000000000002
sS'ASN-PHE'
p41
F3.3359999999999999
sS'GLU-PRO'
p42
F3.0139999999999998
sS'TYR-LEU'
p43
F3.298
sS'LYS-ARG'
p44
F3.2029999999999998
sS'GLY-ASP'
p45
F3.1970000000000001
sS'PRO-GLN'
p46
F2.6629999999999998
sS'CYS-MET'
p47
F4.2389999999999999
sS'HIS-ARG'
p48
F2.972
sS'GLU-THR'
p49
F3.1539999999999999
sS'ILE-THR'
p50
F3.52
sS'SER-PRO'
p51
F2.8889999999999998
sS'GLY-CYS'
p52
F3.0790000000000002
sS'ARG-LEU'
p53
F3.1659999999999999
sS'PRO-GLU'
p54
F3.0760000000000001
sS'ASP-LEU'
p55
F3.7850000000000001
sS'PHE-VAL'
p56
F3.5569999999999999
sS'ASN-VAL'
p57
F3.508
sS'ALA-MET'
p58
F3.5899999999999999
sS'LEU-PRO'
p59
F3.323
sS'LEU-SER'
p60
F3.496
sS'ASN-ARG'
p61
F2.6989999999999998
sS'SER-THR'
p62
F3.3370000000000002
sS'LYS-VAL'
p63
F3.7599999999999998
sS'LYS-GLN'
p64
F2.778
sS'GLN-VAL'
p65
F3.484
sS'TYR-PHE'
p66
F3.2989999999999999
sS'ASP-VAL'
p67
F3.9260000000000002
sS'ASN-GLY'
p68
F2.77
sS'ARG-PHE'
p69
F3.2320000000000002
sS'SER-HIS'
p70
F3.0569999999999999
sS'ALA-ILE'
p71
F3.4319999999999999
sS'ASN-GLU'
p72
F2.8820000000000001
sS'CYS-GLN'
p73
F3.6419999999999999
sS'TYR-PRO'
p74
F2.7639999999999998
sS'LYS-GLU'
p75
F2.4870000000000001
sS'CYS-GLU'
p76
F4.4580000000000002
sS'ASN-GLN'
p77
F2.5470000000000002
sS'CYS-GLY'
p78
F3.7450000000000001
sS'GLN-SER'
p79
F2.7360000000000002
sS'HIS-LYS'
p80
F3.3199999999999998
sS'LYS-GLY'
p81
F3.0169999999999999
sS'VAL-MET'
p82
F3.6779999999999999
sS'GLU-GLY'
p83
F3.1459999999999999
sS'THR-SER'
p84
F3.3340000000000001
sS'TYR-THR'
p85
F3.2130000000000001
sS'PRO-PRO'
p86
F1.673
sS'ILE-PHE'
p87
F3.3860000000000001
sS'PHE-LEU'
p88
F3.246
sS'GLU-GLU'
p89
F2.2919999999999998
sS'SER-ARG'
p90
F2.794
sS'GLY-ALA'
p91
F3.077
sS'TYR-ASN'
p92
F2.907
sS'GLU-GLN'
p93
F3.149
sS'TRP-ARG'
p94
F3.2090000000000001
sS'LEU-GLU'
p95
F3.8279999999999998
sS'LEU-GLY'
p96
F3.52
sS'LYS-SER'
p97
F3.0009999999999999
sS'MET-VAL'
p98
F3.7320000000000002
sS'SER-ALA'
p99
F3.1240000000000001
sS'PRO-HIS'
p100
F2.9550000000000001
sS'MET-THR'
p101
F3.4359999999999999
sS'ALA-PHE'
p102
F3.2890000000000001
sS'MET-PRO'
p103
F3.3959999999999999
sS'GLY-SER'
p104
F2.9329999999999998
sS'LEU-GLN'
p105
F3.3039999999999998
sS'VAL-LEU'
p106
F3.4580000000000002
sS'LEU-CYS'
p107
F4.1639999999999997
sS'LYS-TYR'
p108
F3.1190000000000002
sS'ASP-ALA'
p109
F3.6800000000000002
sS'ILE-LEU'
p110
F3.3679999999999999
sS'TRP-VAL'
p111
F3.5089999999999999
sS'PHE-PRO'
p112
F3.1040000000000001
sS'ALA-ALA'
p113
F2.0619999999999998
sS'ARG-TRP'
p114
F3.0630000000000002
sS'MET-GLN'
p115
F3.2200000000000002
sS'ILE-LYS'
p116
F3.9329999999999998
sS'MET-ARG'
p117
F3.597
sS'ALA-CYS'
p118
F3.7869999999999999
sS'THR-ARG'
p119
F3.2280000000000002
sS'CYS-ILE'
p120
F3.8740000000000001
sS'LEU-ASN'
p121
F3.3660000000000001
sS'LEU-ASP'
p122
F3.8010000000000002
sS'PHE-TRP'
p123
F3.5760000000000001
sS'MET-GLY'
p124
F3.6499999999999999
sS'THR-PHE'
p125
F3.4180000000000001
sS'MET-GLU'
p126
F3.754
sS'THR-TRP'
p127
F3.8439999999999999
sS'THR-TYR'
p128
F3.1200000000000001
sS'CYS-VAL'
p129
F3.8959999999999999
sS'ARG-ALA'
p130
F3.1600000000000001
sS'ALA-TYR'
p131
F3.133
sS'ASP-PRO'
p132
F3.105
sS'ARG-CYS'
p133
F3.5680000000000001
sS'GLN-ARG'
p134
F2.6400000000000001
sS'HIS-TRP'
p135
F3.677
sS'PRO-SER'
p136
F2.9449999999999998
sS'VAL-VAL'
p137
F2.4020000000000001
sS'LEU-LYS'
p138
F3.6899999999999999
sS'GLY-LYS'
p139
F2.9199999999999999
sS'CYS-ASN'
p140
F3.6480000000000001
sS'GLY-TRP'
p141
F3.242
sS'THR-CYS'
p142
F4.2350000000000003
sS'LYS-LYS'
p143
F2.3439999999999999
sS'CYS-ASP'
p144
F4.0949999999999998
sS'TYR-ASP'
p145
F3.0870000000000002
sS'VAL-PRO'
p146
F3.512
sS'THR-VAL'
p147
F3.536
sS'ASP-TYR'
p148
F2.9900000000000002
sS'PRO-CYS'
p149
F3.7010000000000001
sS'VAL-SER'
p150
F3.5310000000000001
sS'ARG-HIS'
p151
F2.8410000000000002
sS'CYS-PRO'
p152
F3.3380000000000001
sS'MET-LYS'
p153
F3.3530000000000002
sS'ALA-SER'
p154
F3.238
sS'TYR-SER'
p155
F3.0920000000000001
sS'GLY-ARG'
p156
F2.609
sS'GLN-ALA'
p157
F3.2160000000000002
sS'MET-LEU'
p158
F3.2549999999999999
sS'ASN-HIS'
p159
F3.052
sS'VAL-CYS'
p160
F4.1470000000000002
sS'GLN-TYR'
p161
F2.9300000000000002
sS'GLN-PHE'
p162
F3.4079999999999999
sS'ILE-ASN'
p163
F3.5699999999999998
sS'GLU-ASN'
p164
F2.8279999999999998
sS'CYS-ALA'
p165
F3.6000000000000001
sS'ASN-ASP'
p166
F2.972
sS'ASN-PRO'
p167
F2.7090000000000001
sS'PRO-ARG'
p168
F2.7090000000000001
sS'LYS-TRP'
p169
F3.585
sS'ASN-ASN'
p170
F1.337
sS'ASN-THR'
p171
F2.9340000000000002
sS'THR-ALA'
p172
F3.4940000000000002
sS'LYS-ALA'
p173
F3.5390000000000001
sS'LYS-PRO'
p174
F3.2400000000000002
sS'SER-GLN'
p175
F2.8250000000000002
sS'ILE-VAL'
p176
F3.6099999999999999
sS'ASP-ARG'
p177
F2.2530000000000001
sS'ASP-MET'
p178
F3.9870000000000001
sS'CYS-TYR'
p179
F3.8540000000000001
sS'PRO-TRP'
p180
F3.206
sS'THR-GLU'
p181
F3.133
sS'TRP-ALA'
p182
F3.2949999999999999
sS'ILE-CYS'
p183
F3.863
sS'LYS-ILE'
p184
F3.8149999999999999
sS'GLN-CYS'
p185
F3.875
sS'TYR-ALA'
p186
F3.2429999999999999
sS'ARG-ASP'
p187
F2.1080000000000001
sS'SER-GLU'
p188
F2.919
sS'TRP-HIS'
p189
F3.4609999999999999
sS'ALA-ASN'
p190
F3.2370000000000001
sS'GLU-CYS'
p191
F4.5179999999999998
sS'PRO-MET'
p192
F3.262
sS'TYR-HIS'
p193
F3.0129999999999999
sS'PHE-MET'
p194
F2.988
sS'GLU-TYR'
p195
F3.101
sS'SER-TRP'
p196
F3.4569999999999999
sS'PHE-ARG'
p197
F3.3090000000000002
sS'GLY-ILE'
p198
F3.714
sS'TYR-VAL'
p199
F3.5830000000000002
sS'ASN-TYR'
p200
F3.008
sS'SER-ILE'
p201
F3.4729999999999999
sS'GLN-PRO'
p202
F2.7400000000000002
sS'PHE-TYR'
p203
F3.2189999999999999
sS'ALA-VAL'
p204
F3.5230000000000001
sS'HIS-HIS'
p205
F0.81299999999999994
sS'THR-ASN'
p206
F2.964
sS'CYS-LEU'
p207
F4.2439999999999998
sS'LYS-MET'
p208
F3.4260000000000002
sS'LYS-ASP'
p209
F2.524
sS'HIS-ASN'
p210
F3.032
sS'ILE-GLN'
p211
F3.4329999999999998
sS'VAL-HIS'
p212
F3.706
sS'ALA-LEU'
p213
F3.2970000000000002
sS'HIS-ASP'
p214
F2.8239999999999998
sS'ILE-TYR'
p215
F3.3239999999999998
sS'ILE-GLU'
p216
F3.7829999999999999
sS'ASN-TRP'
p217
F3.5760000000000001
sS'ILE-GLY'
p218
F3.8460000000000001
sS'ASN-CYS'
p219
F3.6059999999999999
sS'GLU-SER'
p220
F3.0310000000000001
sS'ALA-TRP'
p221
F3.206
sS'HIS-CYS'
p222
F3.9569999999999999
sS'HIS-MET'
p223
F3.7890000000000001
sS'ILE-PRO'
p224
F3.3399999999999999
sS'LYS-PHE'
p225
F3.7170000000000001
sS'TRP-PRO'
p226
F3.2589999999999999
sS'GLU-TRP'
p227
F3.5110000000000001
sS'PHE-HIS'
p228
F3.5579999999999998
sS'GLY-TYR'
p229
F2.883
sS'SER-GLY'
p230
F2.8879999999999999
sS'CYS-TRP'
p231
F4.5819999999999999
sS'ASP-LYS'
p232
F2.5299999999999998
sS'ASN-ILE'
p233
F3.4630000000000001
sS'HIS-SER'
p234
F3.0750000000000002
sS'LYS-CYS'
p235
F3.9049999999999998
sS'GLY-PHE'
p236
F3.4830000000000001
sS'GLY-LEU'
p237
F3.4249999999999998
sS'MET-SER'
p238
F3.4279999999999999
sS'VAL-ALA'
p239
F3.5979999999999999
sS'SER-LEU'
p240
F3.5
sS'TRP-LYS'
p241
F3.6360000000000001
sS'VAL-TYR'
p242
F3.6640000000000001
sS'VAL-PHE'
p243
F3.5409999999999999
sS'ARG-THR'
p244
F3.2000000000000002
sS'TYR-TRP'
p245
F3.294
sS'GLN-GLN'
p246
F1.2849999999999999
sS'GLU-PHE'
p247
F3.5800000000000001
sS'VAL-ILE'
p248
F3.5870000000000002
sS'HIS-GLN'
p249
F3.048
sS'GLN-GLY'
p250
F2.6419999999999999
sS'PHE-ALA'
p251
F3.2839999999999998
sS'HIS-GLU'
p252
F2.7440000000000002
sS'ARG-PRO'
p253
F2.7130000000000001
sS'HIS-GLY'
p254
F3.202
sS'SER-ASN'
p255
F2.9350000000000001
sS'ALA-THR'
p256
F3.4870000000000001
sS'GLN-GLU'
p257
F2.9180000000000001
sS'GLN-LYS'
p258
F2.8559999999999999
sS'CYS-HIS'
p259
F3.9300000000000002
sS'GLN-ASP'
p260
F2.988
sS'LEU-HIS'
p261
F3.3119999999999998
sS'SER-LYS'
p262
F3.0699999999999998
sS'TRP-LEU'
p263
F3.3380000000000001
sS'CYS-SER'
p264
F3.9089999999999998
sS'LYS-THR'
p265
F3.5099999999999998
sS'HIS-LEU'
p266
F3.5070000000000001
sS'LEU-ARG'
p267
F3.2679999999999998
sS'GLY-VAL'
p268
F3.3900000000000001
sS'GLN-ASN'
p269
F2.661
sS'TYR-ARG'
p270
F2.8860000000000001
sS'PRO-TYR'
p271
F2.782
sS'ASP-PHE'
p272
F3.8879999999999999
sS'TRP-CYS'
p273
F4.8840000000000003
sS'ASN-LEU'
p274
F3.3759999999999999
sS'SER-MET'
p275
F3.5609999999999999
sS'HIS-ILE'
p276
F3.7320000000000002
sS'SER-TYR'
p277
F3.0920000000000001
sS'MET-TYR'
p278
F3.0910000000000002
sS'GLU-ILE'
p279
F3.77
sS'PHE-CYS'
p280
F3.6030000000000002
sS'PRO-LEU'
p281
F3.3090000000000002
sS'GLY-MET'
p282
F3.4609999999999999
sS'ARG-ILE'
p283
F3.4569999999999999
sS'HIS-THR'
p284
F3.258
sS'THR-GLN'
p285
F2.8239999999999998
sS'TRP-THR'
p286
F3.6930000000000001
sS'LYS-LEU'
p287
F3.7759999999999998
sS'THR-GLY'
p288
F2.988
sS'ASP-TRP'
p289
F3.9809999999999999
sS'TYR-MET'
p290
F3.1299999999999999
sS'PHE-ILE'
p291
F3.3900000000000001
sS'PRO-VAL'
p292
F3.5169999999999999
sS'MET-ASN'
p293
F3.3319999999999999
sS'LEU-TYR'
p294
F3.282
sS'PHE-PHE'
p295
F1.871
sS'CYS-PHE'
p296
F3.859
sS'TRP-ILE'
p297
F3.71
sS'PRO-ASN'
p298
F2.9940000000000002
sS'CYS-CYS'
p299
F-0.245
sS'SER-ASP'
p300
F3.1880000000000002
sS'ARG-MET'
p301
F3.4199999999999999
sS'SER-PHE'
p302
F3.4830000000000001
sS'SER-SER'
p303
F1.7969999999999999
sS'ASN-LYS'
p304
F3.089
sS'CYS-THR'
p305
F4.367
sS'ILE-TRP'
p306
F3.48
sS'PRO-ASP'
p307
F3.1539999999999999
sS'THR-ASP'
p308
F3.2989999999999999
sS'SER-CYS'
p309
F3.911
sS'MET-ASP'
p310
F3.911
sS'GLN-MET'
p311
F3.29
sS'MET-TRP'
p312
F3.5259999999999998
sS'ARG-VAL'
p313
F3.3100000000000001
sS'GLY-GLN'
p314
F2.6880000000000002
sS'THR-LYS'
p315
F3.5310000000000001
sS'TRP-MET'
p316
F3.6139999999999999
sS'ARG-ARG'
p317
F1.359
sS'ILE-ASP'
p318
F3.855
sS'GLY-GLY'
p319
F1.5740000000000001
sS'GLY-GLU'
p320
F3.2879999999999998
sS'ALA-ARG'
p321
F3.1120000000000001
sS'GLU-ARG'
p322
F2.2559999999999998
sS'HIS-VAL'
p323
F3.7389999999999999
sS'VAL-ARG'
p324
F3.335
sS'ASN-SER'
p325
F2.8700000000000001
sS'ALA-LYS'
p326
F3.5539999999999998
sS'VAL-GLN'
p327
F3.448
sS'TRP-ASN'
p328
F3.2890000000000001
sS'TYR-ILE'
p329
F3.3109999999999999
sS'TRP-GLY'
p330
F3.1139999999999999
sS'PRO-PHE'
p331
F3.089
sS'GLY-HIS'
p332
F2.9990000000000001
sS'PHE-SER'
p333
F3.484
sS'TRP-ASP'
p334
F3.8410000000000002
sS'TRP-GLN'
p335
F3.2629999999999999
sS'LEU-ALA'
p336
F3.4039999999999999
sS'VAL-GLU'
p337
F3.7130000000000001
sS'ALA-HIS'
p338
F3.2349999999999999
sS'ARG-ASN'
p339
F2.4990000000000001
sS'LEU-THR'
p340
F3.5880000000000001
sS'TYR-CYS'
p341
F4.173
sS'THR-THR'
p342
F1.879
sS'THR-LEU'
p343
F3.504
sS'VAL-ASN'
p344
F3.4590000000000001
sS'LEU-TRP'
p345
F3.3439999999999999
sS'GLU-ASP'
p346
F3.427
sS'ILE-SER'
p347
F3.5089999999999999
sS'ILE-ARG'
p348
F3.4580000000000002
sS'TRP-GLU'
p349
F3.5230000000000001
sS'ILE-MET'
p350
F3.5579999999999998
sS'MET-PHE'
p351
F3.0680000000000001
sS'PRO-ALA'
p352
F2.9140000000000001
sS'PRO-GLY'
p353
F3.008
sS'GLN-THR'
p354
F3.0150000000000001
sS'MET-ALA'
p355
F3.7650000000000001
sS'TRP-SER'
p356
F3.5190000000000001
sS'ASP-HIS'
p357
F2.8769999999999998
sS'ARG-SER'
p358
F2.7679999999999998
sS'GLN-HIS'
p359
F2.871
sS'HIS-PHE'
p360
F3.4590000000000001
sS'LEU-LEU'
p361
F2.2229999999999999
sS'ALA-GLN'
p362
F3.0529999999999999
sS'ASP-ASN'
p363
F2.9249999999999998
sS'SER-VAL'
p364
F3.5939999999999999
sS'MET-ILE'
p365
F3.6859999999999999
sS'ALA-PRO'
p366
F3.2610000000000001
sS'ASP-ASP'
p367
F2.3410000000000002
sS'ALA-GLY'
p368
F3.1909999999999998
sS'TRP-TRP'
p369
F1.6990000000000001
sS'MET-CYS'
p370
F4.4820000000000002
sS'ALA-GLU'
p371
F3.5009999999999999
sS'THR-PRO'
p372
F2.8730000000000002
sS'HIS-ALA'
p373
F3.4340000000000002
sS'GLN-ILE'
p374
F3.2829999999999999
sS'GLU-VAL'
p375
F3.6000000000000001
sS'LYS-ASN'
p376
F3.1059999999999999
sS'ASN-ALA'
p377
F3.2389999999999999
sS'THR-ILE'
p378
F3.331
sS'ASP-CYS'
p379
F4.3399999999999999
sS'PRO-LYS'
p380
F3.3540000000000001
sS'TYR-TYR'
p381
F1.841
sS'ARG-LYS'
p382
F3.097
sS'ILE-ALA'
p383
F3.5270000000000001
sS'ASP-SER'
p384
F3.1659999999999999
sS'CYS-LYS'
p385
F4.1079999999999997
sS'GLU-ALA'
p386
F3.4359999999999999
sS'PHE-GLU'
p387
F3.6230000000000002
sS'GLU-LEU'
p388
F3.7040000000000002
sS'PHE-GLY'
p389
F3.4220000000000002
sS'LYS-HIS'
p390
F3.1160000000000001
sS'HIS-PRO'
p391
F3.0049999999999999
sS'ILE-ILE'
p392
F2.1030000000000002
sS'MET-HIS'
p393
F3.5739999999999998
sS'VAL-GLY'
p394
F3.4809999999999999
sS'THR-MET'
p395
F3.552
sS'PHE-THR'
p396
F3.5379999999999998
sS'VAL-TRP'
p397
F3.661
sS'PHE-LYS'
p398
F3.6030000000000002
sS'GLY-PRO'
p399
F2.8610000000000002
sS'PHE-GLN'
p400
F3.339
sS'LEU-PHE'
p401
F3.2650000000000001
s.