(dp1
S'MET-MET'
p2
F-2.4209999999999998
sS'PRO-ILE'
p3
F-0.46400000000000002
sS'TYR-LYS'
p4
F-1.2529999999999999
sS'VAL-ASP'
p5
F0.106
sS'ASP-GLN'
p6
F-0.81699999999999995
sS'HIS-TYR'
p7
F-1.5369999999999999
sS'ASP-GLU'
p8
F-0.55300000000000005
sS'ALA-ASP'
p9
F0.13900000000000001
sS'ASP-GLY'
p10
F0.0070000000000000001
sS'LEU-VAL'
p11
F-0.20699999999999999
sS'TRP-TYR'
p12
F-1.272
sS'GLN-TRP'
p13
F-1.0840000000000001
sS'TRP-PHE'
p14
F-1.224
sS'ARG-TYR'
p15
F-1.7050000000000001
sS'GLU-LYS'
p16
F-1.631
sS'ILE-HIS'
p17
F-0.47999999999999998
sS'LEU-MET'
p18
F-0.42799999999999999
sS'GLU-HIS'
p19
F-1.4370000000000001
sS'GLY-THR'
p20
F-0.154
sS'ARG-GLU'
p21
F-1.9990000000000001
sS'PHE-ASN'
p22
F-0.78800000000000003
sS'ASN-MET'
p23
F-0.30599999999999999
sS'PRO-THR'
p24
F-0.64400000000000002
sS'TYR-GLN'
p25
F-1.2949999999999999
sS'ARG-GLY'
p26
F-1.03
sS'VAL-THR'
p27
F-0.085999999999999993
sS'ASP-ILE'
p28
F-0.0050000000000000001
sS'THR-HIS'
p29
F-0.60999999999999999
sS'TYR-GLU'
p30
F-1.2450000000000001
sS'ARG-GLN'
p31
F-1.6080000000000001
sS'TYR-GLY'
p32
F-0.755
sS'PHE-ASP'
p33
F-0.42299999999999999
sS'CYS-ARG'
p34
F-0.14499999999999999
sS'GLY-ASN'
p35
F-0.63500000000000001
sS'VAL-LYS'
p36
F-0.001
sS'LEU-ILE'
p37
F-0.44
sS'GLN-LEU'
p38
F-0.627
sS'GLU-MET'
p39
F-0.371
sS'ASP-THR'
p40
F-0.374
sS'ASN-PHE'
p41
F-0.79700000000000004
sS'GLU-PRO'
p42
F-0.82899999999999996
sS'TYR-LEU'
p43
F-0.95699999999999996
sS'LYS-ARG'
p44
F-1.0489999999999999
sS'GLY-ASP'
p45
F-0.105
sS'PRO-GLN'
p46
F-1.2170000000000001
sS'CYS-MET'
p47
F0.53700000000000003
sS'HIS-ARG'
p48
F-1.319
sS'GLU-THR'
p49
F-0.70899999999999996
sS'ILE-THR'
p50
F-0.27200000000000002
sS'SER-PRO'
p51
F-0.626
sS'GLY-CYS'
p52
F-0.069000000000000006
sS'ARG-LEU'
p53
F-0.98599999999999999
sS'PRO-GLU'
p54
F-0.76800000000000002
sS'ASP-LEU'
p55
F-0.104
sS'PHE-VAL'
p56
F-0.505
sS'ASN-VAL'
p57
F-0.245
sS'ALA-MET'
p58
F0.112
sS'LEU-PRO'
p59
F-0.47099999999999997
sS'LEU-SER'
p60
F-0.10199999999999999
sS'ASN-ARG'
p61
F-1.3939999999999999
sS'SER-THR'
p62
F-0.17100000000000001
sS'LYS-VAL'
p63
F-0.070999999999999994
sS'LYS-GLN'
p64
F-1.258
sS'GLN-VAL'
p65
F-0.35499999999999998
sS'TYR-PHE'
p66
F-1.1859999999999999
sS'ASP-VAL'
p67
F0.17999999999999999
sS'ASN-GLY'
p68
F-0.52000000000000002
sS'ARG-PHE'
p69
F-1.1879999999999999
sS'SER-HIS'
p70
F-0.80300000000000005
sS'ALA-ILE'
p71
F-0.036999999999999998
sS'ASN-GLU'
p72
F-1.05
sS'CYS-GLN'
p73
F-0.114
sS'TYR-PRO'
p74
F-1.359
sS'LYS-GLU'
p75
F-1.591
sS'CYS-GLU'
p76
F0.75700000000000001
sS'ASN-GLN'
p77
F-1.3959999999999999
sS'CYS-GLY'
p78
F0.73999999999999999
sS'GLN-SER'
p79
F-0.94499999999999995
sS'HIS-LYS'
p80
F-0.83499999999999996
sS'LYS-GLY'
p81
F-0.43099999999999999
sS'VAL-MET'
p82
F-0.099000000000000005
sS'GLU-GLY'
p83
F-0.254
sS'THR-SER'
p84
F-0.20899999999999999
sS'TYR-THR'
p85
F-0.91600000000000004
sS'PRO-PRO'
p86
F-2.0129999999999999
sS'ILE-PHE'
p87
F-0.82999999999999996
sS'PHE-LEU'
p88
F-0.90000000000000002
sS'GLU-GLU'
p89
F-1.859
sS'SER-ARG'
p90
F-1.0980000000000001
sS'GLY-ALA'
p91
F0.218
sS'TYR-ASN'
p92
F-1.325
sS'GLU-GLN'
p93
F-0.90800000000000003
sS'TRP-ARG'
p94
F-1.476
sS'LEU-GLU'
p95
F-0.126
sS'LEU-GLY'
p96
F0.26700000000000002
sS'LYS-SER'
p97
F-0.70599999999999996
sS'MET-VAL'
p98
F-0.0089999999999999993
sS'SER-ALA'
p99
F-0.067000000000000004
sS'PRO-HIS'
p100
F-0.99099999999999999
sS'MET-THR'
p101
F-0.39700000000000002
sS'ALA-PHE'
p102
F-0.46600000000000003
sS'MET-PRO'
p103
F-0.32400000000000001
sS'GLY-SER'
p104
F-0.073999999999999996
sS'LEU-GLN'
p105
F-0.60399999999999998
sS'VAL-LEU'
p106
F-0.31
sS'LEU-CYS'
p107
F0.47399999999999998
sS'LYS-TYR'
p108
F-1.258
sS'ASP-ALA'
p109
F0.19500000000000001
sS'ILE-LEU'
p110
F-0.59699999999999998
sS'TRP-VAL'
p111
F-0.77800000000000002
sS'PHE-PRO'
p112
F-0.98399999999999999
sS'ALA-ALA'
p113
F-1.038
sS'ARG-TRP'
p114
F-1.613
sS'MET-GLN'
p115
F-0.625
sS'ILE-LYS'
p116
F-0.081000000000000003
sS'MET-ARG'
p117
F-0.54300000000000004
sS'ALA-CYS'
p118
F0.60499999999999998
sS'THR-ARG'
p119
F-0.93100000000000005
sS'CYS-ILE'
p120
F0.247
sS'LEU-ASN'
p121
F-0.46999999999999997
sS'LEU-ASP'
p122
F-0.040000000000000001
sS'PHE-TRP'
p123
F-1.0880000000000001
sS'MET-GLY'
p124
F0.30299999999999999
sS'THR-PHE'
p125
F-0.75900000000000001
sS'MET-GLU'
p126
F-0.24199999999999999
sS'THR-TRP'
p127
F-0.435
sS'THR-TYR'
p128
F-1.0249999999999999
sS'CYS-VAL'
p129
F0.41399999999999998
sS'ARG-ALA'
p130
F-0.61199999999999999
sS'ALA-TYR'
p131
F-0.76900000000000002
sS'ASP-PRO'
p132
F-0.61299999999999999
sS'ARG-CYS'
p133
F-0.32300000000000001
sS'GLN-ARG'
p134
F-1.595
sS'HIS-TRP'
p135
F-0.86299999999999999
sS'PRO-SER'
p136
F-0.51500000000000001
sS'VAL-VAL'
p137
F-1.272
sS'LEU-LYS'
p138
F-0.28499999999999998
sS'GLY-LYS'
p139
F-0.47299999999999998
sS'CYS-ASN'
p140
F0.019
sS'GLY-TRP'
p141
F-0.55600000000000005
sS'THR-CYS'
p142
F0.69399999999999995
sS'LYS-LYS'
p143
F-1.6619999999999999
sS'CYS-ASP'
p144
F0.46300000000000002
sS'TYR-ASP'
p145
F-1.1399999999999999
sS'VAL-PRO'
p146
F-0.185
sS'THR-VAL'
p147
F-0.13500000000000001
sS'ASP-TYR'
p148
F-1.2629999999999999
sS'PRO-CYS'
p149
F0.18099999999999999
sS'VAL-SER'
p150
F0.035999999999999997
sS'ARG-HIS'
p151
F-1.48
sS'CYS-PRO'
p152
F-0.13200000000000001
sS'MET-LYS'
p153
F-0.63700000000000001
sS'ALA-SER'
p154
F0.051999999999999998
sS'TYR-SER'
p155
F-0.90200000000000002
sS'GLY-ARG'
p156
F-0.91000000000000003
sS'GLN-ALA'
p157
F-0.38500000000000001
sS'MET-LEU'
p158
F-0.56000000000000005
sS'ASN-HIS'
p159
F-1.018
sS'VAL-CYS'
p160
F0.57199999999999995
sS'GLN-TYR'
p161
F-1.383
sS'GLN-PHE'
p162
F-0.875
sS'ILE-ASN'
p163
F-0.29699999999999999
sS'GLU-ASN'
p164
F-1.1140000000000001
sS'CYS-ALA'
p165
F0.38200000000000001
sS'ASN-ASP'
p166
F-0.82799999999999996
sS'ASN-PRO'
p167
F-1.04
sS'PRO-ARG'
p168
F-1.2869999999999999
sS'LYS-TRP'
p169
F-0.90500000000000003
sS'ASN-ASN'
p170
F-2.5259999999999998
sS'ASN-THR'
p171
F-0.753
sS'THR-ALA'
p172
F0.055
sS'LYS-ALA'
p173
F-0.0030000000000000001
sS'LYS-PRO'
p174
F-0.57099999999999995
sS'SER-GLN'
p175
F-0.84199999999999997
sS'ILE-VAL'
p176
F-0.183
sS'ASP-ARG'
p177
F-1.8919999999999999
sS'ASP-MET'
p178
F0.057000000000000002
sS'CYS-TYR'
p179
F-0.070000000000000007
sS'PRO-TRP'
p180
F-1.0660000000000001
sS'THR-GLU'
p181
F-0.71699999999999997
sS'TRP-ALA'
p182
F-0.66800000000000004
sS'ILE-CYS'
p183
F0.21099999999999999
sS'LYS-ILE'
p184
F-0.115
sS'GLN-CYS'
p185
F0.16900000000000001
sS'TYR-ALA'
p186
F-0.54900000000000004
sS'ARG-ASP'
p187
F-2.004
sS'SER-GLU'
p188
F-0.80100000000000005
sS'TRP-HIS'
p189
F-1.091
sS'ALA-ASN'
p190
F-0.19400000000000001
sS'GLU-CYS'
p191
F0.76500000000000001
sS'PRO-MET'
p192
F-0.443
sS'TYR-HIS'
p193
F-1.3779999999999999
sS'PHE-MET'
p194
F-1.097
sS'GLU-TYR'
p195
F-1.278
sS'SER-TRP'
p196
F-0.70599999999999996
sS'PHE-ARG'
p197
F-1.125
sS'GLY-ILE'
p198
F0.42699999999999999
sS'TYR-VAL'
p199
F-0.56000000000000005
sS'ASN-TYR'
p200
F-1.212
sS'SER-ILE'
p201
F-0.11
sS'GLN-PRO'
p202
F-1.1819999999999999
sS'PHE-TYR'
p203
F-1.256
sS'ALA-VAL'
p204
F0.14899999999999999
sS'HIS-HIS'
p205
F-3.544
sS'THR-ASN'
p206
F-0.75700000000000001
sS'CYS-LEU'
p207
F0.63800000000000001
sS'LYS-MET'
p208
F-0.49099999999999999
sS'LYS-ASP'
p209
F-1.4510000000000001
sS'HIS-ASN'
p210
F-1.0469999999999999
sS'ILE-GLN'
p211
F-0.56599999999999995
sS'VAL-HIS'
p212
F-0.34799999999999998
sS'ALA-LEU'
p213
F-0.17199999999999999
sS'HIS-ASP'
p214
F-1.24
sS'ILE-TYR'
p215
F-0.93200000000000005
sS'ILE-GLU'
p216
F-0.25
sS'ASN-TRP'
p217
F-0.81100000000000005
sS'ILE-GLY'
p218
F0.55300000000000005
sS'ASN-CYS'
p219
F-0.086999999999999994
sS'GLU-SER'
p220
F-0.754
sS'ALA-TRP'
p221
F-0.76300000000000001
sS'HIS-CYS'
p222
F0.122
sS'HIS-MET'
p223
F-0.27300000000000002
sS'ILE-PRO'
p224
F-0.44600000000000001
sS'LYS-PHE'
p225
F-0.45200000000000001
sS'TRP-PRO'
p226
F-0.999
sS'GLU-TRP'
p227
F-0.96499999999999997
sS'PHE-HIS'
p228
F-0.82999999999999996
sS'GLY-TYR'
p229
F-0.80000000000000004
sS'SER-GLY'
p230
F-0.107
sS'CYS-TRP'
p231
F0.42799999999999999
sS'ASP-LYS'
p232
F-1.446
sS'ASN-ILE'
p233
F-0.45400000000000001
sS'HIS-SER'
p234
F-0.80500000000000005
sS'LYS-CYS'
p235
F0.28299999999999997
sS'GLY-PHE'
p236
F-0.073999999999999996
sS'GLY-LEU'
p237
F0.17299999999999999
sS'MET-SER'
p238
F-0.20599999999999999
sS'VAL-ALA'
p239
F0.22500000000000001
sS'SER-LEU'
p240
F-0.13900000000000001
sS'TRP-LYS'
p241
F-0.81200000000000006
sS'VAL-TYR'
p242
F-0.44600000000000001
sS'VAL-PHE'
p243
F-0.56699999999999995
sS'ARG-THR'
p244
F-0.94399999999999995
sS'TYR-TRP'
p245
F-1.4350000000000001
sS'GLN-GLN'
p246
F-2.823
sS'GLU-PHE'
p247
F-0.67000000000000004
sS'VAL-ILE'
p248
F-0.20100000000000001
sS'HIS-GLN'
p249
F-1.0960000000000001
sS'GLN-GLY'
p250
F-0.73999999999999999
sS'PHE-ALA'
p251
F-0.46100000000000002
sS'HIS-GLU'
p252
F-1.421
sS'ARG-PRO'
p253
F-1.329
sS'HIS-GLY'
p254
F-0.32900000000000001
sS'SER-ASN'
p255
F-0.67200000000000004
sS'ALA-THR'
p256
F0.066000000000000003
sS'GLN-GLU'
p257
F-1.099
sS'GLN-LYS'
p258
F-1.1950000000000001
sS'CYS-HIS'
p259
F0.152
sS'GLN-ASP'
p260
F-0.93600000000000005
sS'LEU-HIS'
p261
F-0.69299999999999995
sS'SER-LYS'
p262
F-0.69999999999999996
sS'TRP-LEU'
p263
F-0.97299999999999998
sS'CYS-SER'
p264
F0.38800000000000001
sS'LYS-THR'
p265
F-0.33100000000000002
sS'HIS-LEU'
p266
F-0.505
sS'LEU-ARG'
p267
F-0.90100000000000002
sS'GLY-VAL'
p268
F0.20200000000000001
sS'GLN-ASN'
p269
F-1.258
sS'TYR-ARG'
p270
F-1.579
sS'PRO-TYR'
p271
F-1.349
sS'ASP-PHE'
p272
F-0.33400000000000002
sS'TRP-CYS'
p273
F0.69399999999999995
sS'ASN-LEU'
p274
F-0.45200000000000001
sS'SER-MET'
p275
F-0.076999999999999999
sS'HIS-ILE'
p276
F-0.40500000000000003
sS'SER-TYR'
p277
F-0.91500000000000004
sS'MET-TYR'
p278
F-1.145
sS'GLU-ILE'
p279
F-0.22
sS'PHE-CYS'
p280
F-0.32800000000000001
sS'PRO-LEU'
p281
F-0.41199999999999998
sS'GLY-MET'
p282
F0.082000000000000003
sS'ARG-ILE'
p283
F-0.71099999999999997
sS'HIS-THR'
p284
F-0.66900000000000004
sS'THR-GLN'
p285
F-1.046
sS'TRP-THR'
p286
F-0.55100000000000005
sS'LYS-LEU'
p287
F-0.13600000000000001
sS'THR-GLY'
p288
F-0.21199999999999999
sS'ASP-TRP'
p289
F-0.373
sS'TYR-MET'
p290
F-1.0409999999999999
sS'PHE-ILE'
p291
F-0.80700000000000005
sS'PRO-VAL'
p292
F-0.114
sS'MET-ASN'
p293
F-0.56399999999999995
sS'LEU-TYR'
p294
F-0.97099999999999997
sS'PHE-PHE'
p295
F-2.605
sS'CYS-PHE'
p296
F-0.091999999999999998
sS'TRP-ILE'
p297
F-0.75800000000000001
sS'PRO-ASN'
p298
F-0.79900000000000004
sS'CYS-CYS'
p299
F-3.754
sS'SER-ASP'
p300
F-0.45600000000000002
sS'ARG-MET'
p301
F-0.73699999999999999
sS'SER-PHE'
p302
F-0.46600000000000003
sS'SER-SER'
p303
F-1.597
sS'ASN-LYS'
p304
F-0.86699999999999999
sS'CYS-THR'
p305
F0.84099999999999997
sS'ILE-TRP'
p306
F-0.93100000000000005
sS'PRO-ASP'
p307
F-0.66100000000000003
sS'THR-ASP'
p308
F-0.40600000000000003
sS'SER-CYS'
p309
F0.46000000000000002
sS'MET-ASP'
p310
F-0.010999999999999999
sS'GLN-MET'
p311
F-0.66000000000000003
sS'MET-TRP'
p312
F-0.81100000000000005
sS'ARG-VAL'
p313
F-0.749
sS'GLY-GLN'
p314
F-0.69799999999999995
sS'THR-LYS'
p315
F-0.33900000000000002
sS'TRP-MET'
p316
F-0.747
sS'ARG-ARG'
p317
F-3.0630000000000002
sS'ILE-ASP'
p318
F0.0089999999999999993
sS'GLY-GLY'
p319
F-1.147
sS'GLY-GLU'
p320
F-0.10100000000000001
sS'ALA-ARG'
p321
F-0.57399999999999995
sS'GLU-ARG'
p322
F-1.97
sS'HIS-VAL'
p323
F-0.27300000000000002
sS'VAL-ARG'
p324
F-0.73099999999999998
sS'ASN-SER'
p325
F-0.75
sS'ALA-LYS'
p326
F0.021000000000000001
sS'VAL-GLN'
p327
F-0.42099999999999999
sS'TRP-ASN'
p328
F-1.127
sS'TYR-ILE'
p329
F-0.96499999999999997
sS'TRP-GLY'
p330
F-0.73999999999999999
sS'PRO-PHE'
p331
F-0.96799999999999997
sS'GLY-HIS'
p332
F-0.46200000000000002
sS'PHE-SER'
p333
F-0.39800000000000002
sS'TRP-ASP'
p334
F-0.47599999999999998
sS'TRP-GLN'
p335
F-1.204
sS'LEU-ALA'
p336
F-0.129
sS'VAL-GLU'
p337
F-0.113
sS'ALA-HIS'
p338
F-0.47899999999999998
sS'ARG-ASN'
p339
F-1.591
sS'LEU-THR'
p340
F-0.088999999999999996
sS'TYR-CYS'
p341
F0.28799999999999998
sS'THR-THR'
p342
F-1.744
sS'THR-LEU'
p343
F-0.33100000000000002
sS'VAL-ASN'
p344
F-0.26800000000000002
sS'LEU-TRP'
p345
F-1.006
sS'GLU-ASP'
p346
F-0.55200000000000005
sS'ILE-SER'
p347
F-0.109
sS'ILE-ARG'
p348
F-0.72499999999999998
sS'TRP-GLU'
p349
F-0.93400000000000005
sS'ILE-MET'
p350
F-0.30099999999999999
sS'MET-PHE'
p351
F-0.97899999999999998
sS'PRO-ALA'
p352
F-0.39900000000000002
sS'PRO-GLY'
p353
F-0.22800000000000001
sS'GLN-THR'
p354
F-0.89000000000000001
sS'MET-ALA'
p355
F0.31
sS'TRP-SER'
p356
F-0.71199999999999997
sS'ASP-HIS'
p357
F-1.2110000000000001
sS'ARG-SER'
p358
F-1.1459999999999999
sS'GLN-HIS'
p359
F-1.212
sS'HIS-PHE'
p360
F-0.86799999999999999
sS'LEU-LEU'
p361
F-1.7250000000000001
sS'ALA-GLN'
p362
F-0.52800000000000002
sS'ASP-ASN'
p363
F-0.85999999999999999
sS'SER-VAL'
p364
F0.108
sS'MET-ILE'
p365
F-0.219
sS'ALA-PRO'
p366
F-0.040000000000000001
sS'ASP-ASP'
p367
F-1.5840000000000001
sS'ALA-GLY'
p368
F0.33500000000000002
sS'TRP-TRP'
p369
F-3.282
sS'MET-CYS'
p370
F0.85399999999999998
sS'ALA-GLU'
p371
F-0.039
sS'THR-PRO'
p372
F-0.73699999999999999
sS'HIS-ALA'
p373
F-0.27100000000000002
sS'GLN-ILE'
p374
F-0.73199999999999998
sS'GLU-VAL'
p375
F-0.25800000000000001
sS'LYS-ASN'
p376
F-0.85199999999999998
sS'ASN-ALA'
p377
F-0.247
sS'THR-ILE'
p378
F-0.42199999999999999
sS'ASP-CYS'
p379
F0.76300000000000001
sS'PRO-LYS'
p380
F-0.55900000000000005
sS'TYR-TYR'
p381
F-2.8050000000000002
sS'ARG-LYS'
p382
F-1.1579999999999999
sS'ILE-ALA'
p383
F0.115
sS'ASP-SER'
p384
F-0.53000000000000003
sS'CYS-LYS'
p385
F0.34000000000000002
sS'GLU-ALA'
p386
F-0.16
sS'PHE-GLU'
p387
F-0.54500000000000004
sS'GLU-LEU'
p388
F-0.27400000000000002
sS'PHE-GLY'
p389
F-0.184
sS'LYS-HIS'
p390
F-1.077
sS'HIS-PRO'
p391
F-0.95999999999999996
sS'ILE-ILE'
p392
F-1.766
sS'MET-HIS'
p393
F-0.495
sS'VAL-GLY'
p394
F0.33200000000000002
sS'THR-MET'
p395
F-0.26000000000000001
sS'PHE-THR'
p396
F-0.63600000000000001
sS'VAL-TRP'
p397
F-0.53200000000000003
sS'PHE-LYS'
p398
F-0.58199999999999996
sS'GLY-PRO'
p399
F-0.26700000000000002
sS'PHE-GLN'
p400
F-0.86699999999999999
sS'LEU-PHE'
p401
F-0.89000000000000001
s.