(dp1
S'MET-MET'
p2
F-0.54900000000000004
sS'PRO-ILE'
p3
F0.98599999999999999
sS'TYR-LYS'
p4
F1.1499999999999999
sS'VAL-ASP'
p5
F1.224
sS'ASP-GLN'
p6
F0.65300000000000002
sS'HIS-TYR'
p7
F-0.12
sS'ASP-GLU'
p8
F1.3300000000000001
sS'ALA-ASP'
p9
F0.52000000000000002
sS'ASP-GLY'
p10
F0.115
sS'LEU-VAL'
p11
F1.4990000000000001
sS'TRP-TYR'
p12
F-0.058000000000000003
sS'GLN-TRP'
p13
F1.518
sS'TRP-PHE'
p14
F1.089
sS'ARG-TYR'
p15
F1.2410000000000001
sS'GLU-LYS'
p16
F1.0029999999999999
sS'ILE-HIS'
p17
F0.89200000000000002
sS'LEU-MET'
p18
F1.4690000000000001
sS'GLU-HIS'
p19
F0.14099999999999999
sS'GLY-THR'
p20
F0.069000000000000006
sS'ARG-GLU'
p21
F0.42999999999999999
sS'PHE-ASN'
p22
F1.139
sS'ASN-MET'
p23
F1.0349999999999999
sS'PRO-THR'
p24
F0.46600000000000003
sS'TYR-GLN'
p25
F0.84699999999999998
sS'ARG-GLY'
p26
F-0.01
sS'VAL-THR'
p27
F0.77200000000000002
sS'ASP-ILE'
p28
F0.85399999999999998
sS'THR-HIS'
p29
F0.81599999999999995
sS'TYR-GLU'
p30
F1.089
sS'ARG-GLN'
p31
F0.217
sS'TYR-GLY'
p32
F0.20599999999999999
sS'PHE-ASP'
p33
F0.23200000000000001
sS'CYS-ARG'
p34
F2.234
sS'GLY-ASN'
p35
F-0.53800000000000003
sS'VAL-LYS'
p36
F1.3520000000000001
sS'LEU-ILE'
p37
F1.3520000000000001
sS'GLN-LEU'
p38
F1.3400000000000001
sS'GLU-MET'
p39
F0.88400000000000001
sS'ASP-THR'
p40
F0.58599999999999997
sS'ASN-PHE'
p41
F1.55
sS'GLU-PRO'
p42
F0.76100000000000001
sS'TYR-LEU'
p43
F0.91700000000000004
sS'LYS-ARG'
p44
F0.58399999999999996
sS'GLY-ASP'
p45
F-0.060999999999999999
sS'PRO-GLN'
p46
F0.88100000000000001
sS'CYS-MET'
p47
F2.887
sS'HIS-ARG'
p48
F0.76500000000000001
sS'GLU-THR'
p49
F0.37
sS'ILE-THR'
p50
F0.71699999999999997
sS'SER-PRO'
p51
F0.29699999999999999
sS'GLY-CYS'
p52
F0.45500000000000002
sS'ARG-LEU'
p53
F1.1020000000000001
sS'PRO-GLU'
p54
F0.32100000000000001
sS'ASP-LEU'
p55
F1.1870000000000001
sS'PHE-VAL'
p56
F0.97299999999999998
sS'ASN-VAL'
p57
F1.4470000000000001
sS'ALA-MET'
p58
F2.101
sS'LEU-PRO'
p59
F0.97999999999999998
sS'LEU-SER'
p60
F0.66600000000000004
sS'ASN-ARG'
p61
F0.308
sS'SER-THR'
p62
F0.13500000000000001
sS'LYS-VAL'
p63
F0.81200000000000006
sS'LYS-GLN'
p64
F0.19600000000000001
sS'GLN-VAL'
p65
F0.98999999999999999
sS'TYR-PHE'
p66
F0.20899999999999999
sS'ASP-VAL'
p67
F1.1639999999999999
sS'ASN-GLY'
p68
F-0.312
sS'ARG-PHE'
p69
F0.86699999999999999
sS'SER-HIS'
p70
F0.218
sS'ALA-ILE'
p71
F1.323
sS'ASN-GLU'
p72
F0.57899999999999996
sS'CYS-GLN'
p73
F1.1759999999999999
sS'TYR-PRO'
p74
F1.6319999999999999
sS'LYS-GLU'
p75
F0.72699999999999998
sS'CYS-GLU'
p76
F2.3860000000000001
sS'ASN-GLN'
p77
F0.029000000000000001
sS'CYS-GLY'
p78
F0.28199999999999997
sS'GLN-SER'
p79
F-0.34999999999999998
sS'HIS-LYS'
p80
F0.51900000000000002
sS'LYS-GLY'
p81
F-0.11700000000000001
sS'VAL-MET'
p82
F1.776
sS'GLU-GLY'
p83
F0.19600000000000001
sS'THR-SER'
p84
F0.64400000000000002
sS'TYR-THR'
p85
F0.76000000000000001
sS'PRO-PRO'
p86
F-0.54400000000000004
sS'ILE-PHE'
p87
F1.2669999999999999
sS'PHE-LEU'
p88
F0.97299999999999998
sS'GLU-GLU'
p89
F-0.13300000000000001
sS'SER-ARG'
p90
F0.33400000000000002
sS'GLY-ALA'
p91
F-0.039
sS'TYR-ASN'
p92
F0.95599999999999996
sS'GLU-GLN'
p93
F0.16900000000000001
sS'TRP-ARG'
p94
F0.17000000000000001
sS'LEU-GLU'
p95
F1.5760000000000001
sS'LEU-GLY'
p96
F0.82099999999999995
sS'LYS-SER'
p97
F0.79700000000000004
sS'MET-VAL'
p98
F0.57899999999999996
sS'SER-ALA'
p99
F-0.017000000000000001
sS'PRO-HIS'
p100
F0.745
sS'MET-THR'
p101
F1.006
sS'ALA-PHE'
p102
F0.86599999999999999
sS'MET-PRO'
p103
F3.258
sS'GLY-SER'
p104
F-0.56899999999999995
sS'LEU-GLN'
p105
F1.887
sS'VAL-LEU'
p106
F1.113
sS'LEU-CYS'
p107
F2.431
sS'LYS-TYR'
p108
F1.482
sS'ASP-ALA'
p109
F0.57499999999999996
sS'ILE-LEU'
p110
F1.3440000000000001
sS'TRP-VAL'
p111
F0.81299999999999994
sS'PHE-PRO'
p112
F0.42199999999999999
sS'ALA-ALA'
p113
F-0.35499999999999998
sS'ARG-TRP'
p114
F0.45200000000000001
sS'MET-GLN'
p115
F0.85299999999999998
sS'ILE-LYS'
p116
F1.508
sS'MET-ARG'
p117
F1.202
sS'ALA-CYS'
p118
F0.85699999999999998
sS'THR-ARG'
p119
F0.81299999999999994
sS'CYS-ILE'
p120
F1.22
sS'LEU-ASN'
p121
F0.71599999999999997
sS'LEU-ASP'
p122
F1.3440000000000001
sS'PHE-TRP'
p123
F1.335
sS'MET-GLY'
p124
F0.317
sS'THR-PHE'
p125
F0.79700000000000004
sS'MET-GLU'
p126
F1.5289999999999999
sS'THR-TRP'
p127
F0.104
sS'THR-TYR'
p128
F0.98599999999999999
sS'CYS-VAL'
p129
F0.60499999999999998
sS'ARG-ALA'
p130
F0.34399999999999997
sS'ALA-TYR'
p131
F0.63300000000000001
sS'ASP-PRO'
p132
F0.873
sS'ARG-CYS'
p133
F1.319
sS'GLN-ARG'
p134
F0.56200000000000006
sS'HIS-TRP'
p135
F1.635
sS'PRO-SER'
p136
F0.13
sS'VAL-VAL'
p137
F0.33300000000000002
sS'LEU-LYS'
p138
F1.3600000000000001
sS'GLY-LYS'
p139
F-0.109
sS'CYS-ASN'
p140
F2.234
sS'GLY-TRP'
p141
F-0.59899999999999998
sS'THR-CYS'
p142
F0.878
sS'LYS-LYS'
p143
F0.39500000000000002
sS'CYS-ASP'
p144
F0.29799999999999999
sS'TYR-ASP'
p145
F0.11700000000000001
sS'VAL-PRO'
p146
F1.101
sS'THR-VAL'
p147
F0.878
sS'ASP-TYR'
p148
F0.48799999999999999
sS'PRO-CYS'
p149
F0.313
sS'VAL-SER'
p150
F0.68000000000000005
sS'ARG-HIS'
p151
F0.14699999999999999
sS'CYS-PRO'
p152
F1.7010000000000001
sS'MET-LYS'
p153
F0.54600000000000004
sS'ALA-SER'
p154
F0.34699999999999998
sS'TYR-SER'
p155
F0.19800000000000001
sS'GLY-ARG'
p156
F-0.33900000000000002
sS'GLN-ALA'
p157
F0.80800000000000005
sS'MET-LEU'
p158
F1.0189999999999999
sS'ASN-HIS'
p159
F0.183
sS'VAL-CYS'
p160
F1.238
sS'GLN-TYR'
p161
F0.66700000000000004
sS'GLN-PHE'
p162
F1.1120000000000001
sS'ILE-ASN'
p163
F0.70799999999999996
sS'GLU-ASN'
p164
F0.61299999999999999
sS'CYS-ALA'
p165
F-0.17799999999999999
sS'ASN-ASP'
p166
F0.71399999999999997
sS'ASN-PRO'
p167
F0.051999999999999998
sS'PRO-ARG'
p168
F0.69599999999999995
sS'LYS-TRP'
p169
F1.857
sS'ASN-ASN'
p170
F-0.40200000000000002
sS'ASN-THR'
p171
F0.433
sS'THR-ALA'
p172
F0.76000000000000001
sS'LYS-ALA'
p173
F1.042
sS'LYS-PRO'
p174
F0.59499999999999997
sS'SER-GLN'
p175
F0.125
sS'ILE-VAL'
p176
F0.98499999999999999
sS'ASP-ARG'
p177
F1.1180000000000001
sS'ASP-MET'
p178
F1.4219999999999999
sS'CYS-TYR'
p179
F0.65700000000000003
sS'PRO-TRP'
p180
F1.119
sS'THR-GLU'
p181
F0.13600000000000001
sS'TRP-ALA'
p182
F2.0289999999999999
sS'ILE-CYS'
p183
F0.754
sS'LYS-ILE'
p184
F1.3600000000000001
sS'GLN-CYS'
p185
F0.68799999999999994
sS'TYR-ALA'
p186
F1.0429999999999999
sS'ARG-ASP'
p187
F0.53800000000000003
sS'SER-GLU'
p188
F0.17999999999999999
sS'TRP-HIS'
p189
F1.5429999999999999
sS'ALA-ASN'
p190
F1.0489999999999999
sS'GLU-CYS'
p191
F1.099
sS'PRO-MET'
p192
F2.7250000000000001
sS'TYR-HIS'
p193
F0.65000000000000002
sS'PHE-MET'
p194
F0.94299999999999995
sS'GLU-TYR'
p195
F0.54500000000000004
sS'SER-TRP'
p196
F0.375
sS'PHE-ARG'
p197
F2.1190000000000002
sS'GLY-ILE'
p198
F0.56599999999999995
sS'TYR-VAL'
p199
F1.1879999999999999
sS'ASN-TYR'
p200
F0.19400000000000001
sS'SER-ILE'
p201
F0.17999999999999999
sS'GLN-PRO'
p202
F0.58999999999999997
sS'PHE-TYR'
p203
F0.29599999999999999
sS'ALA-VAL'
p204
F0.82999999999999996
sS'HIS-HIS'
p205
F-2.4140000000000001
sS'THR-ASN'
p206
F0.56799999999999995
sS'CYS-LEU'
p207
F1.587
sS'LYS-MET'
p208
F0.38100000000000001
sS'LYS-ASP'
p209
F0.36899999999999999
sS'HIS-ASN'
p210
F0.55800000000000005
sS'ILE-GLN'
p211
F1.1379999999999999
sS'VAL-HIS'
p212
F1.1890000000000001
sS'ALA-LEU'
p213
F1.012
sS'HIS-ASP'
p214
F0.42399999999999999
sS'ILE-TYR'
p215
F0.65800000000000003
sS'ILE-GLU'
p216
F1.286
sS'ASN-TRP'
p217
F1.8620000000000001
sS'ILE-GLY'
p218
F0.93500000000000005
sS'ASN-CYS'
p219
F2.169
sS'GLU-SER'
p220
F-0.105
sS'ALA-TRP'
p221
F1.339
sS'HIS-CYS'
p222
F0.88300000000000001
sS'HIS-MET'
p223
F1.036
sS'ILE-PRO'
p224
F0.80600000000000005
sS'LYS-PHE'
p225
F0.40600000000000003
sS'TRP-PRO'
p226
F1.4990000000000001
sS'GLU-TRP'
p227
F2.0960000000000001
sS'PHE-HIS'
p228
F0.68100000000000005
sS'GLY-TYR'
p229
F-0.14899999999999999
sS'SER-GLY'
p230
F-0.52900000000000003
sS'CYS-TRP'
p231
F1.1220000000000001
sS'ASP-LYS'
p232
F1.4059999999999999
sS'ASN-ILE'
p233
F0.76200000000000001
sS'HIS-SER'
p234
F0.49099999999999999
sS'LYS-CYS'
p235
F0.53500000000000003
sS'GLY-PHE'
p236
F0.27200000000000002
sS'GLY-LEU'
p237
F0.40999999999999998
sS'MET-SER'
p238
F0.0060000000000000001
sS'VAL-ALA'
p239
F1.1719999999999999
sS'SER-LEU'
p240
F0.79200000000000004
sS'TRP-LYS'
p241
F1.6779999999999999
sS'VAL-TYR'
p242
F1.04
sS'VAL-PHE'
p243
F1.1120000000000001
sS'ARG-THR'
p244
F1.274
sS'TYR-TRP'
p245
F0.049000000000000002
sS'GLN-GLN'
p246
F-0.38900000000000001
sS'GLU-PHE'
p247
F2.0830000000000002
sS'VAL-ILE'
p248
F1.121
sS'HIS-GLN'
p249
F0.95499999999999996
sS'GLN-GLY'
p250
F-0.44800000000000001
sS'PHE-ALA'
p251
F0.88400000000000001
sS'HIS-GLU'
p252
F0.94999999999999996
sS'ARG-PRO'
p253
F0.90200000000000002
sS'HIS-GLY'
p254
F-0.189
sS'SER-ASN'
p255
F0.035000000000000003
sS'ALA-THR'
p256
F0.38900000000000001
sS'GLN-GLU'
p257
F0.56899999999999995
sS'GLN-LYS'
p258
F0.24399999999999999
sS'CYS-HIS'
p259
F0.75700000000000001
sS'GLN-ASP'
p260
F0.64400000000000002
sS'LEU-HIS'
p261
F1.123
sS'SER-LYS'
p262
F0.65300000000000002
sS'TRP-LEU'
p263
F0.93300000000000005
sS'CYS-SER'
p264
F0.71499999999999997
sS'LYS-THR'
p265
F0.317
sS'HIS-LEU'
p266
F1.1020000000000001
sS'LEU-ARG'
p267
F0.98099999999999998
sS'GLY-VAL'
p268
F0.027
sS'GLN-ASN'
p269
F0.54000000000000004
sS'TYR-ARG'
p270
F1.6240000000000001
sS'PRO-TYR'
p271
F0.76000000000000001
sS'ASP-PHE'
p272
F0.52900000000000003
sS'TRP-CYS'
p273
F1.143
sS'ASN-LEU'
p274
F0.68799999999999994
sS'SER-MET'
p275
F1.042
sS'HIS-ILE'
p276
F0.73999999999999999
sS'SER-TYR'
p277
F0.031
sS'MET-TYR'
p278
F2.0979999999999999
sS'GLU-ILE'
p279
F1.1799999999999999
sS'PHE-CYS'
p280
F0.34699999999999998
sS'PRO-LEU'
p281
F0.65000000000000002
sS'GLY-MET'
p282
F0.43099999999999999
sS'ARG-ILE'
p283
F0.77300000000000002
sS'HIS-THR'
p284
F-0.38400000000000001
sS'THR-GLN'
p285
F0.63300000000000001
sS'TRP-THR'
p286
F0.35999999999999999
sS'LYS-LEU'
p287
F2.0990000000000002
sS'THR-GLY'
p288
F0.21099999999999999
sS'ASP-TRP'
p289
F1.502
sS'TYR-MET'
p290
F2.1850000000000001
sS'PHE-ILE'
p291
F1.3089999999999999
sS'PRO-VAL'
p292
F1.0980000000000001
sS'MET-ASN'
p293
F0.84499999999999997
sS'LEU-TYR'
p294
F1.4219999999999999
sS'PHE-PHE'
p295
F-1.0169999999999999
sS'CYS-PHE'
p296
F0.497
sS'TRP-ILE'
p297
F1.423
sS'PRO-ASN'
p298
F0.38800000000000001
sS'CYS-CYS'
p299
F-0.88
sS'SER-ASP'
p300
F0.82699999999999996
sS'ARG-MET'
p301
F1.5289999999999999
sS'SER-PHE'
p302
F0.80300000000000005
sS'SER-SER'
p303
F-0.63700000000000001
sS'ASN-LYS'
p304
F1.139
sS'CYS-THR'
p305
F1.6830000000000001
sS'ILE-TRP'
p306
F1.794
sS'PRO-ASP'
p307
F1.0720000000000001
sS'THR-ASP'
p308
F0.95199999999999996
sS'SER-CYS'
p309
F1.7310000000000001
sS'MET-ASP'
p310
F0.20599999999999999
sS'GLN-MET'
p311
F1.4470000000000001
sS'MET-TRP'
p312
F0.84499999999999997
sS'ARG-VAL'
p313
F0.93999999999999995
sS'GLY-GLN'
p314
F-0.30199999999999999
sS'THR-LYS'
p315
F0.99099999999999999
sS'TRP-MET'
p316
F0.88600000000000001
sS'ARG-ARG'
p317
F-0.47699999999999998
sS'ILE-ASP'
p318
F0.85999999999999999
sS'GLY-GLY'
p319
F-1.508
sS'GLY-GLU'
p320
F0.14799999999999999
sS'ALA-ARG'
p321
F0.92700000000000005
sS'GLU-ARG'
p322
F1.1479999999999999
sS'HIS-VAL'
p323
F1.248
sS'VAL-ARG'
p324
F1.1719999999999999
sS'ASN-SER'
p325
F0.218
sS'ALA-LYS'
p326
F0.69599999999999995
sS'VAL-GLN'
p327
F1.2969999999999999
sS'TRP-ASN'
p328
F1.0960000000000001
sS'TYR-ILE'
p329
F1.022
sS'TRP-GLY'
p330
F-0.83699999999999997
sS'PRO-PHE'
p331
F0.86599999999999999
sS'GLY-HIS'
p332
F-0.183
sS'PHE-SER'
p333
F0.42599999999999999
sS'TRP-ASP'
p334
F1.389
sS'TRP-GLN'
p335
F0.79600000000000004
sS'LEU-ALA'
p336
F0.48799999999999999
sS'VAL-GLU'
p337
F0.97299999999999998
sS'ALA-HIS'
p338
F0.72999999999999998
sS'ARG-ASN'
p339
F0.55600000000000005
sS'LEU-THR'
p340
F0.80600000000000005
sS'TYR-CYS'
p341
F2.3580000000000001
sS'THR-THR'
p342
F-0.084000000000000005
sS'THR-LEU'
p343
F1.077
sS'VAL-ASN'
p344
F0.92700000000000005
sS'LEU-TRP'
p345
F1.29
sS'GLU-ASP'
p346
F1.1439999999999999
sS'ILE-SER'
p347
F0.63600000000000001
sS'ILE-ARG'
p348
F1.347
sS'TRP-GLU'
p349
F1.0489999999999999
sS'ILE-MET'
p350
F1.518
sS'MET-PHE'
p351
F1.0840000000000001
sS'PRO-ALA'
p352
F-0.316
sS'PRO-GLY'
p353
F-0.17699999999999999
sS'GLN-THR'
p354
F0.58399999999999996
sS'MET-ALA'
p355
F0.70099999999999996
sS'TRP-SER'
p356
F0.63600000000000001
sS'ASP-HIS'
p357
F1.024
sS'ARG-SER'
p358
F0.073999999999999996
sS'GLN-HIS'
p359
F0.624
sS'HIS-PHE'
p360
F1.6799999999999999
sS'LEU-LEU'
p361
F0.46400000000000002
sS'ALA-GLN'
p362
F0.98899999999999999
sS'ASP-ASN'
p363
F0.79000000000000004
sS'SER-VAL'
p364
F0.47699999999999998
sS'MET-ILE'
p365
F1.115
sS'ALA-PRO'
p366
F0.223
sS'ASP-ASP'
p367
F0.22700000000000001
sS'ALA-GLY'
p368
F-0.22500000000000001
sS'TRP-TRP'
p369
F-1.8779999999999999
sS'MET-CYS'
p370
F2.887
sS'ALA-GLU'
p371
F0.70299999999999996
sS'THR-PRO'
p372
F0.10299999999999999
sS'HIS-ALA'
p373
F0.69799999999999995
sS'GLN-ILE'
p374
F0.81799999999999995
sS'GLU-VAL'
p375
F1.121
sS'LYS-ASN'
p376
F1.0429999999999999
sS'ASN-ALA'
p377
F0.90400000000000003
sS'THR-ILE'
p378
F0.749
sS'ASP-CYS'
p379
F0.61299999999999999
sS'PRO-LYS'
p380
F0.33100000000000002
sS'TYR-TYR'
p381
F-0.75700000000000001
sS'ARG-LYS'
p382
F0.63200000000000001
sS'ILE-ALA'
p383
F1.23
sS'ASP-SER'
p384
F0.27100000000000002
sS'CYS-LYS'
p385
F1.129
sS'GLU-ALA'
p386
F0.33600000000000002
sS'PHE-GLU'
p387
F1.369
sS'GLU-LEU'
p388
F1.0980000000000001
sS'PHE-GLY'
p389
F0.35199999999999998
sS'LYS-HIS'
p390
F1.4710000000000001
sS'HIS-PRO'
p391
F0.153
sS'ILE-ILE'
p392
F-0.51000000000000001
sS'MET-HIS'
p393
F1.482
sS'VAL-GLY'
p394
F-0.0060000000000000001
sS'THR-MET'
p395
F0.53000000000000003
sS'PHE-THR'
p396
F0.75600000000000001
sS'VAL-TRP'
p397
F1.6439999999999999
sS'PHE-LYS'
p398
F0.57899999999999996
sS'GLY-PRO'
p399
F-0.29599999999999999
sS'PHE-GLN'
p400
F1.429
sS'LEU-PHE'
p401
F1.163
s.