(dp1
S'MET-MET'
p2
F-0.52700000000000002
sS'PRO-ILE'
p3
F1.5589999999999999
sS'TYR-LYS'
p4
F1.889
sS'VAL-ASP'
p5
F2.0249999999999999
sS'ASP-GLN'
p6
F1.4590000000000001
sS'HIS-TYR'
p7
F0.34200000000000003
sS'ASP-GLU'
p8
F2.0019999999999998
sS'ALA-ASP'
p9
F1.2949999999999999
sS'ASP-GLY'
p10
F0.84299999999999997
sS'LEU-VAL'
p11
F2.5
sS'TRP-TYR'
p12
F0.56100000000000005
sS'GLN-TRP'
p13
F2.2109999999999999
sS'TRP-PHE'
p14
F2.2280000000000002
sS'ARG-TYR'
p15
F1.9950000000000001
sS'GLU-LYS'
p16
F1.9770000000000001
sS'ILE-HIS'
p17
F1.7709999999999999
sS'LEU-MET'
p18
F2.2389999999999999
sS'GLU-HIS'
p19
F0.63800000000000001
sS'GLY-THR'
p20
F0.81699999999999995
sS'ARG-GLU'
p21
F1.246
sS'PHE-ASN'
p22
F1.974
sS'ASN-MET'
p23
F1.6220000000000001
sS'PRO-THR'
p24
F1.0249999999999999
sS'TYR-GLN'
p25
F1.5780000000000001
sS'ARG-GLY'
p26
F0.79800000000000004
sS'VAL-THR'
p27
F1.6479999999999999
sS'ASP-ILE'
p28
F1.462
sS'THR-HIS'
p29
F1.722
sS'TYR-GLU'
p30
F1.9850000000000001
sS'ARG-GLN'
p31
F0.876
sS'TYR-GLY'
p32
F1.1850000000000001
sS'PHE-ASP'
p33
F0.97599999999999998
sS'CYS-ARG'
p34
F3.0670000000000002
sS'GLY-ASN'
p35
F0.33600000000000002
sS'VAL-LYS'
p36
F2.2690000000000001
sS'LEU-ILE'
p37
F2.3100000000000001
sS'GLN-LEU'
p38
F2.2440000000000002
sS'GLU-MET'
p39
F1.482
sS'ASP-THR'
p40
F1.1899999999999999
sS'ASN-PHE'
p41
F2.3849999999999998
sS'GLU-PRO'
p42
F1.417
sS'TYR-LEU'
p43
F1.909
sS'LYS-ARG'
p44
F1.403
sS'GLY-ASP'
p45
F0.70499999999999996
sS'PRO-GLN'
p46
F1.4399999999999999
sS'CYS-MET'
p47
F2.887
sS'HIS-ARG'
p48
F1.5
sS'GLU-THR'
p49
F1.222
sS'ILE-THR'
p50
F1.4330000000000001
sS'SER-PRO'
p51
F0.70299999999999996
sS'GLY-CYS'
p52
F1.431
sS'ARG-LEU'
p53
F1.9159999999999999
sS'PRO-GLU'
p54
F0.83199999999999996
sS'ASP-LEU'
p55
F1.95
sS'PHE-VAL'
p56
F1.8700000000000001
sS'ASN-VAL'
p57
F2.363
sS'ALA-MET'
p58
F2.9279999999999999
sS'LEU-PRO'
p59
F1.621
sS'LEU-SER'
p60
F1.347
sS'ASN-ARG'
p61
F1.02
sS'SER-THR'
p62
F0.877
sS'LYS-VAL'
p63
F1.6160000000000001
sS'LYS-GLN'
p64
F0.82999999999999996
sS'GLN-VAL'
p65
F1.768
sS'TYR-PHE'
p66
F0.81799999999999995
sS'ASP-VAL'
p67
F2.0459999999999998
sS'ASN-GLY'
p68
F0.56699999999999995
sS'ARG-PHE'
p69
F1.7609999999999999
sS'SER-HIS'
p70
F0.85399999999999998
sS'ALA-ILE'
p71
F2.2879999999999998
sS'ASN-GLU'
p72
F1.341
sS'CYS-GLN'
p73
F1.6459999999999999
sS'TYR-PRO'
p74
F2.3250000000000002
sS'LYS-GLU'
p75
F1.7210000000000001
sS'CYS-GLU'
p76
F3.2330000000000001
sS'ASN-GLN'
p77
F0.63500000000000001
sS'CYS-GLY'
p78
F1.1240000000000001
sS'GLN-SER'
p79
F0.26400000000000001
sS'HIS-LYS'
p80
F0.98899999999999999
sS'LYS-GLY'
p81
F0.72399999999999998
sS'VAL-MET'
p82
F2.7690000000000001
sS'GLU-GLY'
p83
F0.997
sS'THR-SER'
p84
F1.3580000000000001
sS'TYR-THR'
p85
F1.6579999999999999
sS'PRO-PRO'
p86
F-0.81599999999999995
sS'ILE-PHE'
p87
F2.2869999999999999
sS'PHE-LEU'
p88
F1.8200000000000001
sS'GLU-GLU'
p89
F-0.010999999999999999
sS'SER-ARG'
p90
F1.052
sS'GLY-ALA'
p91
F0.76500000000000001
sS'TYR-ASN'
p92
F1.554
sS'GLU-GLN'
p93
F0.86199999999999999
sS'TRP-ARG'
p94
F0.75800000000000001
sS'LEU-GLU'
p95
F2.488
sS'LEU-GLY'
p96
F1.6799999999999999
sS'LYS-SER'
p97
F1.6140000000000001
sS'MET-VAL'
p98
F1.603
sS'SER-ALA'
p99
F0.73399999999999999
sS'PRO-HIS'
p100
F1.276
sS'MET-THR'
p101
F1.7250000000000001
sS'ALA-PHE'
p102
F1.629
sS'MET-PRO'
p103
F3.7690000000000001
sS'GLY-SER'
p104
F0.17799999999999999
sS'LEU-GLN'
p105
F2.8679999999999999
sS'VAL-LEU'
p106
F2.0259999999999998
sS'LEU-CYS'
p107
F3.4249999999999998
sS'LYS-TYR'
p108
F2.1749999999999998
sS'ASP-ALA'
p109
F1.153
sS'ILE-LEU'
p110
F2.274
sS'TRP-VAL'
p111
F1.8300000000000001
sS'PHE-PRO'
p112
F1.115
sS'ALA-ALA'
p113
F-0.26200000000000001
sS'ARG-TRP'
p114
F1.2190000000000001
sS'MET-GLN'
p115
F1.472
sS'ILE-LYS'
p116
F2.1829999999999998
sS'MET-ARG'
p117
F1.895
sS'ALA-CYS'
p118
F1.518
sS'THR-ARG'
p119
F1.7490000000000001
sS'CYS-ILE'
p120
F1.9139999999999999
sS'LEU-ASN'
p121
F1.4650000000000001
sS'LEU-ASP'
p122
F2.1320000000000001
sS'PHE-TRP'
p123
F2.3340000000000001
sS'MET-GLY'
p124
F1.276
sS'THR-PHE'
p125
F1.5049999999999999
sS'MET-GLU'
p126
F2.4780000000000002
sS'THR-TRP'
p127
F0.51000000000000001
sS'THR-TYR'
p128
F1.8420000000000001
sS'CYS-VAL'
p129
F1.1639999999999999
sS'ARG-ALA'
p130
F1.1339999999999999
sS'ALA-TYR'
p131
F1.353
sS'ASP-PRO'
p132
F1.548
sS'ARG-CYS'
p133
F1.8779999999999999
sS'GLN-ARG'
p134
F1.1779999999999999
sS'HIS-TRP'
p135
F2.5510000000000002
sS'PRO-SER'
p136
F0.67100000000000004
sS'VAL-VAL'
p137
F0.65400000000000003
sS'LEU-LYS'
p138
F2.1880000000000002
sS'GLY-LYS'
p139
F0.71399999999999997
sS'CYS-ASN'
p140
F3.1890000000000001
sS'GLY-TRP'
p141
F0.183
sS'THR-CYS'
p142
F1.833
sS'LYS-LYS'
p143
F0.61799999999999999
sS'CYS-ASP'
p144
F0.70399999999999996
sS'TYR-ASP'
p145
F0.72299999999999998
sS'VAL-PRO'
p146
F1.7
sS'THR-VAL'
p147
F1.6659999999999999
sS'ASP-TYR'
p148
F1.1439999999999999
sS'PRO-CYS'
p149
F0.82399999999999995
sS'VAL-SER'
p150
F1.587
sS'ARG-HIS'
p151
F0.86299999999999999
sS'CYS-PRO'
p152
F2.2120000000000002
sS'MET-LYS'
p153
F1.667
sS'ALA-SER'
p154
F1.0660000000000001
sS'TYR-SER'
p155
F0.83999999999999997
sS'GLY-ARG'
p156
F0.5
sS'GLN-ALA'
p157
F1.5840000000000001
sS'MET-LEU'
p158
F1.6859999999999999
sS'ASN-HIS'
p159
F1.1000000000000001
sS'VAL-CYS'
p160
F1.931
sS'GLN-TYR'
p161
F1.4399999999999999
sS'GLN-PHE'
p162
F1.8049999999999999
sS'ILE-ASN'
p163
F1.401
sS'GLU-ASN'
p164
F1.327
sS'CYS-ALA'
p165
F0.63300000000000001
sS'ASN-ASP'
p166
F1.337
sS'ASN-PRO'
p167
F0.51300000000000001
sS'PRO-ARG'
p168
F1.3080000000000001
sS'LYS-TRP'
p169
F2.645
sS'ASN-ASN'
p170
F-0.112
sS'ASN-THR'
p171
F1.0980000000000001
sS'THR-ALA'
p172
F1.528
sS'LYS-ALA'
p173
F1.8799999999999999
sS'LYS-PRO'
p174
F1.173
sS'SER-GLN'
p175
F0.82999999999999996
sS'ILE-VAL'
p176
F1.9379999999999999
sS'ASP-ARG'
p177
F1.8360000000000001
sS'ASP-MET'
p178
F2.3380000000000001
sS'CYS-TYR'
p179
F1.244
sS'PRO-TRP'
p180
F1.6040000000000001
sS'THR-GLU'
p181
F0.997
sS'TRP-ALA'
p182
F2.8170000000000002
sS'ILE-CYS'
p183
F1.581
sS'LYS-ILE'
p184
F2.1709999999999998
sS'GLN-CYS'
p185
F1.294
sS'TYR-ALA'
p186
F1.762
sS'ARG-ASP'
p187
F1.2729999999999999
sS'SER-GLU'
p188
F0.79900000000000004
sS'TRP-HIS'
p189
F1.948
sS'ALA-ASN'
p190
F1.637
sS'GLU-CYS'
p191
F1.9630000000000001
sS'PRO-MET'
p192
F3.0129999999999999
sS'TYR-HIS'
p193
F1.3089999999999999
sS'PHE-MET'
p194
F1.395
sS'GLU-TYR'
p195
F1.361
sS'SER-TRP'
p196
F1
sS'PHE-ARG'
p197
F2.8660000000000001
sS'GLY-ILE'
p198
F1.5289999999999999
sS'TYR-VAL'
p199
F2.0960000000000001
sS'ASN-TYR'
p200
F0.92000000000000004
sS'SER-ILE'
p201
F0.92400000000000004
sS'GLN-PRO'
p202
F1.1719999999999999
sS'PHE-TYR'
p203
F0.93600000000000005
sS'ALA-VAL'
p204
F1.833
sS'HIS-HIS'
p205
F-2.113
sS'THR-ASN'
p206
F1.304
sS'CYS-LEU'
p207
F2.8290000000000002
sS'LYS-MET'
p208
F1.238
sS'LYS-ASP'
p209
F0.94699999999999995
sS'HIS-ASN'
p210
F1.6839999999999999
sS'ILE-GLN'
p211
F1.9750000000000001
sS'VAL-HIS'
p212
F2.2559999999999998
sS'ALA-LEU'
p213
F1.7769999999999999
sS'HIS-ASP'
p214
F1.2430000000000001
sS'ILE-TYR'
p215
F1.6879999999999999
sS'ILE-GLU'
p216
F2.1360000000000001
sS'ASN-TRP'
p217
F2.673
sS'ILE-GLY'
p218
F1.877
sS'ASN-CYS'
p219
F2.98
sS'GLU-SER'
p220
F0.56000000000000005
sS'ALA-TRP'
p221
F2.3610000000000002
sS'HIS-CYS'
p222
F1.577
sS'HIS-MET'
p223
F1.8089999999999999
sS'ILE-PRO'
p224
F1.355
sS'LYS-PHE'
p225
F1.044
sS'TRP-PRO'
p226
F2.0579999999999998
sS'GLU-TRP'
p227
F2.8690000000000002
sS'PHE-HIS'
p228
F1.6799999999999999
sS'GLY-TYR'
p229
F0.64600000000000002
sS'SER-GLY'
p230
F0.27100000000000002
sS'CYS-TRP'
p231
F2.1030000000000002
sS'ASP-LYS'
p232
F2.0409999999999999
sS'ASN-ILE'
p233
F1.472
sS'HIS-SER'
p234
F1.135
sS'LYS-CYS'
p235
F1.0269999999999999
sS'GLY-PHE'
p236
F1.228
sS'GLY-LEU'
p237
F1.238
sS'MET-SER'
p238
F0.82699999999999996
sS'VAL-ALA'
p239
F2.1379999999999999
sS'SER-LEU'
p240
F1.617
sS'TRP-LYS'
p241
F2.371
sS'VAL-TYR'
p242
F1.8779999999999999
sS'VAL-PHE'
p243
F1.9470000000000001
sS'ARG-THR'
p244
F2.2010000000000001
sS'TYR-TRP'
p245
F0.67700000000000005
sS'GLN-GLN'
p246
F-0.14399999999999999
sS'GLU-PHE'
p247
F3.0230000000000001
sS'VAL-ILE'
p248
F2.032
sS'HIS-GLN'
p249
F1.7430000000000001
sS'GLN-GLY'
p250
F0.312
sS'PHE-ALA'
p251
F1.681
sS'HIS-GLU'
p252
F1.6120000000000001
sS'ARG-PRO'
p253
F1.595
sS'HIS-GLY'
p254
F0.47699999999999998
sS'SER-ASN'
p255
F0.76900000000000002
sS'ALA-THR'
p256
F1.1759999999999999
sS'GLN-GLU'
p257
F1.357
sS'GLN-LYS'
p258
F0.79000000000000004
sS'CYS-HIS'
p259
F1.1619999999999999
sS'GLN-ASP'
p260
F1.4970000000000001
sS'LEU-HIS'
p261
F1.9159999999999999
sS'SER-LYS'
p262
F1.379
sS'TRP-LEU'
p263
F1.5029999999999999
sS'CYS-SER'
p264
F1.6459999999999999
sS'LYS-THR'
p265
F1.179
sS'HIS-LEU'
p266
F1.8120000000000001
sS'LEU-ARG'
p267
F1.718
sS'GLY-VAL'
p268
F0.88800000000000001
sS'GLN-ASN'
p269
F1.2769999999999999
sS'TYR-ARG'
p270
F2.5619999999999998
sS'PRO-TYR'
p271
F1.373
sS'ASP-PHE'
p272
F1.3500000000000001
sS'TRP-CYS'
p273
F2.242
sS'ASN-LEU'
p274
F1.4179999999999999
sS'SER-MET'
p275
F1.8009999999999999
sS'HIS-ILE'
p276
F1.6779999999999999
sS'SER-TYR'
p277
F0.56799999999999995
sS'MET-TYR'
p278
F3.484
sS'GLU-ILE'
p279
F2.0920000000000001
sS'PHE-CYS'
p280
F1.089
sS'PRO-LEU'
p281
F1.26
sS'GLY-MET'
p282
F1.425
sS'ARG-ILE'
p283
F1.5960000000000001
sS'HIS-THR'
p284
F0.33400000000000002
sS'THR-GLN'
p285
F1.5249999999999999
sS'TRP-THR'
p286
F0.85299999999999998
sS'LYS-LEU'
p287
F2.9470000000000001
sS'THR-GLY'
p288
F0.97299999999999998
sS'ASP-TRP'
p289
F2.4830000000000001
sS'TYR-MET'
p290
F3.5070000000000001
sS'PHE-ILE'
p291
F2.335
sS'PRO-VAL'
p292
F1.7529999999999999
sS'MET-ASN'
p293
F1.8009999999999999
sS'LEU-TYR'
p294
F2.3039999999999998
sS'PHE-PHE'
p295
F-0.629
sS'CYS-PHE'
p296
F1.2769999999999999
sS'TRP-ILE'
p297
F2.5579999999999998
sS'PRO-ASN'
p298
F0.97899999999999998
sS'CYS-CYS'
p299
F-0.752
sS'SER-ASP'
p300
F1.5309999999999999
sS'ARG-MET'
p301
F1.9710000000000001
sS'SER-PHE'
p302
F1.5409999999999999
sS'SER-SER'
p303
F-0.44600000000000001
sS'ASN-LYS'
p304
F1.9430000000000001
sS'CYS-THR'
p305
F2.6819999999999999
sS'ILE-TRP'
p306
F2.8929999999999998
sS'PRO-ASP'
p307
F1.575
sS'THR-ASP'
p308
F1.7230000000000001
sS'SER-CYS'
p309
F2.5790000000000002
sS'MET-ASP'
p310
F0.79400000000000004
sS'GLN-MET'
p311
F2.323
sS'MET-TRP'
p312
F1.538
sS'ARG-VAL'
p313
F1.776
sS'GLY-GLN'
p314
F0.46800000000000003
sS'THR-LYS'
p315
F1.8640000000000001
sS'TRP-MET'
p316
F1.579
sS'ARG-ARG'
p317
F-0.22500000000000001
sS'ILE-ASP'
p318
F1.4390000000000001
sS'GLY-GLY'
p319
F-1.1559999999999999
sS'GLY-GLU'
p320
F0.95499999999999996
sS'ALA-ARG'
p321
F1.6879999999999999
sS'GLU-ARG'
p322
F2.0249999999999999
sS'HIS-VAL'
p323
F2.3130000000000002
sS'VAL-ARG'
p324
F2.0270000000000001
sS'ASN-SER'
p325
F1.0189999999999999
sS'ALA-LYS'
p326
F1.389
sS'VAL-GLN'
p327
F2.149
sS'TRP-ASN'
p328
F1.732
sS'TYR-ILE'
p329
F2.246
sS'TRP-GLY'
p330
F-0.29199999999999998
sS'PRO-PHE'
p331
F1.681
sS'GLY-HIS'
p332
F0.58699999999999997
sS'PHE-SER'
p333
F1.181
sS'TRP-ASP'
p334
F2.552
sS'TRP-GLN'
p335
F1.3839999999999999
sS'LEU-ALA'
p336
F1.2529999999999999
sS'VAL-GLU'
p337
F1.794
sS'ALA-HIS'
p338
F1.4570000000000001
sS'ARG-ASN'
p339
F1.2490000000000001
sS'LEU-THR'
p340
F1.7150000000000001
sS'TYR-CYS'
p341
F3.0510000000000002
sS'THR-THR'
p342
F0.27700000000000002
sS'THR-LEU'
p343
F1.8300000000000001
sS'VAL-ASN'
p344
F1.7
sS'LEU-TRP'
p345
F1.984
sS'GLU-ASP'
p346
F1.78
sS'ILE-SER'
p347
F1.423
sS'ILE-ARG'
p348
F2.2570000000000001
sS'TRP-GLU'
p349
F1.8600000000000001
sS'ILE-MET'
p350
F2.1059999999999999
sS'MET-PHE'
p351
F1.9099999999999999
sS'PRO-ALA'
p352
F0.44400000000000001
sS'PRO-GLY'
p353
F0.59399999999999997
sS'GLN-THR'
p354
F1.5069999999999999
sS'MET-ALA'
p355
F1.0840000000000001
sS'TRP-SER'
p356
F1.272
sS'ASP-HIS'
p357
F1.6659999999999999
sS'ARG-SER'
p358
F0.83999999999999997
sS'GLN-HIS'
p359
F1.4930000000000001
sS'HIS-PHE'
p360
F2.6909999999999998
sS'LEU-LEU'
p361
F0.745
sS'ALA-GLN'
p362
F1.7410000000000001
sS'ASP-ASN'
p363
F1.3999999999999999
sS'SER-VAL'
p364
F1.3620000000000001
sS'MET-ILE'
p365
F1.756
sS'ALA-PRO'
p366
F0.84699999999999998
sS'ASP-ASP'
p367
F0.152
sS'ALA-GLY'
p368
F0.501
sS'TRP-TRP'
p369
F-2
sS'MET-CYS'
p370
F2.887
sS'ALA-GLU'
p371
F1.5469999999999999
sS'THR-PRO'
p372
F0.71399999999999997
sS'HIS-ALA'
p373
F1.3720000000000001
sS'GLN-ILE'
p374
F1.7270000000000001
sS'GLU-VAL'
p375
F1.921
sS'LYS-ASN'
p376
F1.8120000000000001
sS'ASN-ALA'
p377
F1.625
sS'THR-ILE'
p378
F1.405
sS'ASP-CYS'
p379
F1.173
sS'PRO-LYS'
p380
F0.89100000000000001
sS'TYR-TYR'
p381
F-0.50600000000000001
sS'ARG-LYS'
p382
F1.4019999999999999
sS'ILE-ALA'
p383
F2.109
sS'ASP-SER'
p384
F0.93100000000000005
sS'CYS-LYS'
p385
F2.1789999999999998
sS'GLU-ALA'
p386
F1.1970000000000001
sS'PHE-GLU'
p387
F2.3010000000000002
sS'GLU-LEU'
p388
F2.0150000000000001
sS'PHE-GLY'
p389
F1.3300000000000001
sS'LYS-HIS'
p390
F2.2189999999999999
sS'HIS-PRO'
p391
F0.73299999999999998
sS'ILE-ILE'
p392
F-0.21299999999999999
sS'MET-HIS'
p393
F2.1749999999999998
sS'VAL-GLY'
p394
F0.80300000000000005
sS'THR-MET'
p395
F1.181
sS'PHE-THR'
p396
F1.4319999999999999
sS'VAL-TRP'
p397
F2.504
sS'PHE-LYS'
p398
F1.2929999999999999
sS'GLY-PRO'
p399
F0.53700000000000003
sS'PHE-GLN'
p400
F2.1219999999999999
sS'LEU-PHE'
p401
F1.9770000000000001
s.