(dp1
S'MET-MET'
p2
F-4.4039999999999999
sS'PRO-ILE'
p3
F-2.3100000000000001
sS'TYR-LYS'
p4
F-2.274
sS'VAL-ASP'
p5
F-1.5720000000000001
sS'ASP-GLN'
p6
F-2.3639999999999999
sS'HIS-TYR'
p7
F-4.1909999999999998
sS'ASP-GLU'
p8
F-1.6559999999999999
sS'ALA-ASP'
p9
F-2.032
sS'ASP-GLY'
p10
F-2.629
sS'LEU-VAL'
p11
F-0.92300000000000004
sS'TRP-TYR'
p12
F-5.0069999999999997
sS'GLN-TRP'
p13
F-2.1699999999999999
sS'TRP-PHE'
p14
F-2.1320000000000001
sS'ARG-TYR'
p15
F-2.0609999999999999
sS'GLU-LYS'
p16
F-1.73
sS'ILE-HIS'
p17
F-2.3069999999999999
sS'LEU-MET'
p18
F-1.3029999999999999
sS'GLU-HIS'
p19
F-4.2050000000000001
sS'GLY-THR'
p20
F-2.3740000000000001
sS'ARG-GLU'
p21
F-2.7869999999999999
sS'PHE-ASN'
p22
F-1.9390000000000001
sS'ASN-MET'
p23
F-2.8479999999999999
sS'PRO-THR'
p24
F-2.327
sS'TYR-GLN'
p25
F-2.7400000000000002
sS'ARG-GLY'
p26
F-3.1789999999999998
sS'VAL-THR'
p27
F-1.5569999999999999
sS'ASP-ILE'
p28
F-2.2149999999999999
sS'THR-HIS'
p29
F-2.1070000000000002
sS'TYR-GLU'
p30
F-2.0510000000000002
sS'ARG-GLN'
p31
F-3.1269999999999998
sS'TYR-GLY'
p32
F-2.835
sS'PHE-ASP'
p33
F-3.1600000000000001
sS'CYS-ARG'
p34
F-0.63900000000000001
sS'GLY-ASN'
p35
F-2.9390000000000001
sS'VAL-LYS'
p36
F-1.3100000000000001
sS'LEU-ILE'
p37
F-1.143
sS'GLN-LEU'
p38
F-1.427
sS'GLU-MET'
p39
F-2.3370000000000002
sS'ASP-THR'
p40
F-2.1760000000000002
sS'ASN-PHE'
p41
F-1.514
sS'GLU-PRO'
p42
F-2.258
sS'TYR-LEU'
p43
F-2.1320000000000001
sS'LYS-ARG'
p44
F-2.6989999999999998
sS'GLY-ASP'
p45
F-2.7080000000000002
sS'PRO-GLN'
p46
F-2.2690000000000001
sS'CYS-MET'
p47
F-0.17299999999999999
sS'HIS-ARG'
p48
F-2.5750000000000002
sS'GLU-THR'
p49
F-2.254
sS'ILE-THR'
p50
F-1.976
sS'SER-PRO'
p51
F-2.6499999999999999
sS'GLY-CYS'
p52
F-1.5229999999999999
sS'ARG-LEU'
p53
F-2.0880000000000001
sS'PRO-GLU'
p54
F-2.802
sS'ASP-LEU'
p55
F-2.004
sS'PHE-VAL'
p56
F-2.1480000000000001
sS'ASN-VAL'
p57
F-1.1639999999999999
sS'ALA-MET'
p58
F-1.25
sS'LEU-PRO'
p59
F-2.113
sS'LEU-SER'
p60
F-2.0699999999999998
sS'ASN-ARG'
p61
F-2.9159999999999999
sS'SER-THR'
p62
F-2.4780000000000002
sS'LYS-VAL'
p63
F-1.9139999999999999
sS'LYS-GLN'
p64
F-3.085
sS'GLN-VAL'
p65
F-1.569
sS'TYR-PHE'
p66
F-3.4300000000000002
sS'ASP-VAL'
p67
F-1.5800000000000001
sS'ASN-GLY'
p68
F-2.7789999999999999
sS'ARG-PHE'
p69
F-2.508
sS'SER-HIS'
p70
F-2.8220000000000001
sS'ALA-ILE'
p71
F-1.052
sS'ASN-GLU'
p72
F-2.125
sS'CYS-GLN'
p73
F-2.1880000000000002
sS'TYR-PRO'
p74
F-1.8240000000000001
sS'LYS-GLU'
p75
F-2.04
sS'CYS-GLU'
p76
F-0.61399999999999999
sS'ASN-GLN'
p77
F-3.3479999999999999
sS'CYS-GLY'
p78
F-1.7569999999999999
sS'GLN-SER'
p79
F-3.2509999999999999
sS'HIS-LYS'
p80
F-3.6539999999999999
sS'LYS-GLY'
p81
F-2.605
sS'VAL-MET'
p82
F-0.83599999999999997
sS'GLU-GLY'
p83
F-2.6549999999999998
sS'THR-SER'
p84
F-1.881
sS'TYR-THR'
p85
F-2.2000000000000002
sS'PRO-PRO'
p86
F-4.4050000000000002
sS'ILE-PHE'
p87
F-1.5069999999999999
sS'PHE-LEU'
p88
F-2.234
sS'GLU-GLU'
p89
F-4.0129999999999999
sS'SER-ARG'
p90
F-2.7869999999999999
sS'GLY-ALA'
p91
F-1.887
sS'TYR-ASN'
p92
F-3.044
sS'GLU-GLN'
p93
F-2.8660000000000001
sS'TRP-ARG'
p94
F-3.681
sS'LEU-GLU'
p95
F-1.0820000000000001
sS'LEU-GLY'
p96
F-1.649
sS'LYS-SER'
p97
F-2.048
sS'MET-VAL'
p98
F-1.8200000000000001
sS'SER-ALA'
p99
F-2.085
sS'PRO-HIS'
p100
F-2.722
sS'MET-THR'
p101
F-1.909
sS'ALA-PHE'
p102
F-1.905
sS'MET-PRO'
p103
F-0.091999999999999998
sS'GLY-SER'
p104
F-2.468
sS'LEU-GLN'
p105
F-0.81799999999999995
sS'VAL-LEU'
p106
F-1.3220000000000001
sS'LEU-CYS'
p107
F-0.14399999999999999
sS'LYS-TYR'
p108
F-1.7729999999999999
sS'ASP-ALA'
p109
F-2.2679999999999998
sS'ILE-LEU'
p110
F-1.419
sS'TRP-VAL'
p111
F-2.4870000000000001
sS'PHE-PRO'
p112
F-2.77
sS'ALA-ALA'
p113
F-3.3159999999999998
sS'ARG-TRP'
p114
F-3.48
sS'MET-GLN'
p115
F-2.5089999999999999
sS'ILE-LYS'
p116
F-1.5600000000000001
sS'MET-ARG'
p117
F-2.242
sS'ALA-CYS'
p118
F-1.53
sS'THR-ARG'
p119
F-2.1139999999999999
sS'CYS-ILE'
p120
F-1.603
sS'LEU-ASN'
p121
F-1.9690000000000001
sS'LEU-ASP'
p122
F-1.413
sS'PHE-TRP'
p123
F-2.4129999999999998
sS'MET-GLY'
p124
F-2.0760000000000001
sS'THR-PHE'
p125
F-2.3340000000000001
sS'MET-GLU'
p126
F-1.288
sS'THR-TRP'
p127
F-3.7730000000000001
sS'THR-TYR'
p128
F-1.895
sS'CYS-VAL'
p129
F-2.7000000000000002
sS'ARG-ALA'
p130
F-2.4279999999999999
sS'ALA-TYR'
p131
F-2.673
sS'ASP-PRO'
p132
F-2.3860000000000001
sS'ARG-CYS'
p133
F-2.0600000000000001
sS'GLN-ARG'
p134
F-2.6230000000000002
sS'HIS-TRP'
p135
F-2.4470000000000001
sS'PRO-SER'
p136
F-2.8889999999999998
sS'VAL-VAL'
p137
F-2.9279999999999999
sS'LEU-LYS'
p138
F-1.6759999999999999
sS'GLY-LYS'
p139
F-2.7949999999999999
sS'CYS-ASN'
p140
F-0.27700000000000002
sS'GLY-TRP'
p141
F-3.8290000000000002
sS'THR-CYS'
p142
F-1.3759999999999999
sS'LYS-LYS'
p143
F-3.3639999999999999
sS'CYS-ASP'
p144
F-3.0059999999999998
sS'TYR-ASP'
p145
F-3.5870000000000002
sS'VAL-PRO'
p146
F-1.72
sS'THR-VAL'
p147
F-1.617
sS'ASP-TYR'
p148
F-2.8250000000000002
sS'PRO-CYS'
p149
F-3.0619999999999998
sS'VAL-SER'
p150
F-1.6879999999999999
sS'ARG-HIS'
p151
F-3.2170000000000001
sS'CYS-PRO'
p152
F-1.5389999999999999
sS'MET-LYS'
p153
F-2.5430000000000001
sS'ALA-SER'
p154
F-1.77
sS'TYR-SER'
p155
F-3.028
sS'GLY-ARG'
p156
F-3.4020000000000001
sS'GLN-ALA'
p157
F-1.901
sS'MET-LEU'
p158
F-2.0840000000000001
sS'ASN-HIS'
p159
F-2.7109999999999999
sS'VAL-CYS'
p160
F-1.9370000000000001
sS'GLN-TYR'
p161
F-2.8559999999999999
sS'GLN-PHE'
p162
F-2.3109999999999999
sS'ILE-ASN'
p163
F-2.4790000000000001
sS'GLU-ASN'
p164
F-2.4660000000000002
sS'CYS-ALA'
p165
F-2.6579999999999999
sS'ASN-ASP'
p166
F-2.5299999999999998
sS'ASN-PRO'
p167
F-2.9990000000000001
sS'PRO-ARG'
p168
F-2.6440000000000001
sS'LYS-TRP'
p169
F-1.8129999999999999
sS'ASN-ASN'
p170
F-4.0919999999999996
sS'ASN-THR'
p171
F-2.266
sS'THR-ALA'
p172
F-1.696
sS'LYS-ALA'
p173
F-1.653
sS'LYS-PRO'
p174
F-2.5990000000000002
sS'SER-GLN'
p175
F-2.7410000000000001
sS'ILE-VAL'
p176
F-1.623
sS'ASP-ARG'
p177
F-2.028
sS'ASP-MET'
p178
F-1.72
sS'CYS-TYR'
p179
F-2.4660000000000002
sS'PRO-TRP'
p180
F-2.5299999999999998
sS'THR-GLU'
p181
F-2.5099999999999998
sS'TRP-ALA'
p182
F-1.272
sS'ILE-CYS'
p183
F-2.0339999999999998
sS'LYS-ILE'
p184
F-1.51
sS'GLN-CYS'
p185
F-2.6230000000000002
sS'TYR-ALA'
p186
F-2.1840000000000002
sS'ARG-ASP'
p187
F-2.5830000000000002
sS'SER-GLU'
p188
F-2.8380000000000001
sS'TRP-HIS'
p189
F-2.601
sS'ALA-ASN'
p190
F-1.8089999999999999
sS'GLU-CYS'
p191
F-1.575
sS'PRO-MET'
p192
F-1.2809999999999999
sS'TYR-HIS'
p193
F-3.2509999999999999
sS'PHE-MET'
p194
F-2.698
sS'GLU-TYR'
p195
F-2.653
sS'SER-TRP'
p196
F-3.3730000000000002
sS'PHE-ARG'
p197
F-1.407
sS'GLY-ILE'
p198
F-1.7370000000000001
sS'TYR-VAL'
p199
F-1.702
sS'ASN-TYR'
p200
F-3.665
sS'SER-ILE'
p201
F-2.5390000000000001
sS'GLN-PRO'
p202
F-2.5979999999999999
sS'PHE-TYR'
p203
F-3.3220000000000001
sS'ALA-VAL'
p204
F-1.361
sS'HIS-HIS'
p205
F-6.0330000000000004
sS'THR-ASN'
p206
F-2.2669999999999999
sS'CYS-LEU'
p207
F-0.753
sS'LYS-MET'
p208
F-2.7240000000000002
sS'LYS-ASP'
p209
F-2.8820000000000001
sS'HIS-ASN'
p210
F-2.3839999999999999
sS'ILE-GLN'
p211
F-2.1480000000000001
sS'VAL-HIS'
p212
F-1.657
sS'ALA-LEU'
p213
F-1.506
sS'HIS-ASP'
p214
F-3.0289999999999999
sS'ILE-TYR'
p215
F-2.395
sS'ILE-GLU'
p216
F-1.524
sS'ASN-TRP'
p217
F-2.1779999999999999
sS'ILE-GLY'
p218
F-1.514
sS'ASN-CYS'
p219
F-0.40500000000000003
sS'GLU-SER'
p220
F-3.1699999999999999
sS'ALA-TRP'
p221
F-1.552
sS'HIS-CYS'
p222
F-2.6960000000000002
sS'HIS-MET'
p223
F-2.492
sS'ILE-PRO'
p224
F-2.8940000000000001
sS'LYS-PHE'
p225
F-3.1150000000000002
sS'TRP-PRO'
p226
F-2.2879999999999998
sS'GLU-TRP'
p227
F-1.353
sS'PHE-HIS'
p228
F-2.5710000000000002
sS'GLY-TYR'
p229
F-3.23
sS'SER-GLY'
p230
F-2.601
sS'CYS-TRP'
p231
F-2.1030000000000002
sS'ASP-LYS'
p232
F-1.9510000000000001
sS'ASN-ILE'
p233
F-2.2480000000000002
sS'HIS-SER'
p234
F-2.7069999999999999
sS'LYS-CYS'
p235
F-2.633
sS'GLY-PHE'
p236
F-2.7029999999999998
sS'GLY-LEU'
p237
F-1.96
sS'MET-SER'
p238
F-2.4209999999999998
sS'VAL-ALA'
p239
F-1.097
sS'SER-LEU'
p240
F-1.9470000000000001
sS'TRP-LYS'
p241
F-1.6339999999999999
sS'VAL-TYR'
p242
F-1.95
sS'VAL-PHE'
p243
F-1.786
sS'ARG-THR'
p244
F-1.9670000000000001
sS'TYR-TRP'
p245
F-4.3049999999999997
sS'GLN-GLN'
p246
F-4.3300000000000001
sS'GLU-PHE'
p247
F-0.89700000000000002
sS'VAL-ILE'
p248
F-1.5720000000000001
sS'HIS-GLN'
p249
F-2.1669999999999998
sS'GLN-GLY'
p250
F-3.3380000000000001
sS'PHE-ALA'
p251
F-1.798
sS'HIS-GLU'
p252
F-2.9910000000000001
sS'ARG-PRO'
p253
F-2.383
sS'HIS-GLY'
p254
F-3.133
sS'SER-ASN'
p255
F-2.6549999999999998
sS'ALA-THR'
p256
F-2.0129999999999999
sS'GLN-GLU'
p257
F-2.71
sS'GLN-LYS'
p258
F-2.8679999999999999
sS'CYS-HIS'
p259
F-3.4009999999999998
sS'GLN-ASP'
p260
F-2.319
sS'LEU-HIS'
p261
F-1.9199999999999999
sS'SER-LYS'
p262
F-2.3570000000000002
sS'TRP-LEU'
p263
F-2.6509999999999998
sS'CYS-SER'
p264
F-1.3620000000000001
sS'LYS-THR'
p265
F-2.2229999999999999
sS'HIS-LEU'
p266
F-2.2559999999999998
sS'LEU-ARG'
p267
F-2.137
sS'GLY-VAL'
p268
F-2.266
sS'GLN-ASN'
p269
F-2.319
sS'TYR-ARG'
p270
F-1.6599999999999999
sS'PRO-TYR'
p271
F-2.96
sS'ASP-PHE'
p272
F-2.7029999999999998
sS'TRP-CYS'
p273
F-2.1840000000000002
sS'ASN-LEU'
p274
F-2.4220000000000002
sS'SER-MET'
p275
F-1.4610000000000001
sS'HIS-ILE'
p276
F-2.0419999999999998
sS'SER-TYR'
p277
F-3.702
sS'MET-TYR'
p278
F-0.53000000000000003
sS'GLU-ILE'
p279
F-1.5629999999999999
sS'PHE-CYS'
p280
F-2.9940000000000002
sS'PRO-LEU'
p281
F-2.323
sS'GLY-MET'
p282
F-2.1840000000000002
sS'ARG-ILE'
p283
F-2.3919999999999999
sS'HIS-THR'
p284
F-3.3530000000000002
sS'THR-GLN'
p285
F-2.1080000000000001
sS'TRP-THR'
p286
F-3.3410000000000002
sS'LYS-LEU'
p287
F-1.022
sS'THR-GLY'
p288
F-2.2839999999999998
sS'ASP-TRP'
p289
F-1.847
sS'TYR-MET'
p290
F-0.53000000000000003
sS'PHE-ILE'
p291
F-1.496
sS'PRO-VAL'
p292
F-1.919
sS'MET-ASN'
p293
F-2.1789999999999998
sS'LEU-TYR'
p294
F-1.946
sS'PHE-PHE'
p295
F-5.117
sS'CYS-PHE'
p296
F-3.0099999999999998
sS'TRP-ILE'
p297
F-1.768
sS'PRO-ASN'
p298
F-3.016
sS'CYS-CYS'
p299
F-4.4020000000000001
sS'SER-ASP'
p300
F-1.9990000000000001
sS'ARG-MET'
p301
F-2.3580000000000001
sS'SER-PHE'
p302
F-2.4060000000000001
sS'SER-SER'
p303
F-3.8809999999999998
sS'ASN-LYS'
p304
F-2.02
sS'CYS-THR'
p305
F-0.52900000000000003
sS'ILE-TRP'
p306
F-1.5129999999999999
sS'PRO-ASP'
p307
F-2.923
sS'THR-ASP'
p308
F-1.798
sS'SER-CYS'
p309
F-0.68999999999999995
sS'MET-ASP'
p310
F-2.9590000000000001
sS'GLN-MET'
p311
F-1.536
sS'MET-TRP'
p312
F-2.2000000000000002
sS'ARG-VAL'
p313
F-2.1869999999999998
sS'GLY-GLN'
p314
F-3.0979999999999999
sS'THR-LYS'
p315
F-1.885
sS'TRP-MET'
p316
F-2.2999999999999998
sS'ARG-ARG'
p317
F-4.4480000000000004
sS'ILE-ASP'
p318
F-2.254
sS'GLY-GLY'
p319
F-4.0410000000000004
sS'GLY-GLU'
p320
F-2.645
sS'ALA-ARG'
p321
F-2.1739999999999999
sS'GLU-ARG'
p322
F-2.1190000000000002
sS'HIS-VAL'
p323
F-1.579
sS'VAL-ARG'
p324
F-2.0489999999999999
sS'ASN-SER'
p325
F-2.3980000000000001
sS'ALA-LYS'
p326
F-1.9770000000000001
sS'VAL-GLN'
p327
F-1.2849999999999999
sS'TRP-ASN'
p328
F-2.8769999999999998
sS'TYR-ILE'
p329
F-2.1309999999999998
sS'TRP-GLY'
p330
F-3.883
sS'PRO-PHE'
p331
F-2.464
sS'GLY-HIS'
p332
F-2.839
sS'PHE-SER'
p333
F-2.641
sS'TRP-ASP'
p334
F-1.7250000000000001
sS'TRP-GLN'
p335
F-3.101
sS'LEU-ALA'
p336
F-1.8169999999999999
sS'VAL-GLU'
p337
F-1.76
sS'ALA-HIS'
p338
F-2.3679999999999999
sS'ARG-ASN'
p339
F-2.8130000000000002
sS'LEU-THR'
p340
F-1.698
sS'TYR-CYS'
p341
F-0.52200000000000002
sS'THR-THR'
p342
F-3.476
sS'THR-LEU'
p343
F-1.6779999999999999
sS'VAL-ASN'
p344
F-1.712
sS'LEU-TRP'
p345
F-2.274
sS'GLU-ASP'
p346
F-1.889
sS'ILE-SER'
p347
F-2.0510000000000002
sS'ILE-ARG'
p348
F-1.603
sS'TRP-GLU'
p349
F-2.5379999999999998
sS'ILE-MET'
p350
F-2.1600000000000001
sS'MET-PHE'
p351
F-2.403
sS'PRO-ALA'
p352
F-2.9159999999999999
sS'PRO-GLY'
p353
F-2.7360000000000002
sS'GLN-THR'
p354
F-2.0369999999999999
sS'MET-ALA'
p355
F-2.415
sS'TRP-SER'
p356
F-2.952
sS'ASP-HIS'
p357
F-2.1800000000000002
sS'ARG-SER'
p358
F-3.1509999999999998
sS'GLN-HIS'
p359
F-2.3159999999999998
sS'HIS-PHE'
p360
F-1.403
sS'LEU-LEU'
p361
F-3.1619999999999999
sS'ALA-GLN'
p362
F-2.1150000000000002
sS'ASP-ASN'
p363
F-2.4399999999999999
sS'SER-VAL'
p364
F-1.8200000000000001
sS'MET-ILE'
p365
F-2.415
sS'ALA-PRO'
p366
F-2.5110000000000001
sS'ASP-ASP'
p367
F-3.96
sS'ALA-GLY'
p368
F-2.0739999999999998
sS'TRP-TRP'
p369
F-6.6769999999999996
sS'MET-CYS'
p370
F-0.17299999999999999
sS'ALA-GLU'
p371
F-1.9339999999999999
sS'THR-PRO'
p372
F-2.8999999999999999
sS'HIS-ALA'
p373
F-2.488
sS'GLN-ILE'
p374
F-2.0030000000000001
sS'GLU-VAL'
p375
F-1.8240000000000001
sS'LYS-ASN'
p376
F-2.1400000000000001
sS'ASN-ALA'
p377
F-1.641
sS'THR-ILE'
p378
F-2.278
sS'ASP-CYS'
p379
F-2.4529999999999998
sS'PRO-LYS'
p380
F-3.1259999999999999
sS'TYR-TYR'
p381
F-5.093
sS'ARG-LYS'
p382
F-2.7080000000000002
sS'ILE-ALA'
p383
F-1.2829999999999999
sS'ASP-SER'
p384
F-2.5449999999999999
sS'CYS-LYS'
p385
F-1.3220000000000001
sS'GLU-ALA'
p386
F-2.3900000000000001
sS'PHE-GLU'
p387
F-1.5109999999999999
sS'GLU-LEU'
p388
F-1.6339999999999999
sS'PHE-GLY'
p389
F-2.4870000000000001
sS'LYS-HIS'
p390
F-1.669
sS'HIS-PRO'
p391
F-3.4319999999999999
sS'ILE-ILE'
p392
F-4.0709999999999997
sS'MET-HIS'
p393
F-1.5880000000000001
sS'VAL-GLY'
p394
F-2.1920000000000002
sS'THR-MET'
p395
F-2.6389999999999998
sS'PHE-THR'
p396
F-2.234
sS'VAL-TRP'
p397
F-1.7649999999999999
sS'PHE-LYS'
p398
F-2.8130000000000002
sS'GLY-PRO'
p399
F-2.625
sS'PHE-GLN'
p400
F-1.863
sS'LEU-PHE'
p401
F-1.728
s.