(dp1
S'MET-MET'
p2
F-1.992
sS'PRO-ILE'
p3
F-0.312
sS'TYR-LYS'
p4
F-0.10100000000000001
sS'VAL-ASP'
p5
F0.222
sS'ASP-GLN'
p6
F-0.41799999999999998
sS'HIS-TYR'
p7
F-1.764
sS'ASP-GLU'
p8
F0.27500000000000002
sS'ALA-ASP'
p9
F-0.31
sS'ASP-GLY'
p10
F-0.90000000000000002
sS'LEU-VAL'
p11
F0.73499999999999999
sS'TRP-TYR'
p12
F-2.4140000000000001
sS'GLN-TRP'
p13
F0.14099999999999999
sS'TRP-PHE'
p14
F0.001
sS'ARG-TYR'
p15
F0.23300000000000001
sS'GLU-LYS'
p16
F0.025000000000000001
sS'ILE-HIS'
p17
F-0.433
sS'LEU-MET'
p18
F0.52900000000000003
sS'GLU-HIS'
p19
F-1.9259999999999999
sS'GLY-THR'
p20
F-0.79800000000000004
sS'ARG-GLU'
p21
F-0.72999999999999998
sS'PHE-ASN'
p22
F0.028000000000000001
sS'ASN-MET'
p23
F-0.76800000000000002
sS'PRO-THR'
p24
F-0.41199999999999998
sS'TYR-GLN'
p25
F-0.442
sS'ARG-GLY'
p26
F-1.236
sS'VAL-THR'
p27
F0.155
sS'ASP-ILE'
p28
F-0.21299999999999999
sS'THR-HIS'
p29
F-0.252
sS'TYR-GLU'
p30
F0.028000000000000001
sS'ARG-GLN'
p31
F-0.95999999999999996
sS'TYR-GLY'
p32
F-0.85699999999999998
sS'PHE-ASP'
p33
F-1.0289999999999999
sS'CYS-ARG'
p34
F1.3759999999999999
sS'GLY-ASN'
p35
F-1.3400000000000001
sS'VAL-LYS'
p36
F0.47799999999999998
sS'LEU-ILE'
p37
F0.53100000000000003
sS'GLN-LEU'
p38
F0.41499999999999998
sS'GLU-MET'
p39
F-0.32600000000000001
sS'ASP-THR'
p40
F-0.27200000000000002
sS'ASN-PHE'
p41
F0.48199999999999998
sS'GLU-PRO'
p42
F-0.308
sS'TYR-LEU'
p43
F-0.158
sS'LYS-ARG'
p44
F-0.58199999999999996
sS'GLY-ASP'
p45
F-1.012
sS'PRO-GLN'
p46
F-0.251
sS'CYS-MET'
p47
F1.9059999999999999
sS'HIS-ARG'
p48
F-0.433
sS'GLU-THR'
p49
F-0.39600000000000002
sS'ILE-THR'
p50
F-0.070000000000000007
sS'SER-PRO'
p51
F-0.80100000000000005
sS'GLY-CYS'
p52
F-0.246
sS'ARG-LEU'
p53
F-0.056000000000000001
sS'PRO-GLU'
p54
F-0.69099999999999995
sS'ASP-LEU'
p55
F-0.13
sS'PHE-VAL'
p56
F-0.16300000000000001
sS'ASN-VAL'
p57
F0.55100000000000005
sS'ALA-MET'
p58
F0.49299999999999999
sS'LEU-PRO'
p59
F-0.151
sS'LEU-SER'
p60
F-0.20899999999999999
sS'ASN-ARG'
p61
F-0.80500000000000005
sS'SER-THR'
p62
F-0.77700000000000002
sS'LYS-VAL'
p63
F-0.043999999999999997
sS'LYS-GLN'
p64
F-1.0309999999999999
sS'GLN-VAL'
p65
F0.34200000000000003
sS'TYR-PHE'
p66
F-1.0900000000000001
sS'ASP-VAL'
p67
F0.17499999999999999
sS'ASN-GLY'
p68
F-1.1919999999999999
sS'ARG-PHE'
p69
F-0.45200000000000001
sS'SER-HIS'
p70
F-0.83399999999999996
sS'ALA-ILE'
p71
F0.50800000000000001
sS'ASN-GLU'
p72
F-0.224
sS'CYS-GLN'
p73
F-0.085999999999999993
sS'TYR-PRO'
p74
F0.20000000000000001
sS'LYS-GLU'
p75
F-0.24099999999999999
sS'CYS-GLU'
p76
F1.296
sS'ASN-GLN'
p77
F-1.3009999999999999
sS'CYS-GLY'
p78
F-0.40200000000000002
sS'GLN-SER'
p79
F-1.3029999999999999
sS'HIS-LYS'
p80
F-1.363
sS'LYS-GLY'
p81
F-0.83599999999999997
sS'VAL-MET'
p82
F0.92700000000000005
sS'GLU-GLY'
p83
F-0.85299999999999998
sS'THR-SER'
p84
F-0.18099999999999999
sS'TYR-THR'
p85
F-0.125
sS'PRO-PRO'
p86
F-1.8420000000000001
sS'ILE-PHE'
p87
F0.35399999999999998
sS'PHE-LEU'
p88
F-0.214
sS'GLU-GLU'
p89
F-1.494
sS'SER-ARG'
p90
F-0.76700000000000002
sS'GLY-ALA'
p91
F-0.58099999999999996
sS'TYR-ASN'
p92
F-0.68700000000000006
sS'GLU-GLN'
p93
F-0.89800000000000002
sS'TRP-ARG'
p94
F-1.276
sS'LEU-GLU'
p95
F0.85499999999999998
sS'LEU-GLY'
p96
F-0.075999999999999998
sS'LYS-SER'
p97
F-0.191
sS'MET-VAL'
p98
F-0.13200000000000001
sS'SER-ALA'
p99
F-0.58599999999999997
sS'PRO-HIS'
p100
F-0.61399999999999999
sS'MET-THR'
p101
F-0.044999999999999998
sS'ALA-PHE'
p102
F0.019
sS'MET-PRO'
p103
F1.9399999999999999
sS'GLY-SER'
p104
F-1.0189999999999999
sS'LEU-GLN'
p105
F0.94199999999999995
sS'VAL-LEU'
p106
F0.38500000000000001
sS'LEU-CYS'
p107
F1.466
sS'LYS-TYR'
p108
F0.38600000000000001
sS'ASP-ALA'
p109
F-0.45100000000000001
sS'ILE-LEU'
p110
F0.30199999999999999
sS'TRP-VAL'
p111
F-0.44800000000000001
sS'PHE-PRO'
p112
F-0.60299999999999998
sS'ALA-ALA'
p113
F-1.3580000000000001
sS'ARG-TRP'
p114
F-1.1459999999999999
sS'MET-GLN'
p115
F-0.44500000000000001
sS'ILE-LYS'
p116
F0.42899999999999999
sS'MET-ARG'
p117
F-0.13900000000000001
sS'ALA-CYS'
p118
F0.029000000000000001
sS'THR-ARG'
p119
F-0.223
sS'CYS-ILE'
p120
F0.189
sS'LEU-ASN'
p121
F-0.11899999999999999
sS'LEU-ASP'
p122
F0.48399999999999999
sS'PHE-TRP'
p123
F-0.055
sS'MET-GLY'
p124
F-0.47199999999999998
sS'THR-PHE'
p125
F-0.17399999999999999
sS'MET-GLU'
p126
F0.55400000000000005
sS'THR-TRP'
p127
F-1.4530000000000001
sS'THR-TYR'
p128
F0.096000000000000002
sS'CYS-VAL'
p129
F-0.79500000000000004
sS'ARG-ALA'
p130
F-0.47399999999999998
sS'ALA-TYR'
p131
F-0.63
sS'ASP-PRO'
p132
F-0.47399999999999998
sS'ARG-CYS'
p133
F0.035000000000000003
sS'GLN-ARG'
p134
F-0.432
sS'HIS-TRP'
p135
F-0.14399999999999999
sS'PRO-SER'
p136
F-1.093
sS'VAL-VAL'
p137
F-0.753
sS'LEU-LYS'
p138
F0.32800000000000001
sS'GLY-LYS'
p139
F-1.024
sS'CYS-ASN'
p140
F1.292
sS'GLY-TRP'
p141
F-1.6559999999999999
sS'THR-CYS'
p142
F0.154
sS'LYS-LYS'
p143
F-0.92000000000000004
sS'CYS-ASP'
p144
F-0.98099999999999998
sS'TYR-ASP'
p145
F-1.274
sS'VAL-PRO'
p146
F0.191
sS'THR-VAL'
p147
F0.126
sS'ASP-TYR'
p148
F-0.54900000000000004
sS'PRO-CYS'
p149
F-1.153
sS'VAL-SER'
p150
F-0.11799999999999999
sS'ARG-HIS'
p151
F-1.028
sS'CYS-PRO'
p152
F0.35299999999999998
sS'MET-LYS'
p153
F-0.82599999999999996
sS'ALA-SER'
p154
F-0.27400000000000002
sS'TYR-SER'
p155
F-0.89700000000000002
sS'GLY-ARG'
p156
F-1.4470000000000001
sS'GLN-ALA'
p157
F-0.106
sS'MET-LEU'
p158
F-0.10000000000000001
sS'ASN-HIS'
p159
F-0.80200000000000005
sS'VAL-CYS'
p160
F-0.044999999999999998
sS'GLN-TYR'
p161
F-0.67300000000000004
sS'GLN-PHE'
p162
F-0.085000000000000006
sS'ILE-ASN'
p163
F-0.498
sS'GLU-ASN'
p164
F-0.53900000000000003
sS'CYS-ALA'
p165
F-1.129
sS'ASN-ASP'
p166
F-0.57899999999999996
sS'ASN-PRO'
p167
F-1.022
sS'PRO-ARG'
p168
F-0.49099999999999999
sS'LYS-TRP'
p169
F0.34300000000000003
sS'ASN-ASN'
p170
F-1.694
sS'ASN-THR'
p171
F-0.378
sS'THR-ALA'
p172
F-0.025999999999999999
sS'LYS-ALA'
p173
F0.090999999999999998
sS'LYS-PRO'
p174
F-0.54700000000000004
sS'SER-GLN'
p175
F-0.873
sS'ILE-VAL'
p176
F0.089999999999999997
sS'ASP-ARG'
p177
F0.092999999999999999
sS'ASP-MET'
p178
F0.041000000000000002
sS'CYS-TYR'
p179
F-0.45100000000000001
sS'PRO-TRP'
p180
F-0.20899999999999999
sS'THR-GLU'
p181
F-0.64300000000000002
sS'TRP-ALA'
p182
F0.80100000000000005
sS'ILE-CYS'
p183
F-0.311
sS'LYS-ILE'
p184
F0.443
sS'GLN-CYS'
p185
F-0.64900000000000002
sS'TYR-ALA'
p186
F-0.096000000000000002
sS'ARG-ASP'
p187
F-0.46200000000000002
sS'SER-GLU'
p188
F-0.85399999999999998
sS'TRP-HIS'
p189
F-0.14399999999999999
sS'ALA-ASN'
p190
F0.0030000000000000001
sS'GLU-CYS'
p191
F0.17599999999999999
sS'PRO-MET'
p192
F0.79900000000000004
sS'TYR-HIS'
p193
F-0.92600000000000005
sS'PHE-MET'
p194
F-0.434
sS'GLU-TYR'
p195
F-0.55600000000000005
sS'SER-TRP'
p196
F-1.117
sS'PHE-ARG'
p197
F0.93700000000000006
sS'GLY-ILE'
p198
F-0.217
sS'TYR-VAL'
p199
F0.30199999999999999
sS'ASN-TYR'
p200
F-1.3899999999999999
sS'SER-ILE'
p201
F-0.72899999999999998
sS'GLN-PRO'
p202
F-0.51400000000000001
sS'PHE-TYR'
p203
F-1.044
sS'ALA-VAL'
p204
F0.086999999999999994
sS'HIS-HIS'
p205
F-3.504
sS'THR-ASN'
p206
F-0.45400000000000001
sS'CYS-LEU'
p207
F0.621
sS'LYS-MET'
p208
F-0.85199999999999998
sS'LYS-ASP'
p209
F-0.78100000000000003
sS'HIS-ASN'
p210
F-0.60399999999999998
sS'ILE-GLN'
p211
F-0.223
sS'VAL-HIS'
p212
F0.027
sS'ALA-LEU'
p213
F0.20399999999999999
sS'HIS-ASP'
p214
F-0.94999999999999996
sS'ILE-TYR'
p215
F-0.45100000000000001
sS'ILE-GLU'
p216
F0.40200000000000002
sS'ASN-TRP'
p217
F-0.024
sS'ILE-GLY'
p218
F0.025000000000000001
sS'ASN-CYS'
p219
F1.3260000000000001
sS'GLU-SER'
p220
F-1.1990000000000001
sS'ALA-TRP'
p221
F0.41599999999999998
sS'HIS-CYS'
p222
F-0.57599999999999996
sS'HIS-MET'
p223
F-0.41199999999999998
sS'ILE-PRO'
p224
F-0.84699999999999998
sS'LYS-PHE'
p225
F-0.88100000000000001
sS'TRP-PRO'
p226
F0.128
sS'GLU-TRP'
p227
F0.81999999999999995
sS'PHE-HIS'
p228
F-0.55900000000000005
sS'GLY-TYR'
p229
F-1.1140000000000001
sS'SER-GLY'
p230
F-1.1779999999999999
sS'CYS-TRP'
p231
F0.025000000000000001
sS'ASP-LYS'
p232
F0.064000000000000001
sS'ASN-ILE'
p233
F-0.32800000000000001
sS'HIS-SER'
p234
F-0.76100000000000001
sS'LYS-CYS'
p235
F-0.64100000000000001
sS'GLY-PHE'
p236
F-0.81299999999999994
sS'GLY-LEU'
p237
F-0.36899999999999999
sS'MET-SER'
p238
F-0.66300000000000003
sS'VAL-ALA'
p239
F0.36799999999999999
sS'SER-LEU'
p240
F-0.16700000000000001
sS'TRP-LYS'
p241
F0.61599999999999999
sS'VAL-TYR'
p242
F0.058000000000000003
sS'VAL-PHE'
p243
F0.215
sS'ARG-THR'
p244
F-0.031
sS'TYR-TRP'
p245
F-1.6870000000000001
sS'GLN-GLN'
p246
F-1.931
sS'GLU-PHE'
p247
F1.0800000000000001
sS'VAL-ILE'
p248
F0.16400000000000001
sS'HIS-GLN'
p249
F-0.14399999999999999
sS'GLN-GLY'
p250
F-1.5369999999999999
sS'PHE-ALA'
p251
F0.072999999999999995
sS'HIS-GLU'
p252
F-0.70999999999999996
sS'ARG-PRO'
p253
F-0.28699999999999998
sS'HIS-GLY'
p254
F-1.163
sS'SER-ASN'
p255
F-0.90400000000000003
sS'ALA-THR'
p256
F-0.38400000000000001
sS'GLN-GLU'
p257
F-0.72799999999999998
sS'GLN-LYS'
p258
F-0.81100000000000005
sS'CYS-HIS'
p259
F-1.0980000000000001
sS'GLN-ASP'
p260
F-0.39700000000000002
sS'LEU-HIS'
p261
F0.13500000000000001
sS'SER-LYS'
p262
F-0.42899999999999999
sS'TRP-LEU'
p263
F-0.36399999999999999
sS'CYS-SER'
p264
F0.105
sS'LYS-THR'
p265
F-0.41099999999999998
sS'HIS-LEU'
p266
F-0.14899999999999999
sS'LEU-ARG'
p267
F-0.041000000000000002
sS'GLY-VAL'
p268
F-0.747
sS'GLN-ASN'
p269
F-0.38500000000000001
sS'TYR-ARG'
p270
F0.46000000000000002
sS'PRO-TYR'
p271
F-0.79200000000000004
sS'ASP-PHE'
p272
F-0.60699999999999998
sS'TRP-CYS'
p273
F0.050000000000000003
sS'ASN-LEU'
p274
F-0.504
sS'SER-MET'
p275
F0.308
sS'HIS-ILE'
p276
F-0.19900000000000001
sS'SER-TYR'
p277
F-1.4350000000000001
sS'MET-TYR'
p278
F1.1439999999999999
sS'GLU-ILE'
p279
F0.28399999999999997
sS'PHE-CYS'
p280
F-0.83299999999999996
sS'PRO-LEU'
p281
F-0.32700000000000001
sS'GLY-MET'
p282
F-0.66400000000000003
sS'ARG-ILE'
p283
F-0.33500000000000002
sS'HIS-THR'
p284
F-1.3560000000000001
sS'THR-GLN'
p285
F-0.35199999999999998
sS'TRP-THR'
p286
F-1.137
sS'LYS-LEU'
p287
F0.90100000000000002
sS'THR-GLY'
p288
F-0.70899999999999996
sS'ASP-TRP'
p289
F0.28100000000000003
sS'TYR-MET'
p290
F1.1439999999999999
sS'PHE-ILE'
p291
F0.316
sS'PRO-VAL'
p292
F-0.078
sS'MET-ASN'
p293
F-0.28199999999999997
sS'LEU-TYR'
p294
F0.088999999999999996
sS'PHE-PHE'
p295
F-2.5569999999999999
sS'CYS-PHE'
p296
F-0.85399999999999998
sS'TRP-ILE'
p297
F0.25
sS'PRO-ASN'
p298
F-1.133
sS'CYS-CYS'
p299
F-2.323
sS'SER-ASP'
p300
F-0.16400000000000001
sS'ARG-MET'
p301
F-0.078
sS'SER-PHE'
p302
F-0.436
sS'SER-SER'
p303
F-1.7709999999999999
sS'ASN-LYS'
p304
F-0.114
sS'CYS-THR'
p305
F0.92100000000000004
sS'ILE-TRP'
p306
F0.53100000000000003
sS'PRO-ASP'
p307
F-0.82099999999999995
sS'THR-ASP'
p308
F-0.023
sS'SER-CYS'
p309
F0.94699999999999995
sS'MET-ASP'
p310
F-1.0620000000000001
sS'GLN-MET'
p311
F0.32500000000000001
sS'MET-TRP'
p312
F-0.121
sS'ARG-VAL'
p313
F-0.19800000000000001
sS'GLY-GLN'
p314
F-1.2929999999999999
sS'THR-LYS'
p315
F-0.050000000000000003
sS'TRP-MET'
p316
F-0.067000000000000004
sS'ARG-ARG'
p317
F-1.77
sS'ILE-ASP'
p318
F-0.253
sS'GLY-GLY'
p319
F-2.4329999999999998
sS'GLY-GLU'
p320
F-0.89900000000000002
sS'ALA-ARG'
p321
F-0.20000000000000001
sS'GLU-ARG'
p322
F-0.080000000000000002
sS'HIS-VAL'
p323
F0.188
sS'VAL-ARG'
p324
F-0.088999999999999996
sS'ASN-SER'
p325
F-0.66800000000000004
sS'ALA-LYS'
p326
F-0.073999999999999996
sS'VAL-GLN'
p327
F0.55900000000000005
sS'TRP-ASN'
p328
F-0.60599999999999998
sS'TYR-ILE'
p329
F-0.32300000000000001
sS'TRP-GLY'
p330
F-1.6140000000000001
sS'PRO-PHE'
p331
F-0.41699999999999998
sS'GLY-HIS'
p332
F-0.96399999999999997
sS'PHE-SER'
p333
F-0.61899999999999999
sS'TRP-ASP'
p334
F0.221
sS'TRP-GLN'
p335
F-0.73299999999999998
sS'LEU-ALA'
p336
F-0.107
sS'VAL-GLU'
p337
F0.11700000000000001
sS'ALA-HIS'
p338
F-0.41099999999999998
sS'ARG-ASN'
p339
F-0.69399999999999995
sS'LEU-THR'
p340
F0.069000000000000006
sS'TYR-CYS'
p341
F1.5580000000000001
sS'THR-THR'
p342
F-1.363
sS'THR-LEU'
p343
F0.19400000000000001
sS'VAL-ASN'
p344
F0.058999999999999997
sS'LEU-TRP'
p345
F0.025999999999999999
sS'GLU-ASP'
p346
F0.049000000000000002
sS'ILE-SER'
p347
F-0.26300000000000001
sS'ILE-ARG'
p348
F0.40100000000000002
sS'TRP-GLU'
p349
F-0.248
sS'ILE-MET'
p350
F-0.081000000000000003
sS'MET-PHE'
p351
F-0.29699999999999999
sS'PRO-ALA'
p352
F-1.256
sS'PRO-GLY'
p353
F-1.1739999999999999
sS'GLN-THR'
p354
F-0.26600000000000001
sS'MET-ALA'
p355
F-0.51800000000000002
sS'TRP-SER'
p356
F-0.68100000000000005
sS'ASP-HIS'
p357
F-0.039
sS'ARG-SER'
p358
F-1.1519999999999999
sS'GLN-HIS'
p359
F-0.34499999999999997
sS'HIS-PHE'
p360
F0.48599999999999999
sS'LEU-LEU'
p361
F-0.82099999999999995
sS'ALA-GLN'
p362
F-0.27100000000000002
sS'ASP-ASN'
p363
F-0.437
sS'SER-VAL'
p364
F-0.252
sS'MET-ILE'
p365
F-0.33600000000000002
sS'ALA-PRO'
p366
F-0.79300000000000004
sS'ASP-ASP'
p367
F-1.4079999999999999
sS'ALA-GLY'
p368
F-0.73899999999999999
sS'TRP-TRP'
p369
F-3.5529999999999999
sS'MET-CYS'
p370
F1.9059999999999999
sS'ALA-GLU'
p371
F-0.122
sS'THR-PRO'
p372
F-1.054
sS'HIS-ALA'
p373
F-0.53900000000000003
sS'GLN-ILE'
p374
F-0.185
sS'GLU-VAL'
p375
F0.049000000000000002
sS'LYS-ASN'
p376
F-0.23200000000000001
sS'ASN-ALA'
p377
F0.053999999999999999
sS'THR-ILE'
p378
F-0.311
sS'ASP-CYS'
p379
F-0.57399999999999995
sS'PRO-LYS'
p380
F-1.0740000000000001
sS'TYR-TYR'
p381
F-2.3849999999999998
sS'ARG-LYS'
p382
F-0.60099999999999998
sS'ILE-ALA'
p383
F0.33500000000000002
sS'ASP-SER'
p384
F-0.65000000000000002
sS'CYS-LYS'
p385
F0.218
sS'GLU-ALA'
p386
F-0.64600000000000002
sS'PHE-GLU'
p387
F0.45000000000000001
sS'GLU-LEU'
p388
F0.21099999999999999
sS'PHE-GLY'
p389
F-0.64600000000000002
sS'LYS-HIS'
p390
F0.39300000000000002
sS'HIS-PRO'
p391
F-1.3240000000000001
sS'ILE-ILE'
p392
F-1.7849999999999999
sS'MET-HIS'
p393
F0.36599999999999999
sS'VAL-GLY'
p394
F-0.64500000000000002
sS'THR-MET'
p395
F-0.66100000000000003
sS'PHE-THR'
p396
F-0.13800000000000001
sS'VAL-TRP'
p397
F0.56399999999999995
sS'PHE-LYS'
p398
F-0.54100000000000004
sS'GLY-PRO'
p399
F-1.099
sS'PHE-GLN'
p400
F0.33400000000000002
sS'LEU-PHE'
p401
F0.26900000000000002
s.