(dp1
S'MET-MET'
p2
F-3.669
sS'PRO-ILE'
p3
F-0.91700000000000004
sS'TYR-LYS'
p4
F-1.196
sS'VAL-ASP'
p5
F-0.70399999999999996
sS'ASP-GLN'
p6
F-1.3169999999999999
sS'HIS-TYR'
p7
F-2.3780000000000001
sS'ASP-GLU'
p8
F-0.63
sS'ALA-ASP'
p9
F-1.226
sS'ASP-GLY'
p10
F-1.6819999999999999
sS'LEU-VAL'
p11
F-0.23300000000000001
sS'TRP-TYR'
p12
F-3.0390000000000001
sS'GLN-TRP'
p13
F-1.0840000000000001
sS'TRP-PHE'
p14
F-1.2769999999999999
sS'ARG-TYR'
p15
F-0.77400000000000002
sS'GLU-LYS'
p16
F-0.996
sS'ILE-HIS'
p17
F-1.4550000000000001
sS'LEU-MET'
p18
F-0.50800000000000001
sS'GLU-HIS'
p19
F-2.27
sS'GLY-THR'
p20
F-1.6519999999999999
sS'ARG-GLU'
p21
F-2.04
sS'PHE-ASN'
p22
F-1.224
sS'ASN-MET'
p23
F-0.79400000000000004
sS'PRO-THR'
p24
F-1.0669999999999999
sS'TYR-GLN'
p25
F-1.353
sS'ARG-GLY'
p26
F-2.25
sS'VAL-THR'
p27
F-0.80500000000000005
sS'ASP-ILE'
p28
F-0.86799999999999999
sS'THR-HIS'
p29
F-1.3220000000000001
sS'TYR-GLU'
p30
F-1.1180000000000001
sS'ARG-GLN'
p31
F-1.9610000000000001
sS'TYR-GLY'
p32
F-2.1389999999999998
sS'PHE-ASP'
p33
F-2.081
sS'CYS-ARG'
p34
F0.255
sS'GLY-ASN'
p35
F-2.3250000000000002
sS'VAL-LYS'
p36
F-0.57199999999999995
sS'LEU-ILE'
p37
F-0.36499999999999999
sS'GLN-LEU'
p38
F-0.71899999999999997
sS'GLU-MET'
p39
F-1.0600000000000001
sS'ASP-THR'
p40
F-0.91600000000000004
sS'ASN-PHE'
p41
F-0.84099999999999997
sS'GLU-PRO'
p42
F-1.363
sS'TYR-LEU'
p43
F-1.4830000000000001
sS'LYS-ARG'
p44
F-1.7210000000000001
sS'GLY-ASP'
p45
F-1.8100000000000001
sS'PRO-GLN'
p46
F-0.95799999999999996
sS'CYS-MET'
p47
F1.6759999999999999
sS'HIS-ARG'
p48
F-1.7929999999999999
sS'GLU-THR'
p49
F-1.5049999999999999
sS'ILE-THR'
p50
F-0.98299999999999998
sS'SER-PRO'
p51
F-1.2649999999999999
sS'GLY-CYS'
p52
F-0.91700000000000004
sS'ARG-LEU'
p53
F-1.29
sS'PRO-GLU'
p54
F-1.345
sS'ASP-LEU'
p55
F-0.72999999999999998
sS'PHE-VAL'
p56
F-1.2430000000000001
sS'ASN-VAL'
p57
F-0.44600000000000001
sS'ALA-MET'
p58
F0.035999999999999997
sS'LEU-PRO'
p59
F-0.86499999999999999
sS'LEU-SER'
p60
F-1.2609999999999999
sS'ASN-ARG'
p61
F-1.8660000000000001
sS'SER-THR'
p62
F-1.4610000000000001
sS'LYS-VAL'
p63
F-1.1439999999999999
sS'LYS-GLN'
p64
F-1.679
sS'GLN-VAL'
p65
F-0.81499999999999995
sS'TYR-PHE'
p66
F-2.202
sS'ASP-VAL'
p67
F-0.78000000000000003
sS'ASN-GLY'
p68
F-2.1099999999999999
sS'ARG-PHE'
p69
F-1.7669999999999999
sS'SER-HIS'
p70
F-1.875
sS'ALA-ILE'
p71
F-0.373
sS'ASN-GLU'
p72
F-1.3620000000000001
sS'CYS-GLN'
p73
F-0.68500000000000005
sS'TYR-PRO'
p74
F-0.89900000000000002
sS'LYS-GLU'
p75
F-1.2609999999999999
sS'CYS-GLU'
p76
F0.67200000000000004
sS'ASN-GLN'
p77
F-2.0470000000000002
sS'CYS-GLY'
p78
F-1.1200000000000001
sS'GLN-SER'
p79
F-2.2250000000000001
sS'HIS-LYS'
p80
F-1.6919999999999999
sS'LYS-GLY'
p81
F-1.921
sS'VAL-MET'
p82
F0.44600000000000001
sS'GLU-GLY'
p83
F-2.0499999999999998
sS'THR-SER'
p84
F-1.107
sS'TYR-THR'
p85
F-1.474
sS'PRO-PRO'
p86
F-3.262
sS'ILE-PHE'
p87
F-0.82799999999999996
sS'PHE-LEU'
p88
F-1.171
sS'GLU-GLU'
p89
F-3.2890000000000001
sS'SER-ARG'
p90
F-2.0409999999999999
sS'GLY-ALA'
p91
F-1.1419999999999999
sS'TYR-ASN'
p92
F-1.4059999999999999
sS'GLU-GLN'
p93
F-1.855
sS'TRP-ARG'
p94
F-2.3100000000000001
sS'LEU-GLU'
p95
F-0.29899999999999999
sS'LEU-GLY'
p96
F-1.036
sS'LYS-SER'
p97
F-1.349
sS'MET-VAL'
p98
F-1.0660000000000001
sS'SER-ALA'
p99
F-1.3320000000000001
sS'PRO-HIS'
p100
F-1.119
sS'MET-THR'
p101
F-0.83299999999999996
sS'ALA-PHE'
p102
F-1.224
sS'MET-PRO'
p103
F1.6419999999999999
sS'GLY-SER'
p104
F-1.7130000000000001
sS'LEU-GLN'
p105
F-0.158
sS'VAL-LEU'
p106
F-0.56999999999999995
sS'LEU-CYS'
p107
F0.53200000000000003
sS'LYS-TYR'
p108
F-1.0649999999999999
sS'ASP-ALA'
p109
F-0.98199999999999998
sS'ILE-LEU'
p110
F-0.64600000000000002
sS'TRP-VAL'
p111
F-1.8879999999999999
sS'PHE-PRO'
p112
F-1.9299999999999999
sS'ALA-ALA'
p113
F-2.5089999999999999
sS'ARG-TRP'
p114
F-2.3130000000000002
sS'MET-GLN'
p115
F-1.381
sS'ILE-LYS'
p116
F-0.54200000000000004
sS'MET-ARG'
p117
F-0.91400000000000003
sS'ALA-CYS'
p118
F-0.376
sS'THR-ARG'
p119
F-1.397
sS'CYS-ILE'
p120
F-0.58199999999999996
sS'LEU-ASN'
p121
F-0.95299999999999996
sS'LEU-ASP'
p122
F-0.441
sS'PHE-TRP'
p123
F-1.288
sS'MET-GLY'
p124
F-1.3999999999999999
sS'THR-PHE'
p125
F-1.5169999999999999
sS'MET-GLU'
p126
F-0.48899999999999999
sS'THR-TRP'
p127
F-2.4550000000000001
sS'THR-TYR'
p128
F-1.1579999999999999
sS'CYS-VAL'
p129
F-0.88
sS'ARG-ALA'
p130
F-1.6879999999999999
sS'ALA-TYR'
p131
F-1.9219999999999999
sS'ASP-PRO'
p132
F-1.1679999999999999
sS'ARG-CYS'
p133
F-1.012
sS'GLN-ARG'
p134
F-1.8029999999999999
sS'HIS-TRP'
p135
F-0.73299999999999998
sS'PRO-SER'
p136
F-1.534
sS'VAL-VAL'
p137
F-2.1909999999999998
sS'LEU-LYS'
p138
F-0.64000000000000001
sS'GLY-LYS'
p139
F-2.0819999999999999
sS'CYS-ASN'
p140
F0.67900000000000005
sS'GLY-TRP'
p141
F-3.1640000000000001
sS'THR-CYS'
p142
F-0.47599999999999998
sS'LYS-LYS'
p143
F-2.5840000000000001
sS'CYS-ASP'
p144
F-1.3959999999999999
sS'TYR-ASP'
p145
F-2.1970000000000001
sS'VAL-PRO'
p146
F-0.435
sS'THR-VAL'
p147
F-0.84299999999999997
sS'ASP-TYR'
p148
F-1.8959999999999999
sS'PRO-CYS'
p149
F-1.113
sS'VAL-SER'
p150
F-0.95499999999999996
sS'ARG-HIS'
p151
F-2.097
sS'CYS-PRO'
p152
F0.42299999999999999
sS'MET-LYS'
p153
F-1.5469999999999999
sS'ALA-SER'
p154
F-1.0269999999999999
sS'TYR-SER'
p155
F-2.0449999999999999
sS'GLY-ARG'
p156
F-2.4750000000000001
sS'GLN-ALA'
p157
F-0.97899999999999998
sS'MET-LEU'
p158
F-0.751
sS'ASN-HIS'
p159
F-1.9670000000000001
sS'VAL-CYS'
p160
F-0.22
sS'GLN-TYR'
p161
F-1.78
sS'GLN-PHE'
p162
F-1
sS'ILE-ASN'
p163
F-1.0469999999999999
sS'GLU-ASN'
p164
F-1.552
sS'CYS-ALA'
p165
F-1.482
sS'ASN-ASP'
p166
F-1.133
sS'ASN-PRO'
p167
F-1.631
sS'PRO-ARG'
p168
F-1.665
sS'LYS-TRP'
p169
F-0.71199999999999997
sS'ASN-ASN'
p170
F-3.3719999999999999
sS'ASN-THR'
p171
F-1.254
sS'THR-ALA'
p172
F-0.89100000000000001
sS'LYS-ALA'
p173
F-0.91500000000000004
sS'LYS-PRO'
p174
F-1.5369999999999999
sS'SER-GLN'
p175
F-1.7090000000000001
sS'ILE-VAL'
p176
F-0.876
sS'ASP-ARG'
p177
F-1.244
sS'ASP-MET'
p178
F-0.38900000000000001
sS'CYS-TYR'
p179
F-1.1339999999999999
sS'PRO-TRP'
p180
F-1.339
sS'THR-GLU'
p181
F-1.7110000000000001
sS'TRP-ALA'
p182
F-0.33400000000000002
sS'ILE-CYS'
p183
F-1.056
sS'LYS-ILE'
p184
F-0.47899999999999998
sS'GLN-CYS'
p185
F-1.2989999999999999
sS'TYR-ALA'
p186
F-1.4730000000000001
sS'ARG-ASP'
p187
F-1.802
sS'SER-GLU'
p188
F-1.806
sS'TRP-HIS'
p189
F-0.92500000000000004
sS'ALA-ASN'
p190
F-0.80100000000000005
sS'GLU-CYS'
p191
F-0.749
sS'PRO-MET'
p192
F0.70499999999999996
sS'TYR-HIS'
p193
F-2.2200000000000002
sS'PHE-MET'
p194
F-1.2370000000000001
sS'GLU-TYR'
p195
F-1.5589999999999999
sS'SER-TRP'
p196
F-2.085
sS'PHE-ARG'
p197
F-0.39900000000000002
sS'GLY-ILE'
p198
F-1.0720000000000001
sS'TYR-VAL'
p199
F-0.89400000000000002
sS'ASN-TYR'
p200
F-2.3050000000000002
sS'SER-ILE'
p201
F-1.5389999999999999
sS'GLN-PRO'
p202
F-1.208
sS'PHE-TYR'
p203
F-1.901
sS'ALA-VAL'
p204
F-0.70299999999999996
sS'HIS-HIS'
p205
F-5.3200000000000003
sS'THR-ASN'
p206
F-1.2969999999999999
sS'CYS-LEU'
p207
F-0.094
sS'LYS-MET'
p208
F-1.3069999999999999
sS'LYS-ASP'
p209
F-1.5669999999999999
sS'HIS-ASN'
p210
F-1.6990000000000001
sS'ILE-GLN'
p211
F-0.92100000000000004
sS'VAL-HIS'
p212
F-1.0229999999999999
sS'ALA-LEU'
p213
F-0.79200000000000004
sS'HIS-ASP'
p214
F-1.637
sS'ILE-TYR'
p215
F-1.7310000000000001
sS'ILE-GLU'
p216
F-0.77300000000000002
sS'ASN-TRP'
p217
F-0.95399999999999996
sS'ILE-GLY'
p218
F-0.83499999999999996
sS'ASN-CYS'
p219
F0.71799999999999997
sS'GLU-SER'
p220
F-2.117
sS'ALA-TRP'
p221
F-0.70099999999999996
sS'HIS-CYS'
p222
F-1.2889999999999999
sS'HIS-MET'
p223
F-1.282
sS'ILE-PRO'
p224
F-0.98499999999999999
sS'LYS-PHE'
p225
F-1.8640000000000001
sS'TRP-PRO'
p226
F-1.03
sS'GLU-TRP'
p227
F-0.315
sS'PHE-HIS'
p228
F-1.643
sS'GLY-TYR'
p229
F-2.5489999999999999
sS'SER-GLY'
p230
F-1.845
sS'CYS-TRP'
p231
F-1.2170000000000001
sS'ASP-LYS'
p232
F-0.878
sS'ASN-ILE'
p233
F-0.92400000000000004
sS'HIS-SER'
p234
F-1.758
sS'LYS-CYS'
p235
F-1.3420000000000001
sS'GLY-PHE'
p236
F-2.036
sS'GLY-LEU'
p237
F-1.3100000000000001
sS'MET-SER'
p238
F-1.7090000000000001
sS'VAL-ALA'
p239
F-0.41299999999999998
sS'SER-LEU'
p240
F-1.1799999999999999
sS'TRP-LYS'
p241
F-0.087999999999999995
sS'VAL-TYR'
p242
F-1.171
sS'VAL-PHE'
p243
F-1.111
sS'ARG-THR'
p244
F-1.2589999999999999
sS'TYR-TRP'
p245
F-2.5939999999999999
sS'GLN-GLN'
p246
F-3.7250000000000001
sS'GLU-PHE'
p247
F-0.22800000000000001
sS'VAL-ILE'
p248
F-0.83199999999999996
sS'HIS-GLN'
p249
F-1.105
sS'GLN-GLY'
p250
F-2.3849999999999998
sS'PHE-ALA'
p251
F-1.1299999999999999
sS'HIS-GLU'
p252
F-1.1259999999999999
sS'ARG-PRO'
p253
F-1.401
sS'HIS-GLY'
p254
F-2.1549999999999998
sS'SER-ASN'
p255
F-1.6870000000000001
sS'ALA-THR'
p256
F-1.256
sS'GLN-GLU'
p257
F-1.4239999999999999
sS'GLN-LYS'
p258
F-1.512
sS'CYS-HIS'
p259
F-1.2769999999999999
sS'GLN-ASP'
p260
F-1.3400000000000001
sS'LEU-HIS'
p261
F-0.81399999999999995
sS'SER-LYS'
p262
F-1.403
sS'TRP-LEU'
p263
F-1.345
sS'CYS-SER'
p264
F-0.65500000000000003
sS'LYS-THR'
p265
F-1.454
sS'HIS-LEU'
p266
F-1.3100000000000001
sS'LEU-ARG'
p267
F-1.3620000000000001
sS'GLY-VAL'
p268
F-1.5609999999999999
sS'GLN-ASN'
p269
F-1.401
sS'TYR-ARG'
p270
F-0.77800000000000002
sS'PRO-TYR'
p271
F-1.694
sS'ASP-PHE'
p272
F-1.6220000000000001
sS'TRP-CYS'
p273
F-1.2350000000000001
sS'ASN-LEU'
p274
F-1.0780000000000001
sS'SER-MET'
p275
F-0.78800000000000003
sS'HIS-ILE'
p276
F-1.0660000000000001
sS'SER-TYR'
p277
F-2.3879999999999999
sS'MET-TYR'
p278
F0.28299999999999997
sS'GLU-ILE'
p279
F-0.81999999999999995
sS'PHE-CYS'
p280
F-1.744
sS'PRO-LEU'
p281
F-1.0660000000000001
sS'GLY-MET'
p282
F-1.2749999999999999
sS'ARG-ILE'
p283
F-1.385
sS'HIS-THR'
p284
F-2.3900000000000001
sS'THR-GLN'
p285
F-1.429
sS'TRP-THR'
p286
F-2.1749999999999998
sS'LYS-LEU'
p287
F-0.068000000000000005
sS'THR-GLY'
p288
F-1.5840000000000001
sS'ASP-TRP'
p289
F-1.071
sS'TYR-MET'
p290
F0.28299999999999997
sS'PHE-ILE'
p291
F-0.70899999999999996
sS'PRO-VAL'
p292
F-0.55000000000000004
sS'MET-ASN'
p293
F-0.98199999999999998
sS'LEU-TYR'
p294
F-1.339
sS'PHE-PHE'
p295
F-4.4450000000000003
sS'CYS-PHE'
p296
F-1.8029999999999999
sS'TRP-ILE'
p297
F-1.1339999999999999
sS'PRO-ASN'
p298
F-1.772
sS'CYS-CYS'
p299
F-3.8620000000000001
sS'SER-ASP'
p300
F-0.94699999999999995
sS'ARG-MET'
p301
F-0.70399999999999996
sS'SER-PHE'
p302
F-1.661
sS'SER-SER'
p303
F-3.1379999999999999
sS'ASN-LYS'
p304
F-1.165
sS'CYS-THR'
p305
F0.22800000000000001
sS'ILE-TRP'
p306
F-0.95599999999999996
sS'PRO-ASP'
p307
F-1.002
sS'THR-ASP'
p308
F-1.012
sS'SER-CYS'
p309
F0.14199999999999999
sS'MET-ASP'
p310
F-1.609
sS'GLN-MET'
p311
F-0.29199999999999998
sS'MET-TRP'
p312
F-0.87
sS'ARG-VAL'
p313
F-1.48
sS'GLY-GLN'
p314
F-2.1499999999999999
sS'THR-LYS'
p315
F-1.129
sS'TRP-MET'
p316
F-0.86199999999999999
sS'ARG-ARG'
p317
F-3.7370000000000001
sS'ILE-ASP'
p318
F-0.91200000000000003
sS'GLY-GLY'
p319
F-3.3239999999999998
sS'GLY-GLU'
p320
F-1.9339999999999999
sS'ALA-ARG'
p321
F-1.456
sS'GLU-ARG'
p322
F-1.421
sS'HIS-VAL'
p323
F-0.90500000000000003
sS'VAL-ARG'
p324
F-1.387
sS'ASN-SER'
p325
F-1.671
sS'ALA-LYS'
p326
F-1.129
sS'VAL-GLN'
p327
F-0.60899999999999999
sS'TRP-ASN'
p328
F-1.587
sS'TYR-ILE'
p329
F-1.5129999999999999
sS'TRP-GLY'
p330
F-2.847
sS'PRO-PHE'
p331
F-1.665
sS'GLY-HIS'
p332
F-2.1040000000000001
sS'PHE-SER'
p333
F-1.7090000000000001
sS'TRP-ASP'
p334
F-0.98999999999999999
sS'TRP-GLN'
p335
F-1.9350000000000001
sS'LEU-ALA'
p336
F-1.0700000000000001
sS'VAL-GLU'
p337
F-0.93000000000000005
sS'ALA-HIS'
p338
F-1.4059999999999999
sS'ARG-ASN'
p339
F-1.78
sS'LEU-THR'
p340
F-0.91300000000000003
sS'TYR-CYS'
p341
F0.504
sS'THR-THR'
p342
F-2.7080000000000002
sS'THR-LEU'
p343
F-0.77300000000000002
sS'VAL-ASN'
p344
F-0.80100000000000005
sS'LEU-TRP'
p345
F-1.3400000000000001
sS'GLU-ASP'
p346
F-0.86399999999999999
sS'ILE-SER'
p347
F-1.28
sS'ILE-ARG'
p348
F-0.84999999999999998
sS'TRP-GLU'
p349
F-0.83299999999999996
sS'ILE-MET'
p350
F-0.14599999999999999
sS'MET-PHE'
p351
F-1.161
sS'PRO-ALA'
p352
F-1.9239999999999999
sS'PRO-GLY'
p353
F-1.8029999999999999
sS'GLN-THR'
p354
F-1.3069999999999999
sS'MET-ALA'
p355
F-0.89800000000000002
sS'TRP-SER'
p356
F-1.7050000000000001
sS'ASP-HIS'
p357
F-0.78900000000000003
sS'ARG-SER'
p358
F-2.3969999999999998
sS'GLN-HIS'
p359
F-1.6799999999999999
sS'HIS-PHE'
p360
F-0.379
sS'LEU-LEU'
p361
F-2.407
sS'ALA-GLN'
p362
F-1.28
sS'ASP-ASN'
p363
F-1.0049999999999999
sS'SER-VAL'
p364
F-0.999
sS'MET-ILE'
p365
F-0.47999999999999998
sS'ALA-PRO'
p366
F-1.458
sS'ASP-ASP'
p367
F-2.8889999999999998
sS'ALA-GLY'
p368
F-1.2949999999999999
sS'TRP-TRP'
p369
F-5.5780000000000003
sS'MET-CYS'
p370
F1.6759999999999999
sS'ALA-GLU'
p371
F-1.2030000000000001
sS'THR-PRO'
p372
F-1.474
sS'HIS-ALA'
p373
F-1.2569999999999999
sS'GLN-ILE'
p374
F-1.0960000000000001
sS'GLU-VAL'
p375
F-1.0289999999999999
sS'LYS-ASN'
p376
F-1.1879999999999999
sS'ASN-ALA'
p377
F-0.879
sS'THR-ILE'
p378
F-1.1919999999999999
sS'ASP-CYS'
p379
F-1.268
sS'PRO-LYS'
p380
F-1.722
sS'TYR-TYR'
p381
F-4.383
sS'ARG-LYS'
p382
F-1.6879999999999999
sS'ILE-ALA'
p383
F-0.54100000000000004
sS'ASP-SER'
p384
F-1.3939999999999999
sS'CYS-LYS'
p385
F-0.89700000000000002
sS'GLU-ALA'
p386
F-1.4039999999999999
sS'PHE-GLU'
p387
F-0.70399999999999996
sS'GLU-LEU'
p388
F-0.89000000000000001
sS'PHE-GLY'
p389
F-1.833
sS'LYS-HIS'
p390
F-0.70399999999999996
sS'HIS-PRO'
p391
F-1.819
sS'ILE-ILE'
p392
F-3.3679999999999999
sS'MET-HIS'
p393
F-0.31
sS'VAL-GLY'
p394
F-1.4670000000000001
sS'THR-MET'
p395
F-1.2490000000000001
sS'PHE-THR'
p396
F-1.403
sS'VAL-TRP'
p397
F-1.0760000000000001
sS'PHE-LYS'
p398
F-1.411
sS'GLY-PRO'
p399
F-1.8089999999999999
sS'PHE-GLN'
p400
F-0.70099999999999996
sS'LEU-PHE'
p401
F-0.97599999999999998
s.