(dp1
S'MET-MET'
p2
F0.67100000000000004
sS'PRO-ILE'
p3
F3.2330000000000001
sS'TYR-LYS'
p4
F3.423
sS'VAL-ASP'
p5
F3.395
sS'ASP-GLN'
p6
F2.9849999999999999
sS'HIS-TYR'
p7
F2.452
sS'ASP-GLU'
p8
F3.5779999999999998
sS'ALA-ASP'
p9
F2.7320000000000002
sS'ASP-GLY'
p10
F2.3839999999999999
sS'LEU-VAL'
p11
F3.8079999999999998
sS'TRP-TYR'
p12
F2.2989999999999999
sS'GLN-TRP'
p13
F3.8889999999999998
sS'TRP-PHE'
p14
F3.6139999999999999
sS'ARG-TYR'
p15
F3.9590000000000001
sS'GLU-LYS'
p16
F3.258
sS'ILE-HIS'
p17
F2.9319999999999999
sS'LEU-MET'
p18
F3.552
sS'GLU-HIS'
p19
F2.3839999999999999
sS'GLY-THR'
p20
F2.1659999999999999
sS'ARG-GLU'
p21
F2.5249999999999999
sS'PHE-ASN'
p22
F3.2919999999999998
sS'ASN-MET'
p23
F3.512
sS'PRO-THR'
p24
F2.9249999999999998
sS'TYR-GLN'
p25
F3.3900000000000001
sS'ARG-GLY'
p26
F2.1970000000000001
sS'VAL-THR'
p27
F3.069
sS'ASP-ILE'
p28
F3.2909999999999999
sS'THR-HIS'
p29
F3.1179999999999999
sS'TYR-GLU'
p30
F3.5219999999999998
sS'ARG-GLN'
p31
F2.6429999999999998
sS'TYR-GLY'
p32
F2.4500000000000002
sS'PHE-ASP'
p33
F2.472
sS'CYS-ARG'
p34
F4.657
sS'GLY-ASN'
p35
F1.629
sS'VAL-LYS'
p36
F3.6320000000000001
sS'LEU-ILE'
p37
F3.6539999999999999
sS'GLN-LEU'
p38
F3.5289999999999999
sS'GLU-MET'
p39
F3.2799999999999998
sS'ASP-THR'
p40
F3.1629999999999998
sS'ASN-PHE'
p41
F3.6589999999999998
sS'GLU-PRO'
p42
F2.863
sS'TYR-LEU'
p43
F3.1480000000000001
sS'LYS-ARG'
p44
F2.8809999999999998
sS'GLY-ASP'
p45
F2.2290000000000001
sS'PRO-GLN'
p46
F3.2759999999999998
sS'CYS-MET'
p47
F5.8540000000000001
sS'HIS-ARG'
p48
F2.7320000000000002
sS'GLU-THR'
p49
F2.6539999999999999
sS'ILE-THR'
p50
F3.0859999999999999
sS'SER-PRO'
p51
F2.633
sS'GLY-CYS'
p52
F2.649
sS'ARG-LEU'
p53
F3.2850000000000001
sS'PRO-GLU'
p54
F2.871
sS'ASP-LEU'
p55
F3.4399999999999999
sS'PHE-VAL'
p56
F3.306
sS'ASN-VAL'
p57
F3.6080000000000001
sS'ALA-MET'
p58
F4.2530000000000001
sS'LEU-PRO'
p59
F3.2269999999999999
sS'LEU-SER'
p60
F2.7610000000000001
sS'ASN-ARG'
p61
F2.657
sS'SER-THR'
p62
F2.4340000000000002
sS'LYS-VAL'
p63
F3.0329999999999999
sS'LYS-GLN'
p64
F2.6320000000000001
sS'GLN-VAL'
p65
F3.3490000000000002
sS'TYR-PHE'
p66
F2.5699999999999998
sS'ASP-VAL'
p67
F3.2850000000000001
sS'ASN-GLY'
p68
F1.8759999999999999
sS'ARG-PHE'
p69
F2.8500000000000001
sS'SER-HIS'
p70
F2.4969999999999999
sS'ALA-ILE'
p71
F3.5910000000000002
sS'ASN-GLU'
p72
F2.835
sS'CYS-GLN'
p73
F3.746
sS'TYR-PRO'
p74
F3.8010000000000002
sS'LYS-GLU'
p75
F2.9769999999999999
sS'CYS-GLU'
p76
F4.8799999999999999
sS'ASN-GLN'
p77
F2.258
sS'CYS-GLY'
p78
F2.4300000000000002
sS'GLN-SER'
p79
F1.9510000000000001
sS'HIS-LYS'
p80
F2.8639999999999999
sS'LYS-GLY'
p81
F2.194
sS'VAL-MET'
p82
F4.5439999999999996
sS'GLU-GLY'
p83
F2.1499999999999999
sS'THR-SER'
p84
F2.738
sS'TYR-THR'
p85
F3.137
sS'PRO-PRO'
p86
F0.88800000000000001
sS'ILE-PHE'
p87
F3.625
sS'PHE-LEU'
p88
F3.3170000000000002
sS'GLU-GLU'
p89
F1.325
sS'SER-ARG'
p90
F2.4319999999999999
sS'GLY-ALA'
p91
F2.1480000000000001
sS'TYR-ASN'
p92
F3.3780000000000001
sS'GLU-GLN'
p93
F2.4500000000000002
sS'TRP-ARG'
p94
F2.7280000000000002
sS'LEU-GLU'
p95
F3.9039999999999999
sS'LEU-GLY'
p96
F2.9929999999999999
sS'LYS-SER'
p97
F2.851
sS'MET-VAL'
p98
F2.952
sS'SER-ALA'
p99
F2.1899999999999999
sS'PRO-HIS'
p100
F3.3239999999999998
sS'MET-THR'
p101
F3.242
sS'ALA-PHE'
p102
F3.1949999999999998
sS'MET-PRO'
p103
F5.7210000000000001
sS'GLY-SER'
p104
F1.7869999999999999
sS'LEU-GLN'
p105
F4.1109999999999998
sS'VAL-LEU'
p106
F3.419
sS'LEU-CYS'
p107
F4.5289999999999999
sS'LYS-TYR'
p108
F3.4670000000000001
sS'ASP-ALA'
p109
F3.0859999999999999
sS'ILE-LEU'
p110
F3.464
sS'TRP-VAL'
p111
F3.0030000000000001
sS'PHE-PRO'
p112
F2.5950000000000002
sS'ALA-ALA'
p113
F1.1439999999999999
sS'ARG-TRP'
p114
F2.7719999999999998
sS'MET-GLN'
p115
F3.0310000000000001
sS'ILE-LYS'
p116
F3.7360000000000002
sS'MET-ARG'
p117
F3.71
sS'ALA-CYS'
p118
F3.2999999999999998
sS'THR-ARG'
p119
F3.0600000000000001
sS'CYS-ILE'
p120
F3.472
sS'LEU-ASN'
p121
F3.1179999999999999
sS'LEU-ASP'
p122
F3.6709999999999998
sS'PHE-TRP'
p123
F3.7679999999999998
sS'MET-GLY'
p124
F2.5990000000000002
sS'THR-PHE'
p125
F2.9580000000000002
sS'MET-GLU'
p126
F3.79
sS'THR-TRP'
p127
F2.552
sS'THR-TYR'
p128
F3.4020000000000001
sS'CYS-VAL'
p129
F3.0750000000000002
sS'ARG-ALA'
p130
F2.7629999999999999
sS'ALA-TYR'
p131
F2.7400000000000002
sS'ASP-PRO'
p132
F2.899
sS'ARG-CYS'
p133
F3.7559999999999998
sS'GLN-ARG'
p134
F2.6749999999999998
sS'HIS-TRP'
p135
F4.1269999999999998
sS'PRO-SER'
p136
F2.3769999999999998
sS'VAL-VAL'
p137
F1.901
sS'LEU-LYS'
p138
F3.633
sS'GLY-LYS'
p139
F2.073
sS'CYS-ASN'
p140
F4.7839999999999998
sS'GLY-TRP'
p141
F1.6499999999999999
sS'THR-CYS'
p142
F3.335
sS'LYS-LYS'
p143
F1.9450000000000001
sS'CYS-ASP'
p144
F2.7709999999999999
sS'TYR-ASP'
p145
F2.5819999999999999
sS'VAL-PRO'
p146
F3.5699999999999998
sS'THR-VAL'
p147
F2.9910000000000001
sS'ASP-TYR'
p148
F2.669
sS'PRO-CYS'
p149
F2.8149999999999999
sS'VAL-SER'
p150
F2.8740000000000001
sS'ARG-HIS'
p151
F2.5089999999999999
sS'CYS-PRO'
p152
F4.3639999999999999
sS'MET-LYS'
p153
F2.7679999999999998
sS'ALA-SER'
p154
F2.5150000000000001
sS'TYR-SER'
p155
F2.5699999999999998
sS'GLY-ARG'
p156
F2.0419999999999998
sS'GLN-ALA'
p157
F3.226
sS'MET-LEU'
p158
F3.4540000000000002
sS'ASN-HIS'
p159
F2.4510000000000001
sS'VAL-CYS'
p160
F3.8050000000000002
sS'GLN-TYR'
p161
F2.9420000000000002
sS'GLN-PHE'
p162
F3.6099999999999999
sS'ILE-ASN'
p163
F3.1019999999999999
sS'GLU-ASN'
p164
F2.7160000000000002
sS'CYS-ALA'
p165
F2.0579999999999998
sS'ASN-ASP'
p166
F3.0699999999999998
sS'ASN-PRO'
p167
F2.4550000000000001
sS'PRO-ARG'
p168
F2.895
sS'LYS-TRP'
p169
F4.1689999999999996
sS'ASN-ASN'
p170
F1.0740000000000001
sS'ASN-THR'
p171
F2.8039999999999998
sS'THR-ALA'
p172
F2.875
sS'LYS-ALA'
p173
F3.2530000000000001
sS'LYS-PRO'
p174
F2.75
sS'SER-GLN'
p175
F2.4910000000000001
sS'ILE-VAL'
p176
F3.1659999999999999
sS'ASP-ARG'
p177
F3.2349999999999999
sS'ASP-MET'
p178
F3.77
sS'CYS-TYR'
p179
F3.4159999999999999
sS'PRO-TRP'
p180
F3.5270000000000001
sS'THR-GLU'
p181
F2.4449999999999998
sS'TRP-ALA'
p182
F4.3869999999999996
sS'ILE-CYS'
p183
F2.996
sS'LYS-ILE'
p184
F3.7839999999999998
sS'GLN-CYS'
p185
F2.9239999999999999
sS'TYR-ALA'
p186
F3.1469999999999998
sS'ARG-ASP'
p187
F2.6819999999999999
sS'SER-GLU'
p188
F2.4249999999999998
sS'TRP-HIS'
p189
F3.9580000000000002
sS'ALA-ASN'
p190
F3.1859999999999999
sS'GLU-CYS'
p191
F3.4350000000000001
sS'PRO-MET'
p192
F5.0899999999999999
sS'TYR-HIS'
p193
F2.5289999999999999
sS'PHE-MET'
p194
F3.2879999999999998
sS'GLU-TYR'
p195
F3.0739999999999998
sS'SER-TRP'
p196
F2.8650000000000002
sS'PHE-ARG'
p197
F4.2619999999999996
sS'GLY-ILE'
p198
F2.9180000000000001
sS'TYR-VAL'
p199
F3.6659999999999999
sS'ASN-TYR'
p200
F2.4689999999999999
sS'SER-ILE'
p201
F2.4830000000000001
sS'GLN-PRO'
p202
F3.056
sS'PHE-TYR'
p203
F2.8740000000000001
sS'ALA-VAL'
p204
F3.0739999999999998
sS'HIS-HIS'
p205
F-0.79400000000000004
sS'THR-ASN'
p206
F2.778
sS'CYS-LEU'
p207
F3.9119999999999999
sS'LYS-MET'
p208
F2.9769999999999999
sS'LYS-ASP'
p209
F2.7349999999999999
sS'HIS-ASN'
p210
F2.7690000000000001
sS'ILE-GLN'
p211
F3.411
sS'VAL-HIS'
p212
F3.3090000000000002
sS'ALA-LEU'
p213
F3.1869999999999998
sS'HIS-ASP'
p214
F2.8420000000000001
sS'ILE-TYR'
p215
F2.9159999999999999
sS'ILE-GLU'
p216
F3.5030000000000001
sS'ASN-TRP'
p217
F4.1100000000000003
sS'ILE-GLY'
p218
F3.1549999999999998
sS'ASN-CYS'
p219
F4.851
sS'GLU-SER'
p220
F2.1640000000000001
sS'ALA-TRP'
p221
F3.9769999999999999
sS'HIS-CYS'
p222
F3.2440000000000002
sS'HIS-MET'
p223
F3.2629999999999999
sS'ILE-PRO'
p224
F3.2389999999999999
sS'LYS-PHE'
p225
F2.7570000000000001
sS'TRP-PRO'
p226
F3.7589999999999999
sS'GLU-TRP'
p227
F4.4820000000000002
sS'PHE-HIS'
p228
F2.944
sS'GLY-TYR'
p229
F2.056
sS'SER-GLY'
p230
F1.665
sS'CYS-TRP'
p231
F3.915
sS'ASP-LYS'
p232
F3.4220000000000002
sS'ASN-ILE'
p233
F3.2309999999999999
sS'HIS-SER'
p234
F2.6520000000000001
sS'LYS-CYS'
p235
F2.8740000000000001
sS'GLY-PHE'
p236
F2.4399999999999999
sS'GLY-LEU'
p237
F2.6779999999999999
sS'MET-SER'
p238
F2.2719999999999998
sS'VAL-ALA'
p239
F3.3889999999999998
sS'SER-LEU'
p240
F2.8700000000000001
sS'TRP-LYS'
p241
F4.6289999999999996
sS'VAL-TYR'
p242
F3.3639999999999999
sS'VAL-PHE'
p243
F3.3580000000000001
sS'ARG-THR'
p244
F3.2360000000000002
sS'TYR-TRP'
p245
F2.1720000000000002
sS'GLN-GLN'
p246
F0.88600000000000001
sS'GLU-PHE'
p247
F4.3070000000000004
sS'VAL-ILE'
p248
F3.246
sS'HIS-GLN'
p249
F3.411
sS'GLN-GLY'
p250
F1.8149999999999999
sS'PHE-ALA'
p251
F3.2629999999999999
sS'HIS-GLU'
p252
F3.4209999999999998
sS'ARG-PRO'
p253
F3.1720000000000002
sS'HIS-GLY'
p254
F2.177
sS'SER-ASN'
p255
F2.375
sS'ALA-THR'
p256
F2.5070000000000001
sS'GLN-GLU'
p257
F2.9590000000000001
sS'GLN-LYS'
p258
F2.7810000000000001
sS'CYS-HIS'
p259
F3.3170000000000002
sS'GLN-ASP'
p260
F2.9460000000000002
sS'LEU-HIS'
p261
F3.621
sS'SER-LYS'
p262
F2.8540000000000001
sS'TRP-LEU'
p263
F3.3959999999999999
sS'CYS-SER'
p264
F2.8690000000000002
sS'LYS-THR'
p265
F2.7250000000000001
sS'HIS-LEU'
p266
F3.1190000000000002
sS'LEU-ARG'
p267
F3.1629999999999998
sS'GLY-VAL'
p268
F2.262
sS'GLN-ASN'
p269
F2.819
sS'TYR-ARG'
p270
F3.8380000000000001
sS'PRO-TYR'
p271
F3.121
sS'ASP-PHE'
p272
F2.9289999999999998
sS'TRP-CYS'
p273
F3.9769999999999999
sS'ASN-LEU'
p274
F3.0939999999999999
sS'SER-MET'
p275
F3.2400000000000002
sS'HIS-ILE'
p276
F3.2839999999999998
sS'SER-TYR'
p277
F2.2749999999999999
sS'MET-TYR'
p278
F4.8810000000000002
sS'GLU-ILE'
p279
F3.415
sS'PHE-CYS'
p280
F2.9239999999999999
sS'PRO-LEU'
p281
F2.9950000000000001
sS'GLY-MET'
p282
F2.835
sS'ARG-ILE'
p283
F3.1320000000000001
sS'HIS-THR'
p284
F1.964
sS'THR-GLN'
p285
F2.766
sS'TRP-THR'
p286
F2.8039999999999998
sS'LYS-LEU'
p287
F4.2220000000000004
sS'THR-GLY'
p288
F2.254
sS'ASP-TRP'
p289
F3.9239999999999999
sS'TYR-MET'
p290
F4.8869999999999996
sS'PHE-ILE'
p291
F3.7469999999999999
sS'PRO-VAL'
p292
F3.403
sS'MET-ASN'
p293
F3.2450000000000001
sS'LEU-TYR'
p294
F3.327
sS'PHE-PHE'
p295
F0.60199999999999998
sS'CYS-PHE'
p296
F2.855
sS'TRP-ILE'
p297
F3.7829999999999999
sS'PRO-ASN'
p298
F2.3639999999999999
sS'CYS-CYS'
p299
F0.034000000000000002
sS'SER-ASP'
p300
F3.1379999999999999
sS'ARG-MET'
p301
F3.8010000000000002
sS'SER-PHE'
p302
F2.867
sS'SER-SER'
p303
F0.83299999999999996
sS'ASN-LYS'
p304
F3.097
sS'CYS-THR'
p305
F4.0609999999999999
sS'ILE-TRP'
p306
F3.9239999999999999
sS'PRO-ASP'
p307
F3.2410000000000001
sS'THR-ASP'
p308
F3.0009999999999999
sS'SER-CYS'
p309
F3.7909999999999999
sS'MET-ASP'
p310
F2.4809999999999999
sS'GLN-MET'
p311
F3.9359999999999999
sS'MET-TRP'
p312
F3.6949999999999998
sS'ARG-VAL'
p313
F3.077
sS'GLY-GLN'
p314
F2.0369999999999999
sS'THR-LYS'
p315
F3.1099999999999999
sS'TRP-MET'
p316
F3.734
sS'ARG-ARG'
p317
F1.0069999999999999
sS'ILE-ASP'
p318
F3.2570000000000001
sS'GLY-GLY'
p319
F0.029000000000000001
sS'GLY-GLU'
p320
F2.2589999999999999
sS'ALA-ARG'
p321
F3.04
sS'GLU-ARG'
p322
F3.1659999999999999
sS'HIS-VAL'
p323
F3.456
sS'VAL-ARG'
p324
F3.2240000000000002
sS'ASN-SER'
p325
F2.2959999999999998
sS'ALA-LYS'
p326
F3.036
sS'VAL-GLN'
p327
F3.5489999999999999
sS'TRP-ASN'
p328
F3.3090000000000002
sS'TYR-ILE'
p329
F3.1539999999999999
sS'TRP-GLY'
p330
F1.8440000000000001
sS'PRO-PHE'
p331
F2.8809999999999998
sS'GLY-HIS'
p332
F2.1520000000000001
sS'PHE-SER'
p333
F2.827
sS'TRP-ASP'
p334
F3.8149999999999999
sS'TRP-GLN'
p335
F2.992
sS'LEU-ALA'
p336
F2.855
sS'VAL-GLU'
p337
F3.25
sS'ALA-HIS'
p338
F3.0030000000000001
sS'ARG-ASN'
p339
F2.7679999999999998
sS'LEU-THR'
p340
F3.1040000000000001
sS'TYR-CYS'
p341
F5.1239999999999997
sS'THR-THR'
p342
F1.4179999999999999
sS'THR-LEU'
p343
F3.3079999999999998
sS'VAL-ASN'
p344
F3.2309999999999999
sS'LEU-TRP'
p345
F3.4649999999999999
sS'GLU-ASP'
p346
F3.4249999999999998
sS'ILE-SER'
p347
F2.754
sS'ILE-ARG'
p348
F3.6110000000000002
sS'TRP-GLU'
p349
F3.9260000000000002
sS'ILE-MET'
p350
F4.2050000000000001
sS'MET-PHE'
p351
F3.4260000000000002
sS'PRO-ALA'
p352
F1.8600000000000001
sS'PRO-GLY'
p353
F2.0099999999999998
sS'GLN-THR'
p354
F2.8799999999999999
sS'MET-ALA'
p355
F3.2440000000000002
sS'TRP-SER'
p356
F3.1040000000000001
sS'ASP-HIS'
p357
F3.6469999999999998
sS'ARG-SER'
p358
F2.137
sS'GLN-HIS'
p359
F2.7269999999999999
sS'HIS-PHE'
p360
F4.1890000000000001
sS'LEU-LEU'
p361
F1.9650000000000001
sS'ALA-GLN'
p362
F3.0960000000000001
sS'ASP-ASN'
p363
F3.1480000000000001
sS'SER-VAL'
p364
F2.8100000000000001
sS'MET-ILE'
p365
F3.6709999999999998
sS'ALA-PRO'
p366
F2.3170000000000002
sS'ASP-ASP'
p367
F1.5509999999999999
sS'ALA-GLY'
p368
F1.968
sS'TRP-TRP'
p369
F-0.252
sS'MET-CYS'
p370
F5.8540000000000001
sS'ALA-GLU'
p371
F2.992
sS'THR-PRO'
p372
F2.411
sS'HIS-ALA'
p373
F3.1360000000000001
sS'GLN-ILE'
p374
F3.1659999999999999
sS'GLU-VAL'
p375
F3.1960000000000002
sS'LYS-ASN'
p376
F3.121
sS'ASN-ALA'
p377
F3.0830000000000002
sS'THR-ILE'
p378
F2.915
sS'ASP-CYS'
p379
F2.8199999999999998
sS'PRO-LYS'
p380
F2.6560000000000001
sS'TYR-TYR'
p381
F0.76800000000000002
sS'ARG-LYS'
p382
F2.9399999999999999
sS'ILE-ALA'
p383
F3.4510000000000001
sS'ASP-SER'
p384
F2.6909999999999998
sS'CYS-LYS'
p385
F3.371
sS'GLU-ALA'
p386
F2.8359999999999999
sS'PHE-GLU'
p387
F3.8570000000000002
sS'GLU-LEU'
p388
F3.3250000000000002
sS'PHE-GLY'
p389
F2.5590000000000002
sS'LYS-HIS'
p390
F3.6779999999999999
sS'HIS-PRO'
p391
F2.5649999999999999
sS'ILE-ILE'
p392
F1.0449999999999999
sS'MET-HIS'
p393
F4.0369999999999999
sS'VAL-GLY'
p394
F2.3149999999999999
sS'THR-MET'
p395
F2.8380000000000001
sS'PHE-THR'
p396
F3.0369999999999999
sS'VAL-TRP'
p397
F3.835
sS'PHE-LYS'
p398
F3.1789999999999998
sS'GLY-PRO'
p399
F1.992
sS'PHE-GLN'
p400
F3.8690000000000002
sS'LEU-PHE'
p401
F3.4460000000000002
s.