(dp1
S'MET-MET'
p2
F-0.76700000000000002
sS'PRO-ILE'
p3
F1.016
sS'TYR-LYS'
p4
F1.212
sS'VAL-ASP'
p5
F1.1539999999999999
sS'ASP-GLN'
p6
F0.73099999999999998
sS'HIS-TYR'
p7
F0.28999999999999998
sS'ASP-GLU'
p8
F1.399
sS'ALA-ASP'
p9
F0.48799999999999999
sS'ASP-GLY'
p10
F0.13200000000000001
sS'LEU-VAL'
p11
F1.5049999999999999
sS'TRP-TYR'
p12
F0.0060000000000000001
sS'GLN-TRP'
p13
F1.6819999999999999
sS'TRP-PHE'
p14
F1.2470000000000001
sS'ARG-TYR'
p15
F1.7150000000000001
sS'GLU-LYS'
p16
F0.98899999999999999
sS'ILE-HIS'
p17
F0.67900000000000005
sS'LEU-MET'
p18
F1.319
sS'GLU-HIS'
p19
F0.22500000000000001
sS'GLY-THR'
p20
F-0.087999999999999995
sS'ARG-GLU'
p21
F0.28000000000000003
sS'PHE-ASN'
p22
F1.048
sS'ASN-MET'
p23
F1.2170000000000001
sS'PRO-THR'
p24
F0.71799999999999997
sS'TYR-GLN'
p25
F1.135
sS'ARG-GLY'
p26
F-0.073999999999999996
sS'VAL-THR'
p27
F0.79200000000000004
sS'ASP-ILE'
p28
F1.077
sS'THR-HIS'
p29
F0.85299999999999998
sS'TYR-GLU'
p30
F1.2390000000000001
sS'ARG-GLN'
p31
F0.47699999999999998
sS'TYR-GLY'
p32
F0.13800000000000001
sS'PHE-ASP'
p33
F0.27900000000000003
sS'CYS-ARG'
p34
F2.351
sS'GLY-ASN'
p35
F-0.63500000000000001
sS'VAL-LYS'
p36
F1.3580000000000001
sS'LEU-ILE'
p37
F1.373
sS'GLN-LEU'
p38
F1.2629999999999999
sS'GLU-MET'
p39
F1.103
sS'ASP-THR'
p40
F0.95099999999999996
sS'ASN-PHE'
p41
F1.401
sS'GLU-PRO'
p42
F0.67100000000000004
sS'TYR-LEU'
p43
F0.88400000000000001
sS'LYS-ARG'
p44
F0.60699999999999998
sS'GLY-ASP'
p45
F-0.02
sS'PRO-GLN'
p46
F1.036
sS'CYS-MET'
p47
F3.4569999999999999
sS'HIS-ARG'
p48
F0.50800000000000001
sS'GLU-THR'
p49
F0.38700000000000001
sS'ILE-THR'
p50
F0.83399999999999996
sS'SER-PRO'
p51
F0.40799999999999997
sS'GLY-CYS'
p52
F0.33100000000000002
sS'ARG-LEU'
p53
F1.056
sS'PRO-GLU'
p54
F0.69699999999999995
sS'ASP-LEU'
p55
F1.1890000000000001
sS'PHE-VAL'
p56
F1.0049999999999999
sS'ASN-VAL'
p57
F1.3240000000000001
sS'ALA-MET'
p58
F1.95
sS'LEU-PRO'
p59
F0.997
sS'LEU-SER'
p60
F0.52000000000000002
sS'ASN-ARG'
p61
F0.42999999999999999
sS'SER-THR'
p62
F0.18099999999999999
sS'LYS-VAL'
p63
F0.78400000000000003
sS'LYS-GLN'
p64
F0.41399999999999998
sS'GLN-VAL'
p65
F1.083
sS'TYR-PHE'
p66
F0.35099999999999998
sS'ASP-VAL'
p67
F1.03
sS'ASN-GLY'
p68
F-0.39900000000000002
sS'ARG-PHE'
p69
F0.57699999999999996
sS'SER-HIS'
p70
F0.28399999999999997
sS'ALA-ILE'
p71
F1.282
sS'ASN-GLU'
p72
F0.628
sS'CYS-GLN'
p73
F1.5720000000000001
sS'TYR-PRO'
p74
F1.585
sS'LYS-GLU'
p75
F0.70899999999999996
sS'CYS-GLU'
p76
F2.6349999999999998
sS'ASN-GLN'
p77
F0.036999999999999998
sS'CYS-GLY'
p78
F0.16700000000000001
sS'GLN-SER'
p79
F-0.25800000000000001
sS'HIS-LYS'
p80
F0.69699999999999995
sS'LYS-GLY'
p81
F-0.069000000000000006
sS'VAL-MET'
p82
F2.1960000000000002
sS'GLU-GLY'
p83
F-0.105
sS'THR-SER'
p84
F0.50600000000000001
sS'TYR-THR'
p85
F0.878
sS'PRO-PRO'
p86
F-0.62
sS'ILE-PHE'
p87
F1.3069999999999999
sS'PHE-LEU'
p88
F1.0409999999999999
sS'GLU-GLU'
p89
F-0.17199999999999999
sS'SER-ARG'
p90
F0.19400000000000001
sS'GLY-ALA'
p91
F-0.125
sS'TYR-ASN'
p92
F1.161
sS'GLU-GLN'
p93
F0.22
sS'TRP-ARG'
p94
F0.48799999999999999
sS'LEU-GLU'
p95
F1.589
sS'LEU-GLY'
p96
F0.70999999999999996
sS'LYS-SER'
p97
F0.60699999999999998
sS'MET-VAL'
p98
F0.65700000000000003
sS'SER-ALA'
p99
F-0.065000000000000002
sS'PRO-HIS'
p100
F1.157
sS'MET-THR'
p101
F0.97999999999999998
sS'ALA-PHE'
p102
F0.94799999999999995
sS'MET-PRO'
p103
F3.524
sS'GLY-SER'
p104
F-0.47099999999999997
sS'LEU-GLN'
p105
F1.8300000000000001
sS'VAL-LEU'
p106
F1.1399999999999999
sS'LEU-CYS'
p107
F2.2130000000000001
sS'LYS-TYR'
p108
F1.2050000000000001
sS'ASP-ALA'
p109
F0.86099999999999999
sS'ILE-LEU'
p110
F1.1919999999999999
sS'TRP-VAL'
p111
F0.69099999999999995
sS'PHE-PRO'
p112
F0.34799999999999998
sS'ALA-ALA'
p113
F-0.42099999999999999
sS'ARG-TRP'
p114
F0.52200000000000002
sS'MET-GLN'
p115
F0.79700000000000004
sS'ILE-LYS'
p116
F1.5269999999999999
sS'MET-ARG'
p117
F1.415
sS'ALA-CYS'
p118
F1.0680000000000001
sS'THR-ARG'
p119
F0.80500000000000005
sS'CYS-ILE'
p120
F1.27
sS'LEU-ASN'
p121
F0.872
sS'LEU-ASP'
p122
F1.431
sS'PHE-TRP'
p123
F1.397
sS'MET-GLY'
p124
F0.29799999999999999
sS'THR-PHE'
p125
F0.70999999999999996
sS'MET-GLU'
p126
F1.496
sS'THR-TRP'
p127
F0.38300000000000001
sS'THR-TYR'
p128
F1.1459999999999999
sS'CYS-VAL'
p129
F0.878
sS'ARG-ALA'
p130
F0.502
sS'ALA-TYR'
p131
F0.48599999999999999
sS'ASP-PRO'
p132
F0.70799999999999996
sS'ARG-CYS'
p133
F1.5269999999999999
sS'GLN-ARG'
p134
F0.501
sS'HIS-TRP'
p135
F1.875
sS'PRO-SER'
p136
F0.17499999999999999
sS'VAL-VAL'
p137
F0.32900000000000001
sS'LEU-LYS'
p138
F1.359
sS'GLY-LYS'
p139
F-0.191
sS'CYS-ASN'
p140
F2.3980000000000001
sS'GLY-TRP'
p141
F-0.60999999999999999
sS'THR-CYS'
p142
F1.052
sS'LYS-LYS'
p143
F0.38600000000000001
sS'CYS-ASP'
p144
F0.60199999999999998
sS'TYR-ASP'
p145
F0.38600000000000001
sS'VAL-PRO'
p146
F1.361
sS'THR-VAL'
p147
F0.73099999999999998
sS'ASP-TYR'
p148
F0.45500000000000002
sS'PRO-CYS'
p149
F0.55400000000000005
sS'VAL-SER'
p150
F0.58999999999999997
sS'ARG-HIS'
p151
F0.25
sS'CYS-PRO'
p152
F2.1920000000000002
sS'MET-LYS'
p153
F0.45500000000000002
sS'ALA-SER'
p154
F0.26900000000000002
sS'TYR-SER'
p155
F0.34799999999999998
sS'GLY-ARG'
p156
F-0.23799999999999999
sS'GLN-ALA'
p157
F0.95399999999999996
sS'MET-LEU'
p158
F1.2290000000000001
sS'ASN-HIS'
p159
F0.24299999999999999
sS'VAL-CYS'
p160
F1.5309999999999999
sS'GLN-TYR'
p161
F0.68300000000000005
sS'GLN-PHE'
p162
F1.363
sS'ILE-ASN'
p163
F0.84299999999999997
sS'GLU-ASN'
p164
F0.54000000000000004
sS'CYS-ALA'
p165
F-0.191
sS'ASN-ASP'
p166
F0.83799999999999997
sS'ASN-PRO'
p167
F0.28100000000000003
sS'PRO-ARG'
p168
F0.71199999999999997
sS'LYS-TRP'
p169
F1.9279999999999999
sS'ASN-ASN'
p170
F-0.49299999999999999
sS'ASN-THR'
p171
F0.59099999999999997
sS'THR-ALA'
p172
F0.623
sS'LYS-ALA'
p173
F0.98399999999999999
sS'LYS-PRO'
p174
F0.52400000000000002
sS'SER-GLN'
p175
F0.24199999999999999
sS'ILE-VAL'
p176
F0.874
sS'ASP-ARG'
p177
F0.96999999999999997
sS'ASP-MET'
p178
F1.5189999999999999
sS'CYS-TYR'
p179
F1.2110000000000001
sS'PRO-TRP'
p180
F1.387
sS'THR-GLU'
p181
F0.16800000000000001
sS'TRP-ALA'
p182
F2.0710000000000002
sS'ILE-CYS'
p183
F0.71299999999999997
sS'LYS-ILE'
p184
F1.524
sS'GLN-CYS'
p185
F0.81000000000000005
sS'TYR-ALA'
p186
F0.88
sS'ARG-ASP'
p187
F0.44
sS'SER-GLU'
p188
F0.216
sS'TRP-HIS'
p189
F1.7609999999999999
sS'ALA-ASN'
p190
F0.998
sS'GLU-CYS'
p191
F1.137
sS'PRO-MET'
p192
F2.8690000000000002
sS'TYR-HIS'
p193
F0.35499999999999998
sS'PHE-MET'
p194
F1.075
sS'GLU-TYR'
p195
F0.80400000000000005
sS'SER-TRP'
p196
F0.59899999999999998
sS'PHE-ARG'
p197
F1.9910000000000001
sS'GLY-ILE'
p198
F0.622
sS'TYR-VAL'
p199
F1.3819999999999999
sS'ASN-TYR'
p200
F0.23300000000000001
sS'SER-ILE'
p201
F0.23899999999999999
sS'GLN-PRO'
p202
F0.82799999999999996
sS'PHE-TYR'
p203
F0.64100000000000001
sS'ALA-VAL'
p204
F0.78000000000000003
sS'HIS-HIS'
p205
F-2.3860000000000001
sS'THR-ASN'
p206
F0.51200000000000001
sS'CYS-LEU'
p207
F1.552
sS'LYS-MET'
p208
F0.70099999999999996
sS'LYS-ASP'
p209
F0.54800000000000004
sS'HIS-ASN'
p210
F0.51500000000000001
sS'ILE-GLN'
p211
F1.115
sS'VAL-HIS'
p212
F1.024
sS'ALA-LEU'
p213
F0.94699999999999995
sS'HIS-ASP'
p214
F0.60199999999999998
sS'ILE-TYR'
p215
F0.61399999999999999
sS'ILE-GLU'
p216
F1.2110000000000001
sS'ASN-TRP'
p217
F1.8069999999999999
sS'ILE-GLY'
p218
F0.86099999999999999
sS'ASN-CYS'
p219
F2.46
sS'GLU-SER'
p220
F-0.074999999999999997
sS'ALA-TRP'
p221
F1.6890000000000001
sS'HIS-CYS'
p222
F0.96199999999999997
sS'HIS-MET'
p223
F1.1040000000000001
sS'ILE-PRO'
p224
F1.024
sS'LYS-PHE'
p225
F0.504
sS'TRP-PRO'
p226
F1.649
sS'GLU-TRP'
p227
F2.254
sS'PHE-HIS'
p228
F0.69499999999999995
sS'GLY-TYR'
p229
F-0.23100000000000001
sS'SER-GLY'
p230
F-0.59199999999999997
sS'CYS-TRP'
p231
F1.569
sS'ASP-LYS'
p232
F1.198
sS'ASN-ILE'
p233
F0.96099999999999997
sS'HIS-SER'
p234
F0.437
sS'LYS-CYS'
p235
F0.72899999999999998
sS'GLY-PHE'
p236
F0.16300000000000001
sS'GLY-LEU'
p237
F0.39900000000000002
sS'MET-SER'
p238
F0.034000000000000002
sS'VAL-ALA'
p239
F1.103
sS'SER-LEU'
p240
F0.60699999999999998
sS'TRP-LYS'
p241
F2.411
sS'VAL-TYR'
p242
F1.073
sS'VAL-PHE'
p243
F1.0960000000000001
sS'ARG-THR'
p244
F0.97599999999999998
sS'TYR-TRP'
p245
F-0.062
sS'GLN-GLN'
p246
F-0.64500000000000002
sS'GLU-PHE'
p247
F2.0270000000000001
sS'VAL-ILE'
p248
F0.96399999999999997
sS'HIS-GLN'
p249
F1.163
sS'GLN-GLY'
p250
F-0.45800000000000002
sS'PHE-ALA'
p251
F0.97799999999999998
sS'HIS-GLU'
p252
F1.2350000000000001
sS'ARG-PRO'
p253
F0.94699999999999995
sS'HIS-GLY'
p254
F-0.089999999999999997
sS'SER-ASN'
p255
F0.128
sS'ALA-THR'
p256
F0.25600000000000001
sS'GLN-GLU'
p257
F0.71499999999999997
sS'GLN-LYS'
p258
F0.54300000000000004
sS'CYS-HIS'
p259
F1.0660000000000001
sS'GLN-ASP'
p260
F0.70699999999999996
sS'LEU-HIS'
p261
F1.3759999999999999
sS'SER-LYS'
p262
F0.59299999999999997
sS'TRP-LEU'
p263
F1.216
sS'CYS-SER'
p264
F0.56399999999999995
sS'LYS-THR'
p265
F0.437
sS'HIS-LEU'
p266
F0.89800000000000002
sS'LEU-ARG'
p267
F0.93100000000000005
sS'GLY-VAL'
p268
F-0.028000000000000001
sS'GLN-ASN'
p269
F0.60199999999999998
sS'TYR-ARG'
p270
F1.5569999999999999
sS'PRO-TYR'
p271
F0.86299999999999999
sS'ASP-PHE'
p272
F0.70699999999999996
sS'TRP-CYS'
p273
F1.5940000000000001
sS'ASN-LEU'
p274
F0.85999999999999999
sS'SER-MET'
p275
F0.98699999999999999
sS'HIS-ILE'
p276
F1.03
sS'SER-TYR'
p277
F0.062
sS'MET-TYR'
p278
F2.4830000000000001
sS'GLU-ILE'
p279
F1.1200000000000001
sS'PHE-CYS'
p280
F0.66500000000000004
sS'PRO-LEU'
p281
F0.75600000000000001
sS'GLY-MET'
p282
F0.50600000000000001
sS'ARG-ILE'
p283
F0.88900000000000001
sS'HIS-THR'
p284
F-0.27300000000000002
sS'THR-GLN'
p285
F0.496
sS'TRP-THR'
p286
F0.60699999999999998
sS'LYS-LEU'
p287
F1.9359999999999999
sS'THR-GLY'
p288
F-0.0030000000000000001
sS'ASP-TRP'
p289
F1.6379999999999999
sS'TYR-MET'
p290
F2.5049999999999999
sS'PHE-ILE'
p291
F1.409
sS'PRO-VAL'
p292
F1.1719999999999999
sS'MET-ASN'
p293
F0.94299999999999995
sS'LEU-TYR'
p294
F1.081
sS'PHE-PHE'
p295
F-1.006
sS'CYS-PHE'
p296
F0.57999999999999996
sS'TRP-ILE'
p297
F1.454
sS'PRO-ASN'
p298
F0.16
sS'CYS-CYS'
p299
F-1.4950000000000001
sS'SER-ASP'
p300
F0.92100000000000004
sS'ARG-MET'
p301
F1.5680000000000001
sS'SER-PHE'
p302
F0.59199999999999997
sS'SER-SER'
p303
F-0.749
sS'ASN-LYS'
p304
F0.88200000000000001
sS'CYS-THR'
p305
F1.7490000000000001
sS'ILE-TRP'
p306
F1.6040000000000001
sS'PRO-ASP'
p307
F1.083
sS'THR-ASP'
p308
F0.76400000000000001
sS'SER-CYS'
p309
F1.554
sS'MET-ASP'
p310
F0.29899999999999999
sS'GLN-MET'
p311
F1.746
sS'MET-TRP'
p312
F1.45
sS'ARG-VAL'
p313
F0.79100000000000004
sS'GLY-GLN'
p314
F-0.22900000000000001
sS'THR-LYS'
p315
F0.85099999999999998
sS'TRP-MET'
p316
F1.4890000000000001
sS'ARG-ARG'
p317
F-0.55700000000000005
sS'ILE-ASP'
p318
F1.0349999999999999
sS'GLY-GLY'
p319
F-1.595
sS'GLY-GLU'
p320
F-0.001
sS'ALA-ARG'
p321
F0.79400000000000004
sS'GLU-ARG'
p322
F0.89000000000000001
sS'HIS-VAL'
p323
F1.147
sS'VAL-ARG'
p324
F0.94299999999999995
sS'ASN-SER'
p325
F0.045999999999999999
sS'ALA-LYS'
p326
F0.79400000000000004
sS'VAL-GLN'
p327
F1.258
sS'TRP-ASN'
p328
F1.0169999999999999
sS'TYR-ILE'
p329
F0.80500000000000005
sS'TRP-GLY'
p330
F-0.377
sS'PRO-PHE'
p331
F0.61399999999999999
sS'GLY-HIS'
p332
F-0.10299999999999999
sS'PHE-SER'
p333
F0.58599999999999997
sS'TRP-ASP'
p334
F1.4670000000000001
sS'TRP-GLN'
p335
F0.73699999999999999
sS'LEU-ALA'
p336
F0.60799999999999998
sS'VAL-GLU'
p337
F0.98299999999999998
sS'ALA-HIS'
p338
F0.75700000000000001
sS'ARG-ASN'
p339
F0.56799999999999995
sS'LEU-THR'
p340
F0.82299999999999995
sS'TYR-CYS'
p341
F2.7879999999999998
sS'THR-THR'
p342
F-0.16700000000000001
sS'THR-LEU'
p343
F1.056
sS'VAL-ASN'
p344
F0.99199999999999999
sS'LEU-TRP'
p345
F1.2450000000000001
sS'GLU-ASP'
p346
F1.2509999999999999
sS'ILE-SER'
p347
F0.497
sS'ILE-ARG'
p348
F1.345
sS'TRP-GLU'
p349
F1.6830000000000001
sS'ILE-MET'
p350
F1.986
sS'MET-PHE'
p351
F1.1619999999999999
sS'PRO-ALA'
p352
F-0.40200000000000002
sS'PRO-GLY'
p353
F-0.26700000000000002
sS'GLN-THR'
p354
F0.61699999999999999
sS'MET-ALA'
p355
F1.034
sS'TRP-SER'
p356
F0.83699999999999997
sS'ASP-HIS'
p357
F1.45
sS'ARG-SER'
p358
F-0.11600000000000001
sS'GLN-HIS'
p359
F0.502
sS'HIS-PHE'
p360
F1.8420000000000001
sS'LEU-LEU'
p361
F0.40000000000000002
sS'ALA-GLN'
p362
F0.82999999999999996
sS'ASP-ASN'
p363
F0.91400000000000003
sS'SER-VAL'
p364
F0.51200000000000001
sS'MET-ILE'
p365
F1.474
sS'ALA-PRO'
p366
F0.089999999999999997
sS'ASP-ASP'
p367
F0.058000000000000003
sS'ALA-GLY'
p368
F-0.29399999999999998
sS'TRP-TRP'
p369
F-1.718
sS'MET-CYS'
p370
F3.4569999999999999
sS'ALA-GLU'
p371
F0.73099999999999998
sS'THR-PRO'
p372
F0.221
sS'HIS-ALA'
p373
F0.90100000000000002
sS'GLN-ILE'
p374
F0.84599999999999997
sS'GLU-VAL'
p375
F0.93700000000000006
sS'LYS-ASN'
p376
F0.92200000000000004
sS'ASN-ALA'
p377
F0.85299999999999998
sS'THR-ILE'
p378
F0.66500000000000004
sS'ASP-CYS'
p379
F0.64100000000000001
sS'PRO-LYS'
p380
F0.43099999999999999
sS'TYR-TYR'
p381
F-0.81699999999999995
sS'ARG-LYS'
p382
F0.68500000000000005
sS'ILE-ALA'
p383
F1.1559999999999999
sS'ASP-SER'
p384
F0.45500000000000002
sS'CYS-LYS'
p385
F1.103
sS'GLU-ALA'
p386
F0.55000000000000004
sS'PHE-GLU'
p387
F1.595
sS'GLU-LEU'
p388
F1.03
sS'PHE-GLY'
p389
F0.26400000000000001
sS'LYS-HIS'
p390
F1.4330000000000001
sS'HIS-PRO'
p391
F0.38100000000000001
sS'ILE-ILE'
p392
F-0.505
sS'MET-HIS'
p393
F1.865
sS'VAL-GLY'
p394
F0.021000000000000001
sS'THR-MET'
p395
F0.57799999999999996
sS'PHE-THR'
p396
F0.81499999999999995
sS'VAL-TRP'
p397
F1.5529999999999999
sS'PHE-LYS'
p398
F0.94699999999999995
sS'GLY-PRO'
p399
F-0.29799999999999999
sS'PHE-GLN'
p400
F1.6220000000000001
sS'LEU-PHE'
p401
F1.1970000000000001
s.