(dp1
S'MET-MET'
p2
F-1.3640000000000001
sS'PRO-ILE'
p3
F-0.5
sS'TYR-LYS'
p4
F-1.1679999999999999
sS'VAL-ASP'
p5
F-0.255
sS'ASP-GLN'
p6
F-0.67900000000000005
sS'HIS-TYR'
p7
F-1.554
sS'ASP-GLU'
p8
F-0.67300000000000004
sS'ALA-ASP'
p9
F-0.20000000000000001
sS'ASP-GLY'
p10
F-0.54600000000000004
sS'LEU-VAL'
p11
F-0.13600000000000001
sS'TRP-TYR'
p12
F-1.4359999999999999
sS'GLN-TRP'
p13
F-0.89600000000000002
sS'TRP-PHE'
p14
F-0.77500000000000002
sS'ARG-TYR'
p15
F-1.2849999999999999
sS'GLU-LYS'
p16
F-0.92000000000000004
sS'ILE-HIS'
p17
F-0.106
sS'LEU-MET'
p18
F0.16400000000000001
sS'GLU-HIS'
p19
F-0.66500000000000004
sS'GLY-THR'
p20
F-0.88600000000000001
sS'ARG-GLU'
p21
F-1.0289999999999999
sS'PHE-ASN'
p22
F-0.86699999999999999
sS'ASN-MET'
p23
F-0.33700000000000002
sS'PRO-THR'
p24
F-0.86699999999999999
sS'TYR-GLN'
p25
F-1.2849999999999999
sS'ARG-GLY'
p26
F-1.5389999999999999
sS'VAL-THR'
p27
F-0.48699999999999999
sS'ASP-ILE'
p28
F-0.16700000000000001
sS'THR-HIS'
p29
F-0.64900000000000002
sS'TYR-GLU'
p30
F-1.0449999999999999
sS'ARG-GLN'
p31
F-1.276
sS'TYR-GLY'
p32
F-1.153
sS'PHE-ASP'
p33
F-0.64900000000000002
sS'CYS-ARG'
p34
F-0.78400000000000003
sS'GLY-ASN'
p35
F-1.4099999999999999
sS'VAL-LYS'
p36
F-0.17299999999999999
sS'LEU-ILE'
p37
F-0.27100000000000002
sS'GLN-LEU'
p38
F-0.64100000000000001
sS'GLU-MET'
p39
F-0.45200000000000001
sS'ASP-THR'
p40
F-0.60699999999999998
sS'ASN-PHE'
p41
F-0.80100000000000005
sS'GLU-PRO'
p42
F-1.117
sS'TYR-LEU'
p43
F-0.83599999999999997
sS'LYS-ARG'
p44
F-0.98699999999999999
sS'GLY-ASP'
p45
F-0.69599999999999995
sS'PRO-GLN'
p46
F-1.036
sS'CYS-MET'
p47
F0.14000000000000001
sS'HIS-ARG'
p48
F-1.0109999999999999
sS'GLU-THR'
p49
F-0.36199999999999999
sS'ILE-THR'
p50
F0.16700000000000001
sS'SER-PRO'
p51
F-0.92400000000000004
sS'GLY-CYS'
p52
F-0.97699999999999998
sS'ARG-LEU'
p53
F-1.1599999999999999
sS'PRO-GLU'
p54
F-1.077
sS'ASP-LEU'
p55
F-0.114
sS'PHE-VAL'
p56
F0.248
sS'ASN-VAL'
p57
F-0.44400000000000001
sS'ALA-MET'
p58
F-0.218
sS'LEU-PRO'
p59
F-0.17599999999999999
sS'LEU-SER'
p60
F-0.192
sS'ASN-ARG'
p61
F-1.2370000000000001
sS'SER-THR'
p62
F-0.32500000000000001
sS'LYS-VAL'
p63
F-0.30199999999999999
sS'LYS-GLN'
p64
F-0.94899999999999995
sS'GLN-VAL'
p65
F0.031
sS'TYR-PHE'
p66
F-0.95899999999999996
sS'ASP-VAL'
p67
F-0.112
sS'ASN-GLY'
p68
F-1.2669999999999999
sS'ARG-PHE'
p69
F-1.2090000000000001
sS'SER-HIS'
p70
F-1.101
sS'ALA-ILE'
p71
F-0.32700000000000001
sS'ASN-GLU'
p72
F-0.60899999999999999
sS'CYS-GLN'
p73
F-0.63200000000000001
sS'TYR-PRO'
p74
F-1.1299999999999999
sS'LYS-GLU'
p75
F-1.034
sS'CYS-GLU'
p76
F0.38600000000000001
sS'ASN-GLN'
p77
F-0.95199999999999996
sS'CYS-GLY'
p78
F-0.182
sS'GLN-SER'
p79
F-1.1899999999999999
sS'HIS-LYS'
p80
F-1.105
sS'LYS-GLY'
p81
F-1.044
sS'VAL-MET'
p82
F-0.28999999999999998
sS'GLU-GLY'
p83
F-0.80100000000000005
sS'THR-SER'
p84
F-0.097000000000000003
sS'TYR-THR'
p85
F-1.1879999999999999
sS'PRO-PRO'
p86
F-1.3600000000000001
sS'ILE-PHE'
p87
F-0.38700000000000001
sS'PHE-LEU'
p88
F-0.26300000000000001
sS'GLU-GLU'
p89
F-0.44
sS'SER-ARG'
p90
F-1.153
sS'GLY-ALA'
p91
F-0.98399999999999999
sS'TYR-ASN'
p92
F-1.3640000000000001
sS'GLU-GLN'
p93
F-1.212
sS'TRP-ARG'
p94
F-0.92500000000000004
sS'LEU-GLU'
p95
F-0.021000000000000001
sS'LEU-GLY'
p96
F-0.152
sS'LYS-SER'
p97
F-0.73699999999999999
sS'MET-VAL'
p98
F-0.33900000000000002
sS'SER-ALA'
p99
F-0.41699999999999998
sS'PRO-HIS'
p100
F-1.177
sS'MET-THR'
p101
F-0.316
sS'ALA-PHE'
p102
F-1.0569999999999999
sS'MET-PRO'
p103
F-0.442
sS'GLY-SER'
p104
F-1.0449999999999999
sS'LEU-GLN'
p105
F-0.70999999999999996
sS'VAL-LEU'
p106
F0.088999999999999996
sS'LEU-CYS'
p107
F-0.441
sS'LYS-TYR'
p108
F-0.78100000000000003
sS'ASP-ALA'
p109
F0.099000000000000005
sS'ILE-LEU'
p110
F0.064000000000000001
sS'TRP-VAL'
p111
F-1.1439999999999999
sS'PHE-PRO'
p112
F-1
sS'ALA-ALA'
p113
F-0.55400000000000005
sS'ARG-TRP'
p114
F-1.3380000000000001
sS'MET-GLN'
p115
F-0.70199999999999996
sS'ILE-LYS'
p116
F-0.26900000000000002
sS'MET-ARG'
p117
F-0.52900000000000003
sS'ALA-CYS'
p118
F-0.023
sS'THR-ARG'
p119
F-0.47199999999999998
sS'CYS-ILE'
p120
F-0.219
sS'LEU-ASN'
p121
F-0.66300000000000003
sS'LEU-ASP'
p122
F-0.0050000000000000001
sS'PHE-TRP'
p123
F-1.226
sS'MET-GLY'
p124
F-0.14199999999999999
sS'THR-PHE'
p125
F-0.67900000000000005
sS'MET-GLU'
p126
F-0.30599999999999999
sS'THR-TRP'
p127
F-0.25700000000000001
sS'THR-TYR'
p128
F-1.04
sS'CYS-VAL'
p129
F-0.29099999999999998
sS'ARG-ALA'
p130
F-0.83599999999999997
sS'ALA-TYR'
p131
F-1.1359999999999999
sS'ASP-PRO'
p132
F-0.70199999999999996
sS'ARG-CYS'
p133
F-0.81299999999999994
sS'GLN-ARG'
p134
F-1.236
sS'HIS-TRP'
p135
F-0.254
sS'PRO-SER'
p136
F-0.45500000000000002
sS'VAL-VAL'
p137
F-0.23100000000000001
sS'LEU-LYS'
p138
F-0.433
sS'GLY-LYS'
p139
F-1.1319999999999999
sS'CYS-ASN'
p140
F-0.27300000000000002
sS'GLY-TRP'
p141
F-0.93400000000000005
sS'THR-CYS'
p142
F0.371
sS'LYS-LYS'
p143
F-0.64200000000000002
sS'CYS-ASP'
p144
F0.36299999999999999
sS'TYR-ASP'
p145
F-1.3959999999999999
sS'VAL-PRO'
p146
F-0.52300000000000002
sS'THR-VAL'
p147
F-0.17499999999999999
sS'ASP-TYR'
p148
F-1.1839999999999999
sS'PRO-CYS'
p149
F0.070000000000000007
sS'VAL-SER'
p150
F0.047
sS'ARG-HIS'
p151
F-1.5580000000000001
sS'CYS-PRO'
p152
F-0.188
sS'MET-LYS'
p153
F-0.97599999999999998
sS'ALA-SER'
p154
F-0.378
sS'TYR-SER'
p155
F-1.139
sS'GLY-ARG'
p156
F-1.325
sS'GLN-ALA'
p157
F-0.58099999999999996
sS'MET-LEU'
p158
F-0.44
sS'ASN-HIS'
p159
F-1.1160000000000001
sS'VAL-CYS'
p160
F0.29599999999999999
sS'GLN-TYR'
p161
F-1.2230000000000001
sS'GLN-PHE'
p162
F-1.083
sS'ILE-ASN'
p163
F-0.22600000000000001
sS'GLU-ASN'
p164
F-0.64700000000000002
sS'CYS-ALA'
p165
F-0.312
sS'ASN-ASP'
p166
F-0.94199999999999995
sS'ASN-PRO'
p167
F-1.294
sS'PRO-ARG'
p168
F-1.1339999999999999
sS'LYS-TRP'
p169
F-0.73099999999999998
sS'ASN-ASN'
p170
F-1.5589999999999999
sS'ASN-THR'
p171
F-0.93999999999999995
sS'THR-ALA'
p172
F0.29899999999999999
sS'LYS-ALA'
p173
F-0.501
sS'LYS-PRO'
p174
F-0.65100000000000002
sS'SER-GLN'
p175
F-1.147
sS'ILE-VAL'
p176
F0.016
sS'ASP-ARG'
p177
F-1.397
sS'ASP-MET'
p178
F-0.041000000000000002
sS'CYS-TYR'
p179
F-0.33700000000000002
sS'PRO-TRP'
p180
F-1.2629999999999999
sS'THR-GLU'
p181
F-0.63300000000000001
sS'TRP-ALA'
p182
F-0.88400000000000001
sS'ILE-CYS'
p183
F-0.40400000000000003
sS'LYS-ILE'
p184
F0.023
sS'GLN-CYS'
p185
F-0.32900000000000001
sS'TYR-ALA'
p186
F-0.93200000000000005
sS'ARG-ASP'
p187
F-1.5229999999999999
sS'SER-GLU'
p188
F-0.70599999999999996
sS'TRP-HIS'
p189
F-1.1699999999999999
sS'ALA-ASN'
p190
F-0.49299999999999999
sS'GLU-CYS'
p191
F0.156
sS'PRO-MET'
p192
F-0.39300000000000002
sS'TYR-HIS'
p193
F-0.873
sS'PHE-MET'
p194
F-0.71599999999999997
sS'GLU-TYR'
p195
F-0.91100000000000003
sS'SER-TRP'
p196
F-0.90200000000000002
sS'PHE-ARG'
p197
F-0.97099999999999997
sS'GLY-ILE'
p198
F-0.081000000000000003
sS'TYR-VAL'
p199
F-0.45400000000000001
sS'ASN-TYR'
p200
F-1.4199999999999999
sS'SER-ILE'
p201
F-0.42299999999999999
sS'GLN-PRO'
p202
F-1.2090000000000001
sS'PHE-TYR'
p203
F-1.1879999999999999
sS'ALA-VAL'
p204
F-0.34399999999999997
sS'HIS-HIS'
p205
F-2.54
sS'THR-ASN'
p206
F-0.97499999999999998
sS'CYS-LEU'
p207
F0.089999999999999997
sS'LYS-MET'
p208
F-1.0389999999999999
sS'LYS-ASP'
p209
F-1.0580000000000001
sS'HIS-ASN'
p210
F-0.96799999999999997
sS'ILE-GLN'
p211
F-0.66700000000000004
sS'VAL-HIS'
p212
F-0.222
sS'ALA-LEU'
p213
F-0.058999999999999997
sS'HIS-ASP'
p214
F-0.89000000000000001
sS'ILE-TYR'
p215
F-0.83499999999999996
sS'ILE-GLU'
p216
F-0.46899999999999997
sS'ILE-GLY'
p217
F-0.23699999999999999
sS'ASN-CYS'
p218
F-0.32100000000000001
sS'GLU-SER'
p219
F-0.85099999999999998
sS'ALA-TRP'
p220
F-0.64100000000000001
sS'HIS-CYS'
p221
F-0.34300000000000003
sS'HIS-MET'
p222
F-0.496
sS'ILE-PRO'
p223
F-0.752
sS'LYS-PHE'
p224
F-0.77200000000000002
sS'TRP-PRO'
p225
F-1.0329999999999999
sS'GLU-TRP'
p226
F-1.0820000000000001
sS'PHE-HIS'
p227
F-0.40899999999999997
sS'GLY-TYR'
p228
F-1.218
sS'SER-GLY'
p229
F-1.1140000000000001
sS'CYS-TRP'
p230
F-0.20499999999999999
sS'ASP-LYS'
p231
F-1.0569999999999999
sS'ASN-ILE'
p232
F-0.36699999999999999
sS'HIS-SER'
p233
F-1.2789999999999999
sS'LYS-CYS'
p234
F-0.48599999999999999
sS'GLY-PHE'
p235
F-0.43099999999999999
sS'GLY-LEU'
p236
F-0.23400000000000001
sS'MET-SER'
p237
F-0.72799999999999998
sS'VAL-ALA'
p238
F-0.252
sS'SER-LEU'
p239
F0.27700000000000002
sS'TRP-LYS'
p240
F-0.75
sS'VAL-TYR'
p241
F-0.41699999999999998
sS'VAL-PHE'
p242
F-0.57099999999999995
sS'ARG-THR'
p243
F-0.79800000000000004
sS'TYR-TRP'
p244
F-1.0509999999999999
sS'GLN-GLN'
p245
F-1.655
sS'GLU-PHE'
p246
F-0.59799999999999998
sS'VAL-ILE'
p247
F-0.16300000000000001
sS'HIS-GLN'
p248
F-0.83199999999999996
sS'GLN-GLY'
p249
F-1.2789999999999999
sS'PHE-ALA'
p250
F-0.92600000000000005
sS'HIS-GLU'
p251
F-1.024
sS'ARG-PRO'
p252
F-1.3300000000000001
sS'HIS-GLY'
p253
F-0.85999999999999999
sS'SER-ASN'
p254
F-0.86699999999999999
sS'ALA-THR'
p255
F0.224
sS'GLN-GLU'
p256
F-0.95299999999999996
sS'GLN-LYS'
p257
F-1.4370000000000001
sS'CYS-HIS'
p258
F-0.26200000000000001
sS'GLN-ASP'
p259
F-0.92400000000000004
sS'LEU-HIS'
p260
F-0.52600000000000002
sS'SER-LYS'
p261
F-0.77100000000000002
sS'TRP-LEU'
p262
F-0.71699999999999997
sS'CYS-SER'
p263
F-0.10199999999999999
sS'LYS-THR'
p264
F-0.78000000000000003
sS'HIS-LEU'
p265
F-0.36799999999999999
sS'LEU-ARG'
p266
F-0.77800000000000002
sS'GLY-VAL'
p267
F-0.432
sS'GLN-ASN'
p268
F-0.71299999999999997
sS'TYR-ARG'
p269
F-1.302
sS'PRO-TYR'
p270
F-1.377
sS'ASP-PHE'
p271
F-0.57399999999999995
sS'TRP-CYS'
p272
F-0.082000000000000003
sS'ASN-LEU'
p273
F-0.64100000000000001
sS'SER-MET'
p274
F-0.60199999999999998
sS'HIS-ILE'
p275
F-0.64200000000000002
sS'SER-TYR'
p276
F-1.1100000000000001
sS'MET-TYR'
p277
F-1.159
sS'GLU-ILE'
p278
F-0.378
sS'PHE-CYS'
p279
F-0.77600000000000002
sS'PRO-LEU'
p280
F-0.38400000000000001
sS'GLY-MET'
p281
F-0.253
sS'ARG-ILE'
p282
F-0.71699999999999997
sS'HIS-THR'
p283
F-1.0009999999999999
sS'THR-GLN'
p284
F-0.99199999999999999
sS'TRP-THR'
p285
F-0.28499999999999998
sS'LYS-LEU'
p286
F-0.219
sS'THR-GLY'
p287
F-0.84799999999999998
sS'ASP-TRP'
p288
F-0.58599999999999997
sS'TYR-MET'
p289
F-1.1060000000000001
sS'PHE-ILE'
p290
F-0.45300000000000001
sS'PRO-VAL'
p291
F-0.23999999999999999
sS'MET-ASN'
p292
F-0.32000000000000001
sS'LEU-TYR'
p293
F-0.90600000000000003
sS'PHE-PHE'
p294
F-1.1559999999999999
sS'CYS-PHE'
p295
F-0.16200000000000001
sS'TRP-ILE'
p296
F-0.873
sS'PRO-ASN'
p297
F-0.80200000000000005
sS'CYS-CYS'
p298
F-3.9169999999999998
sS'SER-ASP'
p299
F-0.34599999999999997
sS'ARG-MET'
p300
F-0.45900000000000002
sS'SER-PHE'
p301
F-0.61799999999999999
sS'SER-SER'
p302
F-1.083
sS'ASN-LYS'
p303
F-0.94199999999999995
sS'CYS-THR'
p304
F0.73299999999999998
sS'ILE-TRP'
p305
F-0.79000000000000004
sS'PRO-ASP'
p306
F-0.79900000000000004
sS'THR-ASP'
p307
F-0.54700000000000004
sS'SER-CYS'
p308
F0.096000000000000002
sS'MET-ASP'
p309
F-0.78800000000000003
sS'GLN-MET'
p310
F-0.70499999999999996
sS'MET-TRP'
p311
F-1.01
sS'ARG-VAL'
p312
F-0.88400000000000001
sS'GLY-GLN'
p313
F-1.2250000000000001
sS'THR-LYS'
p314
F-0.32400000000000001
sS'TRP-MET'
p315
F-0.64400000000000002
sS'ARG-ARG'
p316
F-1.9590000000000001
sS'ILE-ASP'
p317
F0.019
sS'ALA-ARG'
p318
F-0.68000000000000005
sS'GLY-GLU'
p319
F-0.64700000000000002
sS'ASN-TRP'
p320
F-0.94699999999999995
sS'GLU-ARG'
p321
F-1.1879999999999999
sS'HIS-VAL'
p322
F-0.47299999999999998
sS'VAL-ARG'
p323
F-0.83899999999999997
sS'ASN-SER'
p324
F-0.90600000000000003
sS'ALA-LYS'
p325
F-0.35599999999999998
sS'VAL-GLN'
p326
F-0.442
sS'TRP-ASN'
p327
F-0.99099999999999999
sS'TYR-ILE'
p328
F-0.82099999999999995
sS'TRP-GLY'
p329
F-0.92700000000000005
sS'PRO-PHE'
p330
F-1.1000000000000001
sS'GLY-HIS'
p331
F-0.99399999999999999
sS'PHE-SER'
p332
F-0.76900000000000002
sS'TRP-ASP'
p333
F-0.66600000000000004
sS'TRP-GLN'
p334
F-1.177
sS'LEU-ALA'
p335
F-0.021000000000000001
sS'VAL-GLU'
p336
F0.34300000000000003
sS'ALA-HIS'
p337
F-0.746
sS'ARG-ASN'
p338
F-1.155
sS'LEU-THR'
p339
F-0.028000000000000001
sS'TYR-CYS'
p340
F-0.255
sS'THR-THR'
p341
F-0.65000000000000002
sS'THR-LEU'
p342
F-0.40999999999999998
sS'VAL-ASN'
p343
F-0.52100000000000002
sS'LEU-TRP'
p344
F-0.83499999999999996
sS'GLU-ASP'
p345
F-0.52200000000000002
sS'ILE-SER'
p346
F-0.052999999999999999
sS'ILE-ARG'
p347
F-0.83099999999999996
sS'TRP-GLU'
p348
F-1.0720000000000001
sS'ILE-MET'
p349
F-0.53500000000000003
sS'MET-PHE'
p350
F-0.81799999999999995
sS'PRO-ALA'
p351
F-0.91400000000000003
sS'PRO-GLY'
p352
F-0.90900000000000003
sS'GLN-THR'
p353
F-0.83199999999999996
sS'MET-ALA'
p354
F0.124
sS'TRP-SER'
p355
F-0.57199999999999995
sS'ASP-HIS'
p356
F-0.59599999999999997
sS'ARG-SER'
p357
F-1.04
sS'GLN-HIS'
p358
F-1.1519999999999999
sS'HIS-PHE'
p359
F-0.95299999999999996
sS'LEU-LEU'
p360
F-0.17299999999999999
sS'ALA-GLN'
p361
F-0.83999999999999997
sS'ASP-ASN'
p362
F-0.83199999999999996
sS'SER-VAL'
p363
F-0.050999999999999997
sS'MET-ILE'
p364
F0.10199999999999999
sS'ALA-PRO'
p365
F-0.17100000000000001
sS'ASP-ASP'
p366
F-0.60699999999999998
sS'ALA-GLY'
p367
F-0.80000000000000004
sS'TRP-TRP'
p368
F-2.0939999999999999
sS'MET-CYS'
p369
F0.063
sS'ALA-GLU'
p370
F-0.26300000000000001
sS'THR-PRO'
p371
F-0.97799999999999998
sS'HIS-ALA'
p372
F-0.32000000000000001
sS'GLN-ILE'
p373
F-1.0580000000000001
sS'GLU-VAL'
p374
F0.025000000000000001
sS'LYS-ASN'
p375
F-0.81999999999999995
sS'ASN-ALA'
p376
F-0.52900000000000003
sS'THR-ILE'
p377
F0.0040000000000000001
sS'ASP-CYS'
p378
F0.187
sS'PRO-LYS'
p379
F-1.03
sS'TYR-TYR'
p380
F-1.867
sS'ARG-LYS'
p381
F-1.069
sS'ILE-ALA'
p382
F-0.373
sS'ASP-SER'
p383
F-0.48599999999999999
sS'CYS-LYS'
p384
F0.106
sS'GLU-ALA'
p385
F-0.17199999999999999
sS'PHE-GLU'
p386
F-0.52800000000000002
sS'GLU-LEU'
p387
F-0.192
sS'PHE-GLY'
p388
F-0.69899999999999995
sS'LYS-HIS'
p389
F-0.82599999999999996
sS'HIS-PRO'
p390
F-1.0229999999999999
sS'ILE-ILE'
p391
F-0.245
sS'MET-HIS'
p392
F-0.42599999999999999
sS'VAL-GLY'
p393
F-0.29999999999999999
sS'THR-MET'
p394
F-0.086999999999999994
sS'PHE-THR'
p395
F-0.57099999999999995
sS'VAL-TRP'
p396
F-0.36799999999999999
sS'PHE-LYS'
p397
F-0.90200000000000002
sS'GLY-PRO'
p398
F-1.0940000000000001
sS'PHE-GLN'
p399
F-1.21
sS'LEU-PHE'
p400
F-0.34100000000000003
s.