(dp1
S'MET-MET'
p2
F1.6619999999999999
sS'PRO-ILE'
p3
F2.839
sS'TYR-LYS'
p4
F2.7450000000000001
sS'VAL-ASP'
p5
F3.206
sS'ASP-GLN'
p6
F2.657
sS'HIS-TYR'
p7
F2.419
sS'ASP-GLU'
p8
F2.9500000000000002
sS'ALA-ASP'
p9
F2.8690000000000002
sS'ASP-GLY'
p10
F2.5880000000000001
sS'LEU-VAL'
p11
F3.173
sS'TRP-TYR'
p12
F2.9249999999999998
sS'GLN-TRP'
p13
F3.044
sS'TRP-PHE'
p14
F3.2029999999999998
sS'ARG-TYR'
p15
F2.496
sS'GLU-LYS'
p16
F2.7090000000000001
sS'ILE-HIS'
p17
F3.137
sS'LEU-MET'
p18
F3.3420000000000001
sS'GLU-HIS'
p19
F2.907
sS'GLY-THR'
p20
F2.1000000000000001
sS'ARG-GLU'
p21
F2.3540000000000001
sS'PHE-ASN'
p22
F2.7690000000000001
sS'ASN-MET'
p23
F3.1560000000000001
sS'PRO-THR'
p24
F2.2639999999999998
sS'TYR-GLN'
p25
F2.6619999999999999
sS'ARG-GLY'
p26
F1.754
sS'VAL-THR'
p27
F2.8090000000000002
sS'ASP-ILE'
p28
F3.1059999999999999
sS'THR-HIS'
p29
F2.5800000000000001
sS'TYR-GLU'
p30
F2.8500000000000001
sS'ARG-GLN'
p31
F2.3180000000000001
sS'TYR-GLY'
p32
F2.2349999999999999
sS'PHE-ASP'
p33
F3.0739999999999998
sS'CYS-ARG'
p34
F3.1070000000000002
sS'GLY-ASN'
p35
F1.6599999999999999
sS'VAL-LYS'
p36
F3.238
sS'LEU-ILE'
p37
F3.2120000000000002
sS'GLN-LEU'
p38
F2.9249999999999998
sS'GLU-MET'
p39
F2.9609999999999999
sS'ASP-THR'
p40
F2.7160000000000002
sS'ASN-PHE'
p41
F2.7429999999999999
sS'GLU-PRO'
p42
F2.54
sS'TYR-LEU'
p43
F2.8639999999999999
sS'LYS-ARG'
p44
F2.629
sS'GLY-ASP'
p45
F2.4340000000000002
sS'PRO-GLN'
p46
F2.2480000000000002
sS'CYS-MET'
p47
F3.657
sS'HIS-ARG'
p48
F2.698
sS'GLU-THR'
p49
F2.6890000000000001
sS'ILE-THR'
p50
F3.254
sS'SER-PRO'
p51
F2.1200000000000001
sS'GLY-CYS'
p52
F1.548
sS'ARG-LEU'
p53
F2.5859999999999999
sS'PRO-GLU'
p54
F2.5129999999999999
sS'ASP-LEU'
p55
F3.1680000000000001
sS'PHE-VAL'
p56
F3.2690000000000001
sS'ASN-VAL'
p57
F2.8319999999999999
sS'ALA-MET'
p58
F3.0419999999999998
sS'LEU-PRO'
p59
F2.7829999999999999
sS'LEU-SER'
p60
F2.968
sS'ASN-ARG'
p61
F2.294
sS'SER-THR'
p62
F2.5409999999999999
sS'LYS-VAL'
p63
F3.0619999999999998
sS'LYS-GLN'
p64
F2.4870000000000001
sS'GLN-VAL'
p65
F2.9249999999999998
sS'TYR-PHE'
p66
F2.9830000000000001
sS'ASP-VAL'
p67
F3.2330000000000001
sS'ASN-GLY'
p68
F1.8169999999999999
sS'ARG-PHE'
p69
F2.5880000000000001
sS'SER-HIS'
p70
F2.4380000000000002
sS'ALA-ILE'
p71
F2.7549999999999999
sS'ASN-GLU'
p72
F2.6469999999999998
sS'CYS-GLN'
p73
F2.9049999999999998
sS'TYR-PRO'
p74
F2.544
sS'LYS-GLU'
p75
F2.5459999999999998
sS'CYS-GLU'
p76
F3.7879999999999998
sS'ASN-GLN'
p77
F2.2040000000000002
sS'CYS-GLY'
p78
F2.6640000000000001
sS'GLN-SER'
p79
F2.0419999999999998
sS'HIS-LYS'
p80
F2.8319999999999999
sS'LYS-GLY'
p81
F2.1760000000000002
sS'VAL-MET'
p82
F3.3940000000000001
sS'GLU-GLY'
p83
F2.3849999999999998
sS'THR-SER'
p84
F2.5760000000000001
sS'TYR-THR'
p85
F2.524
sS'PRO-PRO'
p86
F1.0580000000000001
sS'ILE-PHE'
p87
F3.3029999999999999
sS'PHE-LEU'
p88
F3.0619999999999998
sS'GLU-GLU'
p89
F2.1150000000000002
sS'SER-ARG'
p90
F2.226
sS'GLY-ALA'
p91
F1.738
sS'TYR-ASN'
p92
F2.395
sS'GLU-GLN'
p93
F2.6720000000000002
sS'TRP-ARG'
p94
F3.0459999999999998
sS'LEU-GLU'
p95
F3.282
sS'LEU-GLY'
p96
F2.6309999999999998
sS'LYS-SER'
p97
F2.4340000000000002
sS'MET-VAL'
p98
F3.3010000000000002
sS'SER-ALA'
p99
F2.1749999999999998
sS'PRO-HIS'
p100
F2.4180000000000001
sS'MET-THR'
p101
F3.0739999999999998
sS'ALA-PHE'
p102
F2.5990000000000002
sS'MET-PRO'
p103
F2.8220000000000001
sS'GLY-SER'
p104
F1.901
sS'LEU-GLN'
p105
F2.7629999999999999
sS'VAL-LEU'
p106
F3.1379999999999999
sS'LEU-CYS'
p107
F3.1869999999999998
sS'LYS-TYR'
p108
F2.8490000000000002
sS'ASP-ALA'
p109
F2.976
sS'ILE-LEU'
p110
F3.202
sS'TRP-VAL'
p111
F3.012
sS'PHE-PRO'
p112
F2.6989999999999998
sS'ALA-ALA'
p113
F1.107
sS'ARG-TRP'
p114
F2.702
sS'MET-GLN'
p115
F2.6179999999999999
sS'ILE-LYS'
p116
F3.419
sS'MET-ARG'
p117
F3.0880000000000001
sS'ALA-CYS'
p118
F2.7589999999999999
sS'THR-ARG'
p119
F2.6619999999999999
sS'CYS-ILE'
p120
F3.0379999999999998
sS'LEU-ASN'
p121
F2.7839999999999998
sS'LEU-ASP'
p122
F3.2970000000000002
sS'PHE-TRP'
p123
F3.1269999999999998
sS'MET-GLY'
p124
F2.8399999999999999
sS'THR-PHE'
p125
F2.843
sS'MET-GLU'
p126
F2.8420000000000001
sS'THR-TRP'
p127
F3.5760000000000001
sS'THR-TYR'
p128
F2.5699999999999998
sS'CYS-VAL'
p129
F3.0449999999999999
sS'ARG-ALA'
p130
F2.5779999999999998
sS'ALA-TYR'
p131
F2.48
sS'ASP-PRO'
p132
F2.5569999999999999
sS'ARG-CYS'
p133
F2.8730000000000002
sS'GLN-ARG'
p134
F2.2210000000000001
sS'HIS-TRP'
p135
F3.2389999999999999
sS'PRO-SER'
p136
F2.3559999999999999
sS'VAL-VAL'
p137
F2.3140000000000001
sS'LEU-LYS'
p138
F3.032
sS'GLY-LYS'
p139
F1.984
sS'CYS-ASN'
p140
F3.23
sS'GLY-TRP'
p141
F2.698
sS'THR-CYS'
p142
F3.524
sS'LYS-LYS'
p143
F2.1099999999999999
sS'CYS-ASP'
p144
F3.4319999999999999
sS'TYR-ASP'
p145
F2.5609999999999999
sS'VAL-PRO'
p146
F2.734
sS'THR-VAL'
p147
F2.8490000000000002
sS'ASP-TYR'
p148
F2.5640000000000001
sS'PRO-CYS'
p149
F3.23
sS'VAL-SER'
p150
F2.742
sS'ARG-HIS'
p151
F2.3359999999999999
sS'CYS-PRO'
p152
F2.702
sS'MET-LYS'
p153
F2.6259999999999999
sS'ALA-SER'
p154
F2.2029999999999998
sS'TYR-SER'
p155
F2.4630000000000001
sS'GLY-ARG'
p156
F1.8580000000000001
sS'GLN-ALA'
p157
F2.4980000000000002
sS'MET-LEU'
p158
F3.0600000000000001
sS'ASN-HIS'
p159
F2.3650000000000002
sS'VAL-CYS'
p160
F3.544
sS'GLN-TYR'
p161
F2.6840000000000002
sS'GLN-PHE'
p162
F2.7719999999999998
sS'ILE-ASN'
p163
F3.0169999999999999
sS'GLU-ASN'
p164
F2.569
sS'CYS-ALA'
p165
F2.5859999999999999
sS'ASN-ASP'
p166
F2.4750000000000001
sS'ASN-PRO'
p167
F2.0310000000000001
sS'PRO-ARG'
p168
F2.1640000000000001
sS'LYS-TRP'
p169
F3.133
sS'ASN-ASN'
p170
F1.0780000000000001
sS'ASN-THR'
p171
F2.262
sS'THR-ALA'
p172
F2.7360000000000002
sS'LYS-ALA'
p173
F2.613
sS'LYS-PRO'
p174
F2.4969999999999999
sS'SER-GLN'
p175
F2.2250000000000001
sS'ILE-VAL'
p176
F3.3820000000000001
sS'ASP-ARG'
p177
F2.0619999999999998
sS'ASP-MET'
p178
F3.1659999999999999
sS'CYS-TYR'
p179
F3.2200000000000002
sS'PRO-TRP'
p180
F2.7559999999999998
sS'THR-GLU'
p181
F2.5859999999999999
sS'TRP-ALA'
p182
F2.7839999999999998
sS'ILE-CYS'
p183
F3.085
sS'LYS-ILE'
p184
F3.4529999999999998
sS'GLN-CYS'
p185
F2.9900000000000002
sS'TYR-ALA'
p186
F2.6880000000000002
sS'ARG-ASP'
p187
F2.0009999999999999
sS'SER-GLU'
p188
F2.2919999999999998
sS'TRP-HIS'
p189
F2.7789999999999999
sS'ALA-ASN'
p190
F2.4689999999999999
sS'GLU-CYS'
p191
F3.9129999999999998
sS'PRO-MET'
p192
F2.895
sS'TYR-HIS'
p193
F2.7210000000000001
sS'PHE-MET'
p194
F2.8140000000000001
sS'GLU-TYR'
p195
F2.8999999999999999
sS'SER-TRP'
p196
F2.7719999999999998
sS'PHE-ARG'
p197
F2.8039999999999998
sS'GLY-ILE'
p198
F2.8730000000000002
sS'TYR-VAL'
p199
F3.173
sS'ASN-TYR'
p200
F2.4540000000000002
sS'SER-ILE'
p201
F2.7450000000000001
sS'GLN-PRO'
p202
F2.2189999999999999
sS'PHE-TYR'
p203
F2.8069999999999999
sS'ALA-VAL'
p204
F2.6520000000000001
sS'HIS-HIS'
p205
F0.48299999999999998
sS'THR-ASN'
p206
F2.3380000000000001
sS'CYS-LEU'
p207
F3.3879999999999999
sS'LYS-MET'
p208
F2.7229999999999999
sS'LYS-ASP'
p209
F2.3860000000000001
sS'HIS-ASN'
p210
F2.379
sS'ILE-GLN'
p211
F2.8730000000000002
sS'VAL-HIS'
p212
F3.3069999999999999
sS'ALA-LEU'
p213
F2.6480000000000001
sS'HIS-ASP'
p214
F2.4180000000000001
sS'ILE-TYR'
p215
F2.9550000000000001
sS'ILE-GLU'
p216
F3.2370000000000001
sS'ILE-GLY'
p217
F2.8799999999999999
sS'ASN-CYS'
p218
F3.214
sS'GLU-SER'
p219
F2.2610000000000001
sS'ALA-TRP'
p220
F3.0209999999999999
sS'HIS-CYS'
p221
F3.4129999999999998
sS'HIS-MET'
p222
F3.2490000000000001
sS'ILE-PRO'
p223
F2.714
sS'LYS-PHE'
p224
F2.7370000000000001
sS'TRP-PRO'
p225
F3.032
sS'GLU-TRP'
p226
F3.3210000000000002
sS'PHE-HIS'
p227
F3.319
sS'GLY-TYR'
p228
F2.1840000000000002
sS'SER-GLY'
p229
F1.778
sS'CYS-TRP'
p230
F3.8980000000000001
sS'ASP-LYS'
p231
F2.4169999999999998
sS'ASN-ILE'
p232
F2.8780000000000001
sS'HIS-SER'
p233
F2.552
sS'LYS-CYS'
p234
F3.0470000000000002
sS'GLY-PHE'
p235
F2.7149999999999999
sS'GLY-LEU'
p236
F2.6389999999999998
sS'MET-SER'
p237
F2.5870000000000002
sS'VAL-ALA'
p238
F2.6640000000000001
sS'SER-LEU'
p239
F3.0089999999999999
sS'TRP-LYS'
p240
F3.0019999999999998
sS'VAL-TYR'
p241
F3.2200000000000002
sS'VAL-PHE'
p242
F3.2360000000000002
sS'ARG-THR'
p243
F2.5209999999999999
sS'TYR-TRP'
p244
F3.069
sS'GLN-GLN'
p245
F1.2470000000000001
sS'GLU-PHE'
p246
F3.1840000000000002
sS'VAL-ILE'
p247
F3.5049999999999999
sS'HIS-GLN'
p248
F2.8340000000000001
sS'GLN-GLY'
p249
F1.8620000000000001
sS'PHE-ALA'
p250
F2.7000000000000002
sS'HIS-GLU'
p251
F2.52
sS'ARG-PRO'
p252
F2.2519999999999998
sS'HIS-GLY'
p253
F2.4390000000000001
sS'SER-ASN'
p254
F2.2679999999999998
sS'ALA-THR'
p255
F2.7559999999999998
sS'GLN-GLU'
p256
F2.597
sS'GLN-LYS'
p257
F2.4500000000000002
sS'CYS-HIS'
p258
F3.7410000000000001
sS'GLN-ASP'
p259
F2.4209999999999998
sS'LEU-HIS'
p260
F3.1240000000000001
sS'SER-LYS'
p261
F2.3439999999999999
sS'TRP-LEU'
p262
F3.1960000000000002
sS'CYS-SER'
p263
F2.843
sS'LYS-THR'
p264
F2.927
sS'HIS-LEU'
p265
F3.1760000000000002
sS'LEU-ARG'
p266
F2.7320000000000002
sS'GLY-VAL'
p267
F2.4449999999999998
sS'GLN-ASN'
p268
F2.4550000000000001
sS'TYR-ARG'
p269
F2.6850000000000001
sS'PRO-TYR'
p270
F2.355
sS'ASP-PHE'
p271
F3.1739999999999999
sS'TRP-CYS'
p272
F4.0599999999999996
sS'ASN-LEU'
p273
F2.7930000000000001
sS'SER-MET'
p274
F2.798
sS'HIS-ILE'
p275
F3.226
sS'SER-TYR'
p276
F2.431
sS'MET-TYR'
p277
F2.714
sS'GLU-ILE'
p278
F3.085
sS'PHE-CYS'
p279
F3.0019999999999998
sS'PRO-LEU'
p280
F2.8239999999999998
sS'GLY-MET'
p281
F2.698
sS'ARG-ILE'
p282
F2.9529999999999998
sS'HIS-THR'
p283
F2.698
sS'THR-GLN'
p284
F2.3170000000000002
sS'TRP-THR'
p285
F3.52
sS'LYS-LEU'
p286
F3.0840000000000001
sS'THR-GLY'
p287
F2.0659999999999998
sS'ASP-TRP'
p288
F3.508
sS'TYR-MET'
p289
F2.7490000000000001
sS'PHE-ILE'
p290
F3.1150000000000002
sS'PRO-VAL'
p291
F2.7509999999999999
sS'MET-ASN'
p292
F2.8849999999999998
sS'LEU-TYR'
p293
F2.8730000000000002
sS'PHE-PHE'
p294
F2.0129999999999999
sS'CYS-PHE'
p295
F3.4950000000000001
sS'TRP-ILE'
p296
F3.3119999999999998
sS'PRO-ASN'
p297
F2.4390000000000001
sS'CYS-CYS'
p298
F-1.3300000000000001
sS'SER-ASP'
p299
F2.5049999999999999
sS'ARG-MET'
p300
F2.8599999999999999
sS'SER-PHE'
p301
F2.8279999999999998
sS'SER-SER'
p302
F1.1080000000000001
sS'ASN-LYS'
p303
F2.3940000000000001
sS'CYS-THR'
p304
F3.6309999999999998
sS'ILE-TRP'
p305
F3.0739999999999998
sS'PRO-ASP'
p306
F2.5710000000000002
sS'THR-ASP'
p307
F2.6469999999999998
sS'SER-CYS'
p308
F3.1600000000000001
sS'MET-ASP'
p309
F3.012
sS'GLN-MET'
p310
F2.7120000000000002
sS'MET-TRP'
p311
F3.2349999999999999
sS'ARG-VAL'
p312
F2.7069999999999999
sS'GLY-GLN'
p313
F1.8819999999999999
sS'THR-LYS'
p314
F3.1080000000000001
sS'TRP-MET'
p315
F3.3839999999999999
sS'ARG-ARG'
p316
F1.1739999999999999
sS'ILE-ASP'
p317
F3.3090000000000002
sS'ALA-ARG'
p318
F2.5790000000000002
sS'GLY-GLU'
p319
F2.5539999999999998
sS'ASN-TRP'
p320
F2.883
sS'GLU-ARG'
p321
F2.3260000000000001
sS'HIS-VAL'
p322
F3.1099999999999999
sS'VAL-ARG'
p323
F2.6949999999999998
sS'ASN-SER'
p324
F2.2000000000000002
sS'ALA-LYS'
p325
F2.7450000000000001
sS'VAL-GLN'
p326
F2.7719999999999998
sS'TRP-ASN'
p327
F2.774
sS'TYR-ILE'
p328
F2.9980000000000002
sS'TRP-GLY'
p329
F2.6070000000000002
sS'PRO-PHE'
p330
F2.6320000000000001
sS'GLY-HIS'
p331
F2.2839999999999998
sS'PHE-SER'
p332
F2.919
sS'TRP-ASP'
p333
F3.468
sS'TRP-GLN'
p334
F2.9340000000000002
sS'LEU-ALA'
p335
F2.7000000000000002
sS'VAL-GLU'
p336
F3.411
sS'ALA-HIS'
p337
F2.5009999999999999
sS'ARG-ASN'
p338
F2.2610000000000001
sS'LEU-THR'
p339
F3.0880000000000001
sS'TYR-CYS'
p340
F3.5960000000000001
sS'THR-THR'
p341
F1.675
sS'THR-LEU'
p342
F2.948
sS'VAL-ASN'
p343
F2.7360000000000002
sS'LEU-TRP'
p344
F3.165
sS'GLU-ASP'
p345
F3.0099999999999998
sS'ILE-SER'
p346
F2.8220000000000001
sS'ILE-ARG'
p347
F2.915
sS'TRP-GLU'
p348
F2.9289999999999998
sS'ILE-MET'
p349
F3.3100000000000001
sS'MET-PHE'
p350
F2.9670000000000001
sS'PRO-ALA'
p351
F2.0640000000000001
sS'PRO-GLY'
p352
F2.0579999999999998
sS'GLN-THR'
p353
F2.4350000000000001
sS'MET-ALA'
p354
F2.996
sS'TRP-SER'
p355
F2.9710000000000001
sS'ASP-HIS'
p356
F3.0219999999999998
sS'ARG-SER'
p357
F2.1030000000000002
sS'GLN-HIS'
p358
F2.4260000000000002
sS'HIS-PHE'
p359
F3.1509999999999998
sS'LEU-LEU'
p360
F2.2530000000000001
sS'ALA-GLN'
p361
F2.2450000000000001
sS'ASP-ASN'
p362
F2.5739999999999998
sS'SER-VAL'
p363
F2.9079999999999999
sS'MET-ILE'
p364
F3.4209999999999998
sS'ALA-PRO'
p365
F2.359
sS'ASP-ASP'
p366
F2.1019999999999999
sS'ALA-GLY'
p367
F1.923
sS'TRP-TRP'
p368
F1.7989999999999999
sS'MET-CYS'
p369
F3.782
sS'ALA-GLU'
p370
F2.7549999999999999
sS'THR-PRO'
p371
F2.1789999999999998
sS'HIS-ALA'
p372
F2.9630000000000001
sS'GLN-ILE'
p373
F2.7040000000000002
sS'GLU-VAL'
p374
F3.1789999999999998
sS'LYS-ASN'
p375
F2.4340000000000002
sS'ASN-ALA'
p376
F2.573
sS'THR-ILE'
p377
F3.0169999999999999
sS'ASP-CYS'
p378
F3.5390000000000001
sS'PRO-LYS'
p379
F2.3799999999999999
sS'TYR-TYR'
p380
F1.4350000000000001
sS'ARG-LYS'
p381
F2.5600000000000001
sS'ILE-ALA'
p382
F2.827
sS'ASP-SER'
p383
F2.5169999999999999
sS'CYS-LYS'
p384
F3.4550000000000001
sS'GLU-ALA'
p385
F2.7530000000000001
sS'PHE-GLU'
p386
F2.996
sS'GLU-LEU'
p387
F3.157
sS'PHE-GLY'
p388
F2.6859999999999999
sS'LYS-HIS'
p389
F2.6989999999999998
sS'HIS-PRO'
p390
F2.6080000000000001
sS'ILE-ILE'
p391
F2.3730000000000002
sS'MET-HIS'
p392
F3.1680000000000001
sS'VAL-GLY'
p393
F2.5369999999999999
sS'THR-MET'
p394
F3.1709999999999998
sS'PHE-THR'
p395
F3.0920000000000001
sS'VAL-TRP'
p396
F3.4910000000000001
sS'PHE-LYS'
p397
F2.9769999999999999
sS'GLY-PRO'
p398
F1.7809999999999999
sS'PHE-GLN'
p399
F2.718
sS'LEU-PHE'
p400
F3.0960000000000001
s.