(dp1
S'MET-MET'
p2
F-2.0150000000000001
sS'PRO-ILE'
p3
F-0.55900000000000005
sS'TYR-LYS'
p4
F-1.2909999999999999
sS'VAL-ASP'
p5
F-0.23599999999999999
sS'ASP-GLN'
p6
F-0.96299999999999997
sS'HIS-TYR'
p7
F-1.7170000000000001
sS'ASP-GLU'
p8
F-0.76200000000000001
sS'ALA-ASP'
p9
F-0.32100000000000001
sS'ASP-GLY'
p10
F-1.115
sS'LEU-VAL'
p11
F-0.251
sS'TRP-TYR'
p12
F-1.3939999999999999
sS'GLN-TRP'
p13
F-1.165
sS'TRP-PHE'
p14
F-1.163
sS'ARG-TYR'
p15
F-1.6379999999999999
sS'GLU-LYS'
p16
F-1.0960000000000001
sS'ILE-HIS'
p17
F-0.63200000000000001
sS'LEU-MET'
p18
F-0.16800000000000001
sS'GLU-HIS'
p19
F-0.96599999999999997
sS'GLY-THR'
p20
F-1.5489999999999999
sS'ARG-GLU'
p21
F-1.548
sS'PHE-ASN'
p22
F-1.046
sS'ASN-MET'
p23
F-0.44500000000000001
sS'PRO-THR'
p24
F-0.98999999999999999
sS'TYR-GLN'
p25
F-1.387
sS'ARG-GLY'
p26
F-2.1299999999999999
sS'VAL-THR'
p27
F-0.48099999999999998
sS'ASP-ILE'
p28
F-0.434
sS'THR-HIS'
p29
F-0.98999999999999999
sS'TYR-GLU'
p30
F-1.167
sS'ARG-GLN'
p31
F-1.627
sS'TYR-GLY'
p32
F-1.766
sS'PHE-ASP'
p33
F-0.81599999999999995
sS'CYS-ARG'
p34
F-0.58499999999999996
sS'GLY-ASN'
p35
F-2.0049999999999999
sS'VAL-LYS'
p36
F-0.41499999999999998
sS'LEU-ILE'
p37
F-0.33200000000000002
sS'GLN-LEU'
p38
F-0.78700000000000003
sS'GLU-MET'
p39
F-0.69399999999999995
sS'ASP-THR'
p40
F-0.67500000000000004
sS'ASN-PHE'
p41
F-1.042
sS'GLU-PRO'
p42
F-1.02
sS'TYR-LEU'
p43
F-1.117
sS'LYS-ARG'
p44
F-1.3600000000000001
sS'GLY-ASP'
p45
F-1.2669999999999999
sS'PRO-GLN'
p46
F-1.292
sS'CYS-MET'
p47
F0.23799999999999999
sS'HIS-ARG'
p48
F-1.302
sS'GLU-THR'
p49
F-0.82499999999999996
sS'ILE-THR'
p50
F-0.13200000000000001
sS'SER-PRO'
p51
F-1.0249999999999999
sS'GLY-CYS'
p52
F-1.923
sS'ARG-LEU'
p53
F-1.2809999999999999
sS'PRO-GLU'
p54
F-1.036
sS'ASP-LEU'
p55
F-0.374
sS'PHE-VAL'
p56
F-0.45600000000000002
sS'ASN-VAL'
p57
F-0.56999999999999995
sS'ALA-MET'
p58
F-0.128
sS'LEU-PRO'
p59
F-0.58799999999999997
sS'LEU-SER'
p60
F-0.376
sS'ASN-ARG'
p61
F-1.544
sS'SER-THR'
p62
F-0.53500000000000003
sS'LYS-VAL'
p63
F-0.47699999999999998
sS'LYS-GLN'
p64
F-1.2430000000000001
sS'GLN-VAL'
p65
F-0.57299999999999995
sS'TYR-PHE'
p66
F-1.1299999999999999
sS'ASP-VAL'
p67
F-0.19700000000000001
sS'ASN-GLY'
p68
F-1.845
sS'ARG-PHE'
p69
F-1.5369999999999999
sS'SER-HIS'
p70
F-1.1890000000000001
sS'ALA-ILE'
p71
F-0.40999999999999998
sS'ASN-GLU'
p72
F-1.0409999999999999
sS'CYS-GLN'
p73
F-0.56200000000000006
sS'TYR-PRO'
p74
F-1.355
sS'LYS-GLU'
p75
F-1.198
sS'CYS-GLU'
p76
F0.38
sS'ASN-GLN'
p77
F-1.4279999999999999
sS'CYS-GLY'
p78
F-0.84699999999999998
sS'GLN-SER'
p79
F-1.4219999999999999
sS'HIS-LYS'
p80
F-1.147
sS'LYS-GLY'
p81
F-1.569
sS'VAL-MET'
p82
F-0.085999999999999993
sS'GLU-GLY'
p83
F-1.3740000000000001
sS'THR-SER'
p84
F-0.52200000000000002
sS'TYR-THR'
p85
F-1.4139999999999999
sS'PRO-PRO'
p86
F-2.2730000000000001
sS'ILE-PHE'
p87
F-0.67200000000000004
sS'PHE-LEU'
p88
F-0.70399999999999996
sS'GLU-GLU'
p89
F-1.7949999999999999
sS'SER-ARG'
p90
F-1.458
sS'GLY-ALA'
p91
F-1.639
sS'TYR-ASN'
p92
F-1.6160000000000001
sS'GLU-GLN'
p93
F-1.103
sS'TRP-ARG'
p94
F-1.24
sS'LEU-GLU'
p95
F-0.374
sS'LEU-GLY'
p96
F-0.99099999999999999
sS'LYS-SER'
p97
F-0.93700000000000006
sS'MET-VAL'
p98
F-0.123
sS'SER-ALA'
p99
F-0.52800000000000002
sS'PRO-HIS'
p100
F-1.294
sS'MET-THR'
p101
F-0.41999999999999998
sS'ALA-PHE'
p102
F-1.0449999999999999
sS'MET-PRO'
p103
F-0.60399999999999998
sS'GLY-SER'
p104
F-1.591
sS'LEU-GLN'
p105
F-0.84699999999999998
sS'VAL-LEU'
p106
F-0.25700000000000001
sS'LEU-CYS'
p107
F-0.188
sS'LYS-TYR'
p108
F-1.163
sS'ASP-ALA'
p109
F-0.182
sS'ILE-LEU'
p110
F-0.35899999999999999
sS'TRP-VAL'
p111
F-1.0960000000000001
sS'PHE-PRO'
p112
F-1.0940000000000001
sS'ALA-ALA'
p113
F-1.3120000000000001
sS'ARG-TRP'
p114
F-1.5529999999999999
sS'MET-GLN'
p115
F-1.0640000000000001
sS'ILE-LYS'
p116
F-0.38
sS'MET-ARG'
p117
F-0.81699999999999995
sS'ALA-CYS'
p118
F0.099000000000000005
sS'THR-ARG'
p119
F-1.1439999999999999
sS'CYS-ILE'
p120
F-0.28199999999999997
sS'LEU-ASN'
p121
F-0.77400000000000002
sS'LEU-ASP'
p122
F-0.24299999999999999
sS'PHE-TRP'
p123
F-1.1990000000000001
sS'MET-GLY'
p124
F-0.79600000000000004
sS'THR-PHE'
p125
F-0.97299999999999998
sS'MET-GLU'
p126
F-0.74399999999999999
sS'THR-TRP'
p127
F-0.59699999999999998
sS'THR-TYR'
p128
F-1.357
sS'CYS-VAL'
p129
F-0.065000000000000002
sS'ARG-ALA'
p130
F-0.98299999999999998
sS'ALA-TYR'
p131
F-1.2130000000000001
sS'ASP-PRO'
p132
F-0.88300000000000001
sS'ARG-CYS'
p133
F-0.97499999999999998
sS'GLN-ARG'
p134
F-1.7070000000000001
sS'HIS-TRP'
p135
F-0.93999999999999995
sS'PRO-SER'
p136
F-0.78700000000000003
sS'VAL-VAL'
p137
F-1.052
sS'LEU-LYS'
p138
F-0.67100000000000004
sS'GLY-LYS'
p139
F-1.758
sS'CYS-ASN'
p140
F-0.062
sS'GLY-TRP'
p141
F-1.4450000000000001
sS'THR-CYS'
p142
F0.32000000000000001
sS'LYS-LYS'
p143
F-1.756
sS'CYS-ASP'
p144
F0.129
sS'TYR-ASP'
p145
F-1.4550000000000001
sS'VAL-PRO'
p146
F-0.58099999999999996
sS'THR-VAL'
p147
F-0.41299999999999998
sS'ASP-TYR'
p148
F-1.4410000000000001
sS'PRO-CYS'
p149
F0.058000000000000003
sS'VAL-SER'
p150
F-0.315
sS'ARG-HIS'
p151
F-1.6850000000000001
sS'CYS-PRO'
p152
F-0.48099999999999998
sS'MET-LYS'
p153
F-1.03
sS'ALA-SER'
p154
F-0.48999999999999999
sS'TYR-SER'
p155
F-1.3200000000000001
sS'GLY-ARG'
p156
F-1.9830000000000001
sS'GLN-ALA'
p157
F-0.81200000000000006
sS'MET-LEU'
p158
F-0.46800000000000003
sS'ASN-HIS'
p159
F-1.448
sS'VAL-CYS'
p160
F0.41299999999999998
sS'GLN-TYR'
p161
F-1.3400000000000001
sS'GLN-PHE'
p162
F-1.1870000000000001
sS'ILE-ASN'
p163
F-0.55200000000000005
sS'GLU-ASN'
p164
F-1.0760000000000001
sS'CYS-ALA'
p165
F-0.13700000000000001
sS'ASN-ASP'
p166
F-1.008
sS'ASN-PRO'
p167
F-1.444
sS'PRO-ARG'
p168
F-1.5469999999999999
sS'LYS-TRP'
p169
F-1.0880000000000001
sS'ASN-ASN'
p170
F-2.4929999999999999
sS'ASN-THR'
p171
F-1.1839999999999999
sS'THR-ALA'
p172
F-0.16800000000000001
sS'LYS-ALA'
p173
F-0.67500000000000004
sS'LYS-PRO'
p174
F-0.995
sS'SER-GLN'
p175
F-1.2350000000000001
sS'ILE-VAL'
p176
F-0.081000000000000003
sS'ASP-ARG'
p177
F-1.7310000000000001
sS'ASP-MET'
p178
F-0.39500000000000002
sS'CYS-TYR'
p179
F-0.68799999999999994
sS'PRO-TRP'
p180
F-1.333
sS'THR-GLU'
p181
F-0.96499999999999997
sS'TRP-ALA'
p182
F-1.161
sS'ILE-CYS'
p183
F-0.26700000000000002
sS'LYS-ILE'
p184
F-0.188
sS'GLN-CYS'
p185
F-0.503
sS'TYR-ALA'
p186
F-1.0620000000000001
sS'ARG-ASP'
p187
F-1.885
sS'SER-GLU'
p188
F-1.0700000000000001
sS'TRP-HIS'
p189
F-1.476
sS'ALA-ASN'
p190
F-0.68100000000000005
sS'GLU-CYS'
p191
F0.434
sS'PRO-MET'
p192
F-0.52300000000000002
sS'TYR-HIS'
p193
F-1.3
sS'PHE-MET'
p194
F-1.087
sS'GLU-TYR'
p195
F-1.117
sS'SER-TRP'
p196
F-1.2470000000000001
sS'PHE-ARG'
p197
F-1.323
sS'GLY-ILE'
p198
F-0.79500000000000004
sS'TYR-VAL'
p199
F-0.71599999999999997
sS'ASN-TYR'
p200
F-1.5369999999999999
sS'SER-ILE'
p201
F-0.60299999999999998
sS'GLN-PRO'
p202
F-1.397
sS'PHE-TYR'
p203
F-1.329
sS'ALA-VAL'
p204
F-0.33000000000000002
sS'HIS-HIS'
p205
F-3.528
sS'THR-ASN'
p206
F-1.069
sS'CYS-LEU'
p207
F0.039
sS'LYS-MET'
p208
F-0.999
sS'LYS-ASP'
p209
F-1.2929999999999999
sS'HIS-ASN'
p210
F-1.329
sS'ILE-GLN'
p211
F-0.85899999999999999
sS'VAL-HIS'
p212
F-0.44600000000000001
sS'ALA-LEU'
p213
F-0.45800000000000002
sS'HIS-ASP'
p214
F-1.296
sS'ILE-TYR'
p215
F-1.0349999999999999
sS'ILE-GLU'
p216
F-0.47399999999999998
sS'ILE-GLY'
p217
F-0.80100000000000005
sS'ASN-CYS'
p218
F-0.106
sS'GLU-SER'
p219
F-1.1639999999999999
sS'ALA-TRP'
p220
F-1.012
sS'HIS-CYS'
p221
F-0.17599999999999999
sS'HIS-MET'
p222
F-0.57999999999999996
sS'ILE-PRO'
p223
F-0.745
sS'LYS-PHE'
p224
F-1.1220000000000001
sS'TRP-PRO'
p225
F-1.0449999999999999
sS'GLU-TRP'
p226
F-0.871
sS'PHE-HIS'
p227
F-0.73899999999999999
sS'GLY-TYR'
p228
F-1.8240000000000001
sS'SER-GLY'
p229
F-1.732
sS'CYS-TRP'
p230
F-0.02
sS'ASP-LYS'
p231
F-1.232
sS'ASN-ILE'
p232
F-0.67300000000000004
sS'HIS-SER'
p233
F-1.093
sS'LYS-CYS'
p234
F-0.43099999999999999
sS'GLY-PHE'
p235
F-1.153
sS'GLY-LEU'
p236
F-1.0369999999999999
sS'MET-SER'
p237
F-0.71899999999999997
sS'VAL-ALA'
p238
F-0.28999999999999998
sS'SER-LEU'
p239
F-0.29299999999999998
sS'TRP-LYS'
p240
F-1.2509999999999999
sS'VAL-TYR'
p241
F-0.64000000000000001
sS'VAL-PHE'
p242
F-0.51500000000000001
sS'ARG-THR'
p243
F-1.3089999999999999
sS'TYR-TRP'
p244
F-1.377
sS'GLN-GLN'
p245
F-2.6040000000000001
sS'GLU-PHE'
p246
F-0.78900000000000003
sS'VAL-ILE'
p247
F0.062
sS'HIS-GLN'
p248
F-1.0469999999999999
sS'GLN-GLY'
p249
F-1.8420000000000001
sS'PHE-ALA'
p250
F-0.92900000000000005
sS'HIS-GLU'
p251
F-1.3149999999999999
sS'ARG-PRO'
p252
F-1.587
sS'HIS-GLY'
p253
F-1.4139999999999999
sS'SER-ASN'
p254
F-1.034
sS'ALA-THR'
p255
F-0.17899999999999999
sS'GLN-GLU'
p256
F-1.119
sS'GLN-LYS'
p257
F-1.361
sS'CYS-HIS'
p258
F0.27200000000000002
sS'GLN-ASP'
p259
F-1.2669999999999999
sS'LEU-HIS'
p260
F-0.65300000000000002
sS'SER-LYS'
p261
F-1.05
sS'TRP-LEU'
p262
F-0.878
sS'CYS-SER'
p263
F-0.10100000000000001
sS'LYS-THR'
p264
F-0.65000000000000002
sS'HIS-LEU'
p265
F-0.58999999999999997
sS'LEU-ARG'
p266
F-1.1639999999999999
sS'GLY-VAL'
p267
F-1.161
sS'GLN-ASN'
p268
F-1.1879999999999999
sS'TYR-ARG'
p269
F-1.518
sS'PRO-TYR'
p270
F-1.5469999999999999
sS'ASP-PHE'
p271
F-0.73399999999999999
sS'TRP-CYS'
p272
F0.053999999999999999
sS'ASN-LEU'
p273
F-0.755
sS'SER-MET'
p274
F-0.46100000000000002
sS'HIS-ILE'
p275
F-0.54900000000000004
sS'SER-TYR'
p276
F-1.401
sS'MET-TYR'
p277
F-1.3240000000000001
sS'GLU-ILE'
p278
F-0.55900000000000005
sS'PHE-CYS'
p279
F-0.72399999999999998
sS'PRO-LEU'
p280
F-0.63800000000000001
sS'GLY-MET'
p281
F-0.91900000000000004
sS'ARG-ILE'
p282
F-0.86699999999999999
sS'HIS-THR'
p283
F-0.97899999999999998
sS'THR-GLN'
p284
F-1.2689999999999999
sS'TRP-THR'
p285
F-0.62
sS'LYS-LEU'
p286
F-0.57499999999999996
sS'THR-GLY'
p287
F-1.5449999999999999
sS'ASP-TRP'
p288
F-0.621
sS'TYR-MET'
p289
F-1.1850000000000001
sS'PHE-ILE'
p290
F-0.78900000000000003
sS'PRO-VAL'
p291
F-0.53300000000000003
sS'MET-ASN'
p292
F-0.65400000000000003
sS'LEU-TYR'
p293
F-1.111
sS'PHE-PHE'
p294
F-2.097
sS'CYS-PHE'
p295
F-0.182
sS'TRP-ILE'
p296
F-0.90900000000000003
sS'PRO-ASN'
p297
F-0.98999999999999999
sS'CYS-CYS'
p298
F-4.4379999999999997
sS'SER-ASP'
p299
F-0.75700000000000001
sS'ARG-MET'
p300
F-0.995
sS'SER-PHE'
p301
F-0.82299999999999995
sS'SER-SER'
p302
F-1.8580000000000001
sS'ASN-LYS'
p303
F-1.2809999999999999
sS'CYS-THR'
p304
F0.51900000000000002
sS'ILE-TRP'
p305
F-1.071
sS'PRO-ASP'
p306
F-0.876
sS'THR-ASP'
p307
F-0.78200000000000003
sS'SER-CYS'
p308
F0.22800000000000001
sS'MET-ASP'
p309
F-0.68100000000000005
sS'GLN-MET'
p310
F-0.98299999999999998
sS'MET-TRP'
p311
F-0.876
sS'ARG-VAL'
p312
F-1.073
sS'GLY-GLN'
p313
F-1.8360000000000001
sS'THR-LYS'
p314
F-0.41099999999999998
sS'TRP-MET'
p315
F-0.70499999999999996
sS'ARG-ARG'
p316
F-3.0329999999999999
sS'ILE-ASP'
p317
F-0.27000000000000002
sS'ALA-ARG'
p318
F-0.995
sS'GLY-GLU'
p319
F-1.226
sS'ASN-TRP'
p320
F-1.3029999999999999
sS'GLU-ARG'
p321
F-1.5569999999999999
sS'HIS-VAL'
p322
F-0.65700000000000003
sS'VAL-ARG'
p323
F-1.0449999999999999
sS'ASN-SER'
p324
F-1.1279999999999999
sS'ALA-LYS'
p325
F-0.56899999999999995
sS'VAL-GLN'
p326
F-0.78700000000000003
sS'TRP-ASN'
p327
F-1.4019999999999999
sS'TYR-ILE'
p328
F-0.94199999999999995
sS'TRP-GLY'
p329
F-1.556
sS'PRO-PHE'
p330
F-1.179
sS'GLY-HIS'
p331
F-1.5609999999999999
sS'PHE-SER'
p332
F-0.82599999999999996
sS'TRP-ASP'
p333
F-0.622
sS'TRP-GLN'
p334
F-1.278
sS'LEU-ALA'
p335
F-0.40899999999999997
sS'VAL-GLU'
p336
F-0.11700000000000001
sS'ALA-HIS'
p337
F-1.0589999999999999
sS'ARG-ASN'
p338
F-1.5880000000000001
sS'LEU-THR'
p339
F-0.35299999999999998
sS'TYR-CYS'
p340
F-0.20399999999999999
sS'THR-THR'
p341
F-1.6599999999999999
sS'THR-LEU'
p342
F-0.49299999999999999
sS'VAL-ASN'
p343
F-0.63900000000000001
sS'LEU-TRP'
p344
F-1.008
sS'GLU-ASP'
p345
F-0.67800000000000005
sS'ILE-SER'
p346
F-0.45700000000000002
sS'ILE-ARG'
p347
F-0.95499999999999996
sS'TRP-GLU'
p348
F-1.2
sS'ILE-MET'
p349
F-0.252
sS'MET-PHE'
p350
F-1.03
sS'PRO-ALA'
p351
F-0.86599999999999999
sS'PRO-GLY'
p352
F-1.54
sS'GLN-THR'
p353
F-1.0589999999999999
sS'MET-ALA'
p354
F-0.11899999999999999
sS'TRP-SER'
p355
F-1.0509999999999999
sS'ASP-HIS'
p356
F-0.76600000000000001
sS'ARG-SER'
p357
F-1.4910000000000001
sS'GLN-HIS'
p358
F-1.4410000000000001
sS'HIS-PHE'
p359
F-0.93799999999999994
sS'LEU-LEU'
p360
F-1.4399999999999999
sS'ALA-GLN'
p361
F-1.036
sS'ASP-ASN'
p362
F-0.95099999999999996
sS'SER-VAL'
p363
F-0.23000000000000001
sS'MET-ILE'
p364
F-0.154
sS'ALA-PRO'
p365
F-0.54700000000000004
sS'ASP-ASP'
p366
F-1.506
sS'ALA-GLY'
p367
F-1.4690000000000001
sS'TRP-TRP'
p368
F-2.8130000000000002
sS'MET-CYS'
p369
F0.39600000000000002
sS'ALA-GLU'
p370
F-0.503
sS'THR-PRO'
p371
F-1.0609999999999999
sS'HIS-ALA'
p372
F-0.57199999999999995
sS'GLN-ILE'
p373
F-1.014
sS'GLU-VAL'
p374
F-0.33800000000000002
sS'LYS-ASN'
p375
F-1.1919999999999999
sS'ASN-ALA'
p376
F-0.624
sS'THR-ILE'
p377
F-0.378
sS'ASP-CYS'
p378
F0.17299999999999999
sS'PRO-LYS'
p379
F-1.1930000000000001
sS'TYR-TYR'
p380
F-2.9420000000000002
sS'ARG-LYS'
p381
F-1.351
sS'ILE-ALA'
p382
F-0.35599999999999998
sS'ASP-SER'
p383
F-0.80000000000000004
sS'CYS-LYS'
p384
F-0.041000000000000002
sS'GLU-ALA'
p385
F-0.54400000000000004
sS'PHE-GLU'
p386
F-0.91000000000000003
sS'GLU-LEU'
p387
F-0.495
sS'PHE-GLY'
p388
F-1.2569999999999999
sS'LYS-HIS'
p389
F-1.0660000000000001
sS'HIS-PRO'
p390
F-1.1100000000000001
sS'ILE-ILE'
p391
F-1.2569999999999999
sS'MET-HIS'
p392
F-0.64400000000000002
sS'VAL-GLY'
p393
F-1.0109999999999999
sS'THR-MET'
p394
F-0.34100000000000003
sS'PHE-THR'
p395
F-0.747
sS'VAL-TRP'
p396
F-0.55800000000000005
sS'PHE-LYS'
p397
F-0.99399999999999999
sS'GLY-PRO'
p398
F-1.768
sS'PHE-GLN'
p399
F-1.232
sS'LEU-PHE'
p400
F-0.81200000000000006
s.