(dp1
S'MET-MET'
p2
F-3.613
sS'PRO-ILE'
p3
F-2.4199999999999999
sS'TYR-LYS'
p4
F-3.2069999999999999
sS'VAL-ASP'
p5
F-2.0800000000000001
sS'ASP-GLN'
p6
F-2.379
sS'HIS-TYR'
p7
F-3.6720000000000002
sS'ASP-GLU'
p8
F-2.5070000000000001
sS'ALA-ASP'
p9
F-1.883
sS'ASP-GLY'
p10
F-2.0659999999999998
sS'LEU-VAL'
p11
F-2.0699999999999998
sS'TRP-TYR'
p12
F-3.5550000000000002
sS'GLN-TRP'
p13
F-2.827
sS'TRP-PHE'
p14
F-3.032
sS'ARG-TYR'
p15
F-3.3540000000000001
sS'GLU-LYS'
p16
F-2.7829999999999999
sS'ILE-HIS'
p17
F-2.016
sS'LEU-MET'
p18
F-1.6950000000000001
sS'GLU-HIS'
p19
F-2.5409999999999999
sS'GLY-THR'
p20
F-2.5299999999999998
sS'ARG-GLU'
p21
F-2.9649999999999999
sS'PHE-ASN'
p22
F-2.778
sS'ASN-MET'
p23
F-2.004
sS'PRO-THR'
p24
F-2.6240000000000001
sS'TYR-GLN'
p25
F-3.2999999999999998
sS'ARG-GLY'
p26
F-3.2229999999999999
sS'VAL-THR'
p27
F-2.2799999999999998
sS'ASP-ILE'
p28
F-1.996
sS'THR-HIS'
p29
F-2.5019999999999998
sS'TYR-GLU'
p30
F-3.1040000000000001
sS'ARG-GLN'
p31
F-3.2160000000000002
sS'TYR-GLY'
p32
F-2.895
sS'PHE-ASP'
p33
F-2.6549999999999998
sS'CYS-ARG'
p34
F-2.6819999999999999
sS'GLY-ASN'
p35
F-2.9729999999999999
sS'VAL-LYS'
p36
F-2.093
sS'LEU-ILE'
p37
F-2.2400000000000002
sS'GLN-LEU'
p38
F-2.4700000000000002
sS'GLU-MET'
p39
F-2.2530000000000001
sS'ASP-THR'
p40
F-2.2949999999999999
sS'ASN-PHE'
p41
F-2.7320000000000002
sS'GLU-PRO'
p42
F-2.96
sS'TYR-LEU'
p43
F-2.8330000000000002
sS'LYS-ARG'
p44
F-2.927
sS'GLY-ASP'
p45
F-2.1989999999999998
sS'PRO-GLN'
p46
F-2.8029999999999999
sS'CYS-MET'
p47
F-1.75
sS'HIS-ARG'
p48
F-2.9820000000000002
sS'GLU-THR'
p49
F-2.1339999999999999
sS'ILE-THR'
p50
F-1.671
sS'SER-PRO'
p51
F-2.5979999999999999
sS'GLY-CYS'
p52
F-2.6509999999999998
sS'ARG-LEU'
p53
F-3.1219999999999999
sS'PRO-GLU'
p54
F-2.9990000000000001
sS'ASP-LEU'
p55
F-1.952
sS'PHE-VAL'
p56
F-1.8680000000000001
sS'ASN-VAL'
p57
F-2.0939999999999999
sS'ALA-MET'
p58
F-2.0790000000000002
sS'LEU-PRO'
p59
F-2.016
sS'LEU-SER'
p60
F-2.0209999999999999
sS'ASN-ARG'
p61
F-3.0419999999999998
sS'SER-THR'
p62
F-1.8779999999999999
sS'LYS-VAL'
p63
F-2.1779999999999999
sS'LYS-GLN'
p64
F-2.766
sS'GLN-VAL'
p65
F-1.716
sS'TYR-PHE'
p66
F-3.0470000000000002
sS'ASP-VAL'
p67
F-1.919
sS'ASN-GLY'
p68
F-2.7770000000000001
sS'ARG-PHE'
p69
F-3.1469999999999998
sS'SER-HIS'
p70
F-2.7959999999999998
sS'ALA-ILE'
p71
F-2.2719999999999998
sS'ASN-GLU'
p72
F-2.3809999999999998
sS'CYS-GLN'
p73
F-2.4009999999999998
sS'TYR-PRO'
p74
F-3.0910000000000002
sS'LYS-GLU'
p75
F-2.9169999999999998
sS'CYS-GLU'
p76
F-1.1859999999999999
sS'ASN-GLN'
p77
F-2.6789999999999998
sS'CYS-GLY'
p78
F-1.843
sS'GLN-SER'
p79
F-2.9380000000000002
sS'HIS-LYS'
p80
F-3.0099999999999998
sS'LYS-GLY'
p81
F-2.7109999999999999
sS'VAL-MET'
p82
F-2.282
sS'GLU-GLY'
p83
F-2.3610000000000002
sS'THR-SER'
p84
F-1.6990000000000001
sS'TYR-THR'
p85
F-3.2370000000000001
sS'PRO-PRO'
p86
F-3.637
sS'ILE-PHE'
p87
F-2.5030000000000001
sS'PHE-LEU'
p88
F-2.3660000000000001
sS'GLU-GLU'
p89
F-2.8700000000000001
sS'SER-ARG'
p90
F-2.9169999999999998
sS'GLY-ALA'
p91
F-2.5939999999999999
sS'TYR-ASN'
p92
F-3.2330000000000001
sS'GLU-GLN'
p93
F-3.0030000000000001
sS'TRP-ARG'
p94
F-3.069
sS'LEU-GLU'
p95
F-1.9379999999999999
sS'LEU-GLY'
p96
F-2.0190000000000001
sS'LYS-SER'
p97
F-2.5030000000000001
sS'MET-VAL'
p98
F-2.2549999999999999
sS'SER-ALA'
p99
F-1.8520000000000001
sS'PRO-HIS'
p100
F-3.0150000000000001
sS'MET-THR'
p101
F-2.0449999999999999
sS'ALA-PHE'
p102
F-2.9350000000000001
sS'MET-PRO'
p103
F-2.3769999999999998
sS'GLY-SER'
p104
F-2.5630000000000002
sS'LEU-GLN'
p105
F-2.573
sS'VAL-LEU'
p106
F-1.849
sS'LEU-CYS'
p107
F-2.387
sS'LYS-TYR'
p108
F-2.863
sS'ASP-ALA'
p109
F-1.55
sS'ILE-LEU'
p110
F-1.931
sS'TRP-VAL'
p111
F-3.3780000000000001
sS'PHE-PRO'
p112
F-2.984
sS'ALA-ALA'
p113
F-2.5550000000000002
sS'ARG-TRP'
p114
F-3.456
sS'MET-GLN'
p115
F-2.5059999999999998
sS'ILE-LYS'
p116
F-2.2069999999999999
sS'MET-ARG'
p117
F-2.4449999999999998
sS'ALA-CYS'
p118
F-1.637
sS'THR-ARG'
p119
F-2.339
sS'CYS-ILE'
p120
F-2.109
sS'LEU-ASN'
p121
F-2.3759999999999999
sS'LEU-ASP'
p122
F-1.8109999999999999
sS'PHE-TRP'
p123
F-3.4340000000000002
sS'MET-GLY'
p124
F-1.764
sS'THR-PHE'
p125
F-2.6480000000000001
sS'MET-GLU'
p126
F-2.0699999999999998
sS'THR-TRP'
p127
F-2.266
sS'THR-TYR'
p128
F-3.0710000000000002
sS'CYS-VAL'
p129
F-2.093
sS'ARG-ALA'
p130
F-2.5550000000000002
sS'ALA-TYR'
p131
F-2.9940000000000002
sS'ASP-PRO'
p132
F-2.5710000000000002
sS'ARG-CYS'
p133
F-2.6930000000000001
sS'GLN-ARG'
p134
F-3.1760000000000002
sS'HIS-TRP'
p135
F-2.4180000000000001
sS'PRO-SER'
p136
F-2.109
sS'VAL-VAL'
p137
F-2.6499999999999999
sS'LEU-LYS'
p138
F-2.3719999999999999
sS'GLY-LYS'
p139
F-2.8039999999999998
sS'CYS-ASN'
p140
F-1.9199999999999999
sS'GLY-TRP'
p141
F-2.5670000000000002
sS'THR-CYS'
p142
F-1.3799999999999999
sS'LYS-LYS'
p143
F-3.105
sS'CYS-ASP'
p144
F-1.2849999999999999
sS'TYR-ASP'
p145
F-3.3719999999999999
sS'VAL-PRO'
p146
F-2.3170000000000002
sS'THR-VAL'
p147
F-1.946
sS'ASP-TYR'
p148
F-3.1669999999999998
sS'PRO-CYS'
p149
F-1.5429999999999999
sS'VAL-SER'
p150
F-1.609
sS'ARG-HIS'
p151
F-3.5230000000000001
sS'CYS-PRO'
p152
F-1.9199999999999999
sS'MET-LYS'
p153
F-2.8719999999999999
sS'ALA-SER'
p154
F-1.823
sS'TYR-SER'
p155
F-3.0779999999999998
sS'GLY-ARG'
p156
F-3.0009999999999999
sS'GLN-ALA'
p157
F-2.2869999999999999
sS'MET-LEU'
p158
F-2.343
sS'ASN-HIS'
p159
F-3.0110000000000001
sS'VAL-CYS'
p160
F-1.577
sS'GLN-TYR'
p161
F-3.218
sS'GLN-PHE'
p162
F-3.0569999999999999
sS'ILE-ASN'
p163
F-1.921
sS'GLU-ASN'
p164
F-2.415
sS'CYS-ALA'
p165
F-2.0459999999999998
sS'ASN-ASP'
p166
F-2.5979999999999999
sS'ASN-PRO'
p167
F-3.0499999999999998
sS'PRO-ARG'
p168
F-2.988
sS'LYS-TRP'
p169
F-2.8879999999999999
sS'ASN-ASN'
p170
F-3.7949999999999999
sS'ASN-THR'
p171
F-2.6070000000000002
sS'THR-ALA'
p172
F-1.3300000000000001
sS'LYS-ALA'
p173
F-2.1520000000000001
sS'LYS-PRO'
p174
F-2.5219999999999998
sS'SER-GLN'
p175
F-2.867
sS'ILE-VAL'
p176
F-1.9770000000000001
sS'ASP-ARG'
p177
F-3.2909999999999999
sS'ASP-MET'
p178
F-1.9450000000000001
sS'CYS-TYR'
p179
F-2.3519999999999999
sS'PRO-TRP'
p180
F-3.1309999999999998
sS'THR-GLU'
p181
F-2.4369999999999998
sS'TRP-ALA'
p182
F-2.8959999999999999
sS'ILE-CYS'
p183
F-2.1640000000000001
sS'LYS-ILE'
p184
F-1.859
sS'GLN-CYS'
p185
F-2.2050000000000001
sS'TYR-ALA'
p186
F-2.8330000000000002
sS'ARG-ASP'
p187
F-3.5249999999999999
sS'SER-GLU'
p188
F-2.419
sS'TRP-HIS'
p189
F-3.3780000000000001
sS'ALA-ASN'
p190
F-2.0569999999999999
sS'GLU-CYS'
p191
F-1.575
sS'PRO-MET'
p192
F-2.302
sS'TYR-HIS'
p193
F-2.8660000000000001
sS'PHE-MET'
p194
F-2.7509999999999999
sS'GLU-TYR'
p195
F-2.9430000000000001
sS'SER-TRP'
p196
F-2.774
sS'PHE-ARG'
p197
F-2.9329999999999998
sS'GLY-ILE'
p198
F-1.8129999999999999
sS'TYR-VAL'
p199
F-2.4729999999999999
sS'ASN-TYR'
p200
F-3.319
sS'SER-ILE'
p201
F-2.169
sS'GLN-PRO'
p202
F-3.0699999999999998
sS'PHE-TYR'
p203
F-3.2599999999999998
sS'ALA-VAL'
p204
F-2.1179999999999999
sS'HIS-HIS'
p205
F-4.9489999999999998
sS'THR-ASN'
p206
F-2.6709999999999998
sS'CYS-LEU'
p207
F-1.8500000000000001
sS'LYS-MET'
p208
F-2.8879999999999999
sS'LYS-ASP'
p209
F-2.8660000000000001
sS'HIS-ASN'
p210
F-2.7290000000000001
sS'ILE-GLN'
p211
F-2.4929999999999999
sS'VAL-HIS'
p212
F-2.1920000000000002
sS'ALA-LEU'
p213
F-1.952
sS'HIS-ASP'
p214
F-2.7639999999999998
sS'ILE-TYR'
p215
F-2.8780000000000001
sS'ILE-GLU'
p216
F-2.4039999999999999
sS'ILE-GLY'
p217
F-2.0369999999999999
sS'ASN-CYS'
p218
F-1.9390000000000001
sS'GLU-SER'
p219
F-2.492
sS'ALA-TRP'
p220
F-2.6200000000000001
sS'HIS-CYS'
p221
F-2.1469999999999998
sS'HIS-MET'
p222
F-2.387
sS'ILE-PRO'
p223
F-2.6749999999999998
sS'LYS-PHE'
p224
F-2.726
sS'TRP-PRO'
p225
F-2.9390000000000001
sS'GLU-TRP'
p226
F-3.1589999999999998
sS'PHE-HIS'
p227
F-2.3380000000000001
sS'GLY-TYR'
p228
F-2.9350000000000001
sS'SER-GLY'
p229
F-2.6389999999999998
sS'CYS-TRP'
p230
F-2.23
sS'ASP-LYS'
p231
F-2.8799999999999999
sS'ASN-ILE'
p232
F-2.0289999999999999
sS'HIS-SER'
p233
F-3.0099999999999998
sS'LYS-CYS'
p234
F-2.194
sS'GLY-PHE'
p235
F-2.1629999999999998
sS'GLY-LEU'
p236
F-2.0699999999999998
sS'MET-SER'
p237
F-2.5790000000000002
sS'VAL-ALA'
p238
F-2.048
sS'SER-LEU'
p239
F-1.5700000000000001
sS'TRP-LYS'
p240
F-2.8079999999999998
sS'VAL-TYR'
p241
F-2.407
sS'VAL-PHE'
p242
F-2.7029999999999998
sS'ARG-THR'
p243
F-2.665
sS'TYR-TRP'
p244
F-3.3420000000000001
sS'GLN-GLN'
p245
F-3.919
sS'GLU-PHE'
p246
F-2.621
sS'VAL-ILE'
p247
F-2.149
sS'HIS-GLN'
p248
F-2.7850000000000001
sS'GLN-GLY'
p249
F-2.8460000000000001
sS'PHE-ALA'
p250
F-2.819
sS'HIS-GLU'
p251
F-2.948
sS'ARG-PRO'
p252
F-3.2130000000000001
sS'HIS-GLY'
p253
F-2.3530000000000002
sS'SER-ASN'
p254
F-2.3690000000000002
sS'ALA-THR'
p255
F-1.3999999999999999
sS'GLN-GLU'
p256
F-2.774
sS'GLN-LYS'
p257
F-3.3399999999999999
sS'CYS-HIS'
p258
F-1.8879999999999999
sS'GLN-ASP'
p259
F-2.8300000000000001
sS'LEU-HIS'
p260
F-2.4369999999999998
sS'SER-LYS'
p261
F-2.5190000000000001
sS'TRP-LEU'
p262
F-2.875
sS'CYS-SER'
p263
F-1.6259999999999999
sS'LYS-THR'
p264
F-2.577
sS'HIS-LEU'
p265
F-2.1520000000000001
sS'LEU-ARG'
p266
F-2.7429999999999999
sS'GLY-VAL'
p267
F-2.1859999999999999
sS'GLN-ASN'
p268
F-2.456
sS'TYR-ARG'
p269
F-3.367
sS'PRO-TYR'
p270
F-3.2759999999999998
sS'ASP-PHE'
p271
F-2.5590000000000002
sS'TRP-CYS'
p272
F-2.1459999999999999
sS'ASN-LEU'
p273
F-2.3260000000000001
sS'SER-MET'
p274
F-2.4590000000000001
sS'HIS-ILE'
p275
F-2.621
sS'SER-TYR'
p276
F-2.992
sS'MET-TYR'
p277
F-3.1259999999999999
sS'GLU-ILE'
p278
F-2.258
sS'PHE-CYS'
p279
F-2.7400000000000002
sS'PRO-LEU'
p280
F-2.302
sS'GLY-MET'
p281
F-1.871
sS'ARG-ILE'
p282
F-2.6800000000000002
sS'HIS-THR'
p283
F-2.8119999999999998
sS'THR-GLN'
p284
F-2.722
sS'TRP-THR'
p285
F-2.3740000000000001
sS'LYS-LEU'
p286
F-2.0960000000000001
sS'THR-GLY'
p287
F-2.4870000000000001
sS'ASP-TRP'
p288
F-2.7330000000000001
sS'TYR-MET'
p289
F-3.266
sS'PHE-ILE'
p290
F-2.621
sS'PRO-VAL'
p291
F-2.0049999999999999
sS'MET-ASN'
p292
F-2.0859999999999999
sS'LEU-TYR'
p293
F-2.8879999999999999
sS'PHE-PHE'
p294
F-3.7799999999999998
sS'CYS-PHE'
p295
F-2.1579999999999999
sS'TRP-ILE'
p296
F-3.1789999999999998
sS'PRO-ASN'
p297
F-2.456
sS'CYS-CYS'
p298
F-5.6820000000000004
sS'SER-ASP'
p299
F-1.9350000000000001
sS'ARG-MET'
p300
F-2.3519999999999999
sS'SER-PHE'
p301
F-2.5390000000000001
sS'SER-SER'
p302
F-3.0950000000000002
sS'ASN-LYS'
p303
F-2.7440000000000002
sS'CYS-THR'
p304
F-0.97999999999999998
sS'ILE-TRP'
p305
F-3.036
sS'PRO-ASP'
p306
F-2.5899999999999999
sS'THR-ASP'
p307
F-2.282
sS'SER-CYS'
p308
F-1.343
sS'MET-ASP'
p309
F-2.7519999999999998
sS'GLN-MET'
p310
F-2.601
sS'MET-TRP'
p311
F-2.9870000000000001
sS'ARG-VAL'
p312
F-2.7530000000000001
sS'GLY-GLN'
p313
F-2.7759999999999998
sS'THR-LYS'
p314
F-2.1389999999999998
sS'TRP-MET'
p315
F-2.472
sS'ARG-ARG'
p316
F-4.4880000000000004
sS'ILE-ASP'
p317
F-1.847
sS'ALA-ARG'
p318
F-2.4710000000000001
sS'GLY-GLU'
p319
F-2.1840000000000002
sS'ASN-TRP'
p320
F-2.8450000000000002
sS'GLU-ARG'
p321
F-3.1339999999999999
sS'HIS-VAL'
p322
F-2.3980000000000001
sS'VAL-ARG'
p323
F-2.7370000000000001
sS'ASN-SER'
p324
F-2.4350000000000001
sS'ALA-LYS'
p325
F-2.0059999999999998
sS'VAL-GLN'
p326
F-2.2509999999999999
sS'TRP-ASN'
p327
F-2.8839999999999999
sS'TYR-ILE'
p328
F-2.9119999999999999
sS'TRP-GLY'
p329
F-2.5369999999999999
sS'PRO-PHE'
p330
F-3.0880000000000001
sS'GLY-HIS'
p331
F-2.528
sS'PHE-SER'
p332
F-2.6549999999999998
sS'TRP-ASP'
p333
F-2.798
sS'TRP-GLN'
p334
F-3.1749999999999998
sS'LEU-ALA'
p335
F-1.8959999999999999
sS'VAL-GLU'
p336
F-1.4299999999999999
sS'ALA-HIS'
p337
F-2.407
sS'ARG-ASN'
p338
F-3.0179999999999998
sS'LEU-THR'
p339
F-1.8819999999999999
sS'TYR-CYS'
p340
F-2.3199999999999998
sS'THR-THR'
p341
F-2.8660000000000001
sS'THR-LEU'
p342
F-2.2530000000000001
sS'VAL-ASN'
p343
F-2.1749999999999998
sS'LEU-TRP'
p344
F-3.0249999999999999
sS'GLU-ASP'
p345
F-2.3399999999999999
sS'ILE-SER'
p346
F-1.831
sS'ILE-ARG'
p347
F-2.7759999999999998
sS'TRP-GLU'
p348
F-3.1880000000000002
sS'ILE-MET'
p349
F-2.4540000000000002
sS'MET-PHE'
p350
F-2.7850000000000001
sS'PRO-ALA'
p351
F-2.597
sS'PRO-GLY'
p352
F-2.5459999999999998
sS'GLN-THR'
p353
F-2.6349999999999998
sS'MET-ALA'
p354
F-1.625
sS'TRP-SER'
p355
F-2.4209999999999998
sS'ASP-HIS'
p356
F-2.4649999999999999
sS'ARG-SER'
p357
F-2.8109999999999999
sS'GLN-HIS'
p358
F-3.1629999999999998
sS'HIS-PHE'
p359
F-2.895
sS'LEU-LEU'
p360
F-2.6749999999999998
sS'ALA-GLN'
p361
F-2.5529999999999999
sS'ASP-ASN'
p362
F-2.544
sS'SER-VAL'
p363
F-1.7330000000000001
sS'MET-ILE'
p364
F-1.8169999999999999
sS'ALA-PRO'
p365
F-1.8049999999999999
sS'ASP-ASP'
p366
F-2.8130000000000002
sS'ALA-GLY'
p367
F-2.4100000000000001
sS'TRP-TRP'
p368
F-4.8390000000000004
sS'MET-CYS'
p369
F-1.829
sS'ALA-GLU'
p370
F-1.9810000000000001
sS'THR-PRO'
p371
F-2.7610000000000001
sS'HIS-ALA'
p372
F-1.9790000000000001
sS'GLN-ILE'
p373
F-2.8940000000000001
sS'GLU-VAL'
p374
F-1.839
sS'LYS-ASN'
p375
F-2.6040000000000001
sS'ASN-ALA'
p376
F-2.0790000000000002
sS'THR-ILE'
p377
F-1.909
sS'ASP-CYS'
p378
F-1.417
sS'PRO-LYS'
p379
F-2.9340000000000002
sS'TYR-TYR'
p380
F-4.5140000000000002
sS'ARG-LYS'
p381
F-3.0289999999999999
sS'ILE-ALA'
p382
F-2.2629999999999999
sS'ASP-SER'
p383
F-2.0790000000000002
sS'CYS-LYS'
p384
F-1.452
sS'GLU-ALA'
p385
F-1.837
sS'PHE-GLU'
p386
F-2.5659999999999998
sS'GLU-LEU'
p387
F-2.0710000000000002
sS'PHE-GLY'
p388
F-2.4319999999999999
sS'LYS-HIS'
p389
F-2.7309999999999999
sS'HIS-PRO'
p390
F-2.8700000000000001
sS'ILE-ILE'
p391
F-2.758
sS'MET-HIS'
p392
F-2.3690000000000002
sS'VAL-GLY'
p393
F-2.0489999999999999
sS'THR-MET'
p394
F-1.845
sS'PHE-THR'
p395
F-2.5790000000000002
sS'VAL-TRP'
p396
F-2.5550000000000002
sS'PHE-LYS'
p397
F-2.8839999999999999
sS'GLY-PRO'
p398
F-2.7200000000000002
sS'PHE-GLN'
p399
F-3.169
sS'LEU-PHE'
p400
F-2.4340000000000002
s.