(dp1
S'MET-MET'
p2
F-0.48999999999999999
sS'PRO-ILE'
p3
F0.20000000000000001
sS'TYR-LYS'
p4
F-0.315
sS'VAL-ASP'
p5
F0.38
sS'ASP-GLN'
p6
F0.16
sS'HIS-TYR'
p7
F-0.84099999999999997
sS'ASP-GLU'
p8
F0.34300000000000003
sS'ALA-ASP'
p9
F0.57499999999999996
sS'ASP-GLY'
p10
F0.39200000000000002
sS'LEU-VAL'
p11
F0.79200000000000004
sS'TRP-TYR'
p12
F-0.39300000000000002
sS'GLN-TRP'
p13
F-0.13500000000000001
sS'TRP-PHE'
p14
F0.32000000000000001
sS'ARG-TYR'
p15
F-0.46200000000000002
sS'GLU-LYS'
p16
F0.048000000000000001
sS'ILE-HIS'
p17
F0.42499999999999999
sS'LEU-MET'
p18
F1.097
sS'GLU-HIS'
p19
F0.33000000000000002
sS'GLY-THR'
p20
F0.219
sS'ARG-GLU'
p21
F-0.36399999999999999
sS'PHE-ASN'
p22
F-0.20899999999999999
sS'ASN-MET'
p23
F0.30599999999999999
sS'PRO-THR'
p24
F0.014999999999999999
sS'TYR-GLN'
p25
F-0.51600000000000001
sS'ARG-GLY'
p26
F-0.88800000000000001
sS'VAL-THR'
p27
F0.20599999999999999
sS'ASP-ILE'
p28
F0.70199999999999996
sS'THR-HIS'
p29
F-0.082000000000000003
sS'TYR-GLU'
p30
F-0.41299999999999998
sS'ARG-GLN'
p31
F-0.76000000000000001
sS'TYR-GLY'
p32
F-0.40200000000000002
sS'PHE-ASP'
p33
F0.068000000000000005
sS'CYS-ARG'
p34
F-0.23000000000000001
sS'GLY-ASN'
p35
F-0.64400000000000002
sS'VAL-LYS'
p36
F0.40500000000000003
sS'LEU-ILE'
p37
F0.54300000000000004
sS'GLN-LEU'
p38
F0.076999999999999999
sS'GLU-MET'
p39
F0.57799999999999996
sS'ASP-THR'
p40
F0.23799999999999999
sS'ASN-PHE'
p41
F-0.28299999999999997
sS'GLU-PRO'
p42
F0.052999999999999999
sS'TYR-LEU'
p43
F-0.066000000000000003
sS'LYS-ARG'
p44
F-0.22700000000000001
sS'GLY-ASP'
p45
F0.27300000000000002
sS'PRO-GLN'
p46
F-0.34000000000000002
sS'CYS-MET'
p47
F1.3080000000000001
sS'HIS-ARG'
p48
F-0.34999999999999998
sS'GLU-THR'
p49
F0.085000000000000006
sS'ILE-THR'
p50
F0.876
sS'SER-PRO'
p51
F-0.26600000000000001
sS'GLY-CYS'
p52
F-0.058000000000000003
sS'ARG-LEU'
p53
F-0.070000000000000007
sS'PRO-GLU'
p54
F-0.099000000000000005
sS'ASP-LEU'
p55
F0.70199999999999996
sS'PHE-VAL'
p56
F0.92700000000000005
sS'ASN-VAL'
p57
F0.17699999999999999
sS'ALA-MET'
p58
F0.35999999999999999
sS'LEU-PRO'
p59
F0.40600000000000003
sS'LEU-SER'
p60
F0.56200000000000006
sS'ASN-ARG'
p61
F-0.70099999999999996
sS'SER-THR'
p62
F0.20499999999999999
sS'LYS-VAL'
p63
F0.38100000000000001
sS'LYS-GLN'
p64
F-0.23000000000000001
sS'GLN-VAL'
p65
F0.59699999999999998
sS'TYR-PHE'
p66
F-0.21299999999999999
sS'ASP-VAL'
p67
F0.83699999999999997
sS'ASN-GLY'
p68
F-0.374
sS'ARG-PHE'
p69
F-0.39800000000000002
sS'SER-HIS'
p70
F-0.28100000000000003
sS'ALA-ILE'
p71
F0.59999999999999998
sS'ASN-GLU'
p72
F-0.16500000000000001
sS'CYS-GLN'
p73
F0.32400000000000001
sS'TYR-PRO'
p74
F-0.26600000000000001
sS'LYS-GLU'
p75
F-0.182
sS'CYS-GLU'
p76
F1.2190000000000001
sS'ASN-GLN'
p77
F-0.307
sS'CYS-GLY'
p78
F1
sS'GLN-SER'
p79
F-0.27100000000000002
sS'HIS-LYS'
p80
F-0.128
sS'LYS-GLY'
p81
F-0.224
sS'VAL-MET'
p82
F0.81999999999999995
sS'GLU-GLY'
p83
F0.012999999999999999
sS'THR-SER'
p84
F0.46200000000000002
sS'TYR-THR'
p85
F-0.23300000000000001
sS'PRO-PRO'
p86
F-0.68899999999999995
sS'ILE-PHE'
p87
F0.23799999999999999
sS'PHE-LEU'
p88
F0.24199999999999999
sS'GLU-GLU'
p89
F0.41499999999999998
sS'SER-ARG'
p90
F-0.45700000000000002
sS'GLY-ALA'
p91
F0.53200000000000003
sS'TYR-ASN'
p92
F-0.68799999999999994
sS'GLU-GLN'
p93
F-0.21099999999999999
sS'TRP-ARG'
p94
F-0.33900000000000002
sS'LEU-GLU'
p95
F0.621
sS'LEU-GLY'
p96
F0.56100000000000005
sS'LYS-SER'
p97
F-0.14799999999999999
sS'MET-VAL'
p98
F0.71499999999999997
sS'SER-ALA'
p99
F0.17199999999999999
sS'PRO-HIS'
p100
F-0.41199999999999998
sS'MET-THR'
p101
F0.46500000000000002
sS'ALA-PHE'
p102
F-0.193
sS'MET-PRO'
p103
F0.315
sS'GLY-SER'
p104
F0.13600000000000001
sS'LEU-GLN'
p105
F-0.02
sS'VAL-LEU'
p106
F0.70699999999999996
sS'LEU-CYS'
p107
F0.77200000000000002
sS'LYS-TYR'
p108
F-0.112
sS'ASP-ALA'
p109
F0.72199999999999998
sS'ILE-LEU'
p110
F0.65300000000000002
sS'TRP-VAL'
p111
F-0.056000000000000001
sS'PHE-PRO'
p112
F-0.251
sS'ALA-ALA'
p113
F0.104
sS'ARG-TRP'
p114
F-0.45200000000000001
sS'MET-GLN'
p115
F0.084000000000000005
sS'ILE-LYS'
p116
F0.49299999999999999
sS'MET-ARG'
p117
F0.20300000000000001
sS'ALA-CYS'
p118
F0.64800000000000002
sS'THR-ARG'
p119
F0.27900000000000003
sS'CYS-ILE'
p120
F0.51300000000000001
sS'LEU-ASN'
p121
F-0.0089999999999999993
sS'LEU-ASP'
p122
F0.82699999999999996
sS'PHE-TRP'
p123
F-0.105
sS'MET-GLY'
p124
F0.83599999999999997
sS'THR-PHE'
p125
F0.53700000000000003
sS'MET-GLU'
p126
F0.13900000000000001
sS'THR-TRP'
p127
F0.93799999999999994
sS'THR-TYR'
p128
F-0.46300000000000002
sS'CYS-VAL'
p129
F0.52600000000000002
sS'ARG-ALA'
p130
F-0.089999999999999997
sS'ALA-TYR'
p131
F-0.29799999999999999
sS'ASP-PRO'
p132
F0.042000000000000003
sS'ARG-CYS'
p133
F0.16700000000000001
sS'GLN-ARG'
p134
F-0.51400000000000001
sS'HIS-TRP'
p135
F0.63100000000000001
sS'PRO-SER'
p136
F0.19600000000000001
sS'VAL-VAL'
p137
F0.50700000000000001
sS'LEU-LYS'
p138
F0.502
sS'GLY-LYS'
p139
F-0.42499999999999999
sS'CYS-ASN'
p140
F0.91100000000000003
sS'GLY-TRP'
p141
F-0.251
sS'THR-CYS'
p142
F1.0680000000000001
sS'LYS-LYS'
p143
F0.246
sS'CYS-ASP'
p144
F1.1140000000000001
sS'TYR-ASP'
p145
F-0.29499999999999998
sS'VAL-PRO'
p146
F0.622
sS'THR-VAL'
p147
F0.52200000000000002
sS'ASP-TYR'
p148
F-0.39300000000000002
sS'PRO-CYS'
p149
F0.92700000000000005
sS'VAL-SER'
p150
F0.56799999999999995
sS'ARG-HIS'
p151
F-0.75600000000000001
sS'CYS-PRO'
p152
F0.49399999999999999
sS'MET-LYS'
p153
F-0.35299999999999998
sS'ALA-SER'
p154
F0.26500000000000001
sS'TYR-SER'
p155
F-0.46600000000000003
sS'GLY-ARG'
p156
F-0.65000000000000002
sS'GLN-ALA'
p157
F0.039
sS'MET-LEU'
p158
F0.71899999999999997
sS'ASN-HIS'
p159
F-0.115
sS'VAL-CYS'
p160
F0.96099999999999997
sS'GLN-TYR'
p161
F-0.375
sS'GLN-PHE'
p162
F-0.18099999999999999
sS'ILE-ASN'
p163
F0.61299999999999999
sS'GLU-ASN'
p164
F-0.108
sS'CYS-ALA'
p165
F0.313
sS'ASN-ASP'
p166
F-0.20699999999999999
sS'ASN-PRO'
p167
F-0.23000000000000001
sS'PRO-ARG'
p168
F-0.34799999999999998
sS'LYS-TRP'
p169
F-0.123
sS'ASN-ASN'
p170
F-0.86499999999999999
sS'ASN-THR'
p171
F-0.35299999999999998
sS'THR-ALA'
p172
F0.85499999999999998
sS'LYS-ALA'
p173
F0.26400000000000001
sS'LYS-PRO'
p174
F-0.10299999999999999
sS'SER-GLN'
p175
F-0.122
sS'ILE-VAL'
p176
F0.73399999999999999
sS'ASP-ARG'
p177
F-0.74199999999999999
sS'ASP-MET'
p178
F0.83399999999999996
sS'CYS-TYR'
p179
F0.55800000000000005
sS'PRO-TRP'
p180
F-0.436
sS'THR-GLU'
p181
F0.051999999999999998
sS'TRP-ALA'
p182
F0.076999999999999999
sS'ILE-CYS'
p183
F0.81699999999999995
sS'LYS-ILE'
p184
F0.504
sS'GLN-CYS'
p185
F0.57099999999999995
sS'TYR-ALA'
p186
F-0.312
sS'ARG-ASP'
p187
F-0.82399999999999995
sS'SER-GLU'
p188
F-0.13400000000000001
sS'TRP-HIS'
p189
F-0.34499999999999997
sS'ALA-ASN'
p190
F0.192
sS'GLU-CYS'
p191
F0.83299999999999996
sS'PRO-MET'
p192
F0.40899999999999997
sS'TYR-HIS'
p193
F-0.41299999999999998
sS'PHE-MET'
p194
F-0.10199999999999999
sS'GLU-TYR'
p195
F-0.25800000000000001
sS'SER-TRP'
p196
F-0.16400000000000001
sS'PHE-ARG'
p197
F-0.17499999999999999
sS'GLY-ILE'
p198
F0.85199999999999998
sS'TYR-VAL'
p199
F0.34200000000000003
sS'ASN-TYR'
p200
F-0.51100000000000001
sS'SER-ILE'
p201
F0.36799999999999999
sS'GLN-PRO'
p202
F-0.26100000000000001
sS'PHE-TYR'
p203
F-0.13600000000000001
sS'ALA-VAL'
p204
F0.43099999999999999
sS'HIS-HIS'
p205
F-1.9059999999999999
sS'THR-ASN'
p206
F-0.185
sS'CYS-LEU'
p207
F0.77400000000000002
sS'LYS-MET'
p208
F-0.034000000000000002
sS'LYS-ASP'
p209
F-0.48299999999999998
sS'HIS-ASN'
p210
F-0.29599999999999999
sS'ILE-GLN'
p211
F0.22700000000000001
sS'VAL-HIS'
p212
F0.79200000000000004
sS'ALA-LEU'
p213
F0.34100000000000003
sS'HIS-ASP'
p214
F-0.34399999999999997
sS'ILE-TYR'
p215
F0.23300000000000001
sS'ILE-GLU'
p216
F0.51900000000000002
sS'ILE-GLY'
p217
F0.76900000000000002
sS'ASN-CYS'
p218
F0.86099999999999999
sS'GLU-SER'
p219
F-0.29499999999999998
sS'ALA-TRP'
p220
F0.13400000000000001
sS'HIS-CYS'
p221
F0.38900000000000001
sS'HIS-MET'
p222
F0.159
sS'ILE-PRO'
p223
F-0.021999999999999999
sS'LYS-PHE'
p224
F-0.041000000000000002
sS'TRP-PRO'
p225
F-0.11799999999999999
sS'GLU-TRP'
p226
F0.20399999999999999
sS'PHE-HIS'
p227
F0.29799999999999999
sS'GLY-TYR'
p228
F-0.49299999999999999
sS'SER-GLY'
p229
F-0.059999999999999998
sS'CYS-TRP'
p230
F0.629
sS'ASP-LYS'
p231
F-0.42899999999999999
sS'ASN-ILE'
p232
F0.084000000000000005
sS'HIS-SER'
p233
F-0.050999999999999997
sS'LYS-CYS'
p234
F0.35399999999999998
sS'GLY-PHE'
p235
F0.19400000000000001
sS'GLY-LEU'
p236
F0.72599999999999998
sS'MET-SER'
p237
F0.36499999999999999
sS'VAL-ALA'
p238
F0.34899999999999998
sS'SER-LEU'
p239
F0.74399999999999999
sS'TRP-LYS'
p240
F0.050999999999999997
sS'VAL-TYR'
p241
F0.29599999999999999
sS'VAL-PHE'
p242
F0.28000000000000003
sS'ARG-THR'
p243
F0.155
sS'TYR-TRP'
p244
F-0.27000000000000002
sS'GLN-GLN'
p245
F-0.72699999999999998
sS'GLU-PHE'
p246
F-0.11700000000000001
sS'VAL-ILE'
p247
F0.68400000000000005
sS'HIS-GLN'
p248
F0.39100000000000001
sS'GLN-GLY'
p249
F-0.70299999999999996
sS'PHE-ALA'
p250
F-0.072999999999999995
sS'HIS-GLU'
p251
F-0.48899999999999999
sS'ARG-PRO'
p252
F-0.74099999999999999
sS'HIS-GLY'
p253
F-0.083000000000000004
sS'SER-ASN'
p254
F-0.105
sS'ALA-THR'
p255
F0.72699999999999998
sS'GLN-GLU'
p256
F-0.216
sS'GLN-LYS'
p257
F-0.48399999999999999
sS'CYS-HIS'
p258
F0.56999999999999995
sS'GLN-ASP'
p259
F-0.0040000000000000001
sS'LEU-HIS'
p260
F0.34599999999999997
sS'SER-LYS'
p261
F-0.25
sS'TRP-LEU'
p262
F0.31900000000000001
sS'CYS-SER'
p263
F0.96099999999999997
sS'LYS-THR'
p264
F0.17599999999999999
sS'HIS-LEU'
p265
F0.501
sS'LEU-ARG'
p266
F0.031
sS'GLY-VAL'
p267
F0.72199999999999998
sS'GLN-ASN'
p268
F-0.11899999999999999
sS'TYR-ARG'
p269
F-0.16500000000000001
sS'PRO-TYR'
p270
F-0.57399999999999995
sS'ASP-PHE'
p271
F0.14199999999999999
sS'TRP-CYS'
p272
F0.81999999999999995
sS'ASN-LEU'
p273
F0.183
sS'SER-MET'
p274
F0.109
sS'HIS-ILE'
p275
F0.40799999999999997
sS'SER-TYR'
p276
F-0.51800000000000002
sS'MET-TYR'
p277
F-0.23200000000000001
sS'GLU-ILE'
p278
F0.57699999999999996
sS'PHE-CYS'
p279
F-0.031
sS'PRO-LEU'
p280
F0.29399999999999998
sS'GLY-MET'
p281
F0.67400000000000004
sS'ARG-ILE'
p282
F0.22600000000000001
sS'HIS-THR'
p283
F-0.315
sS'THR-GLN'
p284
F-0.34999999999999998
sS'TRP-THR'
p285
F0.63100000000000001
sS'LYS-LEU'
p286
F0.42199999999999999
sS'THR-GLY'
p287
F0.13200000000000001
sS'ASP-TRP'
p288
F0.42099999999999999
sS'TYR-MET'
p289
F-0.17799999999999999
sS'PHE-ILE'
p290
F0.53800000000000003
sS'PRO-VAL'
p291
F0.54500000000000004
sS'MET-ASN'
p292
F0.070000000000000007
sS'LEU-TYR'
p293
F-0.158
sS'PHE-PHE'
p294
F-0.26000000000000001
sS'CYS-PHE'
p295
F0.60099999999999998
sS'TRP-ILE'
p296
F0.40600000000000003
sS'PRO-ASN'
p297
F0.114
sS'CYS-CYS'
p298
F-3.1800000000000002
sS'SER-ASP'
p299
F0.052999999999999999
sS'ARG-MET'
p300
F0.35899999999999999
sS'SER-PHE'
p301
F0.025000000000000001
sS'SER-SER'
p302
F-0.49299999999999999
sS'ASN-LYS'
p303
F-0.51700000000000002
sS'CYS-THR'
p304
F1.411
sS'ILE-TRP'
p305
F0.24099999999999999
sS'PRO-ASP'
p306
F0.0060000000000000001
sS'THR-ASP'
p307
F0.16300000000000001
sS'SER-CYS'
p308
F1.0609999999999999
sS'MET-ASP'
p309
F0.33800000000000002
sS'GLN-MET'
p310
F0.20000000000000001
sS'MET-TRP'
p311
F-0.19
sS'ARG-VAL'
p312
F-0.13400000000000001
sS'GLY-GLN'
p313
F-0.44
sS'THR-LYS'
p314
F0.23100000000000001
sS'TRP-MET'
p315
F0.21099999999999999
sS'ARG-ARG'
p316
F-1.206
sS'ILE-ASP'
p317
F0.78600000000000003
sS'ALA-ARG'
p318
F0.040000000000000001
sS'GLY-GLU'
p319
F0.28399999999999997
sS'ASN-TRP'
p320
F-0.050000000000000003
sS'GLU-ARG'
p321
F-0.53800000000000003
sS'HIS-VAL'
p322
F0.65100000000000002
sS'VAL-ARG'
p323
F0.024
sS'ASN-SER'
p324
F-0.253
sS'ALA-LYS'
p325
F0.31
sS'VAL-GLN'
p326
F0.16200000000000001
sS'TRP-ASN'
p327
F-0.191
sS'TYR-ILE'
p328
F-0.22
sS'TRP-GLY'
p329
F-0.13700000000000001
sS'PRO-PHE'
p330
F-0.33600000000000002
sS'GLY-HIS'
p331
F-0.28100000000000003
sS'PHE-SER'
p332
F-0.001
sS'TRP-ASP'
p333
F0.127
sS'TRP-GLN'
p334
F-0.26200000000000001
sS'LEU-ALA'
p335
F0.61099999999999999
sS'VAL-GLU'
p336
F0.873
sS'ALA-HIS'
p337
F0.0060000000000000001
sS'ARG-ASN'
p338
F-0.58999999999999997
sS'LEU-THR'
p339
F0.69999999999999996
sS'TYR-CYS'
p340
F0.61199999999999999
sS'THR-THR'
p341
F-0.023
sS'THR-LEU'
p342
F0.66200000000000003
sS'VAL-ASN'
p343
F0.040000000000000001
sS'LEU-TRP'
p344
F-0.066000000000000003
sS'GLU-ASP'
p345
F0.47399999999999998
sS'ILE-SER'
p346
F0.64800000000000002
sS'ILE-ARG'
p347
F-0.040000000000000001
sS'TRP-GLU'
p348
F-0.11700000000000001
sS'ILE-MET'
p349
F0.47599999999999998
sS'MET-PHE'
p350
F0.097000000000000003
sS'PRO-ALA'
p351
F-0.255
sS'PRO-GLY'
p352
F0.309
sS'GLN-THR'
p353
F-0.311
sS'MET-ALA'
p354
F0.58299999999999996
sS'TRP-SER'
p355
F-0.053999999999999999
sS'ASP-HIS'
p356
F0.24399999999999999
sS'ARG-SER'
p357
F-0.54200000000000004
sS'GLN-HIS'
p358
F0.025999999999999999
sS'HIS-PHE'
p359
F0.0030000000000000001
sS'LEU-LEU'
p360
F1.022
sS'ALA-GLN'
p361
F-0.23999999999999999
sS'ASP-ASN'
p362
F-0.037999999999999999
sS'SER-VAL'
p363
F0.66600000000000004
sS'MET-ILE'
p364
F0.69399999999999995
sS'ALA-PRO'
p365
F0.437
sS'ASP-ASP'
p366
F-0.0060000000000000001
sS'ALA-GLY'
p367
F0.66200000000000003
sS'TRP-TRP'
p368
F-0.96899999999999997
sS'MET-CYS'
p369
F1.381
sS'ALA-GLU'
p370
F0.44800000000000001
sS'THR-PRO'
p371
F-0.35799999999999998
sS'HIS-ALA'
p372
F0.60999999999999999
sS'GLN-ILE'
p373
F0.040000000000000001
sS'GLU-VAL'
p374
F0.57899999999999996
sS'LYS-ASN'
p375
F-0.34899999999999998
sS'ASN-ALA'
p376
F0.20100000000000001
sS'THR-ILE'
p377
F0.79000000000000004
sS'ASP-CYS'
p378
F1.2230000000000001
sS'PRO-LYS'
p379
F-0.436
sS'TYR-TYR'
p380
F-1.1479999999999999
sS'ARG-LYS'
p381
F-0.41599999999999998
sS'ILE-ALA'
p382
F0.71299999999999997
sS'ASP-SER'
p383
F0.094
sS'CYS-LYS'
p384
F1.1040000000000001
sS'GLU-ALA'
p385
F0.441
sS'PHE-GLU'
p386
F0.089999999999999997
sS'GLU-LEU'
p387
F0.54300000000000004
sS'PHE-GLY'
p388
F0.083000000000000004
sS'LYS-HIS'
p389
F-0.059999999999999998
sS'HIS-PRO'
p390
F-0.28799999999999998
sS'ILE-ILE'
p391
F0.70299999999999996
sS'MET-HIS'
p392
F0.30599999999999999
sS'VAL-GLY'
p393
F0.58299999999999996
sS'THR-MET'
p394
F0.76300000000000001
sS'PHE-THR'
p395
F0.42099999999999999
sS'VAL-TRP'
p396
F0.42399999999999999
sS'PHE-LYS'
p397
F0.14699999999999999
sS'GLY-PRO'
p398
F-0.13900000000000001
sS'PHE-GLN'
p399
F-0.26800000000000002
sS'LEU-PHE'
p400
F0.433
s.