(dp1
S'MET-MET'
p2
F-0.23400000000000001
sS'PRO-ILE'
p3
F0.745
sS'TYR-LYS'
p4
F0.63600000000000001
sS'VAL-ASP'
p5
F1.069
sS'ASP-GLN'
p6
F1.194
sS'HIS-TYR'
p7
F0.035999999999999997
sS'ASP-GLU'
p8
F1.272
sS'ALA-ASP'
p9
F1.3149999999999999
sS'ASP-GLY'
p10
F1.512
sS'LEU-VAL'
p11
F1.24
sS'TRP-TYR'
p12
F0.77000000000000002
sS'GLN-TRP'
p13
F1.1539999999999999
sS'TRP-PHE'
p14
F1.232
sS'ARG-TYR'
p15
F0.54400000000000004
sS'GLU-LYS'
p16
F0.93100000000000005
sS'ILE-HIS'
p17
F1.3380000000000001
sS'LEU-MET'
p18
F1.746
sS'GLU-HIS'
p19
F1.329
sS'GLY-THR'
p20
F1.006
sS'ARG-GLU'
p21
F0.627
sS'PHE-ASN'
p22
F0.78200000000000003
sS'ASN-MET'
p23
F1.3069999999999999
sS'PRO-THR'
p24
F0.65300000000000002
sS'TYR-GLN'
p25
F0.442
sS'ARG-GLY'
p26
F0.26400000000000001
sS'VAL-THR'
p27
F0.749
sS'ASP-ILE'
p28
F1.421
sS'THR-HIS'
p29
F0.80100000000000005
sS'TYR-GLU'
p30
F0.48399999999999999
sS'ARG-GLN'
p31
F0.251
sS'TYR-GLY'
p32
F0.80700000000000005
sS'PHE-ASP'
p33
F0.92200000000000004
sS'CYS-ARG'
p34
F0.64500000000000002
sS'GLY-ASN'
p35
F0.374
sS'VAL-LYS'
p36
F1.091
sS'LEU-ILE'
p37
F1.044
sS'GLN-LEU'
p38
F0.93400000000000005
sS'GLU-MET'
p39
F1.512
sS'ASP-THR'
p40
F1.179
sS'ASN-PHE'
p41
F0.69599999999999995
sS'GLU-PRO'
p42
F0.83599999999999997
sS'TYR-LEU'
p43
F0.81499999999999995
sS'LYS-ARG'
p44
F0.82699999999999996
sS'GLY-ASP'
p45
F1.365
sS'PRO-GLN'
p46
F0.56000000000000005
sS'CYS-MET'
p47
F2.0619999999999998
sS'HIS-ARG'
p48
F0.64000000000000001
sS'GLU-THR'
p49
F0.96799999999999997
sS'ILE-THR'
p50
F1.5640000000000001
sS'SER-PRO'
p51
F0.38700000000000001
sS'GLY-CYS'
p52
F0.438
sS'ARG-LEU'
p53
F0.82299999999999995
sS'PRO-GLU'
p54
F0.60799999999999998
sS'ASP-LEU'
p55
F1.4099999999999999
sS'PHE-VAL'
p56
F1.585
sS'ASN-VAL'
p57
F1.125
sS'ALA-MET'
p58
F0.88500000000000001
sS'LEU-PRO'
p59
F1.0720000000000001
sS'LEU-SER'
p60
F1.2230000000000001
sS'ASN-ARG'
p61
F0.39700000000000002
sS'SER-THR'
p62
F1.0509999999999999
sS'LYS-VAL'
p63
F1.1319999999999999
sS'LYS-GLN'
p64
F0.71699999999999997
sS'GLN-VAL'
p65
F1.53
sS'TYR-PHE'
p66
F0.75900000000000001
sS'ASP-VAL'
p67
F1.5680000000000001
sS'ASN-GLY'
p68
F0.67100000000000004
sS'ARG-PHE'
p69
F0.68999999999999995
sS'SER-HIS'
p70
F0.72799999999999998
sS'ALA-ILE'
p71
F1.006
sS'ASN-GLU'
p72
F0.79900000000000004
sS'CYS-GLN'
p73
F1.2529999999999999
sS'TYR-PRO'
p74
F0.65100000000000002
sS'LYS-GLU'
p75
F0.67700000000000005
sS'CYS-GLU'
p76
F2.335
sS'ASN-GLN'
p77
F0.749
sS'CYS-GLY'
p78
F1.577
sS'GLN-SER'
p79
F0.68000000000000005
sS'HIS-LYS'
p80
F0.84299999999999997
sS'LYS-GLY'
p81
F0.71499999999999997
sS'VAL-MET'
p82
F1.27
sS'GLU-GLY'
p83
F1.1439999999999999
sS'THR-SER'
p84
F1.2490000000000001
sS'TYR-THR'
p85
F0.63300000000000001
sS'PRO-PRO'
p86
F-0.64700000000000002
sS'ILE-PHE'
p87
F0.876
sS'PHE-LEU'
p88
F0.93799999999999994
sS'GLU-GLU'
p89
F0.64100000000000001
sS'SER-ARG'
p90
F0.56399999999999995
sS'GLY-ALA'
p91
F0.92200000000000004
sS'TYR-ASN'
p92
F0.45500000000000002
sS'GLU-GLN'
p93
F0.78400000000000003
sS'TRP-ARG'
p94
F0.71799999999999997
sS'LEU-GLU'
p95
F1.363
sS'LEU-GLY'
p96
F1.236
sS'LYS-SER'
p97
F0.67600000000000005
sS'MET-VAL'
p98
F1.214
sS'SER-ALA'
p99
F0.94499999999999995
sS'PRO-HIS'
p100
F0.48299999999999998
sS'MET-THR'
p101
F1.25
sS'ALA-PHE'
p102
F0.64900000000000002
sS'MET-PRO'
p103
F0.81799999999999995
sS'GLY-SER'
p104
F0.98599999999999999
sS'LEU-GLN'
p105
F0.82299999999999995
sS'VAL-LEU'
p106
F1.1919999999999999
sS'LEU-CYS'
p107
F1.2769999999999999
sS'LYS-TYR'
p108
F0.81699999999999995
sS'ASP-ALA'
p109
F1.512
sS'ILE-LEU'
p110
F1.093
sS'TRP-VAL'
p111
F0.70899999999999996
sS'PHE-PRO'
p112
F0.55000000000000004
sS'ALA-ALA'
p113
F-0
sS'ARG-TRP'
p114
F0.626
sS'MET-GLN'
p115
F1.0569999999999999
sS'ILE-LYS'
p116
F1.2549999999999999
sS'MET-ARG'
p117
F1.2070000000000001
sS'ALA-CYS'
p118
F1.107
sS'THR-ARG'
p119
F1.2470000000000001
sS'CYS-ILE'
p120
F1.119
sS'LEU-ASN'
p121
F0.88900000000000001
sS'LEU-ASP'
p122
F1.577
sS'PHE-TRP'
p123
F0.95699999999999996
sS'MET-GLY'
p124
F1.7130000000000001
sS'THR-PHE'
p125
F1.3320000000000001
sS'MET-GLU'
p126
F1.04
sS'THR-TRP'
p127
F1.96
sS'THR-TYR'
p128
F0.36099999999999999
sS'CYS-VAL'
p129
F1.0800000000000001
sS'ARG-ALA'
p130
F0.93200000000000005
sS'ALA-TYR'
p131
F0.68300000000000005
sS'ASP-PRO'
p132
F0.75900000000000001
sS'ARG-CYS'
p133
F1.083
sS'GLN-ARG'
p134
F0.505
sS'HIS-TRP'
p135
F1.5620000000000001
sS'PRO-SER'
p136
F0.85999999999999999
sS'VAL-VAL'
p137
F0.33500000000000002
sS'LEU-LYS'
p138
F1.2290000000000001
sS'GLY-LYS'
p139
F0.499
sS'CYS-ASN'
p140
F1.8600000000000001
sS'GLY-TRP'
p141
F1.1870000000000001
sS'THR-CYS'
p142
F1.669
sS'LYS-LYS'
p143
F0.47499999999999998
sS'CYS-ASP'
p144
F2.0950000000000002
sS'TYR-ASP'
p145
F0.66400000000000003
sS'VAL-PRO'
p146
F1.2010000000000001
sS'THR-VAL'
p147
F1.139
sS'ASP-TYR'
p148
F0.55900000000000005
sS'PRO-CYS'
p149
F1.7070000000000001
sS'VAL-SER'
p150
F1.2589999999999999
sS'ARG-HIS'
p151
F0.32400000000000001
sS'CYS-PRO'
p152
F1.0609999999999999
sS'MET-LYS'
p153
F0.39100000000000001
sS'ALA-SER'
p154
F1.0069999999999999
sS'TYR-SER'
p155
F0.433
sS'GLY-ARG'
p156
F0.50700000000000001
sS'GLN-ALA'
p157
F0.88600000000000001
sS'MET-LEU'
p158
F1.3560000000000001
sS'ASN-HIS'
p159
F0.83299999999999996
sS'VAL-CYS'
p160
F1.3660000000000001
sS'GLN-TYR'
p161
F0.68000000000000005
sS'GLN-PHE'
p162
F0.81999999999999995
sS'ILE-ASN'
p163
F1.514
sS'GLU-ASN'
p164
F0.84999999999999998
sS'CYS-ALA'
p165
F0.63700000000000001
sS'ASN-ASP'
p166
F0.79800000000000004
sS'ASN-PRO'
p167
F0.54100000000000004
sS'PRO-ARG'
p168
F0.60799999999999998
sS'LYS-TRP'
p169
F0.78600000000000003
sS'ASN-ASN'
p170
F-0.505
sS'ASN-THR'
p171
F0.626
sS'THR-ALA'
p172
F1.5189999999999999
sS'LYS-ALA'
p173
F1.1479999999999999
sS'LYS-PRO'
p174
F0.66700000000000004
sS'SER-GLN'
p175
F0.80400000000000005
sS'ILE-VAL'
p176
F1.179
sS'ASP-ARG'
p177
F0.23699999999999999
sS'ASP-MET'
p178
F1.45
sS'CYS-TYR'
p179
F1.454
sS'PRO-TRP'
p180
F0.72399999999999998
sS'THR-GLU'
p181
F0.90200000000000002
sS'TRP-ALA'
p182
F1.052
sS'ILE-CYS'
p183
F1.633
sS'LYS-ILE'
p184
F1.3200000000000001
sS'GLN-CYS'
p185
F1.347
sS'TYR-ALA'
p186
F0.61899999999999999
sS'ARG-ASP'
p187
F0.051999999999999998
sS'SER-GLU'
p188
F0.754
sS'TRP-HIS'
p189
F0.63100000000000001
sS'ALA-ASN'
p190
F1.0840000000000001
sS'GLU-CYS'
p191
F1.72
sS'PRO-MET'
p192
F0.90300000000000002
sS'TYR-HIS'
p193
F0.52400000000000002
sS'PHE-MET'
p194
F0.629
sS'GLU-TYR'
p195
F0.67300000000000004
sS'SER-TRP'
p196
F0.95899999999999996
sS'PHE-ARG'
p197
F0.89000000000000001
sS'GLY-ILE'
p198
F1.627
sS'TYR-VAL'
p199
F1.198
sS'ASN-TYR'
p200
F0.56299999999999994
sS'SER-ILE'
p201
F1.135
sS'GLN-PRO'
p202
F0.55800000000000005
sS'PHE-TYR'
p203
F0.86699999999999999
sS'ALA-VAL'
p204
F0.85499999999999998
sS'HIS-HIS'
p205
F-1.4870000000000001
sS'THR-ASN'
p206
F0.70799999999999996
sS'CYS-LEU'
p207
F1.2789999999999999
sS'LYS-MET'
p208
F0.82199999999999995
sS'LYS-ASP'
p209
F0.44600000000000001
sS'HIS-ASN'
p210
F0.79900000000000004
sS'ILE-GLN'
p211
F1.1439999999999999
sS'VAL-HIS'
p212
F1.5029999999999999
sS'ALA-LEU'
p213
F0.85299999999999998
sS'HIS-ASP'
p214
F0.60799999999999998
sS'ILE-TYR'
p215
F1.0349999999999999
sS'ILE-GLU'
p216
F1.2490000000000001
sS'ILE-GLY'
p217
F1.4370000000000001
sS'ASN-CYS'
p218
F1.8600000000000001
sS'GLU-SER'
p219
F0.66500000000000004
sS'ALA-TRP'
p220
F1.1299999999999999
sS'HIS-CYS'
p221
F1.143
sS'HIS-MET'
p222
F1.038
sS'ILE-PRO'
p223
F0.52200000000000002
sS'LYS-PHE'
p224
F0.89000000000000001
sS'TRP-PRO'
p225
F0.999
sS'GLU-TRP'
p226
F1.224
sS'PHE-HIS'
p227
F1.327
sS'GLY-TYR'
p228
F0.76400000000000001
sS'SER-GLY'
p229
F0.753
sS'CYS-TRP'
p230
F1.5980000000000001
sS'ASP-LYS'
p231
F0.47499999999999998
sS'ASN-ILE'
p232
F1.0800000000000001
sS'HIS-SER'
p233
F0.93700000000000006
sS'LYS-CYS'
p234
F1.228
sS'GLY-PHE'
p235
F1.3480000000000001
sS'GLY-LEU'
p236
F1.4319999999999999
sS'MET-SER'
p237
F0.94499999999999995
sS'VAL-ALA'
p238
F0.72599999999999998
sS'SER-LEU'
p239
F1.389
sS'TRP-LYS'
p240
F1.0840000000000001
sS'VAL-TYR'
p241
F1.2230000000000001
sS'VAL-PHE'
p242
F0.86399999999999999
sS'ARG-THR'
p243
F1.095
sS'TYR-TRP'
p244
F0.60099999999999998
sS'GLN-GLN'
p245
F-0.23999999999999999
sS'GLU-PHE'
p246
F0.753
sS'VAL-ILE'
p247
F1.077
sS'HIS-GLN'
p248
F1.296
sS'GLN-GLY'
p249
F0.40799999999999997
sS'PHE-ALA'
p250
F0.74199999999999999
sS'HIS-GLU'
p251
F0.41899999999999998
sS'ARG-PRO'
p252
F0.21299999999999999
sS'HIS-GLY'
p253
F1.173
sS'SER-ASN'
p254
F0.95599999999999996
sS'ALA-THR'
p255
F1.407
sS'GLN-GLU'
p256
F0.77100000000000002
sS'GLN-LYS'
p257
F0.36399999999999999
sS'CYS-HIS'
p258
F1.6339999999999999
sS'GLN-ASP'
p259
F0.79300000000000004
sS'LEU-HIS'
p260
F1.288
sS'SER-LYS'
p261
F0.58699999999999997
sS'TRP-LEU'
p262
F1.125
sS'CYS-SER'
p263
F1.71
sS'LYS-THR'
p264
F1.028
sS'HIS-LEU'
p265
F1.5820000000000001
sS'LEU-ARG'
p266
F0.91100000000000003
sS'GLY-VAL'
p267
F1.375
sS'GLN-ASN'
p268
F0.94099999999999995
sS'TYR-ARG'
p269
F0.84499999999999997
sS'PRO-TYR'
p270
F0.42499999999999999
sS'ASP-PHE'
p271
F0.995
sS'TRP-CYS'
p272
F1.702
sS'ASN-LEU'
p273
F1.1539999999999999
sS'SER-MET'
p274
F0.67600000000000005
sS'HIS-ILE'
p275
F1.167
sS'SER-TYR'
p276
F0.45000000000000001
sS'MET-TYR'
p277
F0.69499999999999995
sS'GLU-ILE'
p278
F1.381
sS'PHE-CYS'
p279
F0.78400000000000003
sS'PRO-LEU'
p280
F0.85199999999999998
sS'GLY-MET'
p281
F1.6120000000000001
sS'ARG-ILE'
p282
F1.101
sS'HIS-THR'
p283
F0.60099999999999998
sS'THR-GLN'
p284
F0.58399999999999996
sS'TRP-THR'
p285
F1.6120000000000001
sS'LYS-LEU'
p286
F1.1899999999999999
sS'THR-GLY'
p287
F0.90200000000000002
sS'ASP-TRP'
p288
F1.3640000000000001
sS'TYR-MET'
p289
F0.57699999999999996
sS'PHE-ILE'
p290
F1.1000000000000001
sS'PRO-VAL'
p291
F1.155
sS'MET-ASN'
p292
F1.038
sS'LEU-TYR'
p293
F0.76800000000000002
sS'PHE-PHE'
p294
F-0.035000000000000003
sS'CYS-PHE'
p295
F1.3660000000000001
sS'TRP-ILE'
p296
F1.024
sS'PRO-ASN'
p297
F1.0409999999999999
sS'CYS-CYS'
p298
F-2.7719999999999998
sS'SER-ASP'
p299
F0.98099999999999998
sS'ARG-MET'
p300
F1.4239999999999999
sS'SER-PHE'
p301
F0.86199999999999999
sS'SER-SER'
p302
F-0.27400000000000002
sS'ASN-LYS'
p303
F0.42499999999999999
sS'CYS-THR'
p304
F2.1299999999999999
sS'ILE-TRP'
p305
F0.97199999999999998
sS'PRO-ASP'
p306
F0.752
sS'THR-ASP'
p307
F1.046
sS'SER-CYS'
p308
F1.8280000000000001
sS'MET-ASP'
p309
F0.91500000000000004
sS'GLN-MET'
p310
F1.0589999999999999
sS'MET-TRP'
p311
F0.78000000000000003
sS'ARG-VAL'
p312
F0.81100000000000005
sS'GLY-GLN'
p313
F0.70399999999999996
sS'THR-LYS'
p314
F1.046
sS'TRP-MET'
p315
F1.397
sS'ARG-ARG'
p316
F-0.73499999999999999
sS'ILE-ASP'
p317
F1.4790000000000001
sS'ALA-ARG'
p318
F0.999
sS'GLY-GLU'
p319
F1.4419999999999999
sS'ASN-TRP'
p320
F1.171
sS'GLU-ARG'
p321
F0.48199999999999998
sS'HIS-VAL'
p322
F1.4139999999999999
sS'VAL-ARG'
p323
F0.93300000000000005
sS'ASN-SER'
p324
F0.81699999999999995
sS'ALA-LYS'
p325
F1.1539999999999999
sS'VAL-GLN'
p326
F1.032
sS'TRP-ASN'
p327
F1.0149999999999999
sS'TYR-ILE'
p328
F0.56599999999999995
sS'TRP-GLY'
p329
F1.3799999999999999
sS'PRO-PHE'
p330
F0.45700000000000002
sS'GLY-HIS'
p331
F0.94299999999999995
sS'PHE-SER'
p332
F0.84499999999999997
sS'TRP-ASP'
p333
F1.0169999999999999
sS'TRP-GLN'
p334
F0.96199999999999997
sS'LEU-ALA'
p335
F1.141
sS'VAL-GLU'
p336
F1.736
sS'ALA-HIS'
p337
F1.0009999999999999
sS'ARG-ASN'
p338
F0.44900000000000001
sS'LEU-THR'
p339
F1.353
sS'TYR-CYS'
p340
F1.3260000000000001
sS'THR-THR'
p341
F0.098000000000000004
sS'THR-LEU'
p342
F1.2929999999999999
sS'VAL-ASN'
p343
F1.0049999999999999
sS'LEU-TRP'
p344
F0.69799999999999995
sS'GLU-ASP'
p345
F1.393
sS'ILE-SER'
p346
F1.361
sS'ILE-ARG'
p347
F0.86899999999999999
sS'TRP-GLU'
p348
F0.90900000000000003
sS'ILE-MET'
p349
F1.0900000000000001
sS'MET-PHE'
p350
F0.98499999999999999
sS'PRO-ALA'
p351
F0.314
sS'PRO-GLY'
p352
F1
sS'GLN-THR'
p353
F0.53600000000000003
sS'MET-ALA'
p354
F1.2909999999999999
sS'TRP-SER'
p355
F1.117
sS'ASP-HIS'
p356
F1.23
sS'ARG-SER'
p357
F0.48599999999999999
sS'GLN-HIS'
p358
F0.84299999999999997
sS'HIS-PHE'
p359
F0.98999999999999999
sS'LEU-LEU'
p360
F0.93400000000000005
sS'ALA-GLN'
p361
F0.59599999999999997
sS'ASP-ASN'
p362
F0.91000000000000003
sS'SER-VAL'
p363
F1.3049999999999999
sS'MET-ILE'
p364
F1.3080000000000001
sS'ALA-PRO'
p365
F1.0589999999999999
sS'ASP-ASP'
p366
F0.36499999999999999
sS'ALA-GLY'
p367
F1.121
sS'TRP-TRP'
p368
F-0.50600000000000001
sS'MET-CYS'
p369
F2.0350000000000001
sS'ALA-GLU'
p370
F1.2470000000000001
sS'THR-PRO'
p371
F0.224
sS'HIS-ALA'
p372
F1.599
sS'GLN-ILE'
p373
F0.93500000000000005
sS'GLU-VAL'
p374
F1.331
sS'LYS-ASN'
p375
F0.57599999999999996
sS'ASN-ALA'
p376
F1.1060000000000001
sS'THR-ILE'
p377
F1.3240000000000001
sS'ASP-CYS'
p378
F2.262
sS'PRO-LYS'
p379
F0.223
sS'TYR-TYR'
p380
F-0.77000000000000002
sS'ARG-LYS'
p381
F0.53700000000000003
sS'ILE-ALA'
p382
F1.194
sS'ASP-SER'
p383
F1.0209999999999999
sS'CYS-LYS'
p384
F2.1400000000000001
sS'GLU-ALA'
p385
F1.3009999999999999
sS'PHE-GLU'
p386
F0.89200000000000002
sS'GLU-LEU'
p387
F1.3540000000000001
sS'PHE-GLY'
p388
F1.2070000000000001
sS'LYS-HIS'
p389
F0.83699999999999997
sS'HIS-PRO'
p390
F0.626
sS'ILE-ILE'
p391
F0.53500000000000003
sS'MET-HIS'
p392
F1.109
sS'VAL-GLY'
p393
F1.224
sS'THR-MET'
p394
F1.506
sS'PHE-THR'
p395
F1.149
sS'VAL-TRP'
p396
F1.2110000000000001
sS'PHE-LYS'
p397
F1.0720000000000001
sS'GLY-PRO'
p398
F0.57899999999999996
sS'PHE-GLN'
p399
F0.70199999999999996
sS'LEU-PHE'
p400
F1.121
s.