(dp1
S'MET-MET'
p2
F-0.77200000000000002
sS'PRO-ILE'
p3
F0.111
sS'TYR-LYS'
p4
F-0.41599999999999998
sS'VAL-ASP'
p5
F0.33500000000000002
sS'ASP-GLN'
p6
F-0.26900000000000002
sS'HIS-TYR'
p7
F-0.80300000000000005
sS'ASP-GLU'
p8
F-0.11
sS'ALA-ASP'
p9
F0.23100000000000001
sS'ASP-GLY'
p10
F-0.193
sS'LEU-VAL'
p11
F0.38200000000000001
sS'TRP-TYR'
p12
F-0.42199999999999999
sS'GLN-TRP'
p13
F-0.251
sS'TRP-PHE'
p14
F-0.17000000000000001
sS'ARG-TYR'
p15
F-0.72299999999999998
sS'GLU-LYS'
p16
F-0.30199999999999999
sS'ILE-HIS'
p17
F0.067000000000000004
sS'LEU-MET'
p18
F0.51000000000000001
sS'GLU-HIS'
p19
F-0.19800000000000001
sS'GLY-THR'
p20
F-0.49099999999999999
sS'ARG-GLU'
p21
F-0.70199999999999996
sS'PHE-ASN'
p22
F-0.32800000000000001
sS'ASN-MET'
p23
F0.20999999999999999
sS'PRO-THR'
p24
F-0.38400000000000001
sS'TYR-GLN'
p25
F-0.50800000000000001
sS'ARG-GLY'
p26
F-1.296
sS'VAL-THR'
p27
F0.10000000000000001
sS'ASP-ILE'
p28
F0.185
sS'THR-HIS'
p29
F-0.33400000000000002
sS'TYR-GLU'
p30
F-0.33100000000000002
sS'ARG-GLN'
p31
F-0.76000000000000001
sS'TYR-GLY'
p32
F-0.97299999999999998
sS'PHE-ASP'
p33
F-0.080000000000000002
sS'CYS-ARG'
p34
F0.187
sS'GLY-ASN'
p35
F-1.0820000000000001
sS'VAL-LYS'
p36
F0.313
sS'LEU-ILE'
p37
F0.33200000000000002
sS'GLN-LEU'
p38
F-0.082000000000000003
sS'GLU-MET'
p39
F-0.014999999999999999
sS'ASP-THR'
p40
F-0.122
sS'ASN-PHE'
p41
F-0.309
sS'GLU-PRO'
p42
F-0.39000000000000001
sS'TYR-LEU'
p43
F-0.32800000000000001
sS'LYS-ARG'
p44
F-0.40799999999999997
sS'GLY-ASP'
p45
F-0.35499999999999998
sS'PRO-GLN'
p46
F-0.63200000000000001
sS'CYS-MET'
p47
F1
sS'HIS-ARG'
p48
F-0.39700000000000002
sS'GLU-THR'
p49
F-0.22500000000000001
sS'ILE-THR'
p50
F0.52100000000000002
sS'SER-PRO'
p51
F-0.435
sS'GLY-CYS'
p52
F-0.66700000000000004
sS'ARG-LEU'
p53
F-0.44400000000000001
sS'PRO-GLU'
p54
F-0.41199999999999998
sS'ASP-LEU'
p55
F0.254
sS'PHE-VAL'
p56
F0.26400000000000001
sS'ASN-VAL'
p57
F0.039
sS'ALA-MET'
p58
F0.56000000000000005
sS'LEU-PRO'
p59
F0.057000000000000002
sS'LEU-SER'
p60
F0.252
sS'ASN-ARG'
p61
F-0.77200000000000002
sS'SER-THR'
p62
F-0.025999999999999999
sS'LYS-VAL'
p63
F0.255
sS'LYS-GLN'
p64
F-0.441
sS'GLN-VAL'
p65
F0.10000000000000001
sS'TYR-PHE'
p66
F-0.19900000000000001
sS'ASP-VAL'
p67
F0.39700000000000002
sS'ASN-GLY'
p68
F-0.92900000000000005
sS'ARG-PHE'
p69
F-0.64600000000000002
sS'SER-HIS'
p70
F-0.56299999999999994
sS'ALA-ILE'
p71
F0.23200000000000001
sS'ASN-GLU'
p72
F-0.38100000000000001
sS'CYS-GLN'
p73
F0.20200000000000001
sS'TYR-PRO'
p74
F-0.61899999999999999
sS'LYS-GLU'
p75
F-0.40799999999999997
sS'CYS-GLU'
p76
F1.0049999999999999
sS'ASN-GLN'
p77
F-0.75900000000000001
sS'CYS-GLY'
p78
F0.40600000000000003
sS'GLN-SER'
p79
F-0.80400000000000005
sS'HIS-LYS'
p80
F-0.22600000000000001
sS'LYS-GLY'
p81
F-0.65900000000000003
sS'VAL-MET'
p82
F0.70099999999999996
sS'GLU-GLY'
p83
F-0.50900000000000001
sS'THR-SER'
p84
F-0.012
sS'TYR-THR'
p85
F-0.59599999999999997
sS'PRO-PRO'
p86
F-1.0569999999999999
sS'ILE-PHE'
p87
F0.13900000000000001
sS'PHE-LEU'
p88
F0.085000000000000006
sS'GLU-GLU'
p89
F-0.46600000000000003
sS'SER-ARG'
p90
F-0.75
sS'GLY-ALA'
p91
F-0.029999999999999999
sS'TYR-ASN'
p92
F-0.83599999999999997
sS'GLU-GLN'
p93
F-0.34399999999999997
sS'TRP-ARG'
p94
F-0.27700000000000002
sS'LEU-GLU'
p95
F0.29199999999999998
sS'LEU-GLY'
p96
F-0.01
sS'LYS-SER'
p97
F-0.22500000000000001
sS'MET-VAL'
p98
F0.58799999999999997
sS'SER-ALA'
p99
F-0.0040000000000000001
sS'PRO-HIS'
p100
F-0.60699999999999998
sS'MET-THR'
p101
F0.20100000000000001
sS'ALA-PHE'
p102
F-0.39000000000000001
sS'MET-PRO'
p103
F0.14099999999999999
sS'GLY-SER'
p104
F-0.35599999999999998
sS'LEU-GLN'
p105
F-0.13600000000000001
sS'VAL-LEU'
p106
F0.39200000000000002
sS'LEU-CYS'
p107
F0.51000000000000001
sS'LYS-TYR'
p108
F-0.30399999999999999
sS'ASP-ALA'
p109
F0.38200000000000001
sS'ILE-LEU'
p110
F0.313
sS'TRP-VAL'
p111
F-0.221
sS'PHE-PRO'
p112
F-0.39800000000000002
sS'ALA-ALA'
p113
F-0.17799999999999999
sS'ARG-TRP'
p114
F-0.59599999999999997
sS'MET-GLN'
p115
F-0.29799999999999999
sS'ILE-LYS'
p116
F0.38900000000000001
sS'MET-ARG'
p117
F0.012
sS'ALA-CYS'
p118
F0.67000000000000004
sS'THR-ARG'
p119
F-0.373
sS'CYS-ILE'
p120
F0.42999999999999999
sS'LEU-ASN'
p121
F-0.14899999999999999
sS'LEU-ASP'
p122
F0.376
sS'PHE-TRP'
p123
F-0.19
sS'MET-GLY'
p124
F0.187
sS'THR-PHE'
p125
F-0.218
sS'MET-GLU'
p126
F-0.089999999999999997
sS'THR-TRP'
p127
F0.221
sS'THR-TYR'
p128
F-0.58099999999999996
sS'CYS-VAL'
p129
F0.63
sS'ARG-ALA'
p130
F-0.26500000000000001
sS'ALA-TYR'
p131
F-0.55700000000000005
sS'ASP-PRO'
p132
F-0.28899999999999998
sS'ARG-CYS'
p133
F-0.19500000000000001
sS'GLN-ARG'
p134
F-0.83699999999999997
sS'HIS-TRP'
p135
F-0.096000000000000002
sS'PRO-SER'
p136
F-0.20699999999999999
sS'VAL-VAL'
p137
F0.16800000000000001
sS'LEU-LYS'
p138
F0.106
sS'GLY-LYS'
p139
F-0.83699999999999997
sS'CYS-ASN'
p140
F0.52500000000000002
sS'GLY-TRP'
p141
F-0.69799999999999995
sS'THR-CYS'
p142
F0.90200000000000002
sS'LYS-LYS'
p143
F-0.249
sS'CYS-ASP'
p144
F0.70899999999999996
sS'TYR-ASP'
p145
F-0.66600000000000004
sS'VAL-PRO'
p146
F0.050000000000000003
sS'THR-VAL'
p147
F0.16
sS'ASP-TYR'
p148
F-0.629
sS'PRO-CYS'
p149
F0.66200000000000003
sS'VAL-SER'
p150
F0.23000000000000001
sS'ARG-HIS'
p151
F-0.81999999999999995
sS'CYS-PRO'
p152
F0.20100000000000001
sS'MET-LYS'
p153
F-0.31
sS'ALA-SER'
p154
F0.031
sS'TYR-SER'
p155
F-0.56999999999999995
sS'GLY-ARG'
p156
F-1.1359999999999999
sS'GLN-ALA'
p157
F-0.186
sS'MET-LEU'
p158
F0.20200000000000001
sS'ASN-HIS'
p159
F-0.70799999999999996
sS'VAL-CYS'
p160
F1.107
sS'GLN-TYR'
p161
F-0.48599999999999999
sS'GLN-PHE'
p162
F-0.33600000000000002
sS'ILE-ASN'
p163
F0.074999999999999997
sS'GLU-ASN'
p164
F-0.41499999999999998
sS'CYS-ALA'
p165
F0.47699999999999998
sS'ASN-ASP'
p166
F-0.39000000000000001
sS'ASN-PRO'
p167
F-0.82299999999999995
sS'PRO-ARG'
p168
F-0.753
sS'LYS-TRP'
p169
F-0.19400000000000001
sS'ASN-ASN'
p170
F-1.2689999999999999
sS'ASN-THR'
p171
F-0.61799999999999999
sS'THR-ALA'
p172
F0.371
sS'LYS-ALA'
p173
F0.0089999999999999993
sS'LYS-PRO'
p174
F-0.27200000000000002
sS'SER-GLN'
p175
F-0.60799999999999998
sS'ILE-VAL'
p176
F0.51200000000000001
sS'ASP-ARG'
p177
F-0.94499999999999995
sS'ASP-MET'
p178
F0.28899999999999998
sS'CYS-TYR'
p179
F0.050999999999999997
sS'PRO-TRP'
p180
F-0.55100000000000005
sS'THR-GLU'
p181
F-0.33400000000000002
sS'TRP-ALA'
p182
F-0.439
sS'ILE-CYS'
p183
F0.33600000000000002
sS'LYS-ILE'
p184
F0.52200000000000002
sS'GLN-CYS'
p185
F0.27000000000000002
sS'TYR-ALA'
p186
F-0.38200000000000001
sS'ARG-ASP'
p187
F-1.0600000000000001
sS'SER-GLU'
p188
F-0.47299999999999998
sS'TRP-HIS'
p189
F-0.56299999999999994
sS'ALA-ASN'
p190
F-0.104
sS'GLU-CYS'
p191
F1.0620000000000001
sS'PRO-MET'
p192
F0.152
sS'TYR-HIS'
p193
F-0.435
sS'PHE-MET'
p194
F-0.28100000000000003
sS'GLU-TYR'
p195
F-0.29299999999999998
sS'SER-TRP'
p196
F-0.55500000000000005
sS'PHE-ARG'
p197
F-0.39000000000000001
sS'GLY-ILE'
p198
F0.17799999999999999
sS'TYR-VAL'
p199
F0.032000000000000001
sS'ASN-TYR'
p200
F-0.754
sS'SER-ILE'
p201
F-0.016
sS'GLN-PRO'
p202
F-0.71699999999999997
sS'PHE-TYR'
p203
F-0.40400000000000003
sS'ALA-VAL'
p204
F0.245
sS'HIS-HIS'
p205
F-2.2149999999999999
sS'THR-ASN'
p206
F-0.49099999999999999
sS'CYS-LEU'
p207
F0.73799999999999999
sS'LYS-MET'
p208
F-0.26400000000000001
sS'LYS-ASP'
p209
F-0.56299999999999994
sS'HIS-ASN'
p210
F-0.64300000000000002
sS'ILE-GLN'
p211
F-0.17199999999999999
sS'VAL-HIS'
p212
F0.20100000000000001
sS'ALA-LEU'
p213
F0.17299999999999999
sS'HIS-ASP'
p214
F-0.63
sS'ILE-TYR'
p215
F-0.26600000000000001
sS'ILE-GLU'
p216
F0.189
sS'ILE-GLY'
p217
F0.19800000000000001
sS'ASN-CYS'
p218
F0.46100000000000002
sS'GLU-SER'
p219
F-0.57299999999999995
sS'ALA-TRP'
p220
F-0.29399999999999998
sS'HIS-CYS'
p221
F0.48299999999999998
sS'HIS-MET'
p222
F0.23100000000000001
sS'ILE-PRO'
p223
F-0.095000000000000001
sS'LYS-PHE'
p224
F-0.35699999999999998
sS'TRP-PRO'
p225
F-0.28199999999999997
sS'GLU-TRP'
p226
F0.002
sS'PHE-HIS'
p227
F0.075999999999999998
sS'GLY-TYR'
p228
F-1.028
sS'SER-GLY'
p229
F-0.50800000000000001
sS'CYS-TRP'
p230
F0.70399999999999996
sS'ASP-LYS'
p231
F-0.49399999999999999
sS'ASN-ILE'
p232
F-0.042999999999999997
sS'HIS-SER'
p233
F-0.45800000000000002
sS'LYS-CYS'
p234
F0.32000000000000001
sS'GLY-PHE'
p235
F-0.33600000000000002
sS'GLY-LEU'
p236
F-0.062
sS'MET-SER'
p237
F-0.010999999999999999
sS'VAL-ALA'
p238
F0.29899999999999999
sS'SER-LEU'
p239
F0.34399999999999997
sS'TRP-LYS'
p240
F-0.34100000000000003
sS'VAL-TYR'
p241
F0.081000000000000003
sS'VAL-PHE'
p242
F0.21099999999999999
sS'ARG-THR'
p243
F-0.55100000000000005
sS'TYR-TRP'
p244
F-0.29999999999999999
sS'GLN-GLN'
p245
F-1.3220000000000001
sS'GLU-PHE'
p246
F0.02
sS'VAL-ILE'
p247
F0.65300000000000002
sS'HIS-GLN'
p248
F-0.26800000000000002
sS'GLN-GLY'
p249
F-0.98199999999999998
sS'PHE-ALA'
p250
F-0.254
sS'HIS-GLU'
p251
F-0.52900000000000003
sS'ARG-PRO'
p252
F-0.79500000000000004
sS'HIS-GLY'
p253
F-0.63100000000000001
sS'SER-ASN'
p254
F-0.49399999999999999
sS'ALA-THR'
p255
F0.36799999999999999
sS'GLN-GLU'
p256
F-0.35499999999999998
sS'GLN-LYS'
p257
F-0.56699999999999995
sS'CYS-HIS'
p258
F0.84599999999999997
sS'GLN-ASP'
p259
F-0.52600000000000002
sS'LEU-HIS'
p260
F0.107
sS'SER-LYS'
p261
F-0.36199999999999999
sS'TRP-LEU'
p262
F0.039
sS'CYS-SER'
p263
F0.46000000000000002
sS'LYS-THR'
p264
F0.050000000000000003
sS'HIS-LEU'
p265
F0.17199999999999999
sS'LEU-ARG'
p266
F-0.33700000000000002
sS'GLY-VAL'
p267
F-0.076999999999999999
sS'GLN-ASN'
p268
F-0.48399999999999999
sS'TYR-ARG'
p269
F-0.58299999999999996
sS'PRO-TYR'
p270
F-0.83699999999999997
sS'ASP-PHE'
p271
F0.058999999999999997
sS'TRP-CYS'
p272
F0.751
sS'ASN-LEU'
p273
F-0.121
sS'SER-MET'
p274
F0.217
sS'HIS-ILE'
p275
F0.14599999999999999
sS'SER-TYR'
p276
F-0.68700000000000006
sS'MET-TYR'
p277
F-0.55100000000000005
sS'GLU-ILE'
p278
F0.097000000000000003
sS'PHE-CYS'
p279
F-0.055
sS'PRO-LEU'
p280
F0.017999999999999999
sS'GLY-MET'
p281
F0.055
sS'ARG-ILE'
p282
F-0.021000000000000001
sS'HIS-THR'
p283
F-0.35699999999999998
sS'THR-GLN'
p284
F-0.625
sS'TRP-THR'
p285
F0.23899999999999999
sS'LYS-LEU'
p286
F0.19900000000000001
sS'THR-GLY'
p287
F-0.49099999999999999
sS'ASP-TRP'
p288
F0.21299999999999999
sS'TYR-MET'
p289
F-0.38500000000000001
sS'PHE-ILE'
p290
F0.017999999999999999
sS'PRO-VAL'
p291
F0.097000000000000003
sS'MET-ASN'
p292
F-0.014
sS'LEU-TYR'
p293
F-0.309
sS'PHE-PHE'
p294
F-0.69599999999999995
sS'CYS-PHE'
p295
F0.48799999999999999
sS'TRP-ILE'
p296
F0.0040000000000000001
sS'PRO-ASN'
p297
F-0.40000000000000002
sS'CYS-CYS'
p298
F-3.4630000000000001
sS'SER-ASP'
p299
F-0.22600000000000001
sS'ARG-MET'
p300
F-0.161
sS'SER-PHE'
p301
F-0.14599999999999999
sS'SER-SER'
p302
F-0.72799999999999998
sS'ASN-LYS'
p303
F-0.55900000000000005
sS'CYS-THR'
p304
F1.109
sS'ILE-TRP'
p305
F-0.14099999999999999
sS'PRO-ASP'
p306
F-0.29699999999999999
sS'THR-ASP'
p307
F-0.24299999999999999
sS'SER-CYS'
p308
F0.74199999999999999
sS'MET-ASP'
p309
F0.024
sS'GLN-MET'
p310
F-0.214
sS'MET-TRP'
p311
F-0.13500000000000001
sS'ARG-VAL'
p312
F-0.308
sS'GLY-GLN'
p313
F-0.97899999999999998
sS'THR-LYS'
p314
F0.30099999999999999
sS'TRP-MET'
p315
F0.065000000000000002
sS'ARG-ARG'
p316
F-1.4890000000000001
sS'ILE-ASP'
p317
F0.34699999999999998
sS'ALA-ARG'
p318
F-0.28799999999999998
sS'GLY-GLU'
p319
F-0.36399999999999999
sS'ASN-TRP'
p320
F-0.49299999999999999
sS'GLU-ARG'
p321
F-0.72799999999999998
sS'HIS-VAL'
p322
F0.017000000000000001
sS'VAL-ARG'
p323
F-0.28599999999999998
sS'ASN-SER'
p324
F-0.58199999999999996
sS'ALA-LYS'
p325
F0.10199999999999999
sS'VAL-GLN'
p326
F-0.11799999999999999
sS'TRP-ASN'
p327
F-0.624
sS'TYR-ILE'
p328
F-0.13900000000000001
sS'TRP-GLY'
p329
F-0.80100000000000005
sS'PRO-PHE'
p330
F-0.49299999999999999
sS'GLY-HIS'
p331
F-0.77100000000000002
sS'PHE-SER'
p332
F-0.14099999999999999
sS'TRP-ASP'
p333
F0.253
sS'TRP-GLN'
p334
F-0.36199999999999999
sS'LEU-ALA'
p335
F0.214
sS'VAL-GLU'
p336
F0.48399999999999999
sS'ALA-HIS'
p337
F-0.44
sS'ARG-ASN'
p338
F-0.78600000000000003
sS'LEU-THR'
p339
F0.30299999999999999
sS'TYR-CYS'
p340
F0.58999999999999997
sS'THR-THR'
p341
F-0.52400000000000002
sS'THR-LEU'
p342
F0.156
sS'VAL-ASN'
p343
F-0.028000000000000001
sS'LEU-TRP'
p344
F-0.071999999999999995
sS'GLU-ASP'
p345
F-0.032000000000000001
sS'ILE-SER'
p346
F0.157
sS'ILE-ARG'
p347
F-0.128
sS'TRP-GLU'
p348
F-0.311
sS'ILE-MET'
p349
F0.49299999999999999
sS'MET-PHE'
p350
F-0.246
sS'PRO-ALA'
p351
F-0.29799999999999999
sS'PRO-GLY'
p352
F-0.48599999999999999
sS'GLN-THR'
p353
F-0.40500000000000003
sS'MET-ALA'
p354
F0.49199999999999999
sS'TRP-SER'
p355
F-0.39100000000000001
sS'ASP-HIS'
p356
F-0.073999999999999996
sS'ARG-SER'
p357
F-0.77400000000000002
sS'GLN-HIS'
p358
F-0.65100000000000002
sS'HIS-PHE'
p359
F-0.095000000000000001
sS'LEU-LEU'
p360
F-0.16500000000000001
sS'ALA-GLN'
p361
F-0.40999999999999998
sS'ASP-ASN'
p362
F-0.30399999999999999
sS'SER-VAL'
p363
F0.32400000000000001
sS'MET-ILE'
p364
F0.61299999999999999
sS'ALA-PRO'
p365
F0.016
sS'ASP-ASP'
p366
F-0.316
sS'ALA-GLY'
p367
F0.14000000000000001
sS'TRP-TRP'
p368
F-1.24
sS'MET-CYS'
p369
F1.0900000000000001
sS'ALA-GLU'
p370
F0.092999999999999999
sS'THR-PRO'
p371
F-0.45200000000000001
sS'HIS-ALA'
p372
F0.050999999999999997
sS'GLN-ILE'
p373
F-0.34599999999999997
sS'GLU-VAL'
p374
F0.28100000000000003
sS'LYS-ASN'
p375
F-0.49099999999999999
sS'ASN-ALA'
p376
F-0.045999999999999999
sS'THR-ILE'
p377
F0.28599999999999998
sS'ASP-CYS'
p378
F0.79300000000000004
sS'PRO-LYS'
p379
F-0.47599999999999998
sS'TYR-TYR'
p380
F-1.3959999999999999
sS'ARG-LYS'
p381
F-0.41199999999999998
sS'ILE-ALA'
p382
F0.27200000000000002
sS'ASP-SER'
p383
F-0.29699999999999999
sS'CYS-LYS'
p384
F0.65500000000000003
sS'GLU-ALA'
p385
F0.036999999999999998
sS'PHE-GLU'
p386
F-0.092999999999999999
sS'GLU-LEU'
p387
F0.182
sS'PHE-GLY'
p388
F-0.434
sS'LYS-HIS'
p389
F-0.14499999999999999
sS'HIS-PRO'
p390
F-0.40000000000000002
sS'ILE-ILE'
p391
F0.0040000000000000001
sS'MET-HIS'
p392
F0.14599999999999999
sS'VAL-GLY'
p393
F0.074999999999999997
sS'THR-MET'
p394
F0.27600000000000002
sS'PHE-THR'
p395
F0.0070000000000000001
sS'VAL-TRP'
p396
F0.30099999999999999
sS'PHE-LYS'
p397
F-0.19800000000000001
sS'GLY-PRO'
p398
F-0.71299999999999997
sS'PHE-GLN'
p399
F-0.39000000000000001
sS'LEU-PHE'
p400
F-0.031
s.