(dp1
S'MET-MET'
p2
F-1.0289999999999999
sS'PRO-ILE'
p3
F0.84899999999999998
sS'TYR-LYS'
p4
F1.038
sS'VAL-ASP'
p5
F1.645
sS'ASP-GLN'
p6
F1.115
sS'HIS-TYR'
p7
F0.90300000000000002
sS'ASP-GLU'
p8
F1.3979999999999999
sS'ALA-ASP'
p9
F1.1679999999999999
sS'ASP-GLY'
p10
F0
sS'LEU-VAL'
p11
F1.0229999999999999
sS'TRP-TYR'
p12
F1.1759999999999999
sS'TYR-LEU'
p13
F1.1779999999999999
sS'LYS-GLU'
p14
F0.058999999999999997
sS'TRP-PHE'
p15
F1.155
sS'ARG-TYR'
p16
F0.52600000000000002
sS'GLU-LYS'
p17
F0.0089999999999999993
sS'ILE-HIS'
p18
F1.1910000000000001
sS'GLY-GLY'
p19
F0
sS'LEU-MET'
p20
F0.69099999999999995
sS'GLU-HIS'
p21
F0.13
sS'GLY-THR'
p22
F0
sS'ARG-GLU'
p23
F0.185
sS'PHE-ASN'
p24
F1.286
sS'ASN-MET'
p25
F1.038
sS'PRO-THR'
p26
F0.73599999999999999
sS'TYR-GLN'
p27
F0.69099999999999995
sS'ARG-GLY'
p28
F0
sS'VAL-THR'
p29
F1.2050000000000001
sS'ASP-ILE'
p30
F1.657
sS'GLY-ILE'
p31
F0
sS'TYR-GLU'
p32
F1.0880000000000001
sS'ARG-GLN'
p33
F0.48999999999999999
sS'TYR-GLY'
p34
F0
sS'PHE-ASP'
p35
F1.5629999999999999
sS'CYS-ARG'
p36
F1.6839999999999999
sS'HIS-ARG'
p37
F1.0089999999999999
sS'VAL-LYS'
p38
F1.726
sS'LEU-ILE'
p39
F0.65300000000000002
sS'GLN-LEU'
p40
F0.85999999999999999
sS'GLU-MET'
p41
F1.0349999999999999
sS'ASP-THR'
p42
F1.1539999999999999
sS'ASN-PHE'
p43
F1.5649999999999999
sS'GLU-PRO'
p44
F0.91800000000000004
sS'LYS-ARG'
p45
F0.92800000000000005
sS'GLY-ASP'
p46
F0
sS'PRO-GLN'
p47
F0.13800000000000001
sS'CYS-MET'
p48
F0.63700000000000001
sS'GLU-THR'
p49
F0.92800000000000005
sS'ILE-THR'
p50
F1.012
sS'PHE-GLY'
p51
F0
sS'SER-PRO'
p52
F0.752
sS'GLY-CYS'
p53
F0
sS'ARG-LEU'
p54
F0.76500000000000001
sS'PRO-GLU'
p55
F0.76800000000000002
sS'ASP-LEU'
p56
F1.2270000000000001
sS'PHE-VAL'
p57
F1.159
sS'ASN-VAL'
p58
F1.1950000000000001
sS'PRO-VAL'
p59
F1.1359999999999999
sS'ALA-MET'
p60
F0.83699999999999997
sS'LEU-PRO'
p61
F1.022
sS'LEU-SER'
p62
F1.1120000000000001
sS'ASN-ARG'
p63
F0.51600000000000001
sS'SER-THR'
p64
F0.94599999999999995
sS'LYS-VAL'
p65
F1.5720000000000001
sS'LYS-PRO'
p66
F1.5309999999999999
sS'GLN-VAL'
p67
F0.95699999999999996
sS'TYR-PHE'
p68
F0.92700000000000005
sS'ASP-VAL'
p69
F2.1709999999999998
sS'ASN-GLY'
p70
F0
sS'ARG-PHE'
p71
F0.97199999999999998
sS'HIS-TRP'
p72
F1.619
sS'LYS-GLN'
p73
F0.52600000000000002
sS'ASN-GLU'
p74
F0.58699999999999997
sS'CYS-GLN'
p75
F1.2010000000000001
sS'TYR-PRO'
p76
F0.59399999999999997
sS'ARG-ILE'
p77
F0.77000000000000002
sS'CYS-GLU'
p78
F2.3570000000000002
sS'ASN-GLN'
p79
F0.222
sS'CYS-GLY'
p80
F0
sS'GLN-SER'
p81
F0.48099999999999998
sS'HIS-LYS'
p82
F1.2410000000000001
sS'LEU-LYS'
p83
F1.6819999999999999
sS'LYS-GLY'
p84
F0
sS'VAL-MET'
p85
F0.72599999999999998
sS'ALA-ALA'
p86
F-1.3680000000000001
sS'THR-SER'
p87
F0.81100000000000005
sS'PRO-PRO'
p88
F-0.45900000000000002
sS'ILE-PHE'
p89
F0.96099999999999997
sS'PHE-LEU'
p90
F0.52900000000000003
sS'GLU-GLU'
p91
F0.20100000000000001
sS'TYR-ASP'
p92
F0.81200000000000006
sS'GLY-ALA'
p93
F0
sS'TYR-ASN'
p94
F0.63400000000000001
sS'GLU-GLN'
p95
F1.1100000000000001
sS'TRP-ARG'
p96
F1.0580000000000001
sS'LEU-GLU'
p97
F1.571
sS'LEU-GLY'
p98
F0
sS'LYS-SER'
p99
F0.54100000000000004
sS'MET-VAL'
p100
F1.181
sS'SER-ALA'
p101
F0.373
sS'PRO-HIS'
p102
F0.93799999999999994
sS'MET-THR'
p103
F0.95599999999999996
sS'ALA-PHE'
p104
F1.032
sS'MET-PRO'
p105
F1.111
sS'GLY-SER'
p106
F0
sS'LEU-GLN'
p107
F0.93600000000000005
sS'VAL-LEU'
p108
F0.91600000000000004
sS'LEU-CYS'
p109
F1.325
sS'LYS-TYR'
p110
F0.66800000000000004
sS'ASP-ALA'
p111
F1.1399999999999999
sS'ILE-LEU'
p112
F0.499
sS'TRP-VAL'
p113
F1.129
sS'PHE-PRO'
p114
F0.53200000000000003
sS'GLU-GLY'
p115
F0
sS'ARG-TRP'
p116
F0.80200000000000005
sS'MET-GLN'
p117
F0.58999999999999997
sS'HIS-PHE'
p118
F1.3160000000000001
sS'MET-ARG'
p119
F1.365
sS'TYR-THR'
p120
F1.0820000000000001
sS'SER-ARG'
p121
F0.60099999999999998
sS'THR-ARG'
p122
F1.1739999999999999
sS'CYS-ILE'
p123
F1.3600000000000001
sS'LEU-ASN'
p124
F0.81499999999999995
sS'LEU-ASP'
p125
F1.0980000000000001
sS'PHE-TRP'
p126
F1.3819999999999999
sS'MET-GLY'
p127
F0
sS'THR-PHE'
p128
F0.65800000000000003
sS'MET-GLU'
p129
F1.1759999999999999
sS'THR-TRP'
p130
F1.222
sS'THR-TYR'
p131
F0.89000000000000001
sS'CYS-VAL'
p132
F1.915
sS'ARG-ALA'
p133
F0.78300000000000003
sS'ALA-TYR'
p134
F0.63100000000000001
sS'ASP-PRO'
p135
F0.65900000000000003
sS'ARG-CYS'
p136
F1.3540000000000001
sS'GLN-ARG'
p137
F0.64000000000000001
sS'SER-HIS'
p138
F0.80600000000000005
sS'PRO-SER'
p139
F0.90700000000000003
sS'VAL-VAL'
p140
F0.114
sS'GLN-TRP'
p141
F1.5369999999999999
sS'GLY-LYS'
p142
F0
sS'CYS-ASN'
p143
F1.0620000000000001
sS'GLY-TRP'
p144
F0
sS'THR-CYS'
p145
F0.90300000000000002
sS'LYS-LYS'
p146
F-0.42699999999999999
sS'CYS-ASP'
p147
F1.649
sS'VAL-PRO'
p148
F1.0109999999999999
sS'THR-VAL'
p149
F1.0489999999999999
sS'ASP-TYR'
p150
F0.44400000000000001
sS'PRO-CYS'
p151
F0.753
sS'VAL-SER'
p152
F1.181
sS'ARG-HIS'
p153
F0.97199999999999998
sS'CYS-PRO'
p154
F0.29799999999999999
sS'MET-LYS'
p155
F0.95299999999999996
sS'ALA-SER'
p156
F0.504
sS'TYR-SER'
p157
F0.748
sS'GLY-ARG'
p158
F0
sS'GLN-ALA'
p159
F0.81799999999999995
sS'MET-LEU'
p160
F0.47699999999999998
sS'ASN-HIS'
p161
F1.1859999999999999
sS'VAL-CYS'
p162
F1.927
sS'GLN-TYR'
p163
F0.51800000000000002
sS'MET-SER'
p164
F0.94399999999999995
sS'ALA-TRP'
p165
F0.48199999999999998
sS'GLU-ASN'
p166
F0.624
sS'CYS-ALA'
p167
F1.3799999999999999
sS'GLY-ASN'
p168
F0
sS'ASN-ASP'
p169
F0.76200000000000001
sS'ASN-PRO'
p170
F0.81699999999999995
sS'PRO-ARG'
p171
F0.36799999999999999
sS'LYS-TRP'
p172
F1.6319999999999999
sS'ASN-ASN'
p173
F-1.1399999999999999
sS'THR-ALA'
p174
F0.63300000000000001
sS'LYS-ALA'
p175
F1.603
sS'SER-GLN'
p176
F0.68100000000000005
sS'ILE-VAL'
p177
F0.745
sS'ASP-ARG'
p178
F0.151
sS'ASP-MET'
p179
F1.736
sS'CYS-TYR'
p180
F1.8240000000000001
sS'PRO-TRP'
p181
F0.84299999999999997
sS'ILE-LYS'
p182
F1.292
sS'TRP-ALA'
p183
F0.96699999999999997
sS'ILE-CYS'
p184
F1.643
sS'LYS-ILE'
p185
F0.84599999999999997
sS'GLN-CYS'
p186
F1.978
sS'ARG-ASP'
p187
F-0.16300000000000001
sS'SER-GLU'
p188
F0.57399999999999995
sS'TRP-HIS'
p189
F1.5009999999999999
sS'ALA-ASN'
p190
F0.86899999999999999
sS'GLU-CYS'
p191
F2.1890000000000001
sS'ALA-CYS'
p192
F0.86299999999999999
sS'PRO-MET'
p193
F0.73999999999999999
sS'TYR-HIS'
p194
F0.93999999999999995
sS'PHE-MET'
p195
F1.01
sS'GLU-TYR'
p196
F0.83799999999999997
sS'SER-TRP'
p197
F1.048
sS'PHE-ARG'
p198
F1.052
sS'THR-HIS'
p199
F1.0029999999999999
sS'TYR-VAL'
p200
F1.052
sS'SER-ILE'
p201
F1.345
sS'GLN-PRO'
p202
F0.34599999999999997
sS'ALA-VAL'
p203
F0.85399999999999998
sS'HIS-HIS'
p204
F-0.96899999999999997
sS'THR-ASN'
p205
F0.98799999999999999
sS'CYS-LEU'
p206
F1.657
sS'LYS-MET'
p207
F1.341
sS'LYS-ASP'
p208
F0.042999999999999997
sS'HIS-ASN'
p209
F1.079
sS'ILE-GLN'
p210
F0.93799999999999994
sS'VAL-HIS'
p211
F1.397
sS'ALA-LEU'
p212
F0.76000000000000001
sS'HIS-ASP'
p213
F0.66100000000000003
sS'ILE-TYR'
p214
F0.97899999999999998
sS'ILE-GLU'
p215
F1.23
sS'ASP-ASP'
p216
F0.29499999999999998
sS'ILE-GLY'
p217
F0
sS'ASN-CYS'
p218
F1.0980000000000001
sS'GLU-SER'
p219
F0.79500000000000004
sS'ILE-ASN'
p220
F1.411
sS'HIS-CYS'
p221
F1.708
sS'HIS-MET'
p222
F1.6160000000000001
sS'ILE-PRO'
p223
F0.65000000000000002
sS'LYS-PHE'
p224
F2.0089999999999999
sS'GLY-PHE'
p225
F0
sS'ILE-ASP'
p226
F1.661
sS'PHE-HIS'
p227
F1.819
sS'GLY-TYR'
p228
F0
sS'SER-GLY'
p229
F0
sS'CYS-TRP'
p230
F2.4380000000000002
sS'ASP-LYS'
p231
F0.122
sS'ASN-ILE'
p232
F1.2809999999999999
sS'HIS-SER'
p233
F0.753
sS'LYS-CYS'
p234
F2.3050000000000002
sS'TRP-PRO'
p235
F1.097
sS'ASN-THR'
p236
F0.94399999999999995
sS'GLN-PHE'
p237
F1.28
sS'VAL-ALA'
p238
F1.0209999999999999
sS'SER-LEU'
p239
F1.1020000000000001
sS'TRP-LYS'
p240
F1.929
sS'VAL-TYR'
p241
F1.145
sS'VAL-PHE'
p242
F1.2649999999999999
sS'ARG-THR'
p243
F1.091
sS'TYR-TRP'
p244
F0.93500000000000005
sS'GLN-GLN'
p245
F-0.81999999999999995
sS'GLU-PHE'
p246
F1.5649999999999999
sS'VAL-ILE'
p247
F0.60999999999999999
sS'HIS-GLN'
p248
F0.89200000000000002
sS'GLN-GLY'
p249
F0
sS'PHE-ALA'
p250
F0.73299999999999998
sS'HIS-GLU'
p251
F0.63
sS'ARG-PRO'
p252
F0.33700000000000002
sS'HIS-GLY'
p253
F0
sS'SER-ASN'
p254
F0.61799999999999999
sS'ALA-THR'
p255
F0.75800000000000001
sS'GLN-GLU'
p256
F0.90000000000000002
sS'GLN-LYS'
p257
F0.187
sS'CYS-HIS'
p258
F0.56799999999999995
sS'GLN-ASP'
p259
F0.75900000000000001
sS'LEU-HIS'
p260
F0.79800000000000004
sS'SER-LYS'
p261
F0.63200000000000001
sS'TRP-LEU'
p262
F0.69099999999999995
sS'CYS-SER'
p263
F2.0600000000000001
sS'LYS-THR'
p264
F0.90100000000000002
sS'HIS-LEU'
p265
F0.92900000000000005
sS'LEU-ARG'
p266
F0.98399999999999999
sS'GLY-VAL'
p267
F0
sS'GLN-ASN'
p268
F0.23200000000000001
sS'TYR-ARG'
p269
F0.72299999999999998
sS'PRO-TYR'
p270
F0.28499999999999998
sS'ASP-PHE'
p271
F1.831
sS'ARG-VAL'
p272
F1.0329999999999999
sS'ASN-LEU'
p273
F1.2410000000000001
sS'SER-MET'
p274
F1.032
sS'HIS-ILE'
p275
F1.1559999999999999
sS'GLY-LEU'
p276
F0
sS'SER-TYR'
p277
F0.61799999999999999
sS'MET-TYR'
p278
F0.58099999999999996
sS'GLU-ILE'
p279
F1.278
sS'PHE-CYS'
p280
F0.80800000000000005
sS'PRO-LEU'
p281
F1.1519999999999999
sS'GLY-MET'
p282
F0
sS'HIS-THR'
p283
F1.2949999999999999
sS'THR-GLN'
p284
F0.45200000000000001
sS'TRP-THR'
p285
F1.038
sS'LYS-LEU'
p286
F1.625
sS'THR-GLY'
p287
F0
sS'ALA-LYS'
p288
F1.468
sS'ASP-TRP'
p289
F1.417
sS'TYR-MET'
p290
F1.3680000000000001
sS'PHE-ILE'
p291
F0.61299999999999999
sS'THR-GLU'
p292
F0.78700000000000003
sS'MET-ASN'
p293
F0.85599999999999998
sS'LEU-TYR'
p294
F1.1499999999999999
sS'PHE-PHE'
p295
F-0.26100000000000001
sS'CYS-PHE'
p296
F1.502
sS'TRP-ILE'
p297
F0.72799999999999998
sS'PRO-ASN'
p298
F0.57399999999999995
sS'CYS-CYS'
p299
F-3.2770000000000001
sS'SER-ASP'
p300
F0.68300000000000005
sS'ARG-MET'
p301
F1.095
sS'SER-PHE'
p302
F1.3220000000000001
sS'SER-SER'
p303
F-0.94299999999999995
sS'ASN-LYS'
p304
F0.48999999999999999
sS'CYS-THR'
p305
F1.27
sS'ILE-TRP'
p306
F1.123
sS'PRO-ASP'
p307
F0.60399999999999998
sS'THR-ASP'
p308
F1.125
sS'SER-CYS'
p309
F1.4419999999999999
sS'MET-ASP'
p310
F1.6539999999999999
sS'GLN-MET'
p311
F0.496
sS'MET-TRP'
p312
F1.0589999999999999
sS'TRP-CYS'
p313
F2.8999999999999999
sS'GLY-GLN'
p314
F0
sS'THR-LYS'
p315
F0.91200000000000003
sS'TRP-MET'
p316
F0.85799999999999998
sS'ARG-ARG'
p317
F-0.41199999999999998
sS'ALA-ARG'
p318
F1.0640000000000001
sS'PRO-PHE'
p319
F0.621
sS'ASN-TRP'
p320
F1.5840000000000001
sS'GLU-ARG'
p321
F-0.089999999999999997
sS'HIS-VAL'
p322
F1.028
sS'VAL-ARG'
p323
F1.089
sS'TRP-GLU'
p324
F1.1040000000000001
sS'PHE-TYR'
p325
F0.97099999999999997
sS'VAL-GLN'
p326
F1.0069999999999999
sS'TRP-ASN'
p327
F1.198
sS'TYR-ILE'
p328
F0.69599999999999995
sS'TRP-GLY'
p329
F0
sS'GLY-GLU'
p330
F0
sS'GLY-HIS'
p331
F0
sS'PHE-SER'
p332
F1.448
sS'TRP-ASP'
p333
F1.002
sS'TRP-GLN'
p334
F1.2330000000000001
sS'LEU-ALA'
p335
F0.73399999999999999
sS'VAL-GLU'
p336
F1.5780000000000001
sS'ALA-HIS'
p337
F0.64300000000000002
sS'TYR-ALA'
p338
F0.91200000000000003
sS'LEU-THR'
p339
F1.0980000000000001
sS'TYR-CYS'
p340
F1.472
sS'THR-THR'
p341
F-0.624
sS'THR-LEU'
p342
F0.89000000000000001
sS'VAL-ASN'
p343
F1.135
sS'LEU-TRP'
p344
F0.504
sS'GLU-ASP'
p345
F1.3169999999999999
sS'ILE-SER'
p346
F1.0580000000000001
sS'ILE-ARG'
p347
F0.79600000000000004
sS'ASN-SER'
p348
F0.60499999999999998
sS'ILE-MET'
p349
F1.083
sS'MET-PHE'
p350
F1.0269999999999999
sS'PRO-ALA'
p351
F0.40699999999999997
sS'PRO-GLY'
p352
F0
sS'GLN-THR'
p353
F0.49199999999999999
sS'MET-ALA'
p354
F0.95799999999999996
sS'TRP-SER'
p355
F1.3560000000000001
sS'ASP-HIS'
p356
F0.25600000000000001
sS'ARG-SER'
p357
F0.76400000000000001
sS'GLN-HIS'
p358
F0.749
sS'LEU-LEU'
p359
F0.047
sS'ALA-GLN'
p360
F0.76700000000000002
sS'ASP-ASN'
p361
F0.78100000000000003
sS'SER-VAL'
p362
F1.2549999999999999
sS'MET-ILE'
p363
F1.012
sS'ALA-PRO'
p364
F0.67300000000000004
sS'ALA-ILE'
p365
F0.58599999999999997
sS'ALA-GLY'
p366
F0
sS'TRP-TRP'
p367
F0.41199999999999998
sS'MET-CYS'
p368
F1.353
sS'ALA-GLU'
p369
F1.026
sS'THR-PRO'
p370
F0.53100000000000003
sS'HIS-ALA'
p371
F0.98999999999999999
sS'GLN-ILE'
p372
F0.84299999999999997
sS'GLU-VAL'
p373
F1.375
sS'LYS-ASN'
p374
F0.93400000000000005
sS'ASN-ALA'
p375
F0.81899999999999995
sS'GLU-TRP'
p376
F1.421
sS'THR-ILE'
p377
F0.93000000000000005
sS'ASP-CYS'
p378
F2.391
sS'PRO-LYS'
p379
F1.8919999999999999
sS'TYR-TYR'
p380
F0.28100000000000003
sS'ARG-LYS'
p381
F0.97999999999999998
sS'ILE-ALA'
p382
F1.0640000000000001
sS'ASP-SER'
p383
F0.83099999999999996
sS'CYS-LYS'
p384
F1.018
sS'ARG-ASN'
p385
F0.192
sS'GLU-ALA'
p386
F1.0309999999999999
sS'PHE-GLU'
p387
F1.486
sS'GLU-LEU'
p388
F1.2529999999999999
sS'ASN-TYR'
p389
F0.81399999999999995
sS'LYS-HIS'
p390
F0.67400000000000004
sS'HIS-PRO'
p391
F0.70199999999999996
sS'ILE-ILE'
p392
F-0.69199999999999995
sS'MET-HIS'
p393
F1.1990000000000001
sS'VAL-GLY'
p394
F0
sS'THR-MET'
p395
F0.67800000000000005
sS'PHE-THR'
p396
F0.76200000000000001
sS'VAL-TRP'
p397
F1.502
sS'PHE-LYS'
p398
F1.7430000000000001
sS'GLY-PRO'
p399
F0
sS'PHE-GLN'
p400
F1.357
sS'LEU-PHE'
p401
F0.72199999999999998
s.