(dp1
S'MET-MET'
p2
F-1.1639999999999999
sS'PRO-ILE'
p3
F0.378
sS'TYR-LYS'
p4
F-0.39100000000000001
sS'VAL-ASP'
p5
F0.85699999999999998
sS'ASP-GLN'
p6
F-0.20300000000000001
sS'HIS-TYR'
p7
F-0.89600000000000002
sS'ASP-GLU'
p8
F0.096000000000000002
sS'ALA-ASP'
p9
F0.86399999999999999
sS'ASP-GLY'
p10
F0
sS'LEU-VAL'
p11
F0.36899999999999999
sS'TRP-TYR'
p12
F-0.36299999999999999
sS'TYR-LEU'
p13
F-0.27900000000000003
sS'LYS-GLU'
p14
F-1.139
sS'TRP-PHE'
p15
F-0.64000000000000001
sS'ARG-TYR'
p16
F-1.0780000000000001
sS'GLU-LYS'
p17
F-1.1890000000000001
sS'ILE-HIS'
p18
F0.20300000000000001
sS'GLY-GLY'
p19
F0
sS'LEU-MET'
p20
F0.20100000000000001
sS'GLU-HIS'
p21
F-1.1120000000000001
sS'GLY-THR'
p22
F0
sS'ARG-GLU'
p23
F-1.4410000000000001
sS'PHE-ASN'
p24
F-0.183
sS'ASN-MET'
p25
F0.26700000000000002
sS'PRO-THR'
p26
F0.17999999999999999
sS'TYR-GLN'
p27
F-0.71399999999999997
sS'ARG-GLY'
p28
F0
sS'VAL-THR'
p29
F0.76200000000000001
sS'ASP-ILE'
p30
F0.74399999999999999
sS'GLY-ILE'
p31
F0
sS'TYR-GLU'
p32
F-0.56799999999999995
sS'ARG-GLN'
p33
F-1.002
sS'TYR-GLY'
p34
F0
sS'PHE-ASP'
p35
F0.36099999999999999
sS'CYS-ARG'
p36
F0.83799999999999997
sS'HIS-ARG'
p37
F-0.61299999999999999
sS'VAL-LYS'
p38
F0.995
sS'LEU-ILE'
p39
F0.075999999999999998
sS'GLN-LEU'
p40
F0.01
sS'GLU-MET'
p41
F0.32200000000000001
sS'ASP-THR'
p42
F0.14499999999999999
sS'ASN-PHE'
p43
F-0.016
sS'GLU-PRO'
p44
F-0.16400000000000001
sS'LYS-ARG'
p45
F-0.098000000000000004
sS'GLY-ASP'
p46
F0
sS'PRO-GLN'
p47
F-0.71499999999999997
sS'CYS-MET'
p48
F1.022
sS'GLU-THR'
p49
F-0.19
sS'ILE-THR'
p50
F0.40699999999999997
sS'PHE-GLY'
p51
F0
sS'SER-PRO'
p52
F0.223
sS'GLY-CYS'
p53
F0
sS'ARG-LEU'
p54
F-0.22600000000000001
sS'PRO-GLU'
p55
F-0.16
sS'ASP-LEU'
p56
F0.45500000000000002
sS'PHE-VAL'
p57
F0.105
sS'ASN-VAL'
p58
F0.53800000000000003
sS'PRO-VAL'
p59
F0.58799999999999997
sS'ALA-MET'
p60
F0.876
sS'LEU-PRO'
p61
F0.224
sS'LEU-SER'
p62
F0.57699999999999996
sS'ASN-ARG'
p63
F-0.79900000000000004
sS'SER-THR'
p64
F0.40100000000000002
sS'LYS-VAL'
p65
F0.89000000000000001
sS'LYS-PRO'
p66
F0.72399999999999998
sS'GLN-VAL'
p67
F0.26200000000000001
sS'TYR-PHE'
p68
F-0.53300000000000003
sS'ASP-VAL'
p69
F1.1240000000000001
sS'ASN-GLY'
p70
F0
sS'ARG-PHE'
p71
F-0.57999999999999996
sS'HIS-TRP'
p72
F-0.42599999999999999
sS'LYS-GLN'
p73
F-0.69699999999999995
sS'ASN-GLU'
p74
F-0.629
sS'CYS-GLN'
p75
F0.97499999999999998
sS'TYR-PRO'
p76
F-0.81200000000000006
sS'ARG-ILE'
p77
F0.039
sS'CYS-GLU'
p78
F1.728
sS'ASN-GLN'
p79
F-0.95299999999999996
sS'CYS-GLY'
p80
F0
sS'GLN-SER'
p81
F-0.34799999999999998
sS'HIS-LYS'
p82
F-0.044999999999999998
sS'LEU-LYS'
p83
F0.73899999999999999
sS'LYS-GLY'
p84
F0
sS'VAL-MET'
p85
F0.55600000000000005
sS'ALA-ALA'
p86
F0.11899999999999999
sS'THR-SER'
p87
F0.32200000000000001
sS'PRO-PRO'
p88
F-0.52900000000000003
sS'ILE-PHE'
p89
F-0.13800000000000001
sS'PHE-LEU'
p90
F-0.26100000000000001
sS'GLU-GLU'
p91
F-0.66100000000000003
sS'TYR-ASP'
p92
F-0.39600000000000002
sS'GLY-ALA'
p93
F0
sS'TYR-ASN'
p94
F-0.68899999999999995
sS'GLU-GLN'
p95
F-0.23100000000000001
sS'TRP-ARG'
p96
F-0.88500000000000001
sS'LEU-GLU'
p97
F0.41799999999999998
sS'LEU-GLY'
p98
F0
sS'LYS-SER'
p99
F0.019
sS'MET-VAL'
p100
F0.71299999999999997
sS'SER-ALA'
p101
F0.61099999999999999
sS'PRO-HIS'
p102
F-0.26700000000000002
sS'MET-THR'
p103
F0.371
sS'ALA-PHE'
p104
F0.41799999999999998
sS'MET-PRO'
p105
F0.45900000000000002
sS'GLY-SER'
p106
F0
sS'LEU-GLN'
p107
F0.053999999999999999
sS'VAL-LEU'
p108
F0.35999999999999999
sS'LEU-CYS'
p109
F1.361
sS'LYS-TYR'
p110
F-0.59799999999999998
sS'ASP-ALA'
p111
F0.83999999999999997
sS'ILE-LEU'
p112
F0.040000000000000001
sS'TRP-VAL'
p113
F0.19700000000000001
sS'PHE-PRO'
p114
F-0.43099999999999999
sS'GLU-GLY'
p115
F0
sS'ARG-TRP'
p116
F-1.0549999999999999
sS'MET-GLN'
p117
F-0.025999999999999999
sS'HIS-PHE'
p118
F-0.19900000000000001
sS'MET-ARG'
p119
F0.22600000000000001
sS'TYR-THR'
p120
F-0.0070000000000000001
sS'SER-ARG'
p121
F-0.247
sS'THR-ARG'
p122
F-0.19900000000000001
sS'CYS-ILE'
p123
F1.329
sS'LEU-ASN'
p124
F0.21099999999999999
sS'LEU-ASP'
p125
F0.504
sS'PHE-TRP'
p126
F-0.42199999999999999
sS'MET-GLY'
p127
F0
sS'THR-PHE'
p128
F-0.076999999999999999
sS'MET-GLU'
p129
F0.378
sS'THR-TRP'
p130
F0.28899999999999998
sS'THR-TYR'
p131
F-0.21299999999999999
sS'CYS-VAL'
p132
F1.603
sS'ARG-ALA'
p133
F0.443
sS'ALA-TYR'
p134
F0.075999999999999998
sS'ASP-PRO'
p135
F-0.073999999999999996
sS'ARG-CYS'
p136
F0.90400000000000003
sS'GLN-ARG'
p137
F-0.85999999999999999
sS'SER-HIS'
p138
F-0.096000000000000002
sS'PRO-SER'
p139
F0.28899999999999998
sS'VAL-VAL'
p140
F0.024
sS'GLN-TRP'
p141
F-0.42299999999999999
sS'GLY-LYS'
p142
F0
sS'CYS-ASN'
p143
F0.65400000000000003
sS'GLY-TRP'
p144
F0
sS'THR-CYS'
p145
F1.3029999999999999
sS'LYS-LYS'
p146
F-0.22800000000000001
sS'CYS-ASP'
p147
F1.208
sS'VAL-PRO'
p148
F0.66000000000000003
sS'THR-VAL'
p149
F0.61399999999999999
sS'ASP-TYR'
p150
F-0.59599999999999997
sS'PRO-CYS'
p151
F0.67500000000000004
sS'VAL-SER'
p152
F0.73699999999999999
sS'ARG-HIS'
p153
F-0.68000000000000005
sS'CYS-PRO'
p154
F0.36399999999999999
sS'MET-LYS'
p155
F0.371
sS'ALA-SER'
p156
F0.754
sS'TYR-SER'
p157
F-0.22800000000000001
sS'GLY-ARG'
p158
F0
sS'GLN-ALA'
p159
F0.40100000000000002
sS'MET-LEU'
p160
F-0.0050000000000000001
sS'ASN-HIS'
p161
F-0.33500000000000002
sS'VAL-CYS'
p162
F1.5860000000000001
sS'GLN-TYR'
p163
F-0.83199999999999996
sS'MET-SER'
p164
F0.65800000000000003
sS'ALA-TRP'
p165
F-0.10199999999999999
sS'GLU-ASN'
p166
F-0.63200000000000001
sS'CYS-ALA'
p167
F1.6479999999999999
sS'GLY-ASN'
p168
F0
sS'ASN-ASP'
p169
F-0.36799999999999999
sS'ASN-PRO'
p170
F-0.28100000000000003
sS'PRO-ARG'
p171
F-0.52800000000000002
sS'LYS-TRP'
p172
F-0.12
sS'ASN-ASN'
p173
F-1.597
sS'THR-ALA'
p174
F0.69199999999999995
sS'LYS-ALA'
p175
F1.3859999999999999
sS'SER-GLN'
p176
F-0.17299999999999999
sS'ILE-VAL'
p177
F0.29799999999999999
sS'ASP-ARG'
p178
F-1.351
sS'ASP-MET'
p179
F0.64800000000000002
sS'CYS-TYR'
p180
F1.4950000000000001
sS'PRO-TRP'
p181
F-0.56899999999999995
sS'ILE-LYS'
p182
F0.78600000000000003
sS'TRP-ALA'
p183
F0.187
sS'ILE-CYS'
p184
F1.2230000000000001
sS'LYS-ILE'
p185
F0.48699999999999999
sS'GLN-CYS'
p186
F1.5580000000000001
sS'ARG-ASP'
p187
F-1.5069999999999999
sS'SER-GLU'
p188
F-0.30499999999999999
sS'TRP-HIS'
p189
F-0.55100000000000005
sS'ALA-ASN'
p190
F0.626
sS'GLU-CYS'
p191
F1.6279999999999999
sS'ALA-CYS'
p192
F1.2230000000000001
sS'PRO-MET'
p193
F0.20399999999999999
sS'TYR-HIS'
p194
F-0.79500000000000004
sS'PHE-MET'
p195
F-0.40100000000000002
sS'GLU-TYR'
p196
F-0.69199999999999995
sS'SER-TRP'
p197
F0.049000000000000002
sS'PHE-ARG'
p198
F-0.46100000000000002
sS'THR-HIS'
p199
F0.050000000000000003
sS'TYR-VAL'
p200
F-0.060999999999999999
sS'SER-ILE'
p201
F0.79600000000000004
sS'GLN-PRO'
p202
F-0.53800000000000003
sS'ALA-VAL'
p203
F0.99399999999999999
sS'HIS-HIS'
p204
F-2.1760000000000002
sS'THR-ASN'
p205
F-0.092999999999999999
sS'CYS-LEU'
p206
F1.3300000000000001
sS'LYS-MET'
p207
F0.60199999999999998
sS'LYS-ASP'
p208
F-0.97999999999999998
sS'HIS-ASN'
p209
F-0.41599999999999998
sS'ILE-GLN'
p210
F-0.0080000000000000002
sS'VAL-HIS'
p211
F0.314
sS'ALA-LEU'
p212
F0.64100000000000001
sS'HIS-ASP'
p213
F-0.76100000000000001
sS'ILE-TYR'
p214
F-0.23200000000000001
sS'ILE-GLU'
p215
F0.35599999999999998
sS'ASP-ASP'
p216
F-0.32500000000000001
sS'ILE-GLY'
p217
F0
sS'ASN-CYS'
p218
F0.67800000000000005
sS'GLU-SER'
p219
F-0.223
sS'ILE-ASN'
p220
F0.40400000000000003
sS'HIS-CYS'
p221
F0.57699999999999996
sS'HIS-MET'
p222
F0.67200000000000004
sS'ILE-PRO'
p223
F0.311
sS'LYS-PHE'
p224
F0.57799999999999996
sS'GLY-PHE'
p225
F0
sS'ILE-ASP'
p226
F0.78800000000000003
sS'PHE-HIS'
p227
F-0.021000000000000001
sS'GLY-TYR'
p228
F0
sS'SER-GLY'
p229
F0
sS'CYS-TRP'
p230
F1.163
sS'ASP-LYS'
p231
F-0.998
sS'ASN-ILE'
p232
F0.33400000000000002
sS'HIS-SER'
p233
F-0.111
sS'LYS-CYS'
p234
F2.0350000000000001
sS'TRP-PRO'
p235
F-0.378
sS'ASN-THR'
p236
F-0.11600000000000001
sS'GLN-PHE'
p237
F-0.16700000000000001
sS'VAL-ALA'
p238
F1.129
sS'SER-LEU'
p239
F0.59199999999999997
sS'TRP-LYS'
p240
F0.014
sS'VAL-TYR'
p241
F0.047
sS'VAL-PHE'
p242
F0.19
sS'ARG-THR'
p243
F-0.223
sS'TYR-TRP'
p244
F-0.55800000000000005
sS'GLN-GLN'
p245
F-1.6559999999999999
sS'GLU-PHE'
p246
F0.069000000000000006
sS'VAL-ILE'
p247
F0.314
sS'HIS-GLN'
p248
F-0.501
sS'GLN-GLY'
p249
F0
sS'PHE-ALA'
p250
F0.22
sS'HIS-GLU'
p251
F-0.871
sS'ARG-PRO'
p252
F-0.53000000000000003
sS'HIS-GLY'
p253
F0
sS'SER-ASN'
p254
F-0.11700000000000001
sS'ALA-THR'
p255
F0.80900000000000005
sS'GLN-GLU'
p256
F-0.47299999999999998
sS'GLN-LYS'
p257
F-0.66700000000000004
sS'CYS-HIS'
p258
F0.38800000000000001
sS'GLN-ASP'
p259
F-0.32900000000000001
sS'LEU-HIS'
p260
F-0.088999999999999996
sS'SER-LYS'
p261
F0.085999999999999993
sS'TRP-LEU'
p262
F-0.251
sS'CYS-SER'
p263
F2.5169999999999999
sS'LYS-THR'
p264
F0.28999999999999998
sS'HIS-LEU'
p265
F0.062
sS'LEU-ARG'
p266
F-0.083000000000000004
sS'GLY-VAL'
p267
F0
sS'GLN-ASN'
p268
F-0.85499999999999998
sS'TYR-ARG'
p269
F-0.96899999999999997
sS'PRO-TYR'
p270
F-0.86699999999999999
sS'ASP-PHE'
p271
F0.54400000000000004
sS'ARG-VAL'
p272
F0.192
sS'ASN-LEU'
p273
F0.317
sS'SER-MET'
p274
F0.82699999999999996
sS'HIS-ILE'
p275
F0.308
sS'GLY-LEU'
p276
F0
sS'SER-TYR'
p277
F-0.26800000000000002
sS'MET-TYR'
p278
F-0.58999999999999997
sS'GLU-ILE'
p279
F0.33400000000000002
sS'PHE-CYS'
p280
F0.33200000000000002
sS'PRO-LEU'
p281
F0.39300000000000002
sS'GLY-MET'
p282
F0
sS'HIS-THR'
p283
F0.081000000000000003
sS'THR-GLN'
p284
F-0.46999999999999997
sS'TRP-THR'
p285
F0.23000000000000001
sS'LYS-LEU'
p286
F0.79200000000000004
sS'THR-GLY'
p287
F0
sS'ALA-LYS'
p288
F1.3160000000000001
sS'ASP-TRP'
p289
F0.28399999999999997
sS'TYR-MET'
p290
F-0.36499999999999999
sS'PHE-ILE'
p291
F-0.23400000000000001
sS'THR-GLU'
p292
F-0.19
sS'MET-ASN'
p293
F0.11799999999999999
sS'LEU-TYR'
p294
F-0.29499999999999998
sS'PHE-PHE'
p295
F-1.363
sS'CYS-PHE'
p296
F0.70899999999999996
sS'TRP-ILE'
p297
F-0.012999999999999999
sS'PRO-ASN'
p298
F-0.23300000000000001
sS'CYS-CYS'
p299
F-3.129
sS'SER-ASP'
p300
F-0.16600000000000001
sS'ARG-MET'
p301
F-0.027
sS'SER-PHE'
p302
F0.34699999999999998
sS'SER-SER'
p303
F-0.54800000000000004
sS'ASN-LYS'
p304
F-0.29699999999999999
sS'CYS-THR'
p305
F1.609
sS'ILE-TRP'
p306
F0.012
sS'PRO-ASP'
p307
F-0.13400000000000001
sS'THR-ASP'
p308
F0.084000000000000005
sS'SER-CYS'
p309
F1.417
sS'MET-ASP'
p310
F0.73799999999999999
sS'GLN-MET'
p311
F0.113
sS'MET-TRP'
p312
F-0.157
sS'TRP-CYS'
p313
F1.7130000000000001
sS'GLY-GLN'
p314
F0
sS'THR-LYS'
p315
F0.26500000000000001
sS'TRP-MET'
p316
F-0.078
sS'ARG-ARG'
p317
F-1.5960000000000001
sS'ALA-ARG'
p318
F0.42699999999999999
sS'PRO-PHE'
p319
F-0.41599999999999998
sS'ASN-TRP'
p320
F0.010999999999999999
sS'GLU-ARG'
p321
F-1.5329999999999999
sS'HIS-VAL'
p322
F0.433
sS'VAL-ARG'
p323
F0.191
sS'TRP-GLU'
p324
F-0.215
sS'PHE-TYR'
p325
F-0.51400000000000001
sS'VAL-GLN'
p326
F0.28699999999999998
sS'TRP-ASN'
p327
F-0.40799999999999997
sS'TYR-ILE'
p328
F-0.39900000000000002
sS'TRP-GLY'
p329
F0
sS'GLY-GLU'
p330
F0
sS'GLY-HIS'
p331
F0
sS'PHE-SER'
p332
F0.46700000000000003
sS'TRP-ASP'
p333
F0.095000000000000001
sS'TRP-GLN'
p334
F-0.58899999999999997
sS'LEU-ALA'
p335
F0.65700000000000003
sS'VAL-GLU'
p336
F0.499
sS'ALA-HIS'
p337
F0.153
sS'TYR-ALA'
p338
F0.28499999999999998
sS'LEU-THR'
p339
F0.67500000000000004
sS'TYR-CYS'
p340
F1.349
sS'THR-THR'
p341
F-0.64800000000000002
sS'THR-LEU'
p342
F0.46000000000000002
sS'VAL-ASN'
p343
F0.36099999999999999
sS'LEU-TRP'
p344
F-0.34599999999999997
sS'GLU-ASP'
p345
F-0.012999999999999999
sS'ILE-SER'
p346
F0.74299999999999999
sS'ILE-ARG'
p347
F0.016
sS'ASN-SER'
p348
F-0.153
sS'ILE-MET'
p349
F0.316
sS'MET-PHE'
p350
F-0.373
sS'PRO-ALA'
p351
F0.50800000000000001
sS'PRO-GLY'
p352
F0
sS'GLN-THR'
p353
F-0.311
sS'MET-ALA'
p354
F1.0840000000000001
sS'TRP-SER'
p355
F0.078
sS'ASP-HIS'
p356
F-0.84599999999999997
sS'ARG-SER'
p357
F-0.32000000000000001
sS'GLN-HIS'
p358
F-0.623
sS'LEU-LEU'
p359
F-0.40100000000000002
sS'ALA-GLN'
p360
F0.40300000000000002
sS'ASP-ASN'
p361
F-0.41499999999999998
sS'SER-VAL'
p362
F0.79400000000000004
sS'MET-ILE'
p363
F0.48899999999999999
sS'ALA-PRO'
p364
F0.78400000000000003
sS'ALA-ILE'
p365
F0.77000000000000002
sS'ALA-GLY'
p366
F0
sS'TRP-TRP'
p367
F-1.492
sS'MET-CYS'
p368
F1.2609999999999999
sS'ALA-GLU'
p369
F0.66200000000000003
sS'THR-PRO'
p370
F0.023
sS'HIS-ALA'
p371
F0.46899999999999997
sS'GLN-ILE'
p372
F-0.012999999999999999
sS'GLU-VAL'
p373
F0.35499999999999998
sS'LYS-ASN'
p374
F-0.152
sS'ASN-ALA'
p375
F0.622
sS'GLU-TRP'
p376
F-0.193
sS'THR-ILE'
p377
F0.31900000000000001
sS'ASP-CYS'
p378
F1.756
sS'PRO-LYS'
p379
F0.84699999999999998
sS'TYR-TYR'
p380
F-1.3160000000000001
sS'ARG-LYS'
p381
F-0.161
sS'ILE-ALA'
p382
F0.96899999999999997
sS'ASP-SER'
p383
F-0.087999999999999995
sS'CYS-LYS'
p384
F1.1160000000000001
sS'ARG-ASN'
p385
F-0.95899999999999996
sS'GLU-ALA'
p386
F0.64200000000000002
sS'PHE-GLU'
p387
F0.218
sS'GLU-LEU'
p388
F0.255
sS'ASN-TYR'
p389
F-0.59099999999999997
sS'LYS-HIS'
p390
F-0.308
sS'HIS-PRO'
p391
F-0.23699999999999999
sS'ILE-ILE'
p392
F-0.63100000000000001
sS'MET-HIS'
p393
F0.153
sS'VAL-GLY'
p394
F0
sS'THR-MET'
p395
F0.39900000000000002
sS'PHE-THR'
p396
F0.021000000000000001
sS'VAL-TRP'
p397
F0.188
sS'PHE-LYS'
p398
F0.26400000000000001
sS'GLY-PRO'
p399
F0
sS'PHE-GLN'
p400
F-0.22700000000000001
sS'LEU-PHE'
p401
F-0.28000000000000003
s.