(dp1
S'MET-MET'
p2
F-2.133
sS'PRO-ILE'
p3
F-0.51200000000000001
sS'TYR-LYS'
p4
F-1.0800000000000001
sS'VAL-ASP'
p5
F0.040000000000000001
sS'ASP-GLN'
p6
F-1.0669999999999999
sS'HIS-TYR'
p7
F-1.6539999999999999
sS'ASP-GLU'
p8
F-0.73099999999999998
sS'ALA-ASP'
p9
F-0.57799999999999996
sS'ASP-GLY'
p10
F0
sS'LEU-VAL'
p11
F-0.41999999999999998
sS'TRP-TYR'
p12
F-0.92900000000000005
sS'TYR-LEU'
p13
F-1.0129999999999999
sS'LYS-GLU'
p14
F-2.1739999999999999
sS'TRP-PHE'
p15
F-1.292
sS'ARG-TYR'
p16
F-1.885
sS'GLU-LYS'
p17
F-2.2130000000000001
sS'ILE-HIS'
p18
F-0.54000000000000004
sS'GLY-GLY'
p19
F0
sS'LEU-MET'
p20
F-0.68500000000000005
sS'GLU-HIS'
p21
F-2.1819999999999999
sS'GLY-THR'
p22
F0
sS'ARG-GLU'
p23
F-2.387
sS'PHE-ASN'
p24
F-1.0229999999999999
sS'ASN-MET'
p25
F-0.69199999999999995
sS'PRO-THR'
p26
F-0.64000000000000001
sS'TYR-GLN'
p27
F-1.4390000000000001
sS'ARG-GLY'
p28
F0
sS'VAL-THR'
p29
F-0.41599999999999998
sS'ASP-ILE'
p30
F-0.217
sS'GLY-ILE'
p31
F0
sS'TYR-GLU'
p32
F-1.397
sS'ARG-GLN'
p33
F-1.798
sS'TYR-GLY'
p34
F0
sS'PHE-ASP'
p35
F-0.247
sS'CYS-ARG'
p36
F-0.22600000000000001
sS'HIS-ARG'
p37
F-1.319
sS'VAL-LYS'
p38
F0.22500000000000001
sS'LEU-ILE'
p39
F-0.84499999999999997
sS'GLN-LEU'
p40
F-0.89400000000000002
sS'GLU-MET'
p41
F-0.57399999999999995
sS'ASP-THR'
p42
F-0.83299999999999996
sS'ASN-PHE'
p43
F-0.85899999999999999
sS'GLU-PRO'
p44
F-0.998
sS'LYS-ARG'
p45
F-0.85799999999999998
sS'GLY-ASP'
p46
F0
sS'PRO-GLN'
p47
F-1.544
sS'CYS-MET'
p48
F-0.63
sS'GLU-THR'
p49
F-1.1599999999999999
sS'ILE-THR'
p50
F-0.34000000000000002
sS'PHE-GLY'
p51
F0
sS'SER-PRO'
p52
F-0.90300000000000002
sS'GLY-CYS'
p53
F0
sS'ARG-LEU'
p54
F-1.1180000000000001
sS'PRO-GLU'
p55
F-0.98899999999999999
sS'ASP-LEU'
p56
F-0.46500000000000002
sS'PHE-VAL'
p57
F-0.69499999999999995
sS'ASN-VAL'
p58
F-0.41899999999999998
sS'PRO-VAL'
p59
F-0.23100000000000001
sS'ALA-MET'
p60
F-0.61299999999999999
sS'LEU-PRO'
p61
F-0.57199999999999995
sS'LEU-SER'
p62
F-0.38700000000000001
sS'ASN-ARG'
p63
F-1.704
sS'SER-THR'
p64
F-0.80100000000000005
sS'LYS-VAL'
p65
F0.17899999999999999
sS'LYS-PRO'
p66
F0.023
sS'GLN-VAL'
p67
F-0.47699999999999998
sS'TYR-PHE'
p68
F-1.171
sS'ASP-VAL'
p69
F0.34999999999999998
sS'ASN-GLY'
p70
F0
sS'ARG-PHE'
p71
F-1.393
sS'HIS-TRP'
p72
F-1.1870000000000001
sS'LYS-GLN'
p73
F-1.6220000000000001
sS'ASN-GLU'
p74
F-1.577
sS'CYS-GLN'
p75
F0.070999999999999994
sS'TYR-PRO'
p76
F-1.714
sS'ARG-ILE'
p77
F-0.76300000000000001
sS'CYS-GLU'
p78
F0.58399999999999996
sS'ASN-GLN'
p79
F-1.917
sS'CYS-GLY'
p80
F0
sS'GLN-SER'
p81
F-1.506
sS'HIS-LYS'
p82
F-0.91100000000000003
sS'LEU-LYS'
p83
F0.122
sS'LYS-GLY'
p84
F0
sS'VAL-MET'
p85
F-0.52500000000000002
sS'ALA-ALA'
p86
F-1.5069999999999999
sS'THR-SER'
p87
F-0.90500000000000003
sS'PRO-PRO'
p88
F-1.6080000000000001
sS'ILE-PHE'
p89
F-1.1659999999999999
sS'PHE-LEU'
p90
F-1.121
sS'GLU-GLU'
p91
F-1.714
sS'TYR-ASP'
p92
F-1.4330000000000001
sS'GLY-ALA'
p93
F0
sS'TYR-ASN'
p94
F-1.4530000000000001
sS'GLU-GLN'
p95
F-1.1879999999999999
sS'TRP-ARG'
p96
F-1.5349999999999999
sS'LEU-GLU'
p97
F-0.17799999999999999
sS'LEU-GLY'
p98
F0
sS'LYS-SER'
p99
F-1.032
sS'MET-VAL'
p100
F-0.55300000000000005
sS'SER-ALA'
p101
F-0.94499999999999995
sS'PRO-HIS'
p102
F-1.1419999999999999
sS'MET-THR'
p103
F-0.48899999999999999
sS'ALA-PHE'
p104
F-1.137
sS'MET-PRO'
p105
F-0.51700000000000002
sS'GLY-SER'
p106
F0
sS'LEU-GLN'
p107
F-0.77600000000000002
sS'VAL-LEU'
p108
F-0.42799999999999999
sS'LEU-CYS'
p109
F0.156
sS'LYS-TYR'
p110
F-1.2010000000000001
sS'ASP-ALA'
p111
F-0.59799999999999998
sS'ILE-LEU'
p112
F-0.91500000000000004
sS'TRP-VAL'
p113
F-0.57799999999999996
sS'PHE-PRO'
p114
F-1.2230000000000001
sS'GLU-GLY'
p115
F0
sS'ARG-TRP'
p116
F-1.6850000000000001
sS'MET-GLN'
p117
F-0.82199999999999995
sS'HIS-PHE'
p118
F-0.73999999999999999
sS'MET-ARG'
p119
F-0.78900000000000003
sS'TYR-THR'
p120
F-0.77100000000000002
sS'SER-ARG'
p121
F-1.3069999999999999
sS'THR-ARG'
p122
F-1.1779999999999999
sS'CYS-ILE'
p123
F0.13
sS'LEU-ASN'
p124
F-0.64700000000000002
sS'LEU-ASP'
p125
F-0.29899999999999999
sS'PHE-TRP'
p126
F-1.0089999999999999
sS'MET-GLY'
p127
F0
sS'THR-PHE'
p128
F-0.79000000000000004
sS'MET-GLU'
p129
F-0.61099999999999999
sS'THR-TRP'
p130
F-0.60099999999999998
sS'THR-TYR'
p131
F-0.99399999999999999
sS'CYS-VAL'
p132
F0.40600000000000003
sS'ARG-ALA'
p133
F-0.96099999999999997
sS'ALA-TYR'
p134
F-1.409
sS'ASP-PRO'
p135
F-0.85399999999999998
sS'ARG-CYS'
p136
F0.027
sS'GLN-ARG'
p137
F-1.6060000000000001
sS'SER-HIS'
p138
F-1.2689999999999999
sS'PRO-SER'
p139
F-0.85399999999999998
sS'VAL-VAL'
p140
F-1.0640000000000001
sS'GLN-TRP'
p141
F-1.147
sS'GLY-LYS'
p142
F0
sS'CYS-ASN'
p143
F-0.58399999999999996
sS'GLY-TRP'
p144
F0
sS'THR-CYS'
p145
F-0.191
sS'LYS-LYS'
p146
F-1.0669999999999999
sS'CYS-ASP'
p147
F-0.25900000000000001
sS'VAL-PRO'
p148
F-0.52800000000000002
sS'THR-VAL'
p149
F-0.151
sS'ASP-TYR'
p150
F-1.5249999999999999
sS'PRO-CYS'
p151
F-0.95799999999999996
sS'VAL-SER'
p152
F-0.30399999999999999
sS'ARG-HIS'
p153
F-1.609
sS'CYS-PRO'
p154
F-0.86299999999999999
sS'MET-LYS'
p155
F-0.57599999999999996
sS'ALA-SER'
p156
F-0.79400000000000004
sS'TYR-SER'
p157
F-1.375
sS'GLY-ARG'
p158
F0
sS'GLN-ALA'
p159
F-1.0820000000000001
sS'MET-LEU'
p160
F-0.86499999999999999
sS'ASN-HIS'
p161
F-1.2370000000000001
sS'VAL-CYS'
p162
F0.378
sS'GLN-TYR'
p163
F-1.4870000000000001
sS'MET-SER'
p164
F-0.36399999999999999
sS'ALA-TRP'
p165
F-1.379
sS'GLU-ASN'
p166
F-1.429
sS'CYS-ALA'
p167
F0.089999999999999997
sS'GLY-ASN'
p168
F0
sS'ASN-ASP'
p169
F-1.177
sS'ASN-PRO'
p170
F-1.141
sS'PRO-ARG'
p171
F-1.4299999999999999
sS'LYS-TRP'
p172
F-1.1120000000000001
sS'ASN-ASN'
p173
F-2.8290000000000002
sS'THR-ALA'
p174
F-0.78800000000000003
sS'LYS-ALA'
p175
F-0.115
sS'SER-GLN'
p176
F-1.3779999999999999
sS'ILE-VAL'
p177
F-0.44800000000000001
sS'ASP-ARG'
p178
F-2.3639999999999999
sS'ASP-MET'
p179
F-0.27000000000000002
sS'CYS-TYR'
p180
F0.19500000000000001
sS'PRO-TRP'
p181
F-1.548
sS'ILE-LYS'
p182
F-0.30199999999999999
sS'TRP-ALA'
p183
F-1.2729999999999999
sS'ILE-CYS'
p184
F0.19
sS'LYS-ILE'
p185
F-0.77400000000000002
sS'GLN-CYS'
p186
F0.47399999999999998
sS'ARG-ASP'
p187
F-2.4249999999999998
sS'SER-GLU'
p188
F-1.5860000000000001
sS'TRP-HIS'
p189
F-1.208
sS'ALA-ASN'
p190
F-0.85299999999999998
sS'GLU-CYS'
p191
F0.55100000000000005
sS'ALA-CYS'
p192
F-0.34300000000000003
sS'PRO-MET'
p193
F-0.69699999999999995
sS'TYR-HIS'
p194
F-1.51
sS'PHE-MET'
p195
F-1.079
sS'GLU-TYR'
p196
F-1.5369999999999999
sS'SER-TRP'
p197
F-0.80000000000000004
sS'PHE-ARG'
p198
F-1.214
sS'THR-HIS'
p199
F-0.85499999999999998
sS'TYR-VAL'
p200
F-0.81299999999999994
sS'SER-ILE'
p201
F-0.33200000000000002
sS'GLN-PRO'
p202
F-1.292
sS'ALA-VAL'
p203
F-0.51800000000000002
sS'HIS-HIS'
p204
F-3.351
sS'THR-ASN'
p205
F-1.0580000000000001
sS'CYS-LEU'
p206
F0.39800000000000002
sS'LYS-MET'
p207
F-0.36599999999999999
sS'LYS-ASP'
p208
F-1.827
sS'HIS-ASN'
p209
F-1.2290000000000001
sS'ILE-GLN'
p210
F-0.85199999999999998
sS'VAL-HIS'
p211
F-0.56799999999999995
sS'ALA-LEU'
p212
F-0.81999999999999995
sS'HIS-ASP'
p213
F-1.7450000000000001
sS'ILE-TYR'
p214
F-1.046
sS'ILE-GLU'
p215
F-0.29799999999999999
sS'ASP-ASP'
p216
F-1.4259999999999999
sS'ILE-GLY'
p217
F0
sS'ASN-CYS'
p218
F-0.42799999999999999
sS'GLU-SER'
p219
F-1.5649999999999999
sS'ILE-ASN'
p220
F-0.52000000000000002
sS'HIS-CYS'
p221
F-0.56499999999999995
sS'HIS-MET'
p222
F-0.28699999999999998
sS'ILE-PRO'
p223
F-0.55300000000000005
sS'LYS-PHE'
p224
F-0.19700000000000001
sS'GLY-PHE'
p225
F0
sS'ILE-ASP'
p226
F-0.14299999999999999
sS'PHE-HIS'
p227
F-0.63500000000000001
sS'GLY-TYR'
p228
F0
sS'SER-GLY'
p229
F0
sS'CYS-TRP'
p230
F0.27200000000000002
sS'ASP-LYS'
p231
F-1.845
sS'ASN-ILE'
p232
F-0.60499999999999998
sS'HIS-SER'
p233
F-1.248
sS'LYS-CYS'
p234
F1.0840000000000001
sS'TRP-PRO'
p235
F-1.323
sS'ASN-THR'
p236
F-1.022
sS'GLN-PHE'
p237
F-0.84599999999999997
sS'VAL-ALA'
p238
F-0.40200000000000002
sS'SER-LEU'
p239
F-0.38100000000000001
sS'TRP-LYS'
p240
F-0.89700000000000002
sS'VAL-TYR'
p241
F-0.72199999999999998
sS'VAL-PHE'
p242
F-0.65800000000000003
sS'ARG-THR'
p243
F-1.1299999999999999
sS'TYR-TRP'
p244
F-1.3280000000000001
sS'GLN-GLN'
p245
F-2.7799999999999998
sS'GLU-PHE'
p246
F-0.625
sS'VAL-ILE'
p247
F-0.77200000000000002
sS'HIS-GLN'
p248
F-1.3200000000000001
sS'GLN-GLY'
p249
F0
sS'PHE-ALA'
p250
F-1.282
sS'HIS-GLU'
p251
F-1.7949999999999999
sS'ARG-PRO'
p252
F-1.3029999999999999
sS'HIS-GLY'
p253
F0
sS'SER-ASN'
p254
F-1.276
sS'ALA-THR'
p255
F-0.70699999999999996
sS'GLN-GLU'
p256
F-1.2150000000000001
sS'GLN-LYS'
p257
F-1.4279999999999999
sS'CYS-HIS'
p258
F-0.97599999999999998
sS'GLN-ASP'
p259
F-1.1279999999999999
sS'LEU-HIS'
p260
F-0.68899999999999995
sS'SER-LYS'
p261
F-0.98999999999999999
sS'TRP-LEU'
p262
F-1.3560000000000001
sS'CYS-SER'
p263
F0.877
sS'LYS-THR'
p264
F-0.497
sS'HIS-LEU'
p265
F-0.77900000000000003
sS'LEU-ARG'
p266
F-0.94199999999999995
sS'GLY-VAL'
p267
F0
sS'GLN-ASN'
p268
F-1.804
sS'TYR-ARG'
p269
F-1.645
sS'PRO-TYR'
p270
F-1.738
sS'ASP-PHE'
p271
F-0.025999999999999999
sS'ARG-VAL'
p272
F-0.54200000000000004
sS'ASN-LEU'
p273
F-0.61699999999999999
sS'SER-MET'
p274
F-0.19400000000000001
sS'HIS-ILE'
p275
F-0.45900000000000002
sS'GLY-LEU'
p276
F0
sS'SER-TYR'
p277
F-1.3380000000000001
sS'MET-TYR'
p278
F-1.3500000000000001
sS'GLU-ILE'
p279
F-0.41499999999999998
sS'PHE-CYS'
p280
F-0.84799999999999998
sS'PRO-LEU'
p281
F-0.42999999999999999
sS'GLY-MET'
p282
F0
sS'HIS-THR'
p283
F-0.82899999999999996
sS'THR-GLN'
p284
F-1.3799999999999999
sS'TRP-THR'
p285
F-0.69099999999999995
sS'LYS-LEU'
p286
F0.10000000000000001
sS'THR-GLY'
p287
F0
sS'ALA-LYS'
p288
F-0.090999999999999998
sS'ASP-TRP'
p289
F-0.439
sS'TYR-MET'
p290
F-1.212
sS'PHE-ILE'
p291
F-1.1619999999999999
sS'THR-GLU'
p292
F-1.091
sS'MET-ASN'
p293
F-0.76200000000000001
sS'LEU-TYR'
p294
F-1.008
sS'PHE-PHE'
p295
F-2.2599999999999998
sS'CYS-PHE'
p296
F-0.35499999999999998
sS'TRP-ILE'
p297
F-0.91100000000000003
sS'PRO-ASN'
p298
F-1.0860000000000001
sS'CYS-CYS'
p299
F-4.6760000000000002
sS'SER-ASP'
p300
F-1.448
sS'ARG-MET'
p301
F-0.95899999999999996
sS'SER-PHE'
p302
F-0.65300000000000002
sS'SER-SER'
p303
F-1.9430000000000001
sS'ASN-LYS'
p304
F-0.995
sS'CYS-THR'
p305
F0.095000000000000001
sS'ILE-TRP'
p306
F-0.96399999999999997
sS'PRO-ASP'
p307
F-0.90100000000000002
sS'THR-ASP'
p308
F-0.91900000000000004
sS'SER-CYS'
p309
F0.45200000000000001
sS'MET-ASP'
p310
F-0.188
sS'GLN-MET'
p311
F-1.073
sS'MET-TRP'
p312
F-1.0960000000000001
sS'TRP-CYS'
p313
F0.77000000000000002
sS'GLY-GLN'
p314
F0
sS'THR-LYS'
p315
F-0.55900000000000005
sS'TRP-MET'
p316
F-0.94899999999999995
sS'ARG-ARG'
p317
F-2.581
sS'ALA-ARG'
p318
F-1.028
sS'PRO-PHE'
p319
F-1.1819999999999999
sS'ASN-TRP'
p320
F-0.873
sS'GLU-ARG'
p321
F-2.3450000000000002
sS'HIS-VAL'
p322
F-0.59799999999999998
sS'VAL-ARG'
p323
F-0.50800000000000001
sS'TRP-GLU'
p324
F-0.88100000000000001
sS'PHE-TYR'
p325
F-1.173
sS'VAL-GLN'
p326
F-0.623
sS'TRP-ASN'
p327
F-1.206
sS'TYR-ILE'
p328
F-1.1830000000000001
sS'TRP-GLY'
p329
F0
sS'GLY-GLU'
p330
F0
sS'GLY-HIS'
p331
F0
sS'PHE-SER'
p332
F-0.57899999999999996
sS'TRP-ASP'
p333
F-0.96099999999999997
sS'TRP-GLN'
p334
F-1.3959999999999999
sS'LEU-ALA'
p335
F-0.81599999999999995
sS'VAL-GLU'
p336
F-0.32900000000000001
sS'ALA-HIS'
p337
F-1.357
sS'TYR-ALA'
p338
F-1.155
sS'LEU-THR'
p339
F-0.066000000000000003
sS'TYR-CYS'
p340
F0.105
sS'THR-THR'
p341
F-1.7649999999999999
sS'THR-LEU'
p342
F-0.40799999999999997
sS'VAL-ASN'
p343
F-0.374
sS'LEU-TRP'
p344
F-1.1639999999999999
sS'GLU-ASP'
p345
F-0.84999999999999998
sS'ILE-SER'
p346
F-0.309
sS'ILE-ARG'
p347
F-0.80000000000000004
sS'ASN-SER'
p348
F-1.341
sS'ILE-MET'
p349
F-0.624
sS'MET-PHE'
p350
F-1.0720000000000001
sS'PRO-ALA'
p351
F-1.0449999999999999
sS'PRO-GLY'
p352
F0
sS'GLN-THR'
p353
F-1.1870000000000001
sS'MET-ALA'
p354
F-0.42199999999999999
sS'TRP-SER'
p355
F-1.0329999999999999
sS'ASP-HIS'
p356
F-1.645
sS'ARG-SER'
p357
F-1.4850000000000001
sS'GLN-HIS'
p358
F-1.448
sS'LEU-LEU'
p359
F-1.2929999999999999
sS'ALA-GLN'
p360
F-1.0980000000000001
sS'ASP-ASN'
p361
F-1.2689999999999999
sS'SER-VAL'
p362
F-0.252
sS'MET-ILE'
p363
F-0.72499999999999998
sS'ALA-PRO'
p364
F-0.76900000000000002
sS'ALA-ILE'
p365
F-0.71299999999999997
sS'ALA-GLY'
p366
F0
sS'TRP-TRP'
p367
F-2.4140000000000001
sS'MET-CYS'
p368
F-0.051999999999999998
sS'ALA-GLU'
p369
F-0.77900000000000003
sS'THR-PRO'
p370
F-0.79200000000000004
sS'HIS-ALA'
p371
F-1.0049999999999999
sS'GLN-ILE'
p372
F-0.83899999999999997
sS'GLU-VAL'
p373
F-0.44400000000000001
sS'LYS-ASN'
p374
F-0.97199999999999998
sS'ASN-ALA'
p375
F-0.83899999999999997
sS'GLU-TRP'
p376
F-0.97899999999999998
sS'THR-ILE'
p377
F-0.42399999999999999
sS'ASP-CYS'
p378
F0.70899999999999996
sS'PRO-LYS'
p379
F0.02
sS'TYR-TYR'
p380
F-2.25
sS'ARG-LYS'
p381
F-0.91700000000000004
sS'ILE-ALA'
p382
F-0.56599999999999995
sS'ASP-SER'
p383
F-1.3600000000000001
sS'CYS-LYS'
p384
F-0.108
sS'ARG-ASN'
p385
F-1.849
sS'GLU-ALA'
p386
F-0.83299999999999996
sS'PHE-GLU'
p387
F-0.41199999999999998
sS'GLU-LEU'
p388
F-0.34899999999999998
sS'ASN-TYR'
p389
F-1.413
sS'LYS-HIS'
p390
F-1.268
sS'HIS-PRO'
p391
F-1.1359999999999999
sS'ILE-ILE'
p392
F-1.431
sS'MET-HIS'
p393
F-0.78000000000000003
sS'VAL-GLY'
p394
F0
sS'THR-MET'
p395
F-0.621
sS'PHE-THR'
p396
F-0.90100000000000002
sS'VAL-TRP'
p397
F-0.63300000000000001
sS'PHE-LYS'
p398
F-0.59699999999999998
sS'GLY-PRO'
p399
F0
sS'PHE-GLN'
p400
F-0.93700000000000006
sS'LEU-PHE'
p401
F-1.151
s.