(dp1
S'MET-MET'
p2
F0.34699999999999998
sS'PRO-ILE'
p3
F2.3519999999999999
sS'TYR-LYS'
p4
F2.5670000000000002
sS'VAL-ASP'
p5
F2.9380000000000002
sS'ASP-GLN'
p6
F2.2949999999999999
sS'HIS-TYR'
p7
F2.2909999999999999
sS'ASP-GLU'
p8
F2.6070000000000002
sS'ALA-ASP'
p9
F2.0219999999999998
sS'ASP-GLY'
p10
F0
sS'LEU-VAL'
p11
F2.3460000000000001
sS'TRP-TYR'
p12
F3.036
sS'TYR-LEU'
p13
F2.5150000000000001
sS'LYS-GLU'
p14
F1.4750000000000001
sS'TRP-PHE'
p15
F2.774
sS'ARG-TYR'
p16
F2.2080000000000002
sS'GLU-LYS'
p17
F1.4350000000000001
sS'ILE-HIS'
p18
F2.8109999999999999
sS'GLY-GLY'
p19
F0
sS'LEU-MET'
p20
F2.3599999999999999
sS'GLU-HIS'
p21
F1.7509999999999999
sS'GLY-THR'
p22
F0
sS'ARG-GLU'
p23
F1.4850000000000001
sS'PHE-ASN'
p24
F2.6280000000000001
sS'ASN-MET'
p25
F2.5219999999999998
sS'PRO-THR'
p26
F1.9750000000000001
sS'TYR-GLN'
p27
F2.3210000000000002
sS'ARG-GLY'
p28
F0
sS'VAL-THR'
p29
F2.5099999999999998
sS'ASP-ILE'
p30
F3.0129999999999999
sS'GLY-ILE'
p31
F0
sS'TYR-GLU'
p32
F2.4390000000000001
sS'ARG-GLN'
p33
F1.887
sS'TYR-GLY'
p34
F0
sS'PHE-ASP'
p35
F3.0859999999999999
sS'CYS-ARG'
p36
F2.9500000000000002
sS'HIS-ARG'
p37
F2.4329999999999998
sS'VAL-LYS'
p38
F3.129
sS'LEU-ILE'
p39
F2.2599999999999998
sS'GLN-LEU'
p40
F2.4740000000000002
sS'GLU-MET'
p41
F2.778
sS'ASP-THR'
p42
F2.2810000000000001
sS'ASN-PHE'
p43
F2.766
sS'GLU-PRO'
p44
F2.0830000000000002
sS'LYS-ARG'
p45
F2.6379999999999999
sS'GLY-ASP'
p46
F0
sS'PRO-GLN'
p47
F1.5349999999999999
sS'CYS-MET'
p48
F2.653
sS'GLU-THR'
p49
F2.0990000000000002
sS'ILE-THR'
p50
F2.3820000000000001
sS'PHE-GLY'
p51
F0
sS'SER-PRO'
p52
F1.7190000000000001
sS'GLY-CYS'
p53
F0
sS'ARG-LEU'
p54
F2.4390000000000001
sS'PRO-GLU'
p55
F2.0880000000000001
sS'ASP-LEU'
p56
F2.7490000000000001
sS'PHE-VAL'
p57
F2.5960000000000001
sS'ASN-VAL'
p58
F2.6030000000000002
sS'PRO-VAL'
p59
F2.3490000000000002
sS'ALA-MET'
p60
F1.931
sS'LEU-PRO'
p61
F2.2120000000000002
sS'LEU-SER'
p62
F2.2639999999999998
sS'ASN-ARG'
p63
F1.893
sS'SER-THR'
p64
F1.913
sS'LYS-VAL'
p65
F3.0089999999999999
sS'LYS-PRO'
p66
F2.8919999999999999
sS'GLN-VAL'
p67
F2.4750000000000001
sS'TYR-PHE'
p68
F2.714
sS'ASP-VAL'
p69
F3.21
sS'ASN-GLY'
p70
F0
sS'ARG-PHE'
p71
F2.6480000000000001
sS'HIS-TRP'
p72
F2.9590000000000001
sS'LYS-GLN'
p73
F1.893
sS'ASN-GLU'
p74
F1.899
sS'CYS-GLN'
p75
F2.8490000000000002
sS'TYR-PRO'
p76
F1.825
sS'ARG-ILE'
p77
F2.6619999999999999
sS'CYS-GLU'
p78
F3.6539999999999999
sS'ASN-GLN'
p79
F1.5629999999999999
sS'CYS-GLY'
p80
F0
sS'GLN-SER'
p81
F1.5920000000000001
sS'HIS-LYS'
p82
F2.7650000000000001
sS'LEU-LYS'
p83
F3.1299999999999999
sS'LYS-GLY'
p84
F0
sS'VAL-MET'
p85
F2.5230000000000001
sS'ALA-ALA'
p86
F-0.57399999999999995
sS'THR-SER'
p87
F1.8380000000000001
sS'PRO-PRO'
p88
F0.59099999999999997
sS'ILE-PHE'
p89
F2.5150000000000001
sS'PHE-LEU'
p90
F2.4169999999999998
sS'GLU-GLU'
p91
F1.343
sS'TYR-ASP'
p92
F2.4420000000000002
sS'GLY-ALA'
p93
F0
sS'TYR-ASN'
p94
F2.1669999999999998
sS'GLU-GLN'
p95
F2.4249999999999998
sS'TRP-ARG'
p96
F2.6110000000000002
sS'LEU-GLU'
p97
F2.895
sS'LEU-GLY'
p98
F0
sS'LYS-SER'
p99
F1.8779999999999999
sS'MET-VAL'
p100
F2.6680000000000001
sS'SER-ALA'
p101
F1.1659999999999999
sS'PRO-HIS'
p102
F2.173
sS'MET-THR'
p103
F2.3370000000000002
sS'ALA-PHE'
p104
F1.9910000000000001
sS'MET-PRO'
p105
F2.4849999999999999
sS'GLY-SER'
p106
F0
sS'LEU-GLN'
p107
F2.516
sS'VAL-LEU'
p108
F2.3180000000000001
sS'LEU-CYS'
p109
F3.0249999999999999
sS'LYS-TYR'
p110
F2.383
sS'ASP-ALA'
p111
F1.9850000000000001
sS'ILE-LEU'
p112
F2.222
sS'TRP-VAL'
p113
F2.9279999999999999
sS'PHE-PRO'
p114
F2.113
sS'GLU-GLY'
p115
F0
sS'ARG-TRP'
p116
F2.4260000000000002
sS'MET-GLN'
p117
F2.3809999999999998
sS'HIS-PHE'
p118
F2.9180000000000001
sS'MET-ARG'
p119
F2.9119999999999999
sS'TYR-THR'
p120
F2.528
sS'SER-ARG'
p121
F1.883
sS'THR-ARG'
p122
F2.2429999999999999
sS'CYS-ILE'
p123
F2.9910000000000001
sS'LEU-ASN'
p124
F2.48
sS'LEU-ASP'
p125
F2.7949999999999999
sS'PHE-TRP'
p126
F3.0150000000000001
sS'MET-GLY'
p127
F0
sS'THR-PHE'
p128
F2.403
sS'MET-GLU'
p129
F2.839
sS'THR-TRP'
p130
F2.9820000000000002
sS'THR-TYR'
p131
F2.3340000000000001
sS'CYS-VAL'
p132
F3.0569999999999999
sS'ARG-ALA'
p133
F1.964
sS'ALA-TYR'
p134
F1.74
sS'ASP-PRO'
p135
F2.0209999999999999
sS'ARG-CYS'
p136
F2.956
sS'GLN-ARG'
p137
F2.0339999999999998
sS'SER-HIS'
p138
F2.0129999999999999
sS'PRO-SER'
p139
F1.7869999999999999
sS'VAL-VAL'
p140
F1.0660000000000001
sS'GLN-TRP'
p141
F2.79
sS'GLY-LYS'
p142
F0
sS'CYS-ASN'
p143
F2.4049999999999998
sS'GLY-TRP'
p144
F0
sS'THR-CYS'
p145
F2.7170000000000001
sS'LYS-LYS'
p146
F1.492
sS'CYS-ASP'
p147
F2.9340000000000002
sS'VAL-PRO'
p148
F2.4209999999999998
sS'THR-VAL'
p149
F2.379
sS'ASP-TYR'
p150
F2.2250000000000001
sS'PRO-CYS'
p151
F2.1059999999999999
sS'VAL-SER'
p152
F2.2050000000000001
sS'ARG-HIS'
p153
F2.3929999999999998
sS'CYS-PRO'
p154
F1.804
sS'MET-LYS'
p155
F2.726
sS'ALA-SER'
p156
F1.3120000000000001
sS'TYR-SER'
p157
F2.0089999999999999
sS'GLY-ARG'
p158
F0
sS'GLN-ALA'
p159
F1.73
sS'MET-LEU'
p160
F2.1739999999999999
sS'ASN-HIS'
p161
F2.355
sS'VAL-CYS'
p162
F3.0489999999999999
sS'GLN-TYR'
p163
F2.1930000000000001
sS'MET-SER'
p164
F2.3370000000000002
sS'ALA-TRP'
p165
F1.7250000000000001
sS'GLU-ASN'
p166
F1.8879999999999999
sS'CYS-ALA'
p167
F2.1909999999999998
sS'GLY-ASN'
p168
F0
sS'ASN-ASP'
p169
F1.9830000000000001
sS'ASN-PRO'
p170
F1.7889999999999999
sS'PRO-ARG'
p171
F1.9159999999999999
sS'LYS-TRP'
p172
F3.1619999999999999
sS'ASN-ASN'
p173
F0.096000000000000002
sS'THR-ALA'
p174
F1.5580000000000001
sS'LYS-ALA'
p175
F2.5870000000000002
sS'SER-GLN'
p176
F1.758
sS'ILE-VAL'
p177
F2.258
sS'ASP-ARG'
p178
F1.4139999999999999
sS'ASP-MET'
p179
F2.9910000000000001
sS'CYS-TYR'
p180
F3.6699999999999999
sS'PRO-TRP'
p181
F2.2650000000000001
sS'ILE-LYS'
p182
F3.1070000000000002
sS'TRP-ALA'
p183
F2.0059999999999998
sS'ILE-CYS'
p184
F2.907
sS'LYS-ILE'
p185
F2.8260000000000001
sS'GLN-CYS'
p186
F3.4670000000000001
sS'ARG-ASP'
p187
F1.2589999999999999
sS'SER-GLU'
p188
F1.673
sS'TRP-HIS'
p189
F2.851
sS'ALA-ASN'
p190
F1.7769999999999999
sS'GLU-CYS'
p191
F3.5379999999999998
sS'ALA-CYS'
p192
F1.7589999999999999
sS'PRO-MET'
p193
F2.2210000000000001
sS'TYR-HIS'
p194
F2.4009999999999998
sS'PHE-MET'
p195
F2.2639999999999998
sS'GLU-TYR'
p196
F2.3130000000000002
sS'SER-TRP'
p197
F2.4350000000000001
sS'PHE-ARG'
p198
F2.766
sS'THR-HIS'
p199
F2.4990000000000001
sS'TYR-VAL'
p200
F2.5099999999999998
sS'SER-ILE'
p201
F2.468
sS'GLN-PRO'
p202
F1.7030000000000001
sS'ALA-VAL'
p203
F1.847
sS'HIS-HIS'
p204
F0.223
sS'THR-ASN'
p205
F1.9870000000000001
sS'CYS-LEU'
p206
F3.0179999999999998
sS'LYS-MET'
p207
F2.98
sS'LYS-ASP'
p208
F1.4950000000000001
sS'HIS-ASN'
p209
F2.294
sS'ILE-GLN'
p210
F2.4569999999999999
sS'VAL-HIS'
p211
F2.7330000000000001
sS'ALA-LEU'
p212
F1.7250000000000001
sS'HIS-ASP'
p213
F1.946
sS'ILE-TYR'
p214
F2.5739999999999998
sS'ILE-GLU'
p215
F2.8180000000000001
sS'ASP-ASP'
p216
F1.365
sS'ILE-GLY'
p217
F0
sS'ASN-CYS'
p218
F2.4060000000000001
sS'GLU-SER'
p219
F1.7569999999999999
sS'ILE-ASN'
p220
F2.7090000000000001
sS'HIS-CYS'
p221
F2.6299999999999999
sS'HIS-MET'
p222
F3.3159999999999998
sS'ILE-PRO'
p223
F2.2869999999999999
sS'LYS-PHE'
p224
F3.5249999999999999
sS'GLY-PHE'
p225
F0
sS'ILE-ASP'
p226
F3.0369999999999999
sS'PHE-HIS'
p227
F3.0859999999999999
sS'GLY-TYR'
p228
F0
sS'SER-GLY'
p229
F0
sS'CYS-TRP'
p230
F3.6019999999999999
sS'ASP-LYS'
p231
F1.474
sS'ASN-ILE'
p232
F2.6280000000000001
sS'HIS-SER'
p233
F1.996
sS'LYS-CYS'
p234
F3.8839999999999999
sS'TRP-PRO'
p235
F2.4609999999999999
sS'ASN-THR'
p236
F1.9750000000000001
sS'GLN-PHE'
p237
F2.7599999999999998
sS'VAL-ALA'
p238
F1.9790000000000001
sS'SER-LEU'
p239
F2.27
sS'TRP-LYS'
p240
F3.2959999999999998
sS'VAL-TYR'
p241
F2.6160000000000001
sS'VAL-PHE'
p242
F2.6640000000000001
sS'ARG-THR'
p243
F2.2090000000000001
sS'TYR-TRP'
p244
F2.8639999999999999
sS'GLN-GLN'
p245
F0.35799999999999998
sS'GLU-PHE'
p246
F3.0099999999999998
sS'VAL-ILE'
p247
F2.266
sS'HIS-GLN'
p248
F2.3660000000000001
sS'GLN-GLY'
p249
F0
sS'PHE-ALA'
p250
F1.8029999999999999
sS'HIS-GLU'
p251
F1.9910000000000001
sS'ARG-PRO'
p252
F1.917
sS'HIS-GLY'
p253
F0
sS'SER-ASN'
p254
F1.657
sS'ALA-THR'
p255
F1.675
sS'GLN-GLU'
p256
F2.1859999999999999
sS'GLN-LYS'
p257
F1.9199999999999999
sS'CYS-HIS'
p258
F2.4319999999999999
sS'GLN-ASP'
p259
F2.1560000000000001
sS'LEU-HIS'
p260
F2.5510000000000002
sS'SER-LYS'
p261
F1.9410000000000001
sS'TRP-LEU'
p262
F2.6539999999999999
sS'CYS-SER'
p263
F3.605
sS'LYS-THR'
p264
F2.4500000000000002
sS'HIS-LEU'
p265
F2.6800000000000002
sS'LEU-ARG'
p266
F2.577
sS'GLY-VAL'
p267
F0
sS'GLN-ASN'
p268
F1.655
sS'TYR-ARG'
p269
F2.3079999999999998
sS'PRO-TYR'
p270
F1.7470000000000001
sS'ASP-PHE'
p271
F3.2509999999999999
sS'ARG-VAL'
p272
F2.5800000000000001
sS'ASN-LEU'
p273
F2.585
sS'SER-MET'
p274
F2.5129999999999999
sS'HIS-ILE'
p275
F2.9319999999999999
sS'GLY-LEU'
p276
F0
sS'SER-TYR'
p277
F1.984
sS'MET-TYR'
p278
F2.21
sS'GLU-ILE'
p279
F2.8170000000000002
sS'PHE-CYS'
p280
F2.4590000000000001
sS'PRO-LEU'
p281
F2.3889999999999998
sS'GLY-MET'
p282
F0
sS'HIS-THR'
p283
F2.4910000000000001
sS'THR-GLN'
p284
F1.776
sS'TRP-THR'
p285
F2.9369999999999998
sS'LYS-LEU'
p286
F3.1709999999999998
sS'THR-GLY'
p287
F0
sS'ALA-LYS'
p288
F2.54
sS'ASP-TRP'
p289
F3.2290000000000001
sS'TYR-MET'
p290
F2.4319999999999999
sS'PHE-ILE'
p291
F2.423
sS'THR-GLU'
p292
F2.101
sS'MET-ASN'
p293
F2.3780000000000001
sS'LEU-TYR'
p294
F2.496
sS'PHE-PHE'
p295
F1.143
sS'CYS-PHE'
p296
F2.8759999999999999
sS'TRP-ILE'
p297
F2.9279999999999999
sS'PRO-ASN'
p298
F1.8540000000000001
sS'CYS-CYS'
p299
F-2.5089999999999999
sS'SER-ASP'
p300
F1.6559999999999999
sS'ARG-MET'
p301
F2.6349999999999998
sS'SER-PHE'
p302
F2.5070000000000001
sS'SER-SER'
p303
F-0.033000000000000002
sS'ASN-LYS'
p304
F2.1200000000000001
sS'CYS-THR'
p305
F2.9849999999999999
sS'ILE-TRP'
p306
F2.9609999999999999
sS'PRO-ASP'
p307
F1.9350000000000001
sS'THR-ASP'
p308
F2.2000000000000002
sS'SER-CYS'
p309
F2.556
sS'MET-ASP'
p310
F2.9969999999999999
sS'GLN-MET'
p311
F2.5110000000000001
sS'MET-TRP'
p312
F2.8399999999999999
sS'TRP-CYS'
p313
F4.2889999999999997
sS'GLY-GLN'
p314
F0
sS'THR-LYS'
p315
F2.4350000000000001
sS'TRP-MET'
p316
F2.9319999999999999
sS'ARG-ARG'
p317
F0.85099999999999998
sS'ALA-ARG'
p318
F1.956
sS'PRO-PHE'
p319
F2.1240000000000001
sS'ASN-TRP'
p320
F3.0129999999999999
sS'GLU-ARG'
p321
F1.391
sS'HIS-VAL'
p322
F2.8220000000000001
sS'VAL-ARG'
p323
F2.5960000000000001
sS'TRP-GLU'
p324
F2.9620000000000002
sS'PHE-TYR'
p325
F2.7170000000000001
sS'VAL-GLN'
p326
F2.4990000000000001
sS'TRP-ASN'
p327
F2.637
sS'TYR-ILE'
p328
F2.4159999999999999
sS'TRP-GLY'
p329
F0
sS'GLY-GLU'
p330
F0
sS'GLY-HIS'
p331
F0
sS'PHE-SER'
p332
F2.645
sS'TRP-ASP'
p333
F3.0110000000000001
sS'TRP-GLN'
p334
F2.613
sS'LEU-ALA'
p335
F1.7450000000000001
sS'VAL-GLU'
p336
F2.7349999999999999
sS'ALA-HIS'
p337
F1.667
sS'TYR-ALA'
p338
F1.9450000000000001
sS'LEU-THR'
p339
F2.661
sS'TYR-CYS'
p340
F3.484
sS'THR-THR'
p341
F0.47199999999999998
sS'THR-LEU'
p342
F2.4399999999999999
sS'VAL-ASN'
p343
F2.4260000000000002
sS'LEU-TRP'
p344
F2.5600000000000001
sS'GLU-ASP'
p345
F2.4990000000000001
sS'ILE-SER'
p346
F2.411
sS'ILE-ARG'
p347
F2.637
sS'ASN-SER'
p348
F1.617
sS'ILE-MET'
p349
F2.4940000000000002
sS'MET-PHE'
p350
F2.2949999999999999
sS'PRO-ALA'
p351
F1.383
sS'PRO-GLY'
p352
F0
sS'GLN-THR'
p353
F1.9410000000000001
sS'MET-ALA'
p354
F2.1539999999999999
sS'TRP-SER'
p355
F2.516
sS'ASP-HIS'
p356
F1.861
sS'ARG-SER'
p357
F1.8120000000000001
sS'GLN-HIS'
p358
F2.2759999999999998
sS'LEU-LEU'
p359
F1.097
sS'ALA-GLN'
p360
F1.722
sS'ASP-ASN'
p361
F1.948
sS'SER-VAL'
p362
F2.2559999999999998
sS'MET-ILE'
p363
F2.6440000000000001
sS'ALA-PRO'
p364
F1.6619999999999999
sS'ALA-ILE'
p365
F1.821
sS'ALA-GLY'
p366
F0
sS'TRP-TRP'
p367
F1.452
sS'MET-CYS'
p368
F2.8969999999999998
sS'ALA-GLU'
p369
F1.978
sS'THR-PRO'
p370
F1.8169999999999999
sS'HIS-ALA'
p371
F1.9730000000000001
sS'GLN-ILE'
p372
F2.431
sS'GLU-VAL'
p373
F2.5920000000000001
sS'LYS-ASN'
p374
F2.2879999999999998
sS'ASN-ALA'
p375
F1.7609999999999999
sS'GLU-TRP'
p376
F2.9769999999999999
sS'THR-ILE'
p377
F2.2909999999999999
sS'ASP-CYS'
p378
F3.548
sS'PRO-LYS'
p379
F3.0110000000000001
sS'TYR-TYR'
p380
F1.375
sS'ARG-LYS'
p381
F2.577
sS'ILE-ALA'
p382
F2.036
sS'ASP-SER'
p383
F1.73
sS'CYS-LYS'
p384
F2.9609999999999999
sS'ARG-ASN'
p385
F1.7250000000000001
sS'GLU-ALA'
p386
F1.9650000000000001
sS'PHE-GLU'
p387
F3.1560000000000001
sS'GLU-LEU'
p388
F2.7200000000000002
sS'ASN-TYR'
p389
F2.266
sS'LYS-HIS'
p390
F2.464
sS'HIS-PRO'
p391
F2.2189999999999999
sS'ILE-ILE'
p392
F0.86799999999999999
sS'MET-HIS'
p393
F2.7919999999999998
sS'VAL-GLY'
p394
F0
sS'THR-MET'
p395
F2.3610000000000002
sS'PHE-THR'
p396
F2.4900000000000002
sS'VAL-TRP'
p397
F2.8999999999999999
sS'PHE-LYS'
p398
F3.1850000000000001
sS'GLY-PRO'
p399
F0
sS'PHE-GLN'
p400
F2.706
sS'LEU-PHE'
p401
F2.411
s.