(dp1
S'MET-MET'
p2
F-3.7949999999999999
sS'PRO-ILE'
p3
F-1.6339999999999999
sS'TYR-LYS'
p4
F-2.1859999999999999
sS'VAL-ASP'
p5
F-1.0409999999999999
sS'ASP-GLN'
p6
F-2.02
sS'HIS-TYR'
p7
F-2.5750000000000002
sS'ASP-GLU'
p8
F-1.696
sS'ALA-ASP'
p9
F-1.8560000000000001
sS'ASP-GLY'
p10
F0
sS'LEU-VAL'
p11
F-1.641
sS'TRP-TYR'
p12
F-2.1539999999999999
sS'TYR-LEU'
p13
F-2.2450000000000001
sS'LYS-GLU'
p14
F-2.9359999999999999
sS'TRP-PHE'
p15
F-2.3769999999999998
sS'ARG-TYR'
p16
F-2.7210000000000001
sS'GLU-LYS'
p17
F-2.9620000000000002
sS'ILE-HIS'
p18
F-1.623
sS'GLY-GLY'
p19
F0
sS'LEU-MET'
p20
F-1.6719999999999999
sS'GLU-HIS'
p21
F-2.8149999999999999
sS'GLY-THR'
p22
F0
sS'ARG-GLU'
p23
F-3.2069999999999999
sS'PHE-ASN'
p24
F-1.996
sS'ASN-MET'
p25
F-1.5900000000000001
sS'PRO-THR'
p26
F-1.724
sS'TYR-GLN'
p27
F-2.4239999999999999
sS'ARG-GLY'
p28
F0
sS'VAL-THR'
p29
F-1.292
sS'ASP-ILE'
p30
F-1.1160000000000001
sS'GLY-ILE'
p31
F0
sS'TYR-GLU'
p32
F-2.3980000000000001
sS'ARG-GLN'
p33
F-2.778
sS'TYR-GLY'
p34
F0
sS'PHE-ASP'
p35
F-1.466
sS'CYS-ARG'
p36
F-1.446
sS'HIS-ARG'
p37
F-2.3010000000000002
sS'VAL-LYS'
p38
F-1.0149999999999999
sS'LEU-ILE'
p39
F-1.835
sS'GLN-LEU'
p40
F-1.8360000000000001
sS'GLU-MET'
p41
F-1.5189999999999999
sS'ASP-THR'
p42
F-1.722
sS'ASN-PHE'
p43
F-1.881
sS'GLU-PRO'
p44
F-2.133
sS'LYS-ARG'
p45
F-1.976
sS'GLY-ASP'
p46
F0
sS'PRO-GLN'
p47
F-2.5880000000000001
sS'CYS-MET'
p48
F-1.2529999999999999
sS'GLU-THR'
p49
F-2.1139999999999999
sS'ILE-THR'
p50
F-1.554
sS'PHE-GLY'
p51
F0
sS'SER-PRO'
p52
F-1.95
sS'GLY-CYS'
p53
F0
sS'ARG-LEU'
p54
F-2.0939999999999999
sS'PRO-GLU'
p55
F-2.1120000000000001
sS'ASP-LEU'
p56
F-1.377
sS'PHE-VAL'
p57
F-1.9019999999999999
sS'ASN-VAL'
p58
F-1.375
sS'PRO-VAL'
p59
F-1.3520000000000001
sS'ALA-MET'
p60
F-1.8959999999999999
sS'LEU-PRO'
p61
F-1.78
sS'LEU-SER'
p62
F-1.649
sS'ASN-ARG'
p63
F-2.6920000000000002
sS'SER-THR'
p64
F-1.79
sS'LYS-VAL'
p65
F-1.127
sS'LYS-PRO'
p66
F-1.2230000000000001
sS'GLN-VAL'
p67
F-1.665
sS'TYR-PHE'
p68
F-2.2130000000000001
sS'ASP-VAL'
p69
F-0.81399999999999995
sS'ASN-GLY'
p70
F0
sS'ARG-PHE'
p71
F-2.2120000000000002
sS'HIS-TRP'
p72
F-2.1120000000000001
sS'LYS-GLN'
p73
F-2.504
sS'ASN-GLU'
p74
F-2.4169999999999998
sS'CYS-GLN'
p75
F-1.069
sS'TYR-PRO'
p76
F-2.8380000000000001
sS'ARG-ILE'
p77
F-1.875
sS'CYS-GLU'
p78
F-0.42199999999999999
sS'ASN-GLN'
p79
F-2.7759999999999998
sS'CYS-GLY'
p80
F0
sS'GLN-SER'
p81
F-2.5190000000000001
sS'HIS-LYS'
p82
F-1.7889999999999999
sS'LEU-LYS'
p83
F-1.1379999999999999
sS'LYS-GLY'
p84
F0
sS'VAL-MET'
p85
F-1.4199999999999999
sS'ALA-ALA'
p86
F-3.1669999999999998
sS'THR-SER'
p87
F-1.8540000000000001
sS'PRO-PRO'
p88
F-3.246
sS'ILE-PHE'
p89
F-2.1349999999999998
sS'PHE-LEU'
p90
F-2.1760000000000002
sS'GLU-GLU'
p91
F-3.21
sS'TYR-ASP'
p92
F-2.2559999999999998
sS'GLY-ALA'
p93
F0
sS'TYR-ASN'
p94
F-2.4830000000000001
sS'GLU-GLN'
p95
F-2.0129999999999999
sS'TRP-ARG'
p96
F-2.4929999999999999
sS'LEU-GLU'
p97
F-1.375
sS'LEU-GLY'
p98
F0
sS'LYS-SER'
p99
F-2.1600000000000001
sS'MET-VAL'
p100
F-1.4139999999999999
sS'SER-ALA'
p101
F-2.1520000000000001
sS'PRO-HIS'
p102
F-2.1949999999999998
sS'MET-THR'
p103
F-1.6499999999999999
sS'ALA-PHE'
p104
F-2.403
sS'MET-PRO'
p105
F-1.49
sS'GLY-SER'
p106
F0
sS'LEU-GLN'
p107
F-1.7529999999999999
sS'VAL-LEU'
p108
F-1.659
sS'LEU-CYS'
p109
F-0.89000000000000001
sS'LYS-TYR'
p110
F-2.2829999999999999
sS'ASP-ALA'
p111
F-1.877
sS'ILE-LEU'
p112
F-1.8819999999999999
sS'TRP-VAL'
p113
F-1.837
sS'PHE-PRO'
p114
F-2.3170000000000002
sS'GLU-GLY'
p115
F0
sS'ARG-TRP'
p116
F-2.6640000000000001
sS'MET-GLN'
p117
F-1.8149999999999999
sS'HIS-PHE'
p118
F-1.7969999999999999
sS'MET-ARG'
p119
F-1.702
sS'TYR-THR'
p120
F-2.0619999999999998
sS'SER-ARG'
p121
F-2.4980000000000002
sS'THR-ARG'
p122
F-2.3450000000000002
sS'CYS-ILE'
p123
F-0.871
sS'LEU-ASN'
p124
F-1.591
sS'LEU-ASP'
p125
F-1.266
sS'PHE-TRP'
p126
F-2.1480000000000001
sS'MET-GLY'
p127
F0
sS'THR-PHE'
p128
F-2.008
sS'MET-GLU'
p129
F-1.466
sS'THR-TRP'
p130
F-1.7130000000000001
sS'THR-TYR'
p131
F-2.23
sS'CYS-VAL'
p132
F-0.62
sS'ARG-ALA'
p133
F-2.2999999999999998
sS'ALA-TYR'
p134
F-2.718
sS'ASP-PRO'
p135
F-1.9139999999999999
sS'ARG-CYS'
p136
F-1.3799999999999999
sS'GLN-ARG'
p137
F-2.585
sS'SER-HIS'
p138
F-2.2679999999999998
sS'PRO-SER'
p139
F-1.9450000000000001
sS'VAL-VAL'
p140
F-2.823
sS'GLN-TRP'
p141
F-2.2509999999999999
sS'GLY-LYS'
p142
F0
sS'CYS-ASN'
p143
F-1.4410000000000001
sS'GLY-TRP'
p144
F0
sS'THR-CYS'
p145
F-0.89400000000000002
sS'LYS-LYS'
p146
F-2.8119999999999998
sS'CYS-ASP'
p147
F-1.1080000000000001
sS'VAL-PRO'
p148
F-1.3480000000000001
sS'THR-VAL'
p149
F-1.306
sS'ASP-TYR'
p150
F-2.4260000000000002
sS'PRO-CYS'
p151
F-1.6399999999999999
sS'VAL-SER'
p152
F-1.4650000000000001
sS'ARG-HIS'
p153
F-2.444
sS'CYS-PRO'
p154
F-1.831
sS'MET-LYS'
p155
F-1.4970000000000001
sS'ALA-SER'
p156
F-1.9359999999999999
sS'TYR-SER'
p157
F-2.6000000000000001
sS'GLY-ARG'
p158
F0
sS'GLN-ALA'
p159
F-2.3439999999999999
sS'MET-LEU'
p160
F-1.861
sS'ASN-HIS'
p161
F-2.1160000000000001
sS'VAL-CYS'
p162
F-0.61799999999999999
sS'GLN-TYR'
p163
F-2.5489999999999999
sS'MET-SER'
p164
F-1.47
sS'ALA-TRP'
p165
F-2.843
sS'GLU-ASN'
p166
F-2.3860000000000001
sS'CYS-ALA'
p167
F-1.04
sS'GLY-ASN'
p168
F0
sS'ASN-ASP'
p169
F-2.1019999999999999
sS'ASN-PRO'
p170
F-2.2770000000000001
sS'PRO-ARG'
p171
F-2.488
sS'LYS-TRP'
p172
F-1.9179999999999999
sS'ASN-ASN'
p173
F-4.1609999999999996
sS'THR-ALA'
p174
F-2.0150000000000001
sS'LYS-ALA'
p175
F-1.4830000000000001
sS'SER-GLN'
p176
F-2.4159999999999999
sS'ILE-VAL'
p177
F-1.6850000000000001
sS'ASP-ARG'
p178
F-3.2000000000000002
sS'ASP-MET'
p179
F-1.1459999999999999
sS'CYS-TYR'
p180
F-0.79800000000000004
sS'PRO-TRP'
p181
F-2.548
sS'ILE-LYS'
p182
F-1.129
sS'TRP-ALA'
p183
F-2.7040000000000002
sS'ILE-CYS'
p184
F-0.999
sS'LYS-ILE'
p185
F-1.502
sS'GLN-CYS'
p186
F-0.52900000000000003
sS'ARG-ASP'
p187
F-3.2639999999999998
sS'SER-GLU'
p188
F-2.4550000000000001
sS'TRP-HIS'
p189
F-2.1970000000000001
sS'ALA-ASN'
p190
F-2.0659999999999998
sS'GLU-CYS'
p191
F-0.54800000000000004
sS'ALA-CYS'
p192
F-1.3979999999999999
sS'PRO-MET'
p193
F-1.742
sS'TYR-HIS'
p194
F-2.4689999999999999
sS'PHE-MET'
p195
F-2.2930000000000001
sS'GLU-TYR'
p196
F-2.4889999999999999
sS'SER-TRP'
p197
F-2.282
sS'PHE-ARG'
p198
F-2.0739999999999998
sS'THR-HIS'
p199
F-1.8220000000000001
sS'TYR-VAL'
p200
F-2.0830000000000002
sS'SER-ILE'
p201
F-1.496
sS'GLN-PRO'
p202
F-2.4159999999999999
sS'ALA-VAL'
p203
F-1.7070000000000001
sS'HIS-HIS'
p204
F-4.6230000000000002
sS'THR-ASN'
p205
F-2.0619999999999998
sS'CYS-LEU'
p206
F-0.83699999999999997
sS'LYS-MET'
p207
F-1.323
sS'LYS-ASP'
p208
F-2.7309999999999999
sS'HIS-ASN'
p209
F-2.157
sS'ILE-GLN'
p210
F-1.8149999999999999
sS'VAL-HIS'
p211
F-1.6100000000000001
sS'ALA-LEU'
p212
F-2.1150000000000002
sS'HIS-ASP'
p213
F-2.5489999999999999
sS'ILE-TYR'
p214
F-2.1659999999999999
sS'ILE-GLU'
p215
F-1.4059999999999999
sS'ASP-ASP'
p216
F-2.8650000000000002
sS'ILE-GLY'
p217
F0
sS'ASN-CYS'
p218
F-1.4339999999999999
sS'GLU-SER'
p219
F-2.4350000000000001
sS'ILE-ASN'
p220
F-1.4430000000000001
sS'HIS-CYS'
p221
F-1.6739999999999999
sS'HIS-MET'
p222
F-1.111
sS'ILE-PRO'
p223
F-1.663
sS'LYS-PHE'
p224
F-1.1779999999999999
sS'GLY-PHE'
p225
F0
sS'ILE-ASP'
p226
F-1.0429999999999999
sS'PHE-HIS'
p227
F-1.7490000000000001
sS'GLY-TYR'
p228
F0
sS'SER-GLY'
p229
F0
sS'CYS-TRP'
p230
F-1.026
sS'ASP-LYS'
p231
F-2.7799999999999998
sS'ASN-ILE'
p232
F-1.522
sS'HIS-SER'
p233
F-2.2709999999999999
sS'LYS-CYS'
p234
F-0.034000000000000002
sS'TRP-PRO'
p235
F-2.3490000000000002
sS'ASN-THR'
p236
F-2.0550000000000002
sS'GLN-PHE'
p237
F-1.909
sS'VAL-ALA'
p238
F-1.6699999999999999
sS'SER-LEU'
p239
F-1.6359999999999999
sS'TRP-LYS'
p240
F-1.7709999999999999
sS'VAL-TYR'
p241
F-1.95
sS'VAL-PHE'
p242
F-1.841
sS'ARG-THR'
p243
F-2.351
sS'TYR-TRP'
p244
F-2.331
sS'GLN-GLN'
p245
F-4.165
sS'GLU-PHE'
p246
F-1.667
sS'VAL-ILE'
p247
F-1.722
sS'HIS-GLN'
p248
F-2.165
sS'GLN-GLY'
p249
F0
sS'PHE-ALA'
p250
F-2.5510000000000002
sS'HIS-GLU'
p251
F-2.5550000000000002
sS'ARG-PRO'
p252
F-2.4169999999999998
sS'HIS-GLY'
p253
F0
sS'SER-ASN'
p254
F-2.3029999999999999
sS'ALA-THR'
p255
F-1.9350000000000001
sS'GLN-GLU'
p256
F-2.1539999999999999
sS'GLN-LYS'
p257
F-2.4289999999999998
sS'CYS-HIS'
p258
F-1.8400000000000001
sS'GLN-ASP'
p259
F-2.0950000000000002
sS'LEU-HIS'
p260
F-1.8140000000000001
sS'SER-LYS'
p261
F-2.1160000000000001
sS'TRP-LEU'
p262
F-2.2869999999999999
sS'CYS-SER'
p263
F0.32900000000000001
sS'LYS-THR'
p264
F-1.661
sS'HIS-LEU'
p265
F-1.76
sS'LEU-ARG'
p266
F-1.982
sS'GLY-VAL'
p267
F0
sS'GLN-ASN'
p268
F-2.6240000000000001
sS'TYR-ARG'
p269
F-2.597
sS'PRO-TYR'
p270
F-2.863
sS'ASP-PHE'
p271
F-1.3260000000000001
sS'ARG-VAL'
p272
F-1.833
sS'ASN-LEU'
p273
F-1.571
sS'SER-MET'
p274
F-1.3049999999999999
sS'HIS-ILE'
p275
F-1.4590000000000001
sS'GLY-LEU'
p276
F0
sS'SER-TYR'
p277
F-2.5
sS'MET-TYR'
p278
F-2.4460000000000002
sS'GLU-ILE'
p279
F-1.4470000000000001
sS'PHE-CYS'
p280
F-1.9490000000000001
sS'PRO-LEU'
p281
F-1.621
sS'GLY-MET'
p282
F0
sS'HIS-THR'
p283
F-1.8819999999999999
sS'THR-GLN'
p284
F-2.3809999999999998
sS'TRP-THR'
p285
F-1.7430000000000001
sS'LYS-LEU'
p286
F-1.0900000000000001
sS'THR-GLY'
p287
F0
sS'ALA-LYS'
p288
F-1.5029999999999999
sS'ASP-TRP'
p289
F-1.611
sS'TYR-MET'
p290
F-2.3999999999999999
sS'PHE-ILE'
p291
F-2.1659999999999999
sS'THR-GLU'
p292
F-2.0499999999999998
sS'MET-ASN'
p293
F-1.6739999999999999
sS'LEU-TYR'
p294
F-2.2650000000000001
sS'PHE-PHE'
p295
F-3.8530000000000002
sS'CYS-PHE'
p296
F-1.532
sS'TRP-ILE'
p297
F-1.9319999999999999
sS'PRO-ASN'
p298
F-2.1070000000000002
sS'CYS-CYS'
p299
F-5.8949999999999996
sS'SER-ASP'
p300
F-2.3100000000000001
sS'ARG-MET'
p301
F-1.9410000000000001
sS'SER-PHE'
p302
F-1.923
sS'SER-SER'
p303
F-3.444
sS'ASN-LYS'
p304
F-2.0880000000000001
sS'CYS-THR'
p305
F-0.61699999999999999
sS'ILE-TRP'
p306
F-1.9890000000000001
sS'PRO-ASP'
p307
F-2.0009999999999999
sS'THR-ASP'
p308
F-1.8149999999999999
sS'SER-CYS'
p309
F-0.60499999999999998
sS'MET-ASP'
p310
F-1.1479999999999999
sS'GLN-MET'
p311
F-1.774
sS'MET-TRP'
p312
F-2.0739999999999998
sS'TRP-CYS'
p313
F-0.34699999999999998
sS'GLY-GLN'
p314
F0
sS'THR-LYS'
p315
F-1.677
sS'TRP-MET'
p316
F-1.972
sS'ARG-ARG'
p317
F-4.0780000000000003
sS'ALA-ARG'
p318
F-2.3919999999999999
sS'PRO-PHE'
p319
F-2.2919999999999998
sS'ASN-TRP'
p320
F-1.9259999999999999
sS'GLU-ARG'
p321
F-3.1840000000000002
sS'HIS-VAL'
p322
F-1.5620000000000001
sS'VAL-ARG'
p323
F-1.821
sS'TRP-GLU'
p324
F-1.956
sS'PHE-TYR'
p325
F-2.2469999999999999
sS'VAL-GLN'
p326
F-1.6799999999999999
sS'TRP-ASN'
p327
F-2.3140000000000001
sS'TYR-ILE'
p328
F-2.2610000000000001
sS'TRP-GLY'
p329
F0
sS'GLY-GLU'
p330
F0
sS'GLY-HIS'
p331
F0
sS'PHE-SER'
p332
F-1.7849999999999999
sS'TRP-ASP'
p333
F-1.766
sS'TRP-GLN'
p334
F-2.4089999999999998
sS'LEU-ALA'
p335
F-2.1030000000000002
sS'VAL-GLU'
p336
F-1.4870000000000001
sS'ALA-HIS'
p337
F-2.5390000000000001
sS'TYR-ALA'
p338
F-2.524
sS'LEU-THR'
p339
F-1.264
sS'TYR-CYS'
p340
F-0.96999999999999997
sS'THR-THR'
p341
F-3.367
sS'THR-LEU'
p342
F-1.542
sS'VAL-ASN'
p343
F-1.5109999999999999
sS'LEU-TRP'
p344
F-2.3199999999999998
sS'GLU-ASP'
p345
F-1.8009999999999999
sS'ILE-SER'
p346
F-1.4470000000000001
sS'ILE-ARG'
p347
F-1.885
sS'ASN-SER'
p348
F-2.411
sS'ILE-MET'
p349
F-1.599
sS'MET-PHE'
p350
F-2.306
sS'PRO-ALA'
p351
F-2.1909999999999998
sS'PRO-GLY'
p352
F0
sS'GLN-THR'
p353
F-2.2010000000000001
sS'MET-ALA'
p354
F-1.6859999999999999
sS'TRP-SER'
p355
F-2.2949999999999999
sS'ASP-HIS'
p356
F-2.5049999999999999
sS'ARG-SER'
p357
F-2.6400000000000001
sS'GLN-HIS'
p358
F-2.2480000000000002
sS'LEU-LEU'
p359
F-3.1640000000000001
sS'ALA-GLN'
p360
F-2.343
sS'ASP-ASN'
p361
F-2.1400000000000001
sS'SER-VAL'
p362
F-1.411
sS'MET-ILE'
p363
F-1.4650000000000001
sS'ALA-PRO'
p364
F-1.9159999999999999
sS'ALA-ILE'
p365
F-1.9610000000000001
sS'ALA-GLY'
p366
F0
sS'TRP-TRP'
p367
F-4.2599999999999998
sS'MET-CYS'
p368
F-0.995
sS'ALA-GLU'
p369
F-2.081
sS'THR-PRO'
p370
F-1.8799999999999999
sS'HIS-ALA'
p371
F-2.2200000000000002
sS'GLN-ILE'
p372
F-1.8460000000000001
sS'GLU-VAL'
p373
F-1.6120000000000001
sS'LYS-ASN'
p374
F-1.9850000000000001
sS'ASN-ALA'
p375
F-2.0710000000000002
sS'GLU-TRP'
p376
F-2.0129999999999999
sS'THR-ILE'
p377
F-1.6899999999999999
sS'ASP-CYS'
p378
F-0.32700000000000001
sS'PRO-LYS'
p379
F-1.244
sS'TYR-TYR'
p380
F-3.8900000000000001
sS'ARG-LYS'
p381
F-1.9990000000000001
sS'ILE-ALA'
p382
F-1.831
sS'ASP-SER'
p383
F-2.2519999999999998
sS'CYS-LYS'
p384
F-1.0580000000000001
sS'ARG-ASN'
p385
F-2.8290000000000002
sS'GLU-ALA'
p386
F-2.0859999999999999
sS'PHE-GLU'
p387
F-1.4650000000000001
sS'GLU-LEU'
p388
F-1.532
sS'ASN-TYR'
p389
F-2.4119999999999999
sS'LYS-HIS'
p390
F-2.0579999999999998
sS'HIS-PRO'
p391
F-2.0840000000000001
sS'ILE-ILE'
p392
F-3.2610000000000001
sS'MET-HIS'
p393
F-1.8080000000000001
sS'VAL-GLY'
p394
F0
sS'THR-MET'
p395
F-1.581
sS'PHE-THR'
p396
F-1.9870000000000001
sS'VAL-TRP'
p397
F-1.901
sS'PHE-LYS'
p398
F-1.5469999999999999
sS'GLY-PRO'
p399
F0
sS'PHE-GLN'
p400
F-2.004
sS'LEU-PHE'
p401
F-2.1920000000000002
s.