(dp1
S'MET-MET'
p2
F-1.1120000000000001
sS'PRO-ILE'
p3
F0.39000000000000001
sS'TYR-LYS'
p4
F-0.153
sS'VAL-ASP'
p5
F0.83499999999999996
sS'ASP-GLN'
p6
F-0.025999999999999999
sS'HIS-TYR'
p7
F-0.79500000000000004
sS'ASP-GLU'
p8
F0.22500000000000001
sS'ALA-ASP'
p9
F0.67800000000000005
sS'ASP-GLY'
p10
F0
sS'LEU-VAL'
p11
F0.58699999999999997
sS'TRP-TYR'
p12
F-0.159
sS'TYR-LEU'
p13
F0.22600000000000001
sS'LYS-GLU'
p14
F-1.165
sS'TRP-PHE'
p15
F-0.32300000000000001
sS'ARG-TYR'
p16
F-1.133
sS'GLU-LYS'
p17
F-1.2430000000000001
sS'ILE-HIS'
p18
F0.246
sS'GLY-GLY'
p19
F0
sS'LEU-MET'
p20
F0.17399999999999999
sS'GLU-HIS'
p21
F-1.3680000000000001
sS'GLY-THR'
p22
F0
sS'ARG-GLU'
p23
F-1.4350000000000001
sS'PHE-ASN'
p24
F-0.083000000000000004
sS'ASN-MET'
p25
F0.25800000000000001
sS'PRO-THR'
p26
F0.156
sS'TYR-GLN'
p27
F-0.71599999999999997
sS'ARG-GLY'
p28
F0
sS'VAL-THR'
p29
F0.80200000000000005
sS'ASP-ILE'
p30
F0.92300000000000004
sS'GLY-ILE'
p31
F0
sS'TYR-GLU'
p32
F-0.32100000000000001
sS'ARG-GLN'
p33
F-0.88700000000000001
sS'TYR-GLY'
p34
F0
sS'PHE-ASP'
p35
F0.55100000000000005
sS'CYS-ARG'
p36
F0.86499999999999999
sS'HIS-ARG'
p37
F-0.46899999999999997
sS'VAL-LYS'
p38
F1.1279999999999999
sS'LEU-ILE'
p39
F0.21099999999999999
sS'GLN-LEU'
p40
F0.032000000000000001
sS'GLU-MET'
p41
F0.13400000000000001
sS'ASP-THR'
p42
F0.019
sS'ASN-PHE'
p43
F0.246
sS'GLU-PRO'
p44
F0.031
sS'LYS-ARG'
p45
F0.01
sS'GLY-ASP'
p46
F0
sS'PRO-GLN'
p47
F-0.76800000000000002
sS'CYS-MET'
p48
F0.28799999999999998
sS'GLU-THR'
p49
F-0.17299999999999999
sS'ILE-THR'
p50
F0.54000000000000004
sS'PHE-GLY'
p51
F0
sS'SER-PRO'
p52
F0.124
sS'GLY-CYS'
p53
F0
sS'ARG-LEU'
p54
F-0.107
sS'PRO-GLU'
p55
F-0.11799999999999999
sS'ASP-LEU'
p56
F0.48199999999999998
sS'PHE-VAL'
p57
F0.28499999999999998
sS'ASN-VAL'
p58
F0.42099999999999999
sS'PRO-VAL'
p59
F0.67600000000000005
sS'ALA-MET'
p60
F0.55400000000000005
sS'LEU-PRO'
p61
F0.55600000000000005
sS'LEU-SER'
p62
F0.66100000000000003
sS'ASN-ARG'
p63
F-0.67300000000000004
sS'SER-THR'
p64
F0.253
sS'LYS-VAL'
p65
F1.0129999999999999
sS'LYS-PRO'
p66
F0.96999999999999997
sS'GLN-VAL'
p67
F0.224
sS'TYR-PHE'
p68
F-0.38700000000000001
sS'ASP-VAL'
p69
F1.341
sS'ASN-GLY'
p70
F0
sS'ARG-PHE'
p71
F-0.60399999999999998
sS'HIS-TRP'
p72
F-0.26000000000000001
sS'LYS-GLN'
p73
F-0.53200000000000003
sS'ASN-GLU'
p74
F-0.68400000000000005
sS'CYS-GLN'
p75
F0.53800000000000003
sS'TYR-PRO'
p76
F-0.63400000000000001
sS'ARG-ILE'
p77
F-0.025000000000000001
sS'CYS-GLU'
p78
F1.51
sS'ASN-GLN'
p79
F-1.0029999999999999
sS'CYS-GLY'
p80
F0
sS'GLN-SER'
p81
F-0.45300000000000001
sS'HIS-LYS'
p82
F0.060999999999999999
sS'LEU-LYS'
p83
F1.044
sS'LYS-GLY'
p84
F0
sS'VAL-MET'
p85
F0.28999999999999998
sS'ALA-ALA'
p86
F-0.67400000000000004
sS'THR-SER'
p87
F0.083000000000000004
sS'PRO-PRO'
p88
F-0.42499999999999999
sS'ILE-PHE'
p89
F0.10299999999999999
sS'PHE-LEU'
p90
F-0.23899999999999999
sS'GLU-GLU'
p91
F-0.504
sS'TYR-ASP'
p92
F-0.57999999999999996
sS'GLY-ALA'
p93
F0
sS'TYR-ASN'
p94
F-0.70199999999999996
sS'GLU-GLN'
p95
F-0.114
sS'TRP-ARG'
p96
F-0.84799999999999998
sS'LEU-GLU'
p97
F0.68000000000000005
sS'LEU-GLY'
p98
F0
sS'LYS-SER'
p99
F-0.183
sS'MET-VAL'
p100
F0.73099999999999998
sS'SER-ALA'
p101
F0.16500000000000001
sS'PRO-HIS'
p102
F-0.157
sS'MET-THR'
p103
F0.45700000000000002
sS'ALA-PHE'
p104
F0.45200000000000001
sS'MET-PRO'
p105
F0.41699999999999998
sS'GLY-SER'
p106
F0
sS'LEU-GLN'
p107
F0.151
sS'VAL-LEU'
p108
F0.55800000000000005
sS'LEU-CYS'
p109
F0.96999999999999997
sS'LYS-TYR'
p110
F-0.56299999999999994
sS'ASP-ALA'
p111
F0.67000000000000004
sS'ILE-LEU'
p112
F0.094
sS'TRP-VAL'
p113
F0.14199999999999999
sS'PHE-PRO'
p114
F-0.53600000000000003
sS'GLU-GLY'
p115
F0
sS'ARG-TRP'
p116
F-1.0720000000000001
sS'MET-GLN'
p117
F-0.223
sS'HIS-PHE'
p118
F-0.071999999999999995
sS'MET-ARG'
p119
F0.23100000000000001
sS'TYR-THR'
p120
F0.16
sS'SER-ARG'
p121
F-0.32100000000000001
sS'THR-ARG'
p122
F0.16600000000000001
sS'CYS-ILE'
p123
F0.96999999999999997
sS'LEU-ASN'
p124
F0.126
sS'LEU-ASP'
p125
F0.372
sS'PHE-TRP'
p126
F-0.13700000000000001
sS'MET-GLY'
p127
F0
sS'THR-PHE'
p128
F-0.16600000000000001
sS'MET-GLU'
p129
F0.20799999999999999
sS'THR-TRP'
p130
F0.27600000000000002
sS'THR-TYR'
p131
F-0.087999999999999995
sS'CYS-VAL'
p132
F1.4390000000000001
sS'ARG-ALA'
p133
F0.20599999999999999
sS'ALA-TYR'
p134
F-0.0040000000000000001
sS'ASP-PRO'
p135
F-0.184
sS'ARG-CYS'
p136
F0.69399999999999995
sS'GLN-ARG'
p137
F-0.75900000000000001
sS'SER-HIS'
p138
F-0.27100000000000002
sS'PRO-SER'
p139
F0.252
sS'VAL-VAL'
p140
F0.38800000000000001
sS'GLN-TRP'
p141
F-0.02
sS'GLY-LYS'
p142
F0
sS'CYS-ASN'
p143
F0.315
sS'GLY-TRP'
p144
F0
sS'THR-CYS'
p145
F0.749
sS'LYS-LYS'
p146
F-0.40999999999999998
sS'CYS-ASP'
p147
F1.03
sS'VAL-PRO'
p148
F0.54600000000000004
sS'THR-VAL'
p149
F0.61499999999999999
sS'ASP-TYR'
p150
F-0.84499999999999997
sS'PRO-CYS'
p151
F0.443
sS'VAL-SER'
p152
F0.68200000000000005
sS'ARG-HIS'
p153
F-0.54500000000000004
sS'CYS-PRO'
p154
F-0.058000000000000003
sS'MET-LYS'
p155
F0.26900000000000002
sS'ALA-SER'
p156
F0.27900000000000003
sS'TYR-SER'
p157
F-0.16800000000000001
sS'GLY-ARG'
p158
F0
sS'GLN-ALA'
p159
F0.29499999999999998
sS'MET-LEU'
p160
F0.0050000000000000001
sS'ASN-HIS'
p161
F-0.22
sS'VAL-CYS'
p162
F1.4890000000000001
sS'GLN-TYR'
p163
F-0.85299999999999998
sS'MET-SER'
p164
F0.34699999999999998
sS'ALA-TRP'
p165
F-0.18099999999999999
sS'GLU-ASN'
p166
F-0.59899999999999998
sS'CYS-ALA'
p167
F1.2250000000000001
sS'GLY-ASN'
p168
F0
sS'ASN-ASP'
p169
F-0.36099999999999999
sS'ASN-PRO'
p170
F0.02
sS'PRO-ARG'
p171
F-0.55800000000000005
sS'LYS-TRP'
p172
F-0.078
sS'ASN-ASN'
p173
F-1.806
sS'THR-ALA'
p174
F0.42499999999999999
sS'LYS-ALA'
p175
F1.3560000000000001
sS'SER-GLN'
p176
F-0.20999999999999999
sS'ILE-VAL'
p177
F0.36299999999999999
sS'ASP-ARG'
p178
F-1.4359999999999999
sS'ASP-MET'
p179
F0.64600000000000002
sS'CYS-TYR'
p180
F1.0820000000000001
sS'PRO-TRP'
p181
F-0.55400000000000005
sS'ILE-LYS'
p182
F0.97899999999999998
sS'TRP-ALA'
p183
F0.27900000000000003
sS'ILE-CYS'
p184
F1.1479999999999999
sS'LYS-ILE'
p185
F0.373
sS'GLN-CYS'
p186
F1.1419999999999999
sS'ARG-ASP'
p187
F-1.75
sS'SER-GLU'
p188
F-0.54200000000000004
sS'TRP-HIS'
p189
F-0.45400000000000001
sS'ALA-ASN'
p190
F0.40600000000000003
sS'GLU-CYS'
p191
F1.5600000000000001
sS'ALA-CYS'
p192
F0.745
sS'PRO-MET'
p193
F0.115
sS'TYR-HIS'
p194
F-0.72699999999999998
sS'PHE-MET'
p195
F0.11
sS'GLU-TYR'
p196
F-0.621
sS'SER-TRP'
p197
F0.152
sS'PHE-ARG'
p198
F-0.53900000000000003
sS'THR-HIS'
p199
F-0.16300000000000001
sS'TYR-VAL'
p200
F0.151
sS'SER-ILE'
p201
F0.82499999999999996
sS'GLN-PRO'
p202
F-0.5
sS'ALA-VAL'
p203
F0.68000000000000005
sS'HIS-HIS'
p204
F-2.141
sS'THR-ASN'
p205
F0.060999999999999999
sS'CYS-LEU'
p206
F1.2609999999999999
sS'LYS-MET'
p207
F0.59499999999999997
sS'LYS-ASP'
p208
F-1.214
sS'HIS-ASN'
p209
F-0.29599999999999999
sS'ILE-GLN'
p210
F0.091999999999999998
sS'VAL-HIS'
p211
F0.40000000000000002
sS'ALA-LEU'
p212
F0.57299999999999995
sS'HIS-ASP'
p213
F-0.79400000000000004
sS'ILE-TYR'
p214
F-0.035000000000000003
sS'ILE-GLU'
p215
F0.49399999999999999
sS'ASP-ASP'
p216
F-0.34499999999999997
sS'ILE-GLY'
p217
F0
sS'ASN-CYS'
p218
F0.46200000000000002
sS'GLU-SER'
p219
F-0.34200000000000003
sS'ILE-ASN'
p220
F0.52200000000000002
sS'HIS-CYS'
p221
F0.75900000000000001
sS'HIS-MET'
p222
F0.51700000000000002
sS'ILE-PRO'
p223
F0.13500000000000001
sS'LYS-PHE'
p224
F0.71299999999999997
sS'GLY-PHE'
p225
F0
sS'ILE-ASP'
p226
F0.98199999999999998
sS'PHE-HIS'
p227
F0.39700000000000002
sS'GLY-TYR'
p228
F0
sS'SER-GLY'
p229
F0
sS'CYS-TRP'
p230
F1.3089999999999999
sS'ASP-LYS'
p231
F-1.1100000000000001
sS'ASN-ILE'
p232
F0.45600000000000002
sS'HIS-SER'
p233
F-0.255
sS'LYS-CYS'
p234
F1.581
sS'TRP-PRO'
p235
F-0.29299999999999998
sS'ASN-THR'
p236
F0.0030000000000000001
sS'GLN-PHE'
p237
F0.041000000000000002
sS'VAL-ALA'
p238
F0.85699999999999998
sS'SER-LEU'
p239
F0.67200000000000004
sS'TRP-LYS'
p240
F0.27100000000000002
sS'VAL-TYR'
p241
F0.217
sS'VAL-PHE'
p242
F0.42899999999999999
sS'ARG-THR'
p243
F0.128
sS'TYR-TRP'
p244
F-0.46999999999999997
sS'GLN-GLN'
p245
F-1.5429999999999999
sS'GLU-PHE'
p246
F0.371
sS'VAL-ILE'
p247
F0.26700000000000002
sS'HIS-GLN'
p248
F-0.56999999999999995
sS'GLN-GLY'
p249
F0
sS'PHE-ALA'
p250
F0.097000000000000003
sS'HIS-GLU'
p251
F-0.87
sS'ARG-PRO'
p252
F-0.64100000000000001
sS'HIS-GLY'
p253
F0
sS'SER-ASN'
p254
F-0.254
sS'ALA-THR'
p255
F0.53200000000000003
sS'GLN-GLU'
p256
F-0.314
sS'GLN-LYS'
p257
F-0.79500000000000004
sS'CYS-HIS'
p258
F-0.125
sS'GLN-ASP'
p259
F-0.33100000000000002
sS'LEU-HIS'
p260
F-0.17999999999999999
sS'SER-LYS'
p261
F-0.076999999999999999
sS'TRP-LEU'
p262
F-0.16500000000000001
sS'CYS-SER'
p263
F1.893
sS'LYS-THR'
p264
F0.20499999999999999
sS'HIS-LEU'
p265
F0.037999999999999999
sS'LEU-ARG'
p266
F0.121
sS'GLY-VAL'
p267
F0
sS'GLN-ASN'
p268
F-0.96399999999999997
sS'TYR-ARG'
p269
F-0.90400000000000003
sS'PRO-TYR'
p270
F-0.88200000000000001
sS'ASP-PHE'
p271
F0.91500000000000004
sS'ARG-VAL'
p272
F0.313
sS'ASN-LEU'
p273
F0.54000000000000004
sS'SER-MET'
p274
F0.47899999999999998
sS'HIS-ILE'
p275
F0.252
sS'GLY-LEU'
p276
F0
sS'SER-TYR'
p277
F-0.33000000000000002
sS'MET-TYR'
p278
F-0.46400000000000002
sS'GLU-ILE'
p279
F0.37
sS'PHE-CYS'
p280
F-0.0030000000000000001
sS'PRO-LEU'
p281
F0.64500000000000002
sS'GLY-MET'
p282
F0
sS'HIS-THR'
p283
F0.22500000000000001
sS'THR-GLN'
p284
F-0.52800000000000002
sS'TRP-THR'
p285
F0.082000000000000003
sS'LYS-LEU'
p286
F1.034
sS'THR-GLY'
p287
F0
sS'ALA-LYS'
p288
F1.204
sS'ASP-TRP'
p289
F0.29099999999999998
sS'TYR-MET'
p290
F0.28100000000000003
sS'PHE-ILE'
p291
F-0.17599999999999999
sS'THR-GLU'
p292
F-0.32400000000000001
sS'MET-ASN'
p293
F0.024
sS'LEU-TYR'
p294
F0.215
sS'PHE-PHE'
p295
F-1.073
sS'CYS-PHE'
p296
F0.59199999999999997
sS'TRP-ILE'
p297
F-0.28499999999999998
sS'PRO-ASN'
p298
F-0.31
sS'CYS-CYS'
p299
F-3.762
sS'SER-ASP'
p300
F-0.434
sS'ARG-MET'
p301
F-0.02
sS'SER-PHE'
p302
F0.55400000000000005
sS'SER-SER'
p303
F-1.006
sS'ASN-LYS'
p304
F-0.42699999999999999
sS'CYS-THR'
p305
F1.159
sS'ILE-TRP'
p306
F0.075999999999999998
sS'PRO-ASP'
p307
F-0.20999999999999999
sS'THR-ASP'
p308
F0.029000000000000001
sS'SER-CYS'
p309
F1.054
sS'MET-ASP'
p310
F0.79700000000000004
sS'GLN-MET'
p311
F-0.252
sS'MET-TRP'
p312
F-0.14000000000000001
sS'TRP-CYS'
p313
F1.6679999999999999
sS'GLY-GLN'
p314
F0
sS'THR-LYS'
p315
F0.122
sS'TRP-MET'
p316
F-0.26100000000000001
sS'ARG-ARG'
p317
F-1.3959999999999999
sS'ALA-ARG'
p318
F0.47999999999999998
sS'PRO-PHE'
p319
F-0.42799999999999999
sS'ASN-TRP'
p320
F0.092999999999999999
sS'GLU-ARG'
p321
F-1.714
sS'HIS-VAL'
p322
F0.253
sS'VAL-ARG'
p323
F0.34399999999999997
sS'TRP-GLU'
p324
F-0.34999999999999998
sS'PHE-TYR'
p325
F-0.26700000000000002
sS'VAL-GLN'
p326
F0.34399999999999997
sS'TRP-ASN'
p327
F-0.30299999999999999
sS'TYR-ILE'
p328
F-0.32200000000000001
sS'TRP-GLY'
p329
F0
sS'GLY-GLU'
p330
F0
sS'GLY-HIS'
p331
F0
sS'PHE-SER'
p332
F0.56899999999999995
sS'TRP-ASP'
p333
F-0.17699999999999999
sS'TRP-GLN'
p334
F-0.35799999999999998
sS'LEU-ALA'
p335
F0.55700000000000005
sS'VAL-GLU'
p336
F0.83099999999999996
sS'ALA-HIS'
p337
F-0.094
sS'TYR-ALA'
p338
F0.26200000000000001
sS'LEU-THR'
p339
F0.67500000000000004
sS'TYR-CYS'
p340
F0.82699999999999996
sS'THR-THR'
p341
F-0.66400000000000003
sS'THR-LEU'
p342
F0.505
sS'VAL-ASN'
p343
F0.35999999999999999
sS'LEU-TRP'
p344
F-0.41999999999999998
sS'GLU-ASP'
p345
F0.11799999999999999
sS'ILE-SER'
p346
F0.54300000000000004
sS'ILE-ARG'
p347
F-0.023
sS'ASN-SER'
p348
F-0.28299999999999997
sS'ILE-MET'
p349
F0.497
sS'MET-PHE'
p350
F0.082000000000000003
sS'PRO-ALA'
p351
F0.182
sS'PRO-GLY'
p352
F0
sS'GLN-THR'
p353
F-0.496
sS'MET-ALA'
p354
F0.71499999999999997
sS'TRP-SER'
p355
F0.29699999999999999
sS'ASP-HIS'
p356
F-1.139
sS'ARG-SER'
p357
F-0.221
sS'GLN-HIS'
p358
F-0.77100000000000002
sS'LEU-LEU'
p359
F0.30299999999999999
sS'ALA-GLN'
p360
F0.27300000000000002
sS'ASP-ASN'
p361
F-0.36499999999999999
sS'SER-VAL'
p362
F0.77200000000000002
sS'MET-ILE'
p363
F0.44900000000000001
sS'ALA-PRO'
p364
F0.41799999999999998
sS'ALA-ILE'
p365
F0.41599999999999998
sS'ALA-GLY'
p366
F0
sS'TRP-TRP'
p367
F-0.67900000000000005
sS'MET-CYS'
p368
F0.80300000000000005
sS'ALA-GLU'
p369
F0.56200000000000006
sS'THR-PRO'
p370
F-0.036999999999999998
sS'HIS-ALA'
p371
F0.28599999999999998
sS'GLN-ILE'
p372
F0.063
sS'GLU-VAL'
p373
F0.61799999999999999
sS'LYS-ASN'
p374
F-0.042000000000000003
sS'ASN-ALA'
p375
F0.42499999999999999
sS'GLU-TRP'
p376
F-0.031
sS'THR-ILE'
p377
F0.47799999999999998
sS'ASP-CYS'
p378
F1.456
sS'PRO-LYS'
p379
F1.2230000000000001
sS'TYR-TYR'
p380
F-0.64400000000000002
sS'ARG-LYS'
p381
F-0.045999999999999999
sS'ILE-ALA'
p382
F0.86299999999999999
sS'ASP-SER'
p383
F-0.251
sS'CYS-LYS'
p384
F0.59299999999999997
sS'ARG-ASN'
p385
F-0.98199999999999998
sS'GLU-ALA'
p386
F0.502
sS'PHE-GLU'
p387
F0.32000000000000001
sS'GLU-LEU'
p388
F0.441
sS'ASN-TYR'
p389
F-0.52600000000000002
sS'LYS-HIS'
p390
F-0.46400000000000002
sS'HIS-PRO'
p391
F-0.433
sS'ILE-ILE'
p392
F-0.47599999999999998
sS'MET-HIS'
p393
F0.12
sS'VAL-GLY'
p394
F0
sS'THR-MET'
p395
F0.192
sS'PHE-THR'
p396
F-0.070999999999999994
sS'VAL-TRP'
p397
F0.54000000000000004
sS'PHE-LYS'
p398
F0.495
sS'GLY-PRO'
p399
F0
sS'PHE-GLN'
p400
F0.082000000000000003
sS'LEU-PHE'
p401
F-0.070000000000000007
s.