(dp1
S'MET-MET'
p2
F-2.0899999999999999
sS'PRO-ILE'
p3
F-0.48899999999999999
sS'TYR-LYS'
p4
F-1.23
sS'VAL-ASP'
p5
F0.047
sS'ASP-GLN'
p6
F-1.0669999999999999
sS'HIS-TYR'
p7
F-1.7
sS'ASP-GLU'
p8
F-0.73599999999999999
sS'ALA-ASP'
p9
F-0.153
sS'ASP-GLY'
p10
F0
sS'LEU-VAL'
p11
F-0.50800000000000001
sS'TRP-TYR'
p12
F-1.2490000000000001
sS'TYR-LEU'
p13
F-1.218
sS'LYS-GLU'
p14
F-2.0190000000000001
sS'TRP-PHE'
p15
F-1.478
sS'ARG-TYR'
p16
F-1.8799999999999999
sS'GLU-LYS'
p17
F-2.0489999999999999
sS'ILE-HIS'
p18
F-0.60399999999999998
sS'GLY-GLY'
p19
F0
sS'LEU-MET'
p20
F-0.625
sS'GLU-HIS'
p21
F-1.9590000000000001
sS'GLY-THR'
p22
F0
sS'ARG-GLU'
p23
F-2.3220000000000001
sS'PHE-ASN'
p24
F-1.0309999999999999
sS'ASN-MET'
p25
F-0.58499999999999996
sS'PRO-THR'
p26
F-0.63
sS'TYR-GLN'
p27
F-1.5189999999999999
sS'ARG-GLY'
p28
F0
sS'VAL-THR'
p29
F-0.18099999999999999
sS'ASP-ILE'
p30
F-0.11700000000000001
sS'GLY-ILE'
p31
F0
sS'TYR-GLU'
p32
F-1.492
sS'ARG-GLN'
p33
F-1.8540000000000001
sS'TYR-GLY'
p34
F0
sS'PHE-ASP'
p35
F-0.46200000000000002
sS'CYS-ARG'
p36
F-0.14399999999999999
sS'HIS-ARG'
p37
F-1.3979999999999999
sS'VAL-LYS'
p38
F0.13900000000000001
sS'LEU-ILE'
p39
F-0.80200000000000005
sS'GLN-LEU'
p40
F-0.82999999999999996
sS'GLU-MET'
p41
F-0.498
sS'ASP-THR'
p42
F-0.68400000000000005
sS'ASN-PHE'
p43
F-0.90500000000000003
sS'GLU-PRO'
p44
F-1.0389999999999999
sS'LYS-ARG'
p45
F-0.96099999999999997
sS'GLY-ASP'
p46
F0
sS'PRO-GLN'
p47
F-1.5069999999999999
sS'CYS-MET'
p48
F0.070000000000000007
sS'GLU-THR'
p49
F-1.0569999999999999
sS'ILE-THR'
p50
F-0.40999999999999998
sS'PHE-GLY'
p51
F0
sS'SER-PRO'
p52
F-0.67800000000000005
sS'GLY-CYS'
p53
F0
sS'ARG-LEU'
p54
F-1.0649999999999999
sS'PRO-GLU'
p55
F-1.02
sS'ASP-LEU'
p56
F-0.38900000000000001
sS'PHE-VAL'
p57
F-0.77700000000000002
sS'ASN-VAL'
p58
F-0.27000000000000002
sS'PRO-VAL'
p59
F-0.23999999999999999
sS'ALA-MET'
p60
F-0.193
sS'LEU-PRO'
p61
F-0.65300000000000002
sS'LEU-SER'
p62
F-0.33500000000000002
sS'ASN-ARG'
p63
F-1.6910000000000001
sS'SER-THR'
p64
F-0.53500000000000003
sS'LYS-VAL'
p65
F0.017999999999999999
sS'LYS-PRO'
p66
F-0.067000000000000004
sS'GLN-VAL'
p67
F-0.55300000000000005
sS'TYR-PHE'
p68
F-1.3360000000000001
sS'ASP-VAL'
p69
F0.27900000000000003
sS'ASN-GLY'
p70
F0
sS'ARG-PHE'
p71
F-1.389
sS'HIS-TRP'
p72
F-1.248
sS'LYS-GLN'
p73
F-1.5589999999999999
sS'ASN-GLU'
p74
F-1.4650000000000001
sS'CYS-GLN'
p75
F0.224
sS'TYR-PRO'
p76
F-1.7430000000000001
sS'ARG-ILE'
p77
F-0.82599999999999996
sS'CYS-GLU'
p78
F0.84199999999999997
sS'ASN-GLN'
p79
F-1.827
sS'CYS-GLY'
p80
F0
sS'GLN-SER'
p81
F-1.2569999999999999
sS'HIS-LYS'
p82
F-0.86499999999999999
sS'LEU-LYS'
p83
F-0.10299999999999999
sS'LYS-GLY'
p84
F0
sS'VAL-MET'
p85
F-0.28299999999999997
sS'ALA-ALA'
p86
F-0.86399999999999999
sS'THR-SER'
p87
F-0.59699999999999998
sS'PRO-PRO'
p88
F-1.4850000000000001
sS'ILE-PHE'
p89
F-1.087
sS'PHE-LEU'
p90
F-1.141
sS'GLU-GLU'
p91
F-1.649
sS'TYR-ASP'
p92
F-1.2929999999999999
sS'GLY-ALA'
p93
F0
sS'TYR-ASN'
p94
F-1.498
sS'GLU-GLN'
p95
F-1.1120000000000001
sS'TRP-ARG'
p96
F-1.6599999999999999
sS'LEU-GLU'
p97
F-0.378
sS'LEU-GLY'
p98
F0
sS'LYS-SER'
p99
F-0.86199999999999999
sS'MET-VAL'
p100
F-0.26500000000000001
sS'SER-ALA'
p101
F-0.498
sS'PRO-HIS'
p102
F-1.113
sS'MET-THR'
p103
F-0.50700000000000001
sS'ALA-PHE'
p104
F-0.69099999999999995
sS'MET-PRO'
p105
F-0.38400000000000001
sS'GLY-SER'
p106
F0
sS'LEU-GLN'
p107
F-0.754
sS'VAL-LEU'
p108
F-0.51900000000000002
sS'LEU-CYS'
p109
F0.42499999999999999
sS'LYS-TYR'
p110
F-1.337
sS'ASP-ALA'
p111
F-0.17599999999999999
sS'ILE-LEU'
p112
F-0.84499999999999997
sS'TRP-VAL'
p113
F-0.69799999999999995
sS'PHE-PRO'
p114
F-1.222
sS'GLU-GLY'
p115
F0
sS'ARG-TRP'
p116
F-1.8340000000000001
sS'MET-GLN'
p117
F-0.76000000000000001
sS'HIS-PHE'
p118
F-0.92100000000000004
sS'MET-ARG'
p119
F-0.67900000000000005
sS'TYR-THR'
p120
F-0.91900000000000004
sS'SER-ARG'
p121
F-1.1930000000000001
sS'THR-ARG'
p122
F-1.2190000000000001
sS'CYS-ILE'
p123
F0.45200000000000001
sS'LEU-ASN'
p124
F-0.59099999999999997
sS'LEU-ASP'
p125
F-0.26900000000000002
sS'PHE-TRP'
p126
F-1.272
sS'MET-GLY'
p127
F0
sS'THR-PHE'
p128
F-0.88900000000000001
sS'MET-GLU'
p129
F-0.46800000000000003
sS'THR-TRP'
p130
F-0.57199999999999995
sS'THR-TYR'
p131
F-1.103
sS'CYS-VAL'
p132
F0.66800000000000004
sS'ARG-ALA'
p133
F-0.57499999999999996
sS'ALA-TYR'
p134
F-0.97699999999999998
sS'ASP-PRO'
p135
F-0.83499999999999996
sS'ARG-CYS'
p136
F-0.059999999999999998
sS'GLN-ARG'
p137
F-1.6639999999999999
sS'SER-HIS'
p138
F-1.016
sS'PRO-SER'
p139
F-0.66900000000000004
sS'VAL-VAL'
p140
F-1.026
sS'GLN-TRP'
p141
F-1.3300000000000001
sS'GLY-LYS'
p142
F0
sS'CYS-ASN'
p143
F-0.185
sS'GLY-TRP'
p144
F0
sS'THR-CYS'
p145
F0.41299999999999998
sS'LYS-LYS'
p146
F-1.0920000000000001
sS'CYS-ASP'
p147
F0.20499999999999999
sS'VAL-PRO'
p148
F-0.23100000000000001
sS'THR-VAL'
p149
F-0.192
sS'ASP-TYR'
p150
F-1.4470000000000001
sS'PRO-CYS'
p151
F-0.33700000000000002
sS'VAL-SER'
p152
F-0.17599999999999999
sS'ARG-HIS'
p153
F-1.556
sS'CYS-PRO'
p154
F-0.53300000000000003
sS'MET-LYS'
p155
F-0.45400000000000001
sS'ALA-SER'
p156
F-0.28399999999999997
sS'TYR-SER'
p157
F-1.272
sS'GLY-ARG'
p158
F0
sS'GLN-ALA'
p159
F-0.64200000000000002
sS'MET-LEU'
p160
F-0.81999999999999995
sS'ASN-HIS'
p161
F-1.1899999999999999
sS'VAL-CYS'
p162
F0.66500000000000004
sS'GLN-TYR'
p163
F-1.633
sS'MET-SER'
p164
F-0.157
sS'ALA-TRP'
p165
F-1.095
sS'GLU-ASN'
p166
F-1.4350000000000001
sS'CYS-ALA'
p167
F0.61699999999999999
sS'GLY-ASN'
p168
F0
sS'ASN-ASP'
p169
F-1.171
sS'ASN-PRO'
p170
F-1.1819999999999999
sS'PRO-ARG'
p171
F-1.363
sS'LYS-TRP'
p172
F-1.01
sS'ASN-ASN'
p173
F-2.5649999999999999
sS'THR-ALA'
p174
F-0.32600000000000001
sS'LYS-ALA'
p175
F0.255
sS'SER-GLN'
p176
F-1.1499999999999999
sS'ILE-VAL'
p177
F-0.53400000000000003
sS'ASP-ARG'
p178
F-2.2570000000000001
sS'ASP-MET'
p179
F-0.184
sS'CYS-TYR'
p180
F0.52400000000000002
sS'PRO-TRP'
p181
F-1.458
sS'ILE-LYS'
p182
F-0.051999999999999998
sS'TRP-ALA'
p183
F-0.95199999999999996
sS'ILE-CYS'
p184
F0.314
sS'LYS-ILE'
p185
F-0.43099999999999999
sS'GLN-CYS'
p186
F0.747
sS'ARG-ASP'
p187
F-2.3199999999999998
sS'SER-GLU'
p188
F-1.2290000000000001
sS'TRP-HIS'
p189
F-1.347
sS'ALA-ASN'
p190
F-0.376
sS'GLU-CYS'
p191
F0.74199999999999999
sS'ALA-CYS'
p192
F0.26100000000000001
sS'PRO-MET'
p193
F-0.61599999999999999
sS'TYR-HIS'
p194
F-1.6120000000000001
sS'PHE-MET'
p195
F-1.2609999999999999
sS'GLU-TYR'
p196
F-1.5900000000000001
sS'SER-TRP'
p197
F-0.93500000000000005
sS'PHE-ARG'
p198
F-1.2470000000000001
sS'THR-HIS'
p199
F-0.76300000000000001
sS'TYR-VAL'
p200
F-0.94699999999999995
sS'SER-ILE'
p201
F-0.185
sS'GLN-PRO'
p202
F-1.323
sS'ALA-VAL'
p203
F-0.014999999999999999
sS'HIS-HIS'
p204
F-3.1720000000000002
sS'THR-ASN'
p205
F-0.98799999999999999
sS'CYS-LEU'
p206
F0.46600000000000003
sS'LYS-MET'
p207
F-0.28100000000000003
sS'LYS-ASP'
p208
F-1.7669999999999999
sS'HIS-ASN'
p209
F-1.2270000000000001
sS'ILE-GLN'
p210
F-0.80800000000000005
sS'VAL-HIS'
p211
F-0.51200000000000001
sS'ALA-LEU'
p212
F-0.39600000000000002
sS'HIS-ASP'
p213
F-1.6339999999999999
sS'ILE-TYR'
p214
F-1.1359999999999999
sS'ILE-GLU'
p215
F-0.39000000000000001
sS'ASP-ASP'
p216
F-1.274
sS'ILE-GLY'
p217
F0
sS'ASN-CYS'
p218
F-0.14999999999999999
sS'GLU-SER'
p219
F-1.2090000000000001
sS'ILE-ASN'
p220
F-0.45200000000000001
sS'HIS-CYS'
p221
F-0.38200000000000001
sS'HIS-MET'
p222
F-0.108
sS'ILE-PRO'
p223
F-0.51800000000000002
sS'LYS-PHE'
p224
F-0.251
sS'GLY-PHE'
p225
F0
sS'ILE-ASP'
p226
F-0.034000000000000002
sS'PHE-HIS'
p227
F-0.85899999999999999
sS'GLY-TYR'
p228
F0
sS'SER-GLY'
p229
F0
sS'CYS-TRP'
p230
F0.28699999999999998
sS'ASP-LYS'
p231
F-1.8109999999999999
sS'ASN-ILE'
p232
F-0.51700000000000002
sS'HIS-SER'
p233
F-1.008
sS'LYS-CYS'
p234
F1.2430000000000001
sS'TRP-PRO'
p235
F-1.258
sS'ASN-THR'
p236
F-0.97799999999999998
sS'GLN-PHE'
p237
F-0.98899999999999999
sS'VAL-ALA'
p238
F0.023
sS'SER-LEU'
p239
F-0.318
sS'TRP-LYS'
p240
F-0.86299999999999999
sS'VAL-TYR'
p241
F-0.81799999999999995
sS'VAL-PHE'
p242
F-0.71299999999999997
sS'ARG-THR'
p243
F-1.2290000000000001
sS'TYR-TRP'
p244
F-1.427
sS'GLN-GLN'
p245
F-2.6240000000000001
sS'GLU-PHE'
p246
F-0.75
sS'VAL-ILE'
p247
F-0.56699999999999995
sS'HIS-GLN'
p248
F-1.28
sS'GLN-GLY'
p249
F0
sS'PHE-ALA'
p250
F-0.83899999999999997
sS'HIS-GLU'
p251
F-1.6970000000000001
sS'ARG-PRO'
p252
F-1.3
sS'HIS-GLY'
p253
F0
sS'SER-ASN'
p254
F-1.05
sS'ALA-THR'
p255
F-0.246
sS'GLN-GLU'
p256
F-1.2529999999999999
sS'GLN-LYS'
p257
F-1.474
sS'CYS-HIS'
p258
F-0.51500000000000001
sS'GLN-ASP'
p259
F-1.123
sS'LEU-HIS'
p260
F-0.81899999999999995
sS'SER-LYS'
p261
F-0.81899999999999995
sS'TRP-LEU'
p262
F-1.236
sS'CYS-SER'
p263
F1.6100000000000001
sS'LYS-THR'
p264
F-0.52800000000000002
sS'HIS-LEU'
p265
F-0.749
sS'LEU-ARG'
p266
F-0.95099999999999996
sS'GLY-VAL'
p267
F0
sS'GLN-ASN'
p268
F-1.673
sS'TYR-ARG'
p269
F-1.7490000000000001
sS'PRO-TYR'
p270
F-1.7549999999999999
sS'ASP-PHE'
p271
F-0.29999999999999999
sS'ARG-VAL'
p272
F-0.67600000000000005
sS'ASN-LEU'
p273
F-0.57599999999999996
sS'SER-MET'
p274
F-0.0060000000000000001
sS'HIS-ILE'
p275
F-0.44500000000000001
sS'GLY-LEU'
p276
F0
sS'SER-TYR'
p277
F-1.1890000000000001
sS'MET-TYR'
p278
F-1.417
sS'GLU-ILE'
p279
F-0.44400000000000001
sS'PHE-CYS'
p280
F-0.64000000000000001
sS'PRO-LEU'
p281
F-0.495
sS'GLY-MET'
p282
F0
sS'HIS-THR'
p283
F-0.80000000000000004
sS'THR-GLN'
p284
F-1.306
sS'TRP-THR'
p285
F-0.61799999999999999
sS'LYS-LEU'
p286
F-0.050999999999999997
sS'THR-GLY'
p287
F0
sS'ALA-LYS'
p288
F0.23499999999999999
sS'ASP-TRP'
p289
F-0.58999999999999997
sS'TYR-MET'
p290
F-1.367
sS'PHE-ILE'
p291
F-1.1240000000000001
sS'THR-GLU'
p292
F-0.98899999999999999
sS'MET-ASN'
p293
F-0.67200000000000004
sS'LEU-TYR'
p294
F-1.236
sS'PHE-PHE'
p295
F-2.3420000000000001
sS'CYS-PHE'
p296
F-0.23999999999999999
sS'TRP-ILE'
p297
F-0.89300000000000002
sS'PRO-ASN'
p298
F-1.028
sS'CYS-CYS'
p299
F-4.0730000000000004
sS'SER-ASP'
p300
F-1.1000000000000001
sS'ARG-MET'
p301
F-0.91900000000000004
sS'SER-PHE'
p302
F-0.59499999999999997
sS'SER-SER'
p303
F-1.5469999999999999
sS'ASN-LYS'
p304
F-1.069
sS'CYS-THR'
p305
F0.69299999999999995
sS'ILE-TRP'
p306
F-0.94499999999999995
sS'PRO-ASP'
p307
F-0.90900000000000003
sS'THR-ASP'
p308
F-0.76500000000000001
sS'SER-CYS'
p309
F0.66500000000000004
sS'MET-ASP'
p310
F-0.158
sS'GLN-MET'
p311
F-0.73299999999999998
sS'MET-TRP'
p312
F-1.0669999999999999
sS'TRP-CYS'
p313
F0.93000000000000005
sS'GLY-GLN'
p314
F0
sS'THR-LYS'
p315
F-0.55400000000000005
sS'TRP-MET'
p316
F-0.95699999999999996
sS'ARG-ARG'
p317
F-2.5510000000000002
sS'ALA-ARG'
p318
F-0.66100000000000003
sS'PRO-PHE'
p319
F-1.1899999999999999
sS'ASN-TRP'
p320
F-0.93700000000000006
sS'GLU-ARG'
p321
F-2.2949999999999999
sS'HIS-VAL'
p322
F-0.441
sS'VAL-ARG'
p323
F-0.67200000000000004
sS'TRP-GLU'
p324
F-1.036
sS'PHE-TYR'
p325
F-1.3520000000000001
sS'VAL-GLN'
p326
F-0.56599999999999995
sS'TRP-ASN'
p327
F-1.3460000000000001
sS'TYR-ILE'
p328
F-1.2370000000000001
sS'TRP-GLY'
p329
F0
sS'GLY-GLU'
p330
F0
sS'GLY-HIS'
p331
F0
sS'PHE-SER'
p332
F-0.48199999999999998
sS'TRP-ASP'
p333
F-0.73699999999999999
sS'TRP-GLN'
p334
F-1.4870000000000001
sS'LEU-ALA'
p335
F-0.38200000000000001
sS'VAL-GLU'
p336
F-0.373
sS'ALA-HIS'
p337
F-0.85999999999999999
sS'TYR-ALA'
p338
F-0.78800000000000003
sS'LEU-THR'
p339
F-0.13800000000000001
sS'TYR-CYS'
p340
F0.36899999999999999
sS'THR-THR'
p341
F-1.6160000000000001
sS'THR-LEU'
p342
F-0.41499999999999998
sS'VAL-ASN'
p343
F-0.40300000000000002
sS'LEU-TRP'
p344
F-1.266
sS'GLU-ASP'
p345
F-0.83899999999999997
sS'ILE-SER'
p346
F-0.13500000000000001
sS'ILE-ARG'
p347
F-0.82799999999999996
sS'ASN-SER'
p348
F-1.1519999999999999
sS'ILE-MET'
p349
F-0.53000000000000003
sS'MET-PHE'
p350
F-1.2609999999999999
sS'PRO-ALA'
p351
F-0.50600000000000001
sS'PRO-GLY'
p352
F0
sS'GLN-THR'
p353
F-1.119
sS'MET-ALA'
p354
F0.021999999999999999
sS'TRP-SER'
p355
F-0.97999999999999998
sS'ASP-HIS'
p356
F-1.5880000000000001
sS'ARG-SER'
p357
F-1.345
sS'GLN-HIS'
p358
F-1.3640000000000001
sS'LEU-LEU'
p359
F-1.46
sS'ALA-GLN'
p360
F-0.63800000000000001
sS'ASP-ASN'
p361
F-1.222
sS'SER-VAL'
p362
F-0.121
sS'MET-ILE'
p363
F-0.39200000000000002
sS'ALA-PRO'
p364
F-0.23499999999999999
sS'ALA-ILE'
p365
F-0.24299999999999999
sS'ALA-GLY'
p366
F0
sS'TRP-TRP'
p367
F-2.7440000000000002
sS'MET-CYS'
p368
F0.32300000000000001
sS'ALA-GLU'
p369
F-0.35499999999999998
sS'THR-PRO'
p370
F-0.78700000000000003
sS'HIS-ALA'
p371
F-0.53900000000000003
sS'GLN-ILE'
p372
F-0.82499999999999996
sS'GLU-VAL'
p373
F-0.50800000000000001
sS'LYS-ASN'
p374
F-0.97899999999999998
sS'ASN-ALA'
p375
F-0.371
sS'GLU-TRP'
p376
F-1.077
sS'THR-ILE'
p377
F-0.53000000000000003
sS'ASP-CYS'
p378
F0.94399999999999995
sS'PRO-LYS'
p379
F-0.104
sS'TYR-TYR'
p380
F-2.4020000000000001
sS'ARG-LYS'
p381
F-0.98199999999999998
sS'ILE-ALA'
p382
F-0.113
sS'ASP-SER'
p383
F-1.032
sS'CYS-LYS'
p384
F0.255
sS'ARG-ASN'
p385
F-1.8340000000000001
sS'GLU-ALA'
p386
F-0.38100000000000001
sS'PHE-GLU'
p387
F-0.54500000000000004
sS'GLU-LEU'
p388
F-0.53000000000000003
sS'ASN-TYR'
p389
F-1.4390000000000001
sS'LYS-HIS'
p390
F-1.121
sS'HIS-PRO'
p391
F-0.99399999999999999
sS'ILE-ILE'
p392
F-1.5449999999999999
sS'MET-HIS'
p393
F-0.80000000000000004
sS'VAL-GLY'
p394
F0
sS'THR-MET'
p395
F-0.441
sS'PHE-THR'
p396
F-0.86699999999999999
sS'VAL-TRP'
p397
F-0.751
sS'PHE-LYS'
p398
F-0.61699999999999999
sS'GLY-PRO'
p399
F0
sS'PHE-GLN'
p400
F-1.087
sS'LEU-PHE'
p401
F-1.1659999999999999
s.