(dp1
S'MET-MET'
p2
F-4.5979999999999999
sS'PRO-ILE'
p3
F-2.4670000000000001
sS'TYR-LYS'
p4
F-2.9460000000000002
sS'VAL-ASP'
p5
F-1.7669999999999999
sS'ASP-GLN'
p6
F-2.7320000000000002
sS'HIS-TYR'
p7
F-3.3159999999999998
sS'ASP-GLU'
p8
F-2.4020000000000001
sS'ALA-ASP'
p9
F-2.4740000000000002
sS'ASP-GLY'
p10
F0
sS'LEU-VAL'
p11
F-2.3860000000000001
sS'TRP-TYR'
p12
F-2.9500000000000002
sS'TYR-LEU'
p13
F-3.0350000000000001
sS'LYS-GLU'
p14
F-3.831
sS'TRP-PHE'
p15
F-3.2360000000000002
sS'ARG-TYR'
p16
F-3.5489999999999999
sS'GLU-LYS'
p17
F-3.859
sS'ILE-HIS'
p18
F-2.4969999999999999
sS'GLY-GLY'
p19
F0
sS'LEU-MET'
p20
F-2.6339999999999999
sS'GLU-HIS'
p21
F-3.7130000000000001
sS'GLY-THR'
p22
F0
sS'ARG-GLU'
p23
F-3.9340000000000002
sS'PHE-ASN'
p24
F-2.7639999999999998
sS'ASN-MET'
p25
F-2.5
sS'PRO-THR'
p26
F-2.431
sS'TYR-GLN'
p27
F-3.181
sS'ARG-GLY'
p28
F0
sS'VAL-THR'
p29
F-2.2789999999999999
sS'ASP-ILE'
p30
F-2.073
sS'GLY-ILE'
p31
F0
sS'TYR-GLU'
p32
F-3.1240000000000001
sS'ARG-GLN'
p33
F-3.5190000000000001
sS'TYR-GLY'
p34
F0
sS'PHE-ASP'
p35
F-2.2149999999999999
sS'CYS-ARG'
p36
F-2.101
sS'HIS-ARG'
p37
F-3.0710000000000002
sS'VAL-LYS'
p38
F-1.728
sS'LEU-ILE'
p39
F-2.8079999999999998
sS'GLN-LEU'
p40
F-2.7999999999999998
sS'GLU-MET'
p41
F-2.4460000000000002
sS'ASP-THR'
p42
F-2.3889999999999998
sS'ASN-PHE'
p43
F-2.6240000000000001
sS'GLU-PRO'
p44
F-2.8039999999999998
sS'LYS-ARG'
p45
F-2.867
sS'GLY-ASP'
p46
F0
sS'PRO-GLN'
p47
F-3.3199999999999998
sS'CYS-MET'
p48
F-2.6040000000000001
sS'GLU-THR'
p49
F-2.8029999999999999
sS'ILE-THR'
p50
F-2.3039999999999998
sS'PHE-GLY'
p51
F0
sS'SER-PRO'
p52
F-2.6379999999999999
sS'GLY-CYS'
p53
F0
sS'ARG-LEU'
p54
F-3.1190000000000002
sS'PRO-GLU'
p55
F-2.7890000000000001
sS'ASP-LEU'
p56
F-2.3540000000000001
sS'PHE-VAL'
p57
F-2.653
sS'ASN-VAL'
p58
F-2.2280000000000002
sS'PRO-VAL'
p59
F-2.0800000000000001
sS'ALA-MET'
p60
F-2.532
sS'LEU-PRO'
p61
F-2.5209999999999999
sS'LEU-SER'
p62
F-2.3279999999999998
sS'ASN-ARG'
p63
F-3.5
sS'SER-THR'
p64
F-2.4660000000000002
sS'LYS-VAL'
p65
F-1.764
sS'LYS-PRO'
p66
F-1.9870000000000001
sS'GLN-VAL'
p67
F-2.3969999999999998
sS'TYR-PHE'
p68
F-3.109
sS'ASP-VAL'
p69
F-1.48
sS'ASN-GLY'
p70
F0
sS'ARG-PHE'
p71
F-3.0720000000000001
sS'HIS-TRP'
p72
F-2.8199999999999998
sS'LYS-GLN'
p73
F-3.399
sS'ASN-GLU'
p74
F-3.1899999999999999
sS'CYS-GLN'
p75
F-1.782
sS'TYR-PRO'
p76
F-3.5049999999999999
sS'ARG-ILE'
p77
F-2.7959999999999998
sS'CYS-GLU'
p78
F-1.0820000000000001
sS'ASN-GLN'
p79
F-3.5619999999999998
sS'CYS-GLY'
p80
F0
sS'GLN-SER'
p81
F-3.1909999999999998
sS'HIS-LYS'
p82
F-2.6909999999999998
sS'LEU-LYS'
p83
F-1.8480000000000001
sS'LYS-GLY'
p84
F0
sS'VAL-MET'
p85
F-2.4660000000000002
sS'ALA-ALA'
p86
F-3.8090000000000002
sS'THR-SER'
p87
F-2.5569999999999999
sS'PRO-PRO'
p88
F-3.9820000000000002
sS'ILE-PHE'
p89
F-3.1480000000000001
sS'PHE-LEU'
p90
F-3.161
sS'GLU-GLU'
p91
F-3.9449999999999998
sS'TYR-ASP'
p92
F-3.1219999999999999
sS'GLY-ALA'
p93
F0
sS'TYR-ASN'
p94
F-3.2269999999999999
sS'GLU-GLN'
p95
F-2.8570000000000002
sS'TRP-ARG'
p96
F-3.1240000000000001
sS'LEU-GLU'
p97
F-2.089
sS'LEU-GLY'
p98
F0
sS'LYS-SER'
p99
F-2.8679999999999999
sS'MET-VAL'
p100
F-2.5640000000000001
sS'SER-ALA'
p101
F-2.6909999999999998
sS'PRO-HIS'
p102
F-2.8889999999999998
sS'MET-THR'
p103
F-2.4460000000000002
sS'ALA-PHE'
p104
F-3.0899999999999999
sS'MET-PRO'
p105
F-2.2989999999999999
sS'GLY-SER'
p106
F0
sS'LEU-GLN'
p107
F-2.698
sS'VAL-LEU'
p108
F-2.4289999999999998
sS'LEU-CYS'
p109
F-1.821
sS'LYS-TYR'
p110
F-3.048
sS'ASP-ALA'
p111
F-2.504
sS'ILE-LEU'
p112
F-2.8969999999999998
sS'TRP-VAL'
p113
F-2.5510000000000002
sS'PHE-PRO'
p114
F-3.0259999999999998
sS'GLU-GLY'
p115
F0
sS'ARG-TRP'
p116
F-3.278
sS'MET-GLN'
p117
F-2.7400000000000002
sS'HIS-PHE'
p118
F-2.5670000000000002
sS'MET-ARG'
p119
F-2.6070000000000002
sS'TYR-THR'
p120
F-2.7730000000000001
sS'SER-ARG'
p121
F-3.1779999999999999
sS'THR-ARG'
p122
F-3.0569999999999999
sS'CYS-ILE'
p123
F-1.829
sS'LEU-ASN'
p124
F-2.5579999999999998
sS'LEU-ASP'
p125
F-2.2040000000000002
sS'PHE-TRP'
p126
F-2.9209999999999998
sS'MET-GLY'
p127
F0
sS'THR-PHE'
p128
F-2.7469999999999999
sS'MET-GLU'
p129
F-2.4039999999999999
sS'THR-TRP'
p130
F-2.6509999999999998
sS'THR-TYR'
p131
F-2.9239999999999999
sS'CYS-VAL'
p132
F-1.3939999999999999
sS'ARG-ALA'
p133
F-2.9689999999999999
sS'ALA-TYR'
p134
F-3.46
sS'ASP-PRO'
p135
F-2.6360000000000001
sS'ARG-CYS'
p136
F-1.9790000000000001
sS'GLN-ARG'
p137
F-3.2949999999999999
sS'SER-HIS'
p138
F-2.9020000000000001
sS'PRO-SER'
p139
F-2.5649999999999999
sS'VAL-VAL'
p140
F-3.5489999999999999
sS'GLN-TRP'
p141
F-2.9550000000000001
sS'GLY-LYS'
p142
F0
sS'CYS-ASN'
p143
F-2.258
sS'GLY-TRP'
p144
F0
sS'THR-CYS'
p145
F-2.1190000000000002
sS'LYS-LYS'
p146
F-3.7109999999999999
sS'CYS-ASP'
p147
F-2.226
sS'VAL-PRO'
p148
F-2.3879999999999999
sS'THR-VAL'
p149
F-2.004
sS'ASP-TYR'
p150
F-3.29
sS'PRO-CYS'
p151
F-2.8519999999999999
sS'VAL-SER'
p152
F-2.1059999999999999
sS'ARG-HIS'
p153
F-3.3380000000000001
sS'CYS-PRO'
p154
F-2.718
sS'MET-LYS'
p155
F-2.5550000000000002
sS'ALA-SER'
p156
F-2.5369999999999999
sS'TYR-SER'
p157
F-3.331
sS'GLY-ARG'
p158
F0
sS'GLN-ALA'
p159
F-3.0009999999999999
sS'MET-LEU'
p160
F-2.8500000000000001
sS'ASN-HIS'
p161
F-2.8260000000000001
sS'VAL-CYS'
p162
F-1.4139999999999999
sS'GLN-TYR'
p163
F-3.2810000000000001
sS'MET-SER'
p164
F-2.1789999999999998
sS'ALA-TRP'
p165
F-3.4809999999999999
sS'GLU-ASN'
p166
F-3.0649999999999999
sS'CYS-ALA'
p167
F-1.669
sS'GLY-ASN'
p168
F0
sS'ASN-ASP'
p169
F-2.7879999999999998
sS'ASN-PRO'
p170
F-2.976
sS'PRO-ARG'
p171
F-3.3399999999999999
sS'LYS-TRP'
p172
F-2.774
sS'ASN-ASN'
p173
F-4.9820000000000002
sS'THR-ALA'
p174
F-2.6589999999999998
sS'LYS-ALA'
p175
F-2.1539999999999999
sS'SER-GLN'
p176
F-3.0819999999999999
sS'ILE-VAL'
p177
F-2.4369999999999998
sS'ASP-ARG'
p178
F-3.8860000000000001
sS'ASP-MET'
p179
F-1.913
sS'CYS-TYR'
p180
F-1.8200000000000001
sS'PRO-TRP'
p181
F-3.2909999999999999
sS'ILE-LYS'
p182
F-2.4260000000000002
sS'TRP-ALA'
p183
F-3.387
sS'ILE-CYS'
p184
F-1.73
sS'LYS-ILE'
p185
F-2.855
sS'GLN-CYS'
p186
F-1.292
sS'ARG-ASP'
p187
F-3.9470000000000001
sS'SER-GLU'
p188
F-3.1120000000000001
sS'TRP-HIS'
p189
F-2.8490000000000002
sS'ALA-ASN'
p190
F-2.7250000000000001
sS'GLU-CYS'
p191
F-1.284
sS'ALA-CYS'
p192
F-2.1099999999999999
sS'PRO-MET'
p193
F-2.5510000000000002
sS'TYR-HIS'
p194
F-3.173
sS'PHE-MET'
p195
F-3.0350000000000001
sS'GLU-TYR'
p196
F-3.2229999999999999
sS'SER-TRP'
p197
F-2.9039999999999999
sS'PHE-ARG'
p198
F-2.903
sS'THR-HIS'
p199
F-2.5150000000000001
sS'TYR-VAL'
p200
F-2.839
sS'SER-ILE'
p201
F-2.2040000000000002
sS'GLN-PRO'
p202
F-3.1139999999999999
sS'ALA-VAL'
p203
F-2.3980000000000001
sS'HIS-HIS'
p204
F-5.3799999999999999
sS'THR-ASN'
p205
F-2.778
sS'CYS-LEU'
p206
F-1.5069999999999999
sS'LYS-MET'
p207
F-2.3029999999999999
sS'LYS-ASP'
p208
F-3.4169999999999998
sS'HIS-ASN'
p209
F-2.8410000000000002
sS'ILE-GLN'
p210
F-2.7549999999999999
sS'VAL-HIS'
p211
F-2.399
sS'ALA-LEU'
p212
F-2.7970000000000002
sS'HIS-ASP'
p213
F-3.2679999999999998
sS'ILE-TYR'
p214
F-3.016
sS'ILE-GLU'
p215
F-2.2250000000000001
sS'ASP-ASP'
p216
F-3.5790000000000002
sS'ILE-GLY'
p217
F0
sS'ASN-CYS'
p218
F-2.234
sS'GLU-SER'
p219
F-3.0870000000000002
sS'ILE-ASN'
p220
F-2.3610000000000002
sS'HIS-CYS'
p221
F-2.4079999999999999
sS'HIS-MET'
p222
F-2.1110000000000002
sS'ILE-PRO'
p223
F-2.4790000000000001
sS'LYS-PHE'
p224
F-1.9970000000000001
sS'GLY-PHE'
p225
F0
sS'ILE-ASP'
p226
F-1.9990000000000001
sS'PHE-HIS'
p227
F-2.496
sS'GLY-TYR'
p228
F0
sS'SER-GLY'
p229
F0
sS'CYS-TRP'
p230
F-1.6299999999999999
sS'ASP-LYS'
p231
F-3.46
sS'ASN-ILE'
p232
F-2.452
sS'HIS-SER'
p233
F-2.9449999999999998
sS'LYS-CYS'
p234
F-0.68700000000000006
sS'TRP-PRO'
p235
F-3.073
sS'ASN-THR'
p236
F-2.7480000000000002
sS'GLN-PHE'
p237
F-2.6520000000000001
sS'VAL-ALA'
p238
F-2.2850000000000001
sS'SER-LEU'
p239
F-2.3330000000000002
sS'TRP-LYS'
p240
F-2.5870000000000002
sS'VAL-TYR'
p241
F-2.677
sS'VAL-PHE'
p242
F-2.6190000000000002
sS'ARG-THR'
p243
F-3.0289999999999999
sS'TYR-TRP'
p244
F-3.306
sS'GLN-GLN'
p245
F-4.9740000000000002
sS'GLU-PHE'
p246
F-2.4569999999999999
sS'VAL-ILE'
p247
F-2.77
sS'HIS-GLN'
p248
F-2.9449999999999998
sS'GLN-GLY'
p249
F0
sS'PHE-ALA'
p250
F-3.2320000000000002
sS'HIS-GLU'
p251
F-3.343
sS'ARG-PRO'
p252
F-3.1739999999999999
sS'HIS-GLY'
p253
F0
sS'SER-ASN'
p254
F-2.931
sS'ALA-THR'
p255
F-2.5779999999999998
sS'GLN-GLU'
p256
F-2.8809999999999998
sS'GLN-LYS'
p257
F-3.2639999999999998
sS'CYS-HIS'
p258
F-2.9910000000000001
sS'GLN-ASP'
p259
F-2.835
sS'LEU-HIS'
p260
F-2.5840000000000001
sS'SER-LYS'
p261
F-2.8239999999999998
sS'TRP-LEU'
p262
F-3.476
sS'CYS-SER'
p263
F-0.91500000000000004
sS'LYS-THR'
p264
F-2.4119999999999999
sS'HIS-LEU'
p265
F-2.7280000000000002
sS'LEU-ARG'
p266
F-2.9449999999999998
sS'GLY-VAL'
p267
F0
sS'GLN-ASN'
p268
F-3.46
sS'TYR-ARG'
p269
F-3.3380000000000001
sS'PRO-TYR'
p270
F-3.5720000000000001
sS'ASP-PHE'
p271
F-2.0409999999999999
sS'ARG-VAL'
p272
F-2.5750000000000002
sS'ASN-LEU'
p273
F-2.5190000000000001
sS'SER-MET'
p274
F-2.0529999999999999
sS'HIS-ILE'
p275
F-2.4580000000000002
sS'GLY-LEU'
p276
F0
sS'SER-TYR'
p277
F-3.2349999999999999
sS'MET-TYR'
p278
F-3.2530000000000001
sS'GLU-ILE'
p279
F-2.2639999999999998
sS'PHE-CYS'
p280
F-2.7509999999999999
sS'PRO-LEU'
p281
F-2.3620000000000001
sS'GLY-MET'
p282
F0
sS'HIS-THR'
p283
F-2.5590000000000002
sS'THR-GLN'
p284
F-3.0950000000000002
sS'TRP-THR'
p285
F-2.6709999999999998
sS'LYS-LEU'
p286
F-1.897
sS'THR-GLY'
p287
F0
sS'ALA-LYS'
p288
F-2.1509999999999998
sS'ASP-TRP'
p289
F-2.4199999999999999
sS'TYR-MET'
p290
F-3.1139999999999999
sS'PHE-ILE'
p291
F-3.169
sS'THR-GLU'
p292
F-2.7389999999999999
sS'MET-ASN'
p293
F-2.597
sS'LEU-TYR'
p294
F-3.0259999999999998
sS'PHE-PHE'
p295
F-4.6440000000000001
sS'CYS-PHE'
p296
F-2.2050000000000001
sS'TRP-ILE'
p297
F-2.931
sS'PRO-ASN'
p298
F-2.8530000000000002
sS'CYS-CYS'
p299
F-6.5590000000000002
sS'SER-ASP'
p300
F-2.9159999999999999
sS'ARG-MET'
p301
F-2.7999999999999998
sS'SER-PHE'
p302
F-2.6150000000000002
sS'SER-SER'
p303
F-4.0890000000000004
sS'ASN-LYS'
p304
F-2.839
sS'CYS-THR'
p305
F-1.8320000000000001
sS'ILE-TRP'
p306
F-2.976
sS'PRO-ASP'
p307
F-2.71
sS'THR-ASP'
p308
F-2.5
sS'SER-CYS'
p309
F-1.2889999999999999
sS'MET-ASP'
p310
F-1.9970000000000001
sS'GLN-MET'
p311
F-3.008
sS'MET-TRP'
p312
F-2.9540000000000002
sS'TRP-CYS'
p313
F-1.0009999999999999
sS'GLY-GLN'
p314
F0
sS'THR-LYS'
p315
F-2.4129999999999998
sS'TRP-MET'
p316
F-2.9020000000000001
sS'ARG-ARG'
p317
F-4.8550000000000004
sS'ALA-ARG'
p318
F-3.044
sS'PRO-PHE'
p319
F-3.008
sS'ASN-TRP'
p320
F-2.6400000000000001
sS'GLU-ARG'
p321
F-3.8980000000000001
sS'HIS-VAL'
p322
F-2.5609999999999999
sS'VAL-ARG'
p323
F-2.54
sS'TRP-GLU'
p324
F-2.6800000000000002
sS'PHE-TYR'
p325
F-3.1480000000000001
sS'VAL-GLN'
p326
F-2.5720000000000001
sS'TRP-ASN'
p327
F-2.9550000000000001
sS'TYR-ILE'
p328
F-3.1349999999999998
sS'TRP-GLY'
p329
F0
sS'GLY-GLU'
p330
F0
sS'GLY-HIS'
p331
F0
sS'PHE-SER'
p332
F-2.4780000000000002
sS'TRP-ASP'
p333
F-2.9220000000000002
sS'TRP-GLN'
p334
F-3.1509999999999998
sS'LEU-ALA'
p335
F-2.8079999999999998
sS'VAL-GLU'
p336
F-2.2120000000000002
sS'ALA-HIS'
p337
F-3.1920000000000002
sS'TYR-ALA'
p338
F-3.2029999999999998
sS'LEU-THR'
p339
F-2.0379999999999998
sS'TYR-CYS'
p340
F-1.9590000000000001
sS'THR-THR'
p341
F-4.0869999999999997
sS'THR-LEU'
p342
F-2.4009999999999998
sS'VAL-ASN'
p343
F-2.2080000000000002
sS'LEU-TRP'
p344
F-3.262
sS'GLU-ASP'
p345
F-2.5129999999999999
sS'ILE-SER'
p346
F-2.157
sS'ILE-ARG'
p347
F-2.8559999999999999
sS'ASN-SER'
p348
F-3.0049999999999999
sS'ILE-MET'
p349
F-2.5619999999999998
sS'MET-PHE'
p350
F-3.0569999999999999
sS'PRO-ALA'
p351
F-2.8999999999999999
sS'PRO-GLY'
p352
F0
sS'GLN-THR'
p353
F-2.9220000000000002
sS'MET-ALA'
p354
F-2.359
sS'TRP-SER'
p355
F-2.9830000000000001
sS'ASP-HIS'
p356
F-3.2080000000000002
sS'ARG-SER'
p357
F-3.3130000000000002
sS'GLN-HIS'
p358
F-3.0169999999999999
sS'LEU-LEU'
p359
F-3.9220000000000002
sS'ALA-GLN'
p360
F-3.0289999999999999
sS'ASP-ASN'
p361
F-2.8410000000000002
sS'SER-VAL'
p362
F-2.0489999999999999
sS'MET-ILE'
p363
F-2.7010000000000001
sS'ALA-PRO'
p364
F-2.6110000000000002
sS'ALA-ILE'
p365
F-2.6899999999999999
sS'ALA-GLY'
p366
F0
sS'TRP-TRP'
p367
F-4.9530000000000003
sS'MET-CYS'
p368
F-1.931
sS'ALA-GLU'
p369
F-2.7589999999999999
sS'THR-PRO'
p370
F-2.5960000000000001
sS'HIS-ALA'
p371
F-2.8460000000000001
sS'GLN-ILE'
p372
F-2.7999999999999998
sS'GLU-VAL'
p373
F-2.3330000000000002
sS'LYS-ASN'
p374
F-2.7509999999999999
sS'ASN-ALA'
p375
F-2.7490000000000001
sS'GLU-TRP'
p376
F-2.8119999999999998
sS'THR-ILE'
p377
F-2.411
sS'ASP-CYS'
p378
F-1.038
sS'PRO-LYS'
p379
F-1.893
sS'TYR-TYR'
p380
F-4.6200000000000001
sS'ARG-LYS'
p381
F-2.8599999999999999
sS'ILE-ALA'
p382
F-2.5430000000000001
sS'ASP-SER'
p383
F-2.8719999999999999
sS'CYS-LYS'
p384
F-2.0710000000000002
sS'ARG-ASN'
p385
F-3.6309999999999998
sS'GLU-ALA'
p386
F-2.762
sS'PHE-GLU'
p387
F-2.29
sS'GLU-LEU'
p388
F-2.2959999999999998
sS'ASN-TYR'
p389
F-3.1669999999999998
sS'LYS-HIS'
p390
F-3.04
sS'HIS-PRO'
p391
F-2.8740000000000001
sS'ILE-ILE'
p392
F-4.04
sS'MET-HIS'
p393
F-2.649
sS'VAL-GLY'
p394
F0
sS'THR-MET'
p395
F-2.5569999999999999
sS'PHE-THR'
p396
F-2.8530000000000002
sS'VAL-TRP'
p397
F-2.6080000000000001
sS'PHE-LYS'
p398
F-2.3719999999999999
sS'GLY-PRO'
p399
F0
sS'PHE-GLN'
p400
F-2.7330000000000001
sS'LEU-PHE'
p401
F-3.1829999999999998
s.