(dp1
S'MET-MET'
p2
F-2.6389999999999998
sS'PRO-ILE'
p3
F-0.54300000000000004
sS'TYR-LYS'
p4
F-1.3879999999999999
sS'VAL-ASP'
p5
F-0.40000000000000002
sS'ASP-GLN'
p6
F-1.272
sS'HIS-TYR'
p7
F-1.5429999999999999
sS'ASP-GLU'
p8
F-1.1379999999999999
sS'ALA-ASP'
p9
F-0.44500000000000001
sS'ASP-GLY'
p10
F-0.53800000000000003
sS'LEU-VAL'
p11
F-0.58599999999999997
sS'TRP-TYR'
p12
F-1.2130000000000001
sS'GLN-TRP'
p13
F-1.208
sS'TRP-PHE'
p14
F-1.1479999999999999
sS'ARG-TYR'
p15
F-1.72
sS'GLU-LYS'
p16
F-1.74
sS'ILE-HIS'
p17
F-0.73899999999999999
sS'LEU-MET'
p18
F-0.55100000000000005
sS'GLU-HIS'
p19
F-1.5369999999999999
sS'GLY-THR'
p20
F-0.58799999999999997
sS'ARG-GLU'
p21
F-2.004
sS'PHE-ASN'
p22
F-0.97399999999999998
sS'ASN-MET'
p23
F-0.60699999999999998
sS'PRO-THR'
p24
F-0.97699999999999998
sS'TYR-GLN'
p25
F-1.4179999999999999
sS'ARG-GLY'
p26
F-1.2869999999999999
sS'VAL-THR'
p27
F-0.44900000000000001
sS'ASP-ILE'
p28
F-0.47599999999999998
sS'THR-HIS'
p29
F-0.95199999999999996
sS'TYR-GLU'
p30
F-1.444
sS'ARG-GLN'
p31
F-1.768
sS'TYR-GLY'
p32
F-0.96399999999999997
sS'PHE-ASP'
p33
F-0.78500000000000003
sS'CYS-ARG'
p34
F-0.79400000000000004
sS'GLY-ASN'
p35
F-0.93300000000000005
sS'VAL-LYS'
p36
F-0.47999999999999998
sS'LEU-ILE'
p37
F-0.69399999999999995
sS'GLN-LEU'
p38
F-0.877
sS'GLU-MET'
p39
F-0.56000000000000005
sS'ASP-THR'
p40
F-0.89300000000000002
sS'ASN-PHE'
p41
F-0.96399999999999997
sS'GLU-PRO'
p42
F-1.113
sS'TYR-LEU'
p43
F-1.095
sS'LYS-ARG'
p44
F-1.3580000000000001
sS'GLY-ASP'
p45
F-0.63300000000000001
sS'PRO-GLN'
p46
F-1.244
sS'CYS-MET'
p47
F0.055
sS'HIS-ARG'
p48
F-1.506
sS'GLU-THR'
p49
F-1.044
sS'ILE-THR'
p50
F-0.54100000000000004
sS'SER-PRO'
p51
F-0.85199999999999998
sS'GLY-CYS'
p52
F-0.25
sS'ARG-LEU'
p53
F-1.157
sS'PRO-GLU'
p54
F-1.016
sS'ASP-LEU'
p55
F-0.498
sS'PHE-VAL'
p56
F-0.749
sS'ASN-VAL'
p57
F-0.64400000000000002
sS'ALA-MET'
p58
F-0.14899999999999999
sS'LEU-PRO'
p59
F-0.69699999999999995
sS'LEU-SER'
p60
F-0.53700000000000003
sS'ASN-ARG'
p61
F-1.6459999999999999
sS'SER-THR'
p62
F-0.66500000000000004
sS'LYS-VAL'
p63
F-0.52200000000000002
sS'LYS-GLN'
p64
F-1.478
sS'GLN-VAL'
p65
F-0.73499999999999999
sS'TYR-PHE'
p66
F-1.2350000000000001
sS'ASP-VAL'
p67
F-0.40799999999999997
sS'ASN-GLY'
p68
F-0.86099999999999999
sS'ARG-PHE'
p69
F-1.337
sS'SER-HIS'
p70
F-0.99199999999999999
sS'ALA-ILE'
p71
F-0.28199999999999997
sS'ASN-GLU'
p72
F-1.4299999999999999
sS'CYS-GLN'
p73
F-0.45800000000000002
sS'TYR-PRO'
p74
F-1.339
sS'LYS-GLU'
p75
F-1.7709999999999999
sS'CYS-GLU'
p76
F0.128
sS'ASN-GLN'
p77
F-1.518
sS'CYS-GLY'
p78
F0.0070000000000000001
sS'GLN-SER'
p79
F-1.2270000000000001
sS'HIS-LYS'
p80
F-1.232
sS'LYS-GLY'
p81
F-0.81000000000000005
sS'VAL-MET'
p82
F-0.25
sS'GLU-GLY'
p83
F-0.78300000000000003
sS'THR-SER'
p84
F-0.67300000000000004
sS'TYR-THR'
p85
F-1.081
sS'PRO-PRO'
p86
F-2.2410000000000001
sS'ILE-PHE'
p87
F-0.98499999999999999
sS'PHE-LEU'
p88
F-1.0149999999999999
sS'GLU-GLU'
p89
F-2.46
sS'SER-ARG'
p90
F-1.389
sS'GLY-ALA'
p91
F-0.255
sS'TYR-ASN'
p92
F-1.4850000000000001
sS'GLU-GLN'
p93
F-1.3460000000000001
sS'TRP-ARG'
p94
F-1.524
sS'LEU-GLU'
p95
F-0.65000000000000002
sS'LEU-GLY'
p96
F-0.29199999999999998
sS'LYS-SER'
p97
F-0.998
sS'MET-VAL'
p98
F-0.21099999999999999
sS'SER-ALA'
p99
F-0.46100000000000002
sS'PRO-HIS'
p100
F-1.1679999999999999
sS'MET-THR'
p101
F-0.46800000000000003
sS'ALA-PHE'
p102
F-0.65000000000000002
sS'MET-PRO'
p103
F-0.38
sS'GLY-SER'
p104
F-0.51400000000000001
sS'LEU-GLN'
p105
F-0.88500000000000001
sS'VAL-LEU'
p106
F-0.64900000000000002
sS'LEU-CYS'
p107
F0.0030000000000000001
sS'LYS-TYR'
p108
F-1.3999999999999999
sS'ASP-ALA'
p109
F-0.35599999999999998
sS'ILE-LEU'
p110
F-0.77800000000000002
sS'TRP-VAL'
p111
F-0.68600000000000005
sS'PHE-PRO'
p112
F-1.014
sS'ALA-ALA'
p113
F-1.4079999999999999
sS'ARG-TRP'
p114
F-1.663
sS'MET-GLN'
p115
F-0.86199999999999999
sS'ILE-LYS'
p116
F-0.38200000000000001
sS'MET-ARG'
p117
F-0.89100000000000001
sS'ALA-CYS'
p118
F0.16
sS'THR-ARG'
p119
F-1.3280000000000001
sS'CYS-ILE'
p120
F0.02
sS'LEU-ASN'
p121
F-0.75600000000000001
sS'LEU-ASP'
p122
F-0.51200000000000001
sS'PHE-TRP'
p123
F-1.1279999999999999
sS'MET-GLY'
p124
F-0.13900000000000001
sS'THR-PHE'
p125
F-0.86599999999999999
sS'MET-GLU'
p126
F-0.56299999999999994
sS'THR-TRP'
p127
F-0.72199999999999998
sS'THR-TYR'
p128
F-1.1200000000000001
sS'CYS-VAL'
p129
F0.13800000000000001
sS'ARG-ALA'
p130
F-0.95599999999999996
sS'ALA-TYR'
p131
F-0.86099999999999999
sS'ASP-PRO'
p132
F-0.98499999999999999
sS'ARG-CYS'
p133
F-0.82799999999999996
sS'GLN-ARG'
p134
F-1.7190000000000001
sS'HIS-TRP'
p135
F-1.0009999999999999
sS'PRO-SER'
p136
F-0.85499999999999998
sS'VAL-VAL'
p137
F-1.655
sS'LEU-LYS'
p138
F-0.65800000000000003
sS'GLY-LYS'
p139
F-0.90400000000000003
sS'CYS-ASN'
p140
F-0.52900000000000003
sS'GLY-TRP'
p141
F-0.74199999999999999
sS'THR-CYS'
p142
F-0.070000000000000007
sS'LYS-LYS'
p143
F-2.3340000000000001
sS'CYS-ASP'
p144
F-0.094
sS'TYR-ASP'
p145
F-1.2989999999999999
sS'VAL-PRO'
p146
F-0.45100000000000001
sS'THR-VAL'
p147
F-0.5
sS'ASP-TYR'
p148
F-1.339
sS'PRO-CYS'
p149
F-0.35399999999999998
sS'VAL-SER'
p150
F-0.38600000000000001
sS'ARG-HIS'
p151
F-1.5780000000000001
sS'CYS-PRO'
p152
F-0.47899999999999998
sS'MET-LYS'
p153
F-0.71599999999999997
sS'ALA-SER'
p154
F-0.41499999999999998
sS'TYR-SER'
p155
F-1.1759999999999999
sS'GLY-ARG'
p156
F-1.232
sS'GLN-ALA'
p157
F-0.73499999999999999
sS'MET-LEU'
p158
F-0.61899999999999999
sS'ASN-HIS'
p159
F-1.194
sS'VAL-CYS'
p160
F0.28699999999999998
sS'GLN-TYR'
p161
F-1.516
sS'GLN-PHE'
p162
F-1.0669999999999999
sS'ILE-ASN'
p163
F-0.65900000000000003
sS'GLU-ASN'
p164
F-1.458
sS'CYS-ALA'
p165
F0.19
sS'ASN-ASP'
p166
F-1.232
sS'ASN-PRO'
p167
F-1.153
sS'PRO-ARG'
p168
F-1.397
sS'LYS-TRP'
p169
F-0.96499999999999997
sS'ASN-ASN'
p170
F-2.8170000000000002
sS'ASN-THR'
p171
F-1.0640000000000001
sS'THR-ALA'
p172
F-0.42999999999999999
sS'LYS-ALA'
p173
F-0.40699999999999997
sS'LYS-PRO'
p174
F-0.98699999999999999
sS'SER-GLN'
p175
F-1.177
sS'ILE-VAL'
p176
F-0.443
sS'ASP-ARG'
p177
F-1.8759999999999999
sS'ASP-MET'
p178
F-0.442
sS'CYS-TYR'
p179
F-0.83899999999999997
sS'PRO-TRP'
p180
F-1.095
sS'THR-GLU'
p181
F-1.036
sS'TRP-ALA'
p182
F-0.84499999999999997
sS'ILE-CYS'
p183
F0.074999999999999997
sS'LYS-ILE'
p184
F-0.40600000000000003
sS'GLN-CYS'
p185
F-0.39000000000000001
sS'TYR-ALA'
p186
F-0.83399999999999996
sS'ARG-ASP'
p187
F-1.9430000000000001
sS'SER-GLU'
p188
F-1.095
sS'TRP-HIS'
p189
F-1.2390000000000001
sS'ALA-ASN'
p190
F-0.57799999999999996
sS'GLU-CYS'
p191
F-0.0060000000000000001
sS'PRO-MET'
p192
F-0.40600000000000003
sS'TYR-HIS'
p193
F-1.538
sS'PHE-MET'
p194
F-0.93999999999999995
sS'GLU-TYR'
p195
F-1.496
sS'SER-TRP'
p196
F-0.93899999999999995
sS'PHE-ARG'
p197
F-1.2150000000000001
sS'GLY-ILE'
p198
F-0.191
sS'TYR-VAL'
p199
F-0.85999999999999999
sS'ASN-TYR'
p200
F-1.444
sS'SER-ILE'
p201
F-0.442
sS'GLN-PRO'
p202
F-1.2370000000000001
sS'PHE-TYR'
p203
F-1.321
sS'ALA-VAL'
p204
F-0.17699999999999999
sS'HIS-HIS'
p205
F-3.3460000000000001
sS'THR-ASN'
p206
F-1.032
sS'CYS-LEU'
p207
F0.045999999999999999
sS'LYS-MET'
p208
F-0.55200000000000005
sS'LYS-ASP'
p209
F-1.571
sS'HIS-ASN'
p210
F-1.375
sS'ILE-GLN'
p211
F-0.82999999999999996
sS'VAL-HIS'
p212
F-0.59599999999999997
sS'ALA-LEU'
p213
F-0.47999999999999998
sS'HIS-ASP'
p214
F-1.2969999999999999
sS'ILE-TYR'
p215
F-1.0640000000000001
sS'ILE-GLU'
p216
F-0.55300000000000005
sS'ASN-TRP'
p217
F-1.0589999999999999
sS'ILE-GLY'
p218
F-0.19
sS'ASN-CYS'
p219
F-0.621
sS'GLU-SER'
p220
F-1.093
sS'ALA-TRP'
p221
F-0.72099999999999997
sS'HIS-CYS'
p222
F-0.081000000000000003
sS'HIS-MET'
p223
F-0.60699999999999998
sS'ILE-PRO'
p224
F-0.64700000000000002
sS'LYS-PHE'
p225
F-0.75800000000000001
sS'TRP-PRO'
p226
F-0.88400000000000001
sS'GLU-TRP'
p227
F-1.089
sS'PHE-HIS'
p228
F-0.93999999999999995
sS'GLY-TYR'
p229
F-1.0209999999999999
sS'SER-GLY'
p230
F-0.55600000000000005
sS'CYS-TRP'
p231
F0.127
sS'ASP-LYS'
p232
F-1.5409999999999999
sS'ASN-ILE'
p233
F-0.72499999999999998
sS'HIS-SER'
p234
F-1.0309999999999999
sS'LYS-CYS'
p235
F-0.21099999999999999
sS'GLY-PHE'
p236
F-0.5
sS'GLY-LEU'
p237
F-0.34499999999999997
sS'MET-SER'
p238
F-0.45400000000000001
sS'VAL-ALA'
p239
F-0.154
sS'SER-LEU'
p240
F-0.52800000000000002
sS'TRP-LYS'
p241
F-1.0089999999999999
sS'VAL-TYR'
p242
F-0.80400000000000005
sS'VAL-PHE'
p243
F-0.70899999999999996
sS'ARG-THR'
p244
F-1.3400000000000001
sS'TYR-TRP'
p245
F-1.3049999999999999
sS'GLN-GLN'
p246
F-2.9590000000000001
sS'GLU-PHE'
p247
F-0.91300000000000003
sS'VAL-ILE'
p248
F-0.47299999999999998
sS'HIS-GLN'
p249
F-1.254
sS'GLN-GLY'
p250
F-1.0169999999999999
sS'PHE-ALA'
p251
F-0.60899999999999999
sS'HIS-GLU'
p252
F-1.4850000000000001
sS'ARG-PRO'
p253
F-1.4039999999999999
sS'HIS-GLY'
p254
F-0.73499999999999999
sS'SER-ASN'
p255
F-1.0940000000000001
sS'ALA-THR'
p256
F-0.41199999999999998
sS'GLN-GLU'
p257
F-1.367
sS'GLN-LYS'
p258
F-1.353
sS'CYS-HIS'
p259
F-0.184
sS'GLN-ASP'
p260
F-1.341
sS'LEU-HIS'
p261
F-0.89400000000000002
sS'SER-LYS'
p262
F-0.96999999999999997
sS'TRP-LEU'
p263
F-1.0600000000000001
sS'CYS-SER'
p264
F-0.27400000000000002
sS'LYS-THR'
p265
F-0.77900000000000003
sS'HIS-LEU'
p266
F-0.74299999999999999
sS'LEU-ARG'
p267
F-1.081
sS'GLY-VAL'
p268
F-0.308
sS'GLN-ASN'
p269
F-1.4410000000000001
sS'TYR-ARG'
p270
F-1.671
sS'PRO-TYR'
p271
F-1.3899999999999999
sS'ASP-PHE'
p272
F-0.66700000000000004
sS'TRP-CYS'
p273
F-0.017000000000000001
sS'ASN-LEU'
p274
F-0.76600000000000001
sS'SER-MET'
p275
F-0.435
sS'HIS-ILE'
p276
F-0.69299999999999995
sS'SER-TYR'
p277
F-1.2090000000000001
sS'MET-TYR'
p278
F-1.083
sS'GLU-ILE'
p279
F-0.68000000000000005
sS'PHE-CYS'
p280
F-0.56599999999999995
sS'PRO-LEU'
p281
F-0.66400000000000003
sS'GLY-MET'
p282
F-0.251
sS'ARG-ILE'
p283
F-0.97299999999999998
sS'HIS-THR'
p284
F-0.93100000000000005
sS'THR-GLN'
p285
F-1.2450000000000001
sS'TRP-THR'
p286
F-0.81299999999999994
sS'LYS-LEU'
p287
F-0.60799999999999998
sS'THR-GLY'
p288
F-0.66500000000000004
sS'ASP-TRP'
p289
F-0.86099999999999999
sS'TYR-MET'
p290
F-0.97599999999999998
sS'PHE-ILE'
p291
F-0.96899999999999997
sS'PRO-VAL'
p292
F-0.45100000000000001
sS'MET-ASN'
p293
F-0.753
sS'LEU-TYR'
p294
F-1.0940000000000001
sS'PHE-PHE'
p295
F-2.613
sS'CYS-PHE'
p296
F-0.371
sS'TRP-ILE'
p297
F-0.82999999999999996
sS'PRO-ASN'
p298
F-1.1040000000000001
sS'CYS-CYS'
p299
F-3.4260000000000002
sS'SER-ASP'
p300
F-0.89900000000000002
sS'ARG-MET'
p301
F-1.048
sS'SER-PHE'
p302
F-0.69899999999999995
sS'SER-SER'
p303
F-2.0089999999999999
sS'ASN-LYS'
p304
F-1.4370000000000001
sS'CYS-THR'
p305
F0.085000000000000006
sS'ILE-TRP'
p306
F-0.76500000000000001
sS'PRO-ASP'
p307
F-1.004
sS'THR-ASP'
p308
F-0.86299999999999999
sS'SER-CYS'
p309
F-0.14399999999999999
sS'MET-ASP'
p310
F-0.48499999999999999
sS'GLN-MET'
p311
F-0.69399999999999995
sS'MET-TRP'
p312
F-0.61799999999999999
sS'ARG-VAL'
p313
F-0.93500000000000005
sS'GLY-GLN'
p314
F-0.94099999999999995
sS'THR-LYS'
p315
F-0.79900000000000004
sS'TRP-MET'
p316
F-0.67100000000000004
sS'ARG-ARG'
p317
F-3.1560000000000001
sS'ILE-ASP'
p318
F-0.51500000000000001
sS'GLY-GLY'
p319
F-1.5980000000000001
sS'GLY-GLU'
p320
F-0.74299999999999999
sS'ALA-ARG'
p321
F-0.95299999999999996
sS'GLU-ARG'
p322
F-1.962
sS'HIS-VAL'
p323
F-0.56599999999999995
sS'VAL-ARG'
p324
F-0.89800000000000002
sS'ASN-SER'
p325
F-1.1439999999999999
sS'ALA-LYS'
p326
F-0.42299999999999999
sS'VAL-GLN'
p327
F-0.72399999999999998
sS'TRP-ASN'
p328
F-1.2929999999999999
sS'TYR-ILE'
p329
F-1.0660000000000001
sS'TRP-GLY'
p330
F-0.82999999999999996
sS'PRO-PHE'
p331
F-0.94899999999999995
sS'GLY-HIS'
p332
F-0.86499999999999999
sS'PHE-SER'
p333
F-0.76900000000000002
sS'TRP-ASP'
p334
F-0.79600000000000004
sS'TRP-GLN'
p335
F-1.429
sS'LEU-ALA'
p336
F-0.42799999999999999
sS'VAL-GLU'
p337
F-0.63600000000000001
sS'ALA-HIS'
p338
F-0.83699999999999997
sS'ARG-ASN'
p339
F-1.696
sS'LEU-THR'
p340
F-0.61199999999999999
sS'TYR-CYS'
p341
F-0.59499999999999997
sS'THR-THR'
p342
F-2.0990000000000002
sS'THR-LEU'
p343
F-0.58399999999999996
sS'VAL-ASN'
p344
F-0.58399999999999996
sS'LEU-TRP'
p345
F-1.1000000000000001
sS'GLU-ASP'
p346
F-1.1519999999999999
sS'ILE-SER'
p347
F-0.45100000000000001
sS'ILE-ARG'
p348
F-0.96399999999999997
sS'TRP-GLU'
p349
F-1.1200000000000001
sS'ILE-MET'
p350
F-0.46500000000000002
sS'MET-PHE'
p351
F-0.91900000000000004
sS'PRO-ALA'
p352
F-0.58799999999999997
sS'PRO-GLY'
p353
F-0.55000000000000004
sS'GLN-THR'
p354
F-1.1040000000000001
sS'MET-ALA'
p355
F-0.035000000000000003
sS'TRP-SER'
p356
F-0.85399999999999998
sS'ASP-HIS'
p357
F-1.2709999999999999
sS'ARG-SER'
p358
F-1.4199999999999999
sS'GLN-HIS'
p359
F-1.3759999999999999
sS'HIS-PHE'
p360
F-0.94199999999999995
sS'LEU-LEU'
p361
F-2.0190000000000001
sS'ALA-GLN'
p362
F-0.80200000000000005
sS'ASP-ASN'
p363
F-1.2030000000000001
sS'SER-VAL'
p364
F-0.35699999999999998
sS'MET-ILE'
p365
F-0.41199999999999998
sS'ALA-PRO'
p366
F-0.42899999999999999
sS'ASP-ASP'
p367
F-2.1600000000000001
sS'ALA-GLY'
p368
F-0.121
sS'TRP-TRP'
p369
F-3.2530000000000001
sS'MET-CYS'
p370
F0.315
sS'ALA-GLU'
p371
F-0.54200000000000004
sS'THR-PRO'
p372
F-0.94299999999999995
sS'HIS-ALA'
p373
F-0.50800000000000001
sS'GLN-ILE'
p374
F-0.91200000000000003
sS'GLU-VAL'
p375
F-0.60899999999999999
sS'LYS-ASN'
p376
F-1.335
sS'ASN-ALA'
p377
F-0.624
sS'THR-ILE'
p378
F-0.60799999999999998
sS'ASP-CYS'
p379
F-0.060999999999999999
sS'PRO-LYS'
p380
F-1.012
sS'TYR-TYR'
p381
F-2.9119999999999999
sS'ARG-LYS'
p382
F-1.45
sS'ILE-ALA'
p383
F-0.219
sS'ASP-SER'
p384
F-0.92500000000000004
sS'CYS-LYS'
p385
F-0.23000000000000001
sS'GLU-ALA'
p386
F-0.56799999999999995
sS'PHE-GLU'
p387
F-0.92500000000000004
sS'GLU-LEU'
p388
F-0.70199999999999996
sS'PHE-GLY'
p389
F-0.51700000000000002
sS'LYS-HIS'
p390
F-1.2749999999999999
sS'HIS-PRO'
p391
F-1.1060000000000001
sS'ILE-ILE'
p392
F-2.0089999999999999
sS'MET-HIS'
p393
F-0.72699999999999998
sS'VAL-GLY'
p394
F-0.18099999999999999
sS'THR-MET'
p395
F-0.47399999999999998
sS'PHE-THR'
p396
F-0.85399999999999998
sS'VAL-TRP'
p397
F-0.71099999999999997
sS'PHE-LYS'
p398
F-0.80500000000000005
sS'GLY-PRO'
p399
F-0.65500000000000003
sS'PHE-GLN'
p400
F-1.034
sS'LEU-PHE'
p401
F-1.0149999999999999
s.