(dp1
S'MET-MET'
p2
F-2.605
sS'PRO-ILE'
p3
F-0.75
sS'TYR-LYS'
p4
F-1.524
sS'VAL-ASP'
p5
F-0.497
sS'ASP-GLN'
p6
F-1.3360000000000001
sS'HIS-TYR'
p7
F-1.6459999999999999
sS'ASP-GLU'
p8
F-1.2569999999999999
sS'ALA-ASP'
p9
F-0.54400000000000004
sS'ASP-GLY'
p10
F-0.58999999999999997
sS'LEU-VAL'
p11
F-0.59899999999999998
sS'TRP-TYR'
p12
F-1.387
sS'GLN-TRP'
p13
F-1.2789999999999999
sS'TRP-PHE'
p14
F-1.2250000000000001
sS'ARG-TYR'
p15
F-1.802
sS'GLU-LYS'
p16
F-1.8
sS'ILE-HIS'
p17
F-0.81000000000000005
sS'LEU-MET'
p18
F-0.68999999999999995
sS'GLU-HIS'
p19
F-1.6719999999999999
sS'GLY-THR'
p20
F-0.63500000000000001
sS'ARG-GLU'
p21
F-2.0110000000000001
sS'PHE-ASN'
p22
F-1.0289999999999999
sS'ASN-MET'
p23
F-0.71899999999999997
sS'PRO-THR'
p24
F-1.0760000000000001
sS'TYR-GLN'
p25
F-1.49
sS'ARG-GLY'
p26
F-1.367
sS'VAL-THR'
p27
F-0.5
sS'ASP-ILE'
p28
F-0.54100000000000004
sS'THR-HIS'
p29
F-1.0509999999999999
sS'TYR-GLU'
p30
F-1.518
sS'ARG-GLN'
p31
F-1.835
sS'TYR-GLY'
p32
F-1.097
sS'PHE-ASP'
p33
F-0.91900000000000004
sS'CYS-ARG'
p34
F-0.91500000000000004
sS'GLY-ASN'
p35
F-0.97199999999999998
sS'VAL-LYS'
p36
F-0.55000000000000004
sS'LEU-ILE'
p37
F-0.74199999999999999
sS'GLN-LEU'
p38
F-1.0169999999999999
sS'GLU-MET'
p39
F-0.64500000000000002
sS'ASP-THR'
p40
F-0.94599999999999995
sS'ASN-PHE'
p41
F-1.0900000000000001
sS'GLU-PRO'
p42
F-1.2430000000000001
sS'TYR-LEU'
p43
F-1.1439999999999999
sS'LYS-ARG'
p44
F-1.484
sS'GLY-ASP'
p45
F-0.68200000000000005
sS'PRO-GLN'
p46
F-1.3460000000000001
sS'CYS-MET'
p47
F-0.17499999999999999
sS'HIS-ARG'
p48
F-1.6180000000000001
sS'GLU-THR'
p49
F-1.1040000000000001
sS'ILE-THR'
p50
F-0.66200000000000003
sS'SER-PRO'
p51
F-0.94399999999999995
sS'GLY-CYS'
p52
F-0.379
sS'ARG-LEU'
p53
F-1.2549999999999999
sS'PRO-GLU'
p54
F-1.1830000000000001
sS'ASP-LEU'
p55
F-0.57999999999999996
sS'PHE-VAL'
p56
F-0.77500000000000002
sS'ASN-VAL'
p57
F-0.71299999999999997
sS'ALA-MET'
p58
F-0.378
sS'LEU-PRO'
p59
F-0.79100000000000004
sS'LEU-SER'
p60
F-0.56000000000000005
sS'ASN-ARG'
p61
F-1.6950000000000001
sS'SER-THR'
p62
F-0.69299999999999995
sS'LYS-VAL'
p63
F-0.54900000000000004
sS'LYS-GLN'
p64
F-1.5269999999999999
sS'GLN-VAL'
p65
F-0.74299999999999999
sS'TYR-PHE'
p66
F-1.3169999999999999
sS'ASP-VAL'
p67
F-0.46100000000000002
sS'ASN-GLY'
p68
F-0.91500000000000004
sS'ARG-PHE'
p69
F-1.3500000000000001
sS'SER-HIS'
p70
F-1.0649999999999999
sS'ALA-ILE'
p71
F-0.373
sS'ASN-GLU'
p72
F-1.4510000000000001
sS'CYS-GLN'
p73
F-0.621
sS'TYR-PRO'
p74
F-1.4219999999999999
sS'LYS-GLU'
p75
F-1.7909999999999999
sS'CYS-GLU'
p76
F-0.063
sS'ASN-GLN'
p77
F-1.5489999999999999
sS'CYS-GLY'
p78
F-0.039
sS'GLN-SER'
p79
F-1.272
sS'HIS-LYS'
p80
F-1.3560000000000001
sS'LYS-GLY'
p81
F-0.93300000000000005
sS'VAL-MET'
p82
F-0.47099999999999997
sS'GLU-GLY'
p83
F-0.85899999999999999
sS'THR-SER'
p84
F-0.68200000000000005
sS'TYR-THR'
p85
F-1.224
sS'PRO-PRO'
p86
F-2.2869999999999999
sS'ILE-PHE'
p87
F-1.097
sS'PHE-LEU'
p88
F-1.1619999999999999
sS'GLU-GLU'
p89
F-2.3940000000000001
sS'SER-ARG'
p90
F-1.464
sS'GLY-ALA'
p91
F-0.29499999999999998
sS'TYR-ASN'
p92
F-1.5549999999999999
sS'GLU-GLN'
p93
F-1.4179999999999999
sS'TRP-ARG'
p94
F-1.611
sS'LEU-GLU'
p95
F-0.64900000000000002
sS'LEU-GLY'
p96
F-0.35199999999999998
sS'LYS-SER'
p97
F-1.1299999999999999
sS'MET-VAL'
p98
F-0.37
sS'SER-ALA'
p99
F-0.41299999999999998
sS'PRO-HIS'
p100
F-1.2649999999999999
sS'MET-THR'
p101
F-0.56499999999999995
sS'ALA-PHE'
p102
F-0.75600000000000001
sS'MET-PRO'
p103
F-0.55500000000000005
sS'GLY-SER'
p104
F-0.56999999999999995
sS'LEU-GLN'
p105
F-0.996
sS'VAL-LEU'
p106
F-0.70199999999999996
sS'LEU-CYS'
p107
F-0.071999999999999995
sS'LYS-TYR'
p108
F-1.5189999999999999
sS'ASP-ALA'
p109
F-0.44500000000000001
sS'ILE-LEU'
p110
F-0.91900000000000004
sS'TRP-VAL'
p111
F-0.89600000000000002
sS'PHE-PRO'
p112
F-1.1359999999999999
sS'ALA-ALA'
p113
F-1.365
sS'ARG-TRP'
p114
F-1.7350000000000001
sS'MET-GLN'
p115
F-0.90700000000000003
sS'ILE-LYS'
p116
F-0.57399999999999995
sS'MET-ARG'
p117
F-1.0429999999999999
sS'ALA-CYS'
p118
F0.049000000000000002
sS'THR-ARG'
p119
F-1.2969999999999999
sS'CYS-ILE'
p120
F-0.183
sS'LEU-ASN'
p121
F-0.85499999999999998
sS'LEU-ASP'
p122
F-0.59799999999999998
sS'PHE-TRP'
p123
F-1.2390000000000001
sS'MET-GLY'
p124
F-0.32700000000000001
sS'THR-PHE'
p125
F-1.046
sS'MET-GLU'
p126
F-0.63
sS'THR-TRP'
p127
F-0.81899999999999995
sS'THR-TYR'
p128
F-1.2909999999999999
sS'CYS-VAL'
p129
F-0.032000000000000001
sS'ARG-ALA'
p130
F-1.071
sS'ALA-TYR'
p131
F-1.0049999999999999
sS'ASP-PRO'
p132
F-1.097
sS'ARG-CYS'
p133
F-0.90200000000000002
sS'GLN-ARG'
p134
F-1.8360000000000001
sS'HIS-TRP'
p135
F-1.0349999999999999
sS'PRO-SER'
p136
F-0.90800000000000003
sS'VAL-VAL'
p137
F-1.675
sS'LEU-LYS'
p138
F-0.76100000000000001
sS'GLY-LYS'
p139
F-0.94099999999999995
sS'CYS-ASN'
p140
F-0.67500000000000004
sS'GLY-TRP'
p141
F-0.76800000000000002
sS'THR-CYS'
p142
F-0.193
sS'LYS-LYS'
p143
F-2.3170000000000002
sS'CYS-ASP'
p144
F-0.28000000000000003
sS'TYR-ASP'
p145
F-1.415
sS'VAL-PRO'
p146
F-0.57299999999999995
sS'THR-VAL'
p147
F-0.55900000000000005
sS'ASP-TYR'
p148
F-1.4450000000000001
sS'PRO-CYS'
p149
F-0.51100000000000001
sS'VAL-SER'
p150
F-0.42099999999999999
sS'ARG-HIS'
p151
F-1.6910000000000001
sS'CYS-PRO'
p152
F-0.67600000000000005
sS'MET-LYS'
p153
F-0.90100000000000002
sS'ALA-SER'
p154
F-0.371
sS'TYR-SER'
p155
F-1.268
sS'GLY-ARG'
p156
F-1.278
sS'GLN-ALA'
p157
F-0.85699999999999998
sS'MET-LEU'
p158
F-0.77300000000000002
sS'ASN-HIS'
p159
F-1.3180000000000001
sS'VAL-CYS'
p160
F0.056000000000000001
sS'GLN-TYR'
p161
F-1.591
sS'GLN-PHE'
p162
F-1.167
sS'ILE-ASN'
p163
F-0.71599999999999997
sS'GLU-ASN'
p164
F-1.522
sS'CYS-ALA'
p165
F0.058999999999999997
sS'ASN-ASP'
p166
F-1.272
sS'ASN-PRO'
p167
F-1.27
sS'PRO-ARG'
p168
F-1.5209999999999999
sS'LYS-TRP'
p169
F-1.056
sS'ASN-ASN'
p170
F-2.7589999999999999
sS'ASN-THR'
p171
F-1.1319999999999999
sS'THR-ALA'
p172
F-0.44700000000000001
sS'LYS-ALA'
p173
F-0.49199999999999999
sS'LYS-PRO'
p174
F-1.1020000000000001
sS'SER-GLN'
p175
F-1.238
sS'ILE-VAL'
p176
F-0.51900000000000002
sS'ASP-ARG'
p177
F-1.952
sS'ASP-MET'
p178
F-0.60299999999999998
sS'CYS-TYR'
p179
F-0.93500000000000005
sS'PRO-TRP'
p180
F-1.105
sS'THR-GLU'
p181
F-1.0960000000000001
sS'TRP-ALA'
p182
F-0.94899999999999995
sS'ILE-CYS'
p183
F-0.069000000000000006
sS'LYS-ILE'
p184
F-0.50900000000000001
sS'GLN-CYS'
p185
F-0.54800000000000004
sS'TYR-ALA'
p186
F-0.89400000000000002
sS'ARG-ASP'
p187
F-2.0219999999999998
sS'SER-GLU'
p188
F-1.169
sS'TRP-HIS'
p189
F-1.2709999999999999
sS'ALA-ASN'
p190
F-0.68000000000000005
sS'GLU-CYS'
p191
F-0.17399999999999999
sS'PRO-MET'
p192
F-0.57599999999999996
sS'TYR-HIS'
p193
F-1.625
sS'PHE-MET'
p194
F-1.071
sS'GLU-TYR'
p195
F-1.569
sS'SER-TRP'
p196
F-1.048
sS'PHE-ARG'
p197
F-1.29
sS'GLY-ILE'
p198
F-0.23400000000000001
sS'TYR-VAL'
p199
F-0.86099999999999999
sS'ASN-TYR'
p200
F-1.49
sS'SER-ILE'
p201
F-0.48699999999999999
sS'GLN-PRO'
p202
F-1.373
sS'PHE-TYR'
p203
F-1.3839999999999999
sS'ALA-VAL'
p204
F-0.251
sS'HIS-HIS'
p205
F-3.379
sS'THR-ASN'
p206
F-1.127
sS'CYS-LEU'
p207
F0.0089999999999999993
sS'LYS-MET'
p208
F-0.69999999999999996
sS'LYS-ASP'
p209
F-1.6060000000000001
sS'HIS-ASN'
p210
F-1.4570000000000001
sS'ILE-GLN'
p211
F-0.85199999999999998
sS'VAL-HIS'
p212
F-0.73799999999999999
sS'ALA-LEU'
p213
F-0.59799999999999998
sS'HIS-ASP'
p214
F-1.371
sS'ILE-TYR'
p215
F-1.163
sS'ILE-GLU'
p216
F-0.64500000000000002
sS'ASN-TRP'
p217
F-1.1799999999999999
sS'ILE-GLY'
p218
F-0.224
sS'ASN-CYS'
p219
F-0.79500000000000004
sS'GLU-SER'
p220
F-1.1060000000000001
sS'ALA-TRP'
p221
F-0.876
sS'HIS-CYS'
p222
F-0.375
sS'HIS-MET'
p223
F-0.80900000000000005
sS'ILE-PRO'
p224
F-0.79400000000000004
sS'LYS-PHE'
p225
F-0.877
sS'TRP-PRO'
p226
F-1.0409999999999999
sS'GLU-TRP'
p227
F-1.228
sS'PHE-HIS'
p228
F-1.0920000000000001
sS'GLY-TYR'
p229
F-1.1200000000000001
sS'SER-GLY'
p230
F-0.60599999999999998
sS'CYS-TRP'
p231
F0.028000000000000001
sS'ASP-LYS'
p232
F-1.581
sS'ASN-ILE'
p233
F-0.82099999999999995
sS'HIS-SER'
p234
F-1.1699999999999999
sS'LYS-CYS'
p235
F-0.36699999999999999
sS'GLY-PHE'
p236
F-0.46999999999999997
sS'GLY-LEU'
p237
F-0.39300000000000002
sS'MET-SER'
p238
F-0.504
sS'VAL-ALA'
p239
F-0.223
sS'SER-LEU'
p240
F-0.62
sS'TRP-LYS'
p241
F-1.0580000000000001
sS'VAL-TYR'
p242
F-0.79000000000000004
sS'VAL-PHE'
p243
F-0.82499999999999996
sS'ARG-THR'
p244
F-1.3320000000000001
sS'TYR-TRP'
p245
F-1.407
sS'GLN-GLN'
p246
F-2.9350000000000001
sS'GLU-PHE'
p247
F-1.038
sS'VAL-ILE'
p248
F-0.57299999999999995
sS'HIS-GLN'
p249
F-1.3660000000000001
sS'GLN-GLY'
p250
F-1.075
sS'PHE-ALA'
p251
F-0.71299999999999997
sS'HIS-GLU'
p252
F-1.6140000000000001
sS'ARG-PRO'
p253
F-1.6020000000000001
sS'HIS-GLY'
p254
F-0.84599999999999997
sS'SER-ASN'
p255
F-1.1459999999999999
sS'ALA-THR'
p256
F-0.42599999999999999
sS'GLN-GLU'
p257
F-1.4810000000000001
sS'GLN-LYS'
p258
F-1.4450000000000001
sS'CYS-HIS'
p259
F-0.42099999999999999
sS'GLN-ASP'
p260
F-1.3680000000000001
sS'LEU-HIS'
p261
F-1.0309999999999999
sS'SER-LYS'
p262
F-1.1000000000000001
sS'TRP-LEU'
p263
F-1.1799999999999999
sS'CYS-SER'
p264
F-0.34200000000000003
sS'LYS-THR'
p265
F-0.85499999999999998
sS'HIS-LEU'
p266
F-0.82999999999999996
sS'LEU-ARG'
p267
F-1.2130000000000001
sS'GLY-VAL'
p268
F-0.32900000000000001
sS'GLN-ASN'
p269
F-1.4950000000000001
sS'TYR-ARG'
p270
F-1.7490000000000001
sS'PRO-TYR'
p271
F-1.47
sS'ASP-PHE'
p272
F-0.78800000000000003
sS'TRP-CYS'
p273
F-0.105
sS'ASN-LEU'
p274
F-0.81699999999999995
sS'SER-MET'
p275
F-0.51100000000000001
sS'HIS-ILE'
p276
F-0.84399999999999997
sS'SER-TYR'
p277
F-1.2649999999999999
sS'MET-TYR'
p278
F-1.212
sS'GLU-ILE'
p279
F-0.71199999999999997
sS'PHE-CYS'
p280
F-0.71699999999999997
sS'PRO-LEU'
p281
F-0.78100000000000003
sS'GLY-MET'
p282
F-0.38500000000000001
sS'ARG-ILE'
p283
F-1.0529999999999999
sS'HIS-THR'
p284
F-1.071
sS'THR-GLN'
p285
F-1.321
sS'TRP-THR'
p286
F-1.0229999999999999
sS'LYS-LEU'
p287
F-0.64600000000000002
sS'THR-GLY'
p288
F-0.71499999999999997
sS'ASP-TRP'
p289
F-0.97399999999999998
sS'TYR-MET'
p290
F-1.081
sS'PHE-ILE'
p291
F-1.0600000000000001
sS'PRO-VAL'
p292
F-0.52100000000000002
sS'MET-ASN'
p293
F-0.89100000000000001
sS'LEU-TYR'
p294
F-1.147
sS'PHE-PHE'
p295
F-2.6309999999999998
sS'CYS-PHE'
p296
F-0.56799999999999995
sS'TRP-ILE'
p297
F-0.96899999999999997
sS'PRO-ASN'
p298
F-1.2030000000000001
sS'CYS-CYS'
p299
F-3.3100000000000001
sS'SER-ASP'
p300
F-0.92200000000000004
sS'ARG-MET'
p301
F-1.0860000000000001
sS'SER-PHE'
p302
F-0.83899999999999997
sS'SER-SER'
p303
F-1.964
sS'ASN-LYS'
p304
F-1.3919999999999999
sS'CYS-THR'
p305
F-0.13800000000000001
sS'ILE-TRP'
p306
F-1.026
sS'PRO-ASP'
p307
F-1.109
sS'THR-ASP'
p308
F-0.91000000000000003
sS'SER-CYS'
p309
F-0.309
sS'MET-ASP'
p310
F-0.67700000000000005
sS'GLN-MET'
p311
F-0.89700000000000002
sS'MET-TRP'
p312
F-0.745
sS'ARG-VAL'
p313
F-1.085
sS'GLY-GLN'
p314
F-1.0649999999999999
sS'THR-LYS'
p315
F-0.90000000000000002
sS'TRP-MET'
p316
F-0.83199999999999996
sS'ARG-ARG'
p317
F-3.1400000000000001
sS'ILE-ASP'
p318
F-0.59499999999999997
sS'GLY-GLY'
p319
F-1.542
sS'GLY-GLU'
p320
F-0.73299999999999998
sS'ALA-ARG'
p321
F-1.0680000000000001
sS'GLU-ARG'
p322
F-2.0059999999999998
sS'HIS-VAL'
p323
F-0.68200000000000005
sS'VAL-ARG'
p324
F-1.0149999999999999
sS'ASN-SER'
p325
F-1.151
sS'ALA-LYS'
p326
F-0.47099999999999997
sS'VAL-GLN'
p327
F-0.83599999999999997
sS'TRP-ASN'
p328
F-1.4039999999999999
sS'TYR-ILE'
p329
F-1.173
sS'TRP-GLY'
p330
F-0.92600000000000005
sS'PRO-PHE'
p331
F-1.069
sS'GLY-HIS'
p332
F-0.95799999999999996
sS'PHE-SER'
p333
F-0.873
sS'TRP-ASP'
p334
F-1.044
sS'TRP-GLN'
p335
F-1.5109999999999999
sS'LEU-ALA'
p336
F-0.53300000000000003
sS'VAL-GLU'
p337
F-0.64400000000000002
sS'ALA-HIS'
p338
F-0.88900000000000001
sS'ARG-ASN'
p339
F-1.7709999999999999
sS'LEU-THR'
p340
F-0.61799999999999999
sS'TYR-CYS'
p341
F-0.70699999999999996
sS'THR-THR'
p342
F-2.0489999999999999
sS'THR-LEU'
p343
F-0.72799999999999998
sS'VAL-ASN'
p344
F-0.65000000000000002
sS'LEU-TRP'
p345
F-1.1950000000000001
sS'GLU-ASP'
p346
F-1.2430000000000001
sS'ILE-SER'
p347
F-0.498
sS'ILE-ARG'
p348
F-1.091
sS'TRP-GLU'
p349
F-1.2290000000000001
sS'ILE-MET'
p350
F-0.56899999999999995
sS'MET-PHE'
p351
F-1.0169999999999999
sS'PRO-ALA'
p352
F-0.69599999999999995
sS'PRO-GLY'
p353
F-0.67900000000000005
sS'GLN-THR'
p354
F-1.2190000000000001
sS'MET-ALA'
p355
F-0.151
sS'TRP-SER'
p356
F-0.91900000000000004
sS'ASP-HIS'
p357
F-1.401
sS'ARG-SER'
p358
F-1.4850000000000001
sS'GLN-HIS'
p359
F-1.496
sS'HIS-PHE'
p360
F-1.0369999999999999
sS'LEU-LEU'
p361
F-1.9790000000000001
sS'ALA-GLN'
p362
F-0.91900000000000004
sS'ASP-ASN'
p363
F-1.246
sS'SER-VAL'
p364
F-0.39100000000000001
sS'MET-ILE'
p365
F-0.51800000000000002
sS'ALA-PRO'
p366
F-0.40500000000000003
sS'ASP-ASP'
p367
F-2.2010000000000001
sS'ALA-GLY'
p368
F-0.154
sS'TRP-TRP'
p369
F-3.2290000000000001
sS'MET-CYS'
p370
F0.185
sS'ALA-GLU'
p371
F-0.55700000000000005
sS'THR-PRO'
p372
F-1.0449999999999999
sS'HIS-ALA'
p373
F-0.626
sS'GLN-ILE'
p374
F-1.0369999999999999
sS'GLU-VAL'
p375
F-0.67000000000000004
sS'LYS-ASN'
p376
F-1.288
sS'ASN-ALA'
p377
F-0.72599999999999998
sS'THR-ILE'
p378
F-0.72099999999999997
sS'ASP-CYS'
p379
F-0.129
sS'PRO-LYS'
p380
F-1.177
sS'TYR-TYR'
p381
F-2.871
sS'ARG-LYS'
p382
F-1.613
sS'ILE-ALA'
p383
F-0.26800000000000002
sS'ASP-SER'
p384
F-0.997
sS'CYS-LYS'
p385
F-0.378
sS'GLU-ALA'
p386
F-0.63300000000000001
sS'PHE-GLU'
p387
F-1.0189999999999999
sS'GLU-LEU'
p388
F-0.72899999999999998
sS'PHE-GLY'
p389
F-0.53500000000000003
sS'LYS-HIS'
p390
F-1.423
sS'HIS-PRO'
p391
F-1.2270000000000001
sS'ILE-ILE'
p392
F-1.9590000000000001
sS'MET-HIS'
p393
F-0.93200000000000005
sS'VAL-GLY'
p394
F-0.20300000000000001
sS'THR-MET'
p395
F-0.58899999999999997
sS'PHE-THR'
p396
F-1.0409999999999999
sS'VAL-TRP'
p397
F-0.83399999999999996
sS'PHE-LYS'
p398
F-0.91700000000000004
sS'GLY-PRO'
p399
F-0.65700000000000003
sS'PHE-GLN'
p400
F-1.1180000000000001
sS'LEU-PHE'
p401
F-1.1559999999999999
s.