(dp1
S'MET-MET'
p2
F-1.0629999999999999
sS'PRO-ILE'
p3
F0.079000000000000001
sS'TYR-LYS'
p4
F-0.45500000000000002
sS'VAL-ASP'
p5
F0.41299999999999998
sS'ASP-GLN'
p6
F-0.38700000000000001
sS'HIS-TYR'
p7
F-0.68400000000000005
sS'ASP-GLU'
p8
F-0.22500000000000001
sS'ALA-ASP'
p9
F0.33600000000000002
sS'ASP-GLY'
p10
F0.253
sS'LEU-VAL'
p11
F0.26500000000000001
sS'TRP-TYR'
p12
F-0.36799999999999999
sS'GLN-TRP'
p13
F-0.29999999999999999
sS'TRP-PHE'
p14
F-0.249
sS'ARG-TYR'
p15
F-0.82399999999999995
sS'GLU-LYS'
p16
F-0.80600000000000005
sS'ILE-HIS'
p17
F0.086999999999999994
sS'LEU-MET'
p18
F0.23300000000000001
sS'GLU-HIS'
p19
F-0.73199999999999998
sS'GLY-THR'
p20
F0.125
sS'ARG-GLU'
p21
F-1.079
sS'PHE-ASN'
p22
F-0.112
sS'ASN-MET'
p23
F0.20699999999999999
sS'PRO-THR'
p24
F-0.26800000000000002
sS'TYR-GLN'
p25
F-0.498
sS'ARG-GLY'
p26
F-0.377
sS'VAL-THR'
p27
F0.309
sS'ASP-ILE'
p28
F0.40999999999999998
sS'THR-HIS'
p29
F-0.17699999999999999
sS'TYR-GLU'
p30
F-0.50800000000000001
sS'ARG-GLN'
p31
F-0.83199999999999996
sS'TYR-GLY'
p32
F-0.114
sS'PHE-ASP'
p33
F0.098000000000000004
sS'CYS-ARG'
p34
F0.113
sS'GLY-ASN'
p35
F-0.19500000000000001
sS'VAL-LYS'
p36
F0.44800000000000001
sS'LEU-ILE'
p37
F0.13500000000000001
sS'GLN-LEU'
p38
F-0.071999999999999995
sS'GLU-MET'
p39
F0.308
sS'ASP-THR'
p40
F-0.086999999999999994
sS'ASN-PHE'
p41
F-0.156
sS'GLU-PRO'
p42
F-0.34100000000000003
sS'TYR-LEU'
p43
F-0.21099999999999999
sS'LYS-ARG'
p44
F-0.316
sS'GLY-ASP'
p45
F0.159
sS'PRO-GLN'
p46
F-0.495
sS'CYS-MET'
p47
F0.79200000000000004
sS'HIS-ARG'
p48
F-0.58699999999999997
sS'GLU-THR'
p49
F-0.219
sS'ILE-THR'
p50
F0.19700000000000001
sS'SER-PRO'
p51
F-0.19400000000000001
sS'GLY-CYS'
p52
F0.35199999999999998
sS'ARG-LEU'
p53
F-0.249
sS'PRO-GLU'
p54
F-0.27100000000000002
sS'ASP-LEU'
p55
F0.35099999999999998
sS'PHE-VAL'
p56
F0.099000000000000005
sS'ASN-VAL'
p57
F0.14099999999999999
sS'ALA-MET'
p58
F0.57999999999999996
sS'LEU-PRO'
p59
F0.058999999999999997
sS'LEU-SER'
p60
F0.32000000000000001
sS'ASN-ARG'
p61
F-0.69799999999999995
sS'SER-THR'
p62
F0.090999999999999998
sS'LYS-VAL'
p63
F0.437
sS'LYS-GLN'
p64
F-0.47099999999999997
sS'GLN-VAL'
p65
F0.17399999999999999
sS'TYR-PHE'
p66
F-0.32900000000000001
sS'ASP-VAL'
p67
F0.44600000000000001
sS'ASN-GLY'
p68
F-0.124
sS'ARG-PHE'
p69
F-0.378
sS'SER-HIS'
p70
F-0.189
sS'ALA-ILE'
p71
F0.45300000000000001
sS'ASN-GLU'
p72
F-0.52100000000000002
sS'CYS-GLN'
p73
F0.40200000000000002
sS'TYR-PRO'
p74
F-0.56100000000000005
sS'LYS-GLU'
p75
F-0.78900000000000003
sS'CYS-GLU'
p76
F0.93200000000000005
sS'ASN-GLN'
p77
F-0.68100000000000005
sS'CYS-GLY'
p78
F0.69399999999999995
sS'GLN-SER'
p79
F-0.372
sS'HIS-LYS'
p80
F-0.25900000000000001
sS'LYS-GLY'
p81
F0.049000000000000002
sS'VAL-MET'
p82
F0.44500000000000001
sS'GLU-GLY'
p83
F0.070999999999999994
sS'THR-SER'
p84
F0.104
sS'TYR-THR'
p85
F-0.23499999999999999
sS'PRO-PRO'
p86
F-0.88500000000000001
sS'ILE-PHE'
p87
F-0.14899999999999999
sS'PHE-LEU'
p88
F-0.20200000000000001
sS'GLU-GLU'
p89
F-0.72999999999999998
sS'SER-ARG'
p90
F-0.44600000000000001
sS'GLY-ALA'
p91
F0.373
sS'TYR-ASN'
p92
F-0.57399999999999995
sS'GLU-GLN'
p93
F-0.41499999999999998
sS'TRP-ARG'
p94
F-0.61299999999999999
sS'LEU-GLU'
p95
F0.32600000000000001
sS'LEU-GLY'
p96
F0.54200000000000004
sS'LYS-SER'
p97
F-0.13500000000000001
sS'MET-VAL'
p98
F0.52400000000000002
sS'SER-ALA'
p99
F0.30499999999999999
sS'PRO-HIS'
p100
F-0.443
sS'MET-THR'
p101
F0.28100000000000003
sS'ALA-PHE'
p102
F0.14299999999999999
sS'MET-PRO'
p103
F0.32700000000000001
sS'GLY-SER'
p104
F0.14599999999999999
sS'LEU-GLN'
p105
F-0.041000000000000002
sS'VAL-LEU'
p106
F0.17000000000000001
sS'LEU-CYS'
p107
F0.83699999999999997
sS'LYS-TYR'
p108
F-0.46700000000000003
sS'ASP-ALA'
p109
F0.42499999999999999
sS'ILE-LEU'
p110
F-0.021999999999999999
sS'TRP-VAL'
p111
F0.076999999999999999
sS'PHE-PRO'
p112
F-0.30099999999999999
sS'ALA-ALA'
p113
F-0.051999999999999998
sS'ARG-TRP'
p114
F-0.745
sS'MET-GLN'
p115
F0.074999999999999997
sS'ILE-LYS'
p116
F0.432
sS'MET-ARG'
p117
F0.024
sS'ALA-CYS'
p118
F0.83399999999999996
sS'THR-ARG'
p119
F-0.26600000000000001
sS'CYS-ILE'
p120
F0.70499999999999996
sS'LEU-ASN'
p121
F0.048000000000000001
sS'LEU-ASP'
p122
F0.36399999999999999
sS'PHE-TRP'
p123
F-0.254
sS'MET-GLY'
p124
F0.57099999999999995
sS'THR-PHE'
p125
F-0.13500000000000001
sS'MET-GLU'
p126
F0.35299999999999998
sS'THR-TRP'
p127
F0.191
sS'THR-TYR'
p128
F-0.31900000000000001
sS'CYS-VAL'
p129
F0.77800000000000002
sS'ARG-ALA'
p130
F-0.042999999999999997
sS'ALA-TYR'
p131
F-0.086999999999999994
sS'ASP-PRO'
p132
F-0.23000000000000001
sS'ARG-CYS'
p133
F0.188
sS'GLN-ARG'
p134
F-0.83899999999999997
sS'HIS-TRP'
p135
F-0.079000000000000001
sS'PRO-SER'
p136
F-0.14299999999999999
sS'VAL-VAL'
p137
F-0.25600000000000001
sS'LEU-LYS'
p138
F0.26600000000000001
sS'GLY-LYS'
p139
F0.023
sS'CYS-ASN'
p140
F0.217
sS'GLY-TRP'
p141
F0.19500000000000001
sS'THR-CYS'
p142
F0.74199999999999999
sS'LYS-LYS'
p143
F-0.47199999999999998
sS'CYS-ASP'
p144
F0.65500000000000003
sS'TYR-ASP'
p145
F-0.40400000000000003
sS'VAL-PRO'
p146
F0.20699999999999999
sS'THR-VAL'
p147
F0.23899999999999999
sS'ASP-TYR'
p148
F-0.46300000000000002
sS'PRO-CYS'
p149
F0.29399999999999998
sS'VAL-SER'
p150
F0.36699999999999999
sS'ARG-HIS'
p151
F-0.68100000000000005
sS'CYS-PRO'
p152
F0.14599999999999999
sS'MET-LYS'
p153
F0.107
sS'ALA-SER'
p154
F0.35499999999999998
sS'TYR-SER'
p155
F-0.255
sS'GLY-ARG'
p156
F-0.27100000000000002
sS'GLN-ALA'
p157
F0.058999999999999997
sS'MET-LEU'
p158
F0.16200000000000001
sS'ASN-HIS'
p159
F-0.42399999999999999
sS'VAL-CYS'
p160
F0.871
sS'GLN-TYR'
p161
F-0.58699999999999997
sS'GLN-PHE'
p162
F-0.21099999999999999
sS'ILE-ASN'
p163
F0.17899999999999999
sS'GLU-ASN'
p164
F-0.58399999999999996
sS'CYS-ALA'
p165
F0.84299999999999997
sS'ASN-ASP'
p166
F-0.36599999999999999
sS'ASN-PRO'
p167
F-0.44500000000000001
sS'PRO-ARG'
p168
F-0.53300000000000003
sS'LYS-TRP'
p169
F-0.048000000000000001
sS'ASN-ASN'
p170
F-1.2749999999999999
sS'ASN-THR'
p171
F-0.29599999999999999
sS'THR-ALA'
p172
F0.32400000000000001
sS'LYS-ALA'
p173
F0.46700000000000003
sS'LYS-PRO'
p174
F-0.10299999999999999
sS'SER-GLN'
p175
F-0.32500000000000001
sS'ILE-VAL'
p176
F0.31900000000000001
sS'ASP-ARG'
p177
F-1.04
sS'ASP-MET'
p178
F0.38100000000000001
sS'CYS-TYR'
p179
F0.18099999999999999
sS'PRO-TRP'
p180
F-0.23300000000000001
sS'THR-GLU'
p181
F-0.19900000000000001
sS'TRP-ALA'
p182
F0.0060000000000000001
sS'ILE-CYS'
p183
F0.78100000000000003
sS'LYS-ILE'
p184
F0.44700000000000001
sS'GLN-CYS'
p185
F0.47199999999999998
sS'TYR-ALA'
p186
F0.058000000000000003
sS'ARG-ASP'
p187
F-1.103
sS'SER-GLU'
p188
F-0.28599999999999998
sS'TRP-HIS'
p189
F-0.26200000000000001
sS'ALA-ASN'
p190
F0.14499999999999999
sS'GLU-CYS'
p191
F0.84899999999999998
sS'PRO-MET'
p192
F0.30599999999999999
sS'TYR-HIS'
p193
F-0.67100000000000004
sS'PHE-MET'
p194
F-0.17199999999999999
sS'GLU-TYR'
p195
F-0.55700000000000005
sS'SER-TRP'
p196
F-0.042000000000000003
sS'PHE-ARG'
p197
F-0.307
sS'GLY-ILE'
p198
F0.629
sS'TYR-VAL'
p199
F0.092999999999999999
sS'ASN-TYR'
p200
F-0.49099999999999999
sS'SER-ILE'
p201
F0.34399999999999997
sS'GLN-PRO'
p202
F-0.497
sS'PHE-TYR'
p203
F-0.40600000000000003
sS'ALA-VAL'
p204
F0.51500000000000001
sS'HIS-HIS'
p205
F-1.9199999999999999
sS'THR-ASN'
p206
F-0.27800000000000002
sS'CYS-LEU'
p207
F0.92800000000000005
sS'LYS-MET'
p208
F0.28499999999999998
sS'LYS-ASP'
p209
F-0.65500000000000003
sS'HIS-ASN'
p210
F-0.54300000000000004
sS'ILE-GLN'
p211
F0.042999999999999997
sS'VAL-HIS'
p212
F0.16900000000000001
sS'ALA-LEU'
p213
F0.24099999999999999
sS'HIS-ASP'
p214
F-0.499
sS'ILE-TYR'
p215
F-0.22600000000000001
sS'ILE-GLU'
p216
F0.29799999999999999
sS'ASN-TRP'
p217
F-0.17399999999999999
sS'ILE-GLY'
p218
F0.67100000000000004
sS'ASN-CYS'
p219
F0.111
sS'GLU-SER'
p220
F-0.23300000000000001
sS'ALA-TRP'
p221
F0.086999999999999994
sS'HIS-CYS'
p222
F0.52300000000000002
sS'HIS-MET'
p223
F0.16600000000000001
sS'ILE-PRO'
p224
F0.037999999999999999
sS'LYS-PHE'
p225
F0.14899999999999999
sS'TRP-PRO'
p226
F-0.17399999999999999
sS'GLU-TRP'
p227
F-0.219
sS'PHE-HIS'
p228
F-0.16300000000000001
sS'GLY-TYR'
p229
F-0.14599999999999999
sS'SER-GLY'
p230
F0.10199999999999999
sS'CYS-TRP'
p231
F1.0720000000000001
sS'ASP-LYS'
p232
F-0.61799999999999999
sS'ASN-ILE'
p233
F0.074999999999999997
sS'HIS-SER'
p234
F-0.29099999999999998
sS'LYS-CYS'
p235
F0.69199999999999995
sS'GLY-PHE'
p236
F0.45500000000000002
sS'GLY-LEU'
p237
F0.48299999999999998
sS'MET-SER'
p238
F0.40699999999999997
sS'VAL-ALA'
p239
F0.55500000000000005
sS'SER-LEU'
p240
F0.252
sS'TRP-LYS'
p241
F-0.040000000000000001
sS'VAL-TYR'
p242
F0.154
sS'VAL-PHE'
p243
F0.060999999999999999
sS'ARG-THR'
p244
F-0.316
sS'TYR-TRP'
p245
F-0.38600000000000001
sS'GLN-GLN'
p246
F-1.3999999999999999
sS'GLU-PHE'
p247
F-0.033000000000000002
sS'VAL-ILE'
p248
F0.27700000000000002
sS'HIS-GLN'
p249
F-0.42299999999999999
sS'GLN-GLY'
p250
F-0.20300000000000001
sS'PHE-ALA'
p251
F0.17499999999999999
sS'HIS-GLU'
p252
F-0.69199999999999995
sS'ARG-PRO'
p253
F-0.61399999999999999
sS'HIS-GLY'
p254
F0.035000000000000003
sS'SER-ASN'
p255
F-0.30099999999999999
sS'ALA-THR'
p256
F0.35799999999999998
sS'GLN-GLU'
p257
F-0.48099999999999998
sS'GLN-LYS'
p258
F-0.42099999999999999
sS'CYS-HIS'
p259
F0.55700000000000005
sS'GLN-ASP'
p260
F-0.38500000000000001
sS'LEU-HIS'
p261
F-0.075999999999999998
sS'SER-LYS'
p262
F-0.113
sS'TRP-LEU'
p263
F-0.189
sS'CYS-SER'
p264
F0.51200000000000001
sS'LYS-THR'
p265
F0.13400000000000001
sS'HIS-LEU'
p266
F0.10199999999999999
sS'LEU-ARG'
p267
F-0.20899999999999999
sS'GLY-VAL'
p268
F0.44
sS'GLN-ASN'
p269
F-0.59899999999999998
sS'TYR-ARG'
p270
F-0.76000000000000001
sS'PRO-TYR'
p271
F-0.59899999999999998
sS'ASP-PHE'
p272
F0.215
sS'TRP-CYS'
p273
F0.97499999999999998
sS'ASN-LEU'
p274
F0.075999999999999998
sS'SER-MET'
p275
F0.42799999999999999
sS'HIS-ILE'
p276
F0.058999999999999997
sS'SER-TYR'
p277
F-0.27000000000000002
sS'MET-TYR'
p278
F-0.28499999999999998
sS'GLU-ILE'
p279
F0.248
sS'PHE-CYS'
p280
F0.24299999999999999
sS'PRO-LEU'
p281
F0.069000000000000006
sS'GLY-MET'
p282
F0.498
sS'ARG-ILE'
p283
F-0.024
sS'HIS-THR'
p284
F-0.19500000000000001
sS'THR-GLN'
p285
F-0.44800000000000001
sS'TRP-THR'
p286
F-0.043999999999999997
sS'LYS-LEU'
p287
F0.35999999999999999
sS'THR-GLY'
p288
F0.070999999999999994
sS'ASP-TRP'
p289
F0.128
sS'TYR-MET'
p290
F-0.16700000000000001
sS'PHE-ILE'
p291
F-0.109
sS'PRO-VAL'
p292
F0.26100000000000001
sS'MET-ASN'
p293
F0.040000000000000001
sS'LEU-TYR'
p294
F-0.19600000000000001
sS'PHE-PHE'
p295
F-1.1200000000000001
sS'CYS-PHE'
p296
F0.39200000000000002
sS'TRP-ILE'
p297
F0.002
sS'PRO-ASN'
p298
F-0.36899999999999999
sS'CYS-CYS'
p299
F-2.1699999999999999
sS'SER-ASP'
p300
F-0.10199999999999999
sS'ARG-MET'
p301
F-0.025999999999999999
sS'SER-PHE'
p302
F0.075999999999999998
sS'SER-SER'
p303
F-0.60399999999999998
sS'ASN-LYS'
p304
F-0.374
sS'CYS-THR'
p305
F0.73899999999999999
sS'ILE-TRP'
p306
F-0.051999999999999998
sS'PRO-ASP'
p307
F-0.23699999999999999
sS'THR-ASP'
p308
F-0.063
sS'SER-CYS'
p309
F0.55100000000000005
sS'MET-ASP'
p310
F0.29899999999999999
sS'GLN-MET'
p311
F0.076999999999999999
sS'MET-TRP'
p312
F0.11799999999999999
sS'ARG-VAL'
p313
F-0.073999999999999996
sS'GLY-GLN'
p314
F-0.183
sS'THR-LYS'
p315
F0.092999999999999999
sS'TRP-MET'
p316
F0.10000000000000001
sS'ARG-ARG'
p317
F-1.4610000000000001
sS'ILE-ASP'
p318
F0.376
sS'GLY-GLY'
p319
F-0.28000000000000003
sS'GLY-GLU'
p320
F0.20200000000000001
sS'ALA-ARG'
p321
F-0.051999999999999998
sS'GLU-ARG'
p322
F-1.0629999999999999
sS'HIS-VAL'
p323
F0.22600000000000001
sS'VAL-ARG'
p324
F-0.016
sS'ASN-SER'
p325
F-0.32600000000000001
sS'ALA-LYS'
p326
F0.502
sS'VAL-GLN'
p327
F0.078
sS'TRP-ASN'
p328
F-0.41999999999999998
sS'TYR-ILE'
p329
F-0.23699999999999999
sS'TRP-GLY'
p330
F0.021999999999999999
sS'PRO-PHE'
p331
F-0.23599999999999999
sS'GLY-HIS'
p332
F-0.049000000000000002
sS'PHE-SER'
p333
F0.058999999999999997
sS'TRP-ASP'
p334
F0.078
sS'TRP-GLN'
p335
F-0.496
sS'LEU-ALA'
p336
F0.30499999999999999
sS'VAL-GLU'
p337
F0.29699999999999999
sS'ALA-HIS'
p338
F-0.031
sS'ARG-ASN'
p339
F-0.78200000000000003
sS'LEU-THR'
p340
F0.29199999999999998
sS'TYR-CYS'
p341
F0.45000000000000001
sS'THR-THR'
p342
F-0.63400000000000001
sS'THR-LEU'
p343
F0.16500000000000001
sS'VAL-ASN'
p344
F0.19700000000000001
sS'LEU-TRP'
p345
F-0.19400000000000001
sS'GLU-ASP'
p346
F-0.20899999999999999
sS'ILE-SER'
p347
F0.34100000000000003
sS'ILE-ARG'
p348
F-0.047
sS'TRP-GLU'
p349
F-0.193
sS'ILE-MET'
p350
F0.377
sS'MET-PHE'
p351
F-0.106
sS'PRO-ALA'
p352
F0.02
sS'PRO-GLY'
p353
F0.042000000000000003
sS'GLN-THR'
p354
F-0.32500000000000001
sS'MET-ALA'
p355
F0.73299999999999998
sS'TRP-SER'
p356
F0.010999999999999999
sS'ASP-HIS'
p357
F-0.52100000000000002
sS'ARG-SER'
p358
F-0.48099999999999998
sS'GLN-HIS'
p359
F-0.54900000000000004
sS'HIS-PHE'
p360
F-0.125
sS'LEU-LEU'
p361
F-0.442
sS'ALA-GLN'
p362
F-0.027
sS'ASP-ASN'
p363
F-0.35599999999999998
sS'SER-VAL'
p364
F0.38800000000000001
sS'MET-ILE'
p365
F0.42599999999999999
sS'ALA-PRO'
p366
F0.313
sS'ASP-ASP'
p367
F-0.61399999999999999
sS'ALA-GLY'
p368
F0.51000000000000001
sS'TRP-TRP'
p369
F-1.649
sS'MET-CYS'
p370
F1.113
sS'ALA-GLU'
p371
F0.35099999999999998
sS'THR-PRO'
p372
F-0.26300000000000001
sS'HIS-ALA'
p373
F0.22500000000000001
sS'GLN-ILE'
p374
F-0.123
sS'GLU-VAL'
p375
F0.26300000000000001
sS'LYS-ASN'
p376
F-0.26900000000000002
sS'ASN-ALA'
p377
F0.115
sS'THR-ILE'
p378
F0.13300000000000001
sS'ASP-CYS'
p379
F0.83099999999999996
sS'PRO-LYS'
p380
F-0.157
sS'TYR-TYR'
p381
F-1.3089999999999999
sS'ARG-LYS'
p382
F-0.442
sS'ILE-ALA'
p383
F0.55200000000000005
sS'ASP-SER'
p384
F-0.16400000000000001
sS'CYS-LYS'
p385
F0.69699999999999995
sS'GLU-ALA'
p386
F0.26700000000000002
sS'PHE-GLU'
p387
F0.012
sS'GLU-LEU'
p388
F0.22800000000000001
sS'PHE-GLY'
p389
F0.39100000000000001
sS'LYS-HIS'
p390
F-0.33400000000000002
sS'HIS-PRO'
p391
F-0.36699999999999999
sS'ILE-ILE'
p392
F-0.46200000000000002
sS'MET-HIS'
p393
F0.088999999999999996
sS'VAL-GLY'
p394
F0.56100000000000005
sS'THR-MET'
p395
F0.28899999999999998
sS'PHE-THR'
p396
F-0.104
sS'VAL-TRP'
p397
F0.17100000000000001
sS'PHE-LYS'
p398
F0.11899999999999999
sS'GLY-PRO'
p399
F0.055
sS'PHE-GLN'
p400
F-0.161
sS'LEU-PHE'
p401
F-0.20300000000000001
s.