(dp1
S'MET-MET'
p2
F1.097
sS'PRO-ILE'
p3
F2.948
sS'TYR-LYS'
p4
F2.6789999999999998
sS'VAL-ASP'
p5
F3.1429999999999998
sS'ASP-GLN'
p6
F2.5379999999999998
sS'HIS-TYR'
p7
F2.706
sS'ASP-GLU'
p8
F2.6190000000000002
sS'ALA-ASP'
p9
F2.831
sS'ASP-GLY'
p10
F2.6269999999999998
sS'LEU-VAL'
p11
F3.0920000000000001
sS'TRP-TYR'
p12
F3.282
sS'GLN-TRP'
p13
F3.141
sS'TRP-PHE'
p14
F3.3109999999999999
sS'ARG-TYR'
p15
F2.6600000000000001
sS'GLU-LYS'
p16
F2.1949999999999998
sS'ILE-HIS'
p17
F3.165
sS'LEU-MET'
p18
F3.0779999999999998
sS'GLU-HIS'
p19
F2.4500000000000002
sS'GLY-THR'
p20
F2.4180000000000001
sS'ARG-GLU'
p21
F2.153
sS'PHE-ASN'
p22
F3.0430000000000001
sS'ASN-MET'
p23
F3.0499999999999998
sS'PRO-THR'
p24
F2.3799999999999999
sS'TYR-GLN'
p25
F2.7130000000000001
sS'ARG-GLY'
p26
F2.0489999999999999
sS'VAL-THR'
p27
F3.0680000000000001
sS'ASP-ILE'
p28
F3.2200000000000002
sS'THR-HIS'
p29
F2.8079999999999998
sS'TYR-GLU'
p30
F2.6749999999999998
sS'ARG-GLN'
p31
F2.302
sS'TYR-GLY'
p32
F2.4980000000000002
sS'PHE-ASP'
p33
F3.1859999999999999
sS'CYS-ARG'
p34
F2.9420000000000002
sS'GLY-ASN'
p35
F2.2050000000000001
sS'VAL-LYS'
p36
F3.21
sS'LEU-ILE'
p37
F3.0139999999999998
sS'GLN-LEU'
p38
F2.8679999999999999
sS'GLU-MET'
p39
F3.1699999999999999
sS'ASP-THR'
p40
F2.673
sS'ASN-PHE'
p41
F2.9630000000000001
sS'GLU-PRO'
p42
F2.5129999999999999
sS'TYR-LEU'
p43
F3.0289999999999999
sS'LYS-ARG'
p44
F2.6659999999999999
sS'GLY-ASP'
p45
F2.5259999999999998
sS'PRO-GLN'
p46
F2.448
sS'CYS-MET'
p47
F3.4510000000000001
sS'HIS-ARG'
p48
F2.597
sS'GLU-THR'
p49
F2.6760000000000002
sS'ILE-THR'
p50
F3.0550000000000002
sS'SER-PRO'
p51
F2.4910000000000001
sS'GLY-CYS'
p52
F2.6259999999999999
sS'ARG-LEU'
p53
F2.8220000000000001
sS'PRO-GLU'
p54
F2.5760000000000001
sS'ASP-LEU'
p55
F3.2200000000000002
sS'PHE-VAL'
p56
F3.1970000000000001
sS'ASN-VAL'
p57
F2.9529999999999998
sS'ALA-MET'
p58
F3.008
sS'LEU-PRO'
p59
F2.9140000000000001
sS'LEU-SER'
p60
F2.9569999999999999
sS'ASN-ARG'
p61
F2.3239999999999998
sS'SER-THR'
p62
F2.7330000000000001
sS'LYS-VAL'
p63
F3.1949999999999998
sS'LYS-GLN'
p64
F2.419
sS'GLN-VAL'
p65
F3.0150000000000001
sS'TYR-PHE'
p66
F3.0760000000000001
sS'ASP-VAL'
p67
F3.1909999999999998
sS'ASN-GLY'
p68
F2.29
sS'ARG-PHE'
p69
F2.9790000000000001
sS'SER-HIS'
p70
F2.7090000000000001
sS'ALA-ILE'
p71
F3.0089999999999999
sS'ASN-GLU'
p72
F2.3799999999999999
sS'CYS-GLN'
p73
F3.028
sS'TYR-PRO'
p74
F2.621
sS'LYS-GLU'
p75
F2.1970000000000001
sS'CYS-GLU'
p76
F3.544
sS'ASN-GLN'
p77
F2.2999999999999998
sS'CYS-GLY'
p78
F2.9100000000000001
sS'GLN-SER'
p79
F2.3250000000000002
sS'HIS-LYS'
p80
F2.7240000000000002
sS'LYS-GLY'
p81
F2.4249999999999998
sS'VAL-MET'
p82
F3.2349999999999999
sS'GLU-GLY'
p83
F2.4500000000000002
sS'THR-SER'
p84
F2.7730000000000001
sS'TYR-THR'
p85
F2.8279999999999998
sS'PRO-PRO'
p86
F1.298
sS'ILE-PHE'
p87
F3.0459999999999998
sS'PHE-LEU'
p88
F2.899
sS'GLU-GLU'
p89
F1.6679999999999999
sS'SER-ARG'
p90
F2.335
sS'GLY-ALA'
p91
F2.476
sS'TYR-ASN'
p92
F2.5830000000000002
sS'GLU-GLN'
p93
F2.5619999999999998
sS'TRP-ARG'
p94
F2.9860000000000002
sS'LEU-GLU'
p95
F3.226
sS'LEU-GLY'
p96
F2.8090000000000002
sS'LYS-SER'
p97
F2.4870000000000001
sS'MET-VAL'
p98
F3.2749999999999999
sS'SER-ALA'
p99
F2.673
sS'PRO-HIS'
p100
F2.5979999999999999
sS'MET-THR'
p101
F3.1680000000000001
sS'ALA-PHE'
p102
F2.9060000000000001
sS'MET-PRO'
p103
F3.0939999999999999
sS'GLY-SER'
p104
F2.3460000000000001
sS'LEU-GLN'
p105
F2.8260000000000001
sS'VAL-LEU'
p106
F2.9940000000000002
sS'LEU-CYS'
p107
F3.5219999999999998
sS'LYS-TYR'
p108
F2.7490000000000001
sS'ASP-ALA'
p109
F2.9580000000000002
sS'ILE-LEU'
p110
F2.9569999999999999
sS'TRP-VAL'
p111
F3.302
sS'PHE-PRO'
p112
F2.8780000000000001
sS'ALA-ALA'
p113
F1.6220000000000001
sS'ARG-TRP'
p114
F2.8599999999999999
sS'MET-GLN'
p115
F2.8730000000000002
sS'ILE-LYS'
p116
F3.3359999999999999
sS'MET-ARG'
p117
F3.0459999999999998
sS'ALA-CYS'
p118
F3.1709999999999998
sS'THR-ARG'
p119
F2.79
sS'CYS-ILE'
p120
F3.3660000000000001
sS'LEU-ASN'
p121
F2.9009999999999998
sS'LEU-ASP'
p122
F3.1509999999999998
sS'PHE-TRP'
p123
F3.343
sS'MET-GLY'
p124
F2.9769999999999999
sS'THR-PHE'
p125
F3.0459999999999998
sS'MET-GLU'
p126
F3.2909999999999999
sS'THR-TRP'
p127
F3.411
sS'THR-TYR'
p128
F2.7629999999999999
sS'CYS-VAL'
p129
F3.371
sS'ARG-ALA'
p130
F2.617
sS'ALA-TYR'
p131
F2.8159999999999998
sS'ASP-PRO'
p132
F2.5379999999999998
sS'ARG-CYS'
p133
F2.8940000000000001
sS'GLN-ARG'
p134
F2.3210000000000002
sS'HIS-TRP'
p135
F3.4239999999999999
sS'PRO-SER'
p136
F2.4700000000000002
sS'VAL-VAL'
p137
F1.9019999999999999
sS'LEU-LYS'
p138
F3.1179999999999999
sS'GLY-LYS'
p139
F2.3540000000000001
sS'CYS-ASN'
p140
F2.9060000000000001
sS'GLY-TRP'
p141
F2.931
sS'THR-CYS'
p142
F3.2530000000000001
sS'LYS-LYS'
p143
F1.5960000000000001
sS'CYS-ASP'
p144
F3.2999999999999998
sS'TYR-ASP'
p145
F2.7240000000000002
sS'VAL-PRO'
p146
F3.036
sS'THR-VAL'
p147
F3.0249999999999999
sS'ASP-TYR'
p148
F2.7160000000000002
sS'PRO-CYS'
p149
F2.9009999999999998
sS'VAL-SER'
p150
F2.992
sS'ARG-HIS'
p151
F2.5350000000000001
sS'CYS-PRO'
p152
F2.6880000000000002
sS'MET-LYS'
p153
F2.984
sS'ALA-SER'
p154
F2.7309999999999999
sS'TYR-SER'
p155
F2.6400000000000001
sS'GLY-ARG'
p156
F2.145
sS'GLN-ALA'
p157
F2.6509999999999998
sS'MET-LEU'
p158
F2.9620000000000002
sS'ASN-HIS'
p159
F2.6600000000000001
sS'VAL-CYS'
p160
F3.5339999999999998
sS'GLN-TYR'
p161
F2.6469999999999998
sS'GLN-PHE'
p162
F3.036
sS'ILE-ASN'
p163
F3.0590000000000002
sS'GLU-ASN'
p164
F2.3340000000000001
sS'CYS-ALA'
p165
F3.1920000000000002
sS'ASN-ASP'
p166
F2.4460000000000002
sS'ASN-PRO'
p167
F2.3860000000000001
sS'PRO-ARG'
p168
F2.3889999999999998
sS'LYS-TRP'
p169
F3.3090000000000002
sS'ASN-ASN'
p170
F0.98899999999999999
sS'ASN-THR'
p171
F2.488
sS'THR-ALA'
p172
F2.9079999999999999
sS'LYS-ALA'
p173
F2.968
sS'LYS-PRO'
p174
F2.6269999999999998
sS'SER-GLN'
p175
F2.3330000000000002
sS'ILE-VAL'
p176
F3.1909999999999998
sS'ASP-ARG'
p177
F2.1099999999999999
sS'ASP-MET'
p178
F3.25
sS'CYS-TYR'
p179
F2.887
sS'PRO-TRP'
p180
F3.0840000000000001
sS'THR-GLU'
p181
F2.673
sS'TRP-ALA'
p182
F2.875
sS'ILE-CYS'
p183
F3.4940000000000002
sS'LYS-ILE'
p184
F3.335
sS'GLN-CYS'
p185
F3.0659999999999998
sS'TYR-ALA'
p186
F2.8170000000000002
sS'ARG-ASP'
p187
F2.0049999999999999
sS'SER-GLU'
p188
F2.4550000000000001
sS'TRP-HIS'
p189
F3.1899999999999999
sS'ALA-ASN'
p190
F2.6520000000000001
sS'GLU-CYS'
p191
F3.4780000000000002
sS'PRO-MET'
p192
F3.0409999999999999
sS'TYR-HIS'
p193
F2.6920000000000002
sS'PHE-MET'
p194
F2.9249999999999998
sS'GLU-TYR'
p195
F2.7210000000000001
sS'SER-TRP'
p196
F3.036
sS'PHE-ARG'
p197
F3.0510000000000002
sS'GLY-ILE'
p198
F2.9580000000000002
sS'TYR-VAL'
p199
F3.2109999999999999
sS'ASN-TYR'
p200
F2.6379999999999999
sS'SER-ILE'
p201
F3.0139999999999998
sS'GLN-PRO'
p202
F2.4529999999999998
sS'PHE-TYR'
p203
F3.0019999999999998
sS'ALA-VAL'
p204
F3.044
sS'HIS-HIS'
p205
F0.82299999999999995
sS'THR-ASN'
p206
F2.5009999999999999
sS'CYS-LEU'
p207
F3.5510000000000002
sS'LYS-MET'
p208
F3.109
sS'LYS-ASP'
p209
F2.2829999999999999
sS'HIS-ASN'
p210
F2.5350000000000001
sS'ILE-GLN'
p211
F3.0760000000000001
sS'VAL-HIS'
p212
F3.2080000000000002
sS'ALA-LEU'
p213
F2.786
sS'HIS-ASP'
p214
F2.5960000000000001
sS'ILE-TYR'
p215
F3.0190000000000001
sS'ILE-GLU'
p216
F3.29
sS'ASN-TRP'
p217
F3.1190000000000002
sS'ILE-GLY'
p218
F2.9769999999999999
sS'ASN-CYS'
p219
F2.8159999999999998
sS'GLU-SER'
p220
F2.5920000000000001
sS'ALA-TRP'
p221
F2.9980000000000002
sS'HIS-CYS'
p222
F3.3919999999999999
sS'HIS-MET'
p223
F3.1960000000000002
sS'ILE-PRO'
p224
F2.9279999999999999
sS'LYS-PHE'
p225
F3.2130000000000001
sS'TRP-PRO'
p226
F3.1419999999999999
sS'GLU-TRP'
p227
F3.153
sS'PHE-HIS'
p228
F3.226
sS'GLY-TYR'
p229
F2.4620000000000002
sS'SER-GLY'
p230
F2.2999999999999998
sS'CYS-TRP'
p231
F4.1100000000000003
sS'ASP-LYS'
p232
F2.3109999999999999
sS'ASN-ILE'
p233
F3
sS'HIS-SER'
p234
F2.6190000000000002
sS'LYS-CYS'
p235
F3.1989999999999998
sS'GLY-PHE'
p236
F3
sS'GLY-LEU'
p237
F2.7730000000000001
sS'MET-SER'
p238
F3.0350000000000001
sS'VAL-ALA'
p239
F3.0750000000000002
sS'SER-LEU'
p240
F2.9380000000000002
sS'TRP-LYS'
p241
F3.286
sS'VAL-TYR'
p242
F3.2370000000000001
sS'VAL-PHE'
p243
F3.1989999999999998
sS'ARG-THR'
p244
F2.73
sS'TYR-TRP'
p245
F3.2250000000000001
sS'GLN-GLN'
p246
F1.0609999999999999
sS'GLU-PHE'
p247
F3.1219999999999999
sS'VAL-ILE'
p248
F3.1280000000000001
sS'HIS-GLN'
p249
F2.6869999999999998
sS'GLN-GLY'
p250
F2.214
sS'PHE-ALA'
p251
F2.948
sS'HIS-GLU'
p252
F2.4710000000000001
sS'ARG-PRO'
p253
F2.3580000000000001
sS'HIS-GLY'
p254
F2.5950000000000002
sS'SER-ASN'
p255
F2.3650000000000002
sS'ALA-THR'
p256
F2.907
sS'GLN-GLU'
p257
F2.4550000000000001
sS'GLN-LYS'
p258
F2.5099999999999998
sS'CYS-HIS'
p259
F3.2709999999999999
sS'GLN-ASP'
p260
F2.4670000000000001
sS'LEU-HIS'
p261
F2.895
sS'SER-LYS'
p262
F2.581
sS'TRP-LEU'
p263
F3.0369999999999999
sS'CYS-SER'
p264
F3.0249999999999999
sS'LYS-THR'
p265
F2.9060000000000001
sS'HIS-LEU'
p266
F3.089
sS'LEU-ARG'
p267
F2.8700000000000001
sS'GLY-VAL'
p268
F2.774
sS'GLN-ASN'
p269
F2.335
sS'TYR-ARG'
p270
F2.6309999999999998
sS'PRO-TYR'
p271
F2.577
sS'ASP-PHE'
p272
F3.335
sS'TRP-CYS'
p273
F3.9769999999999999
sS'ASN-LEU'
p274
F2.9340000000000002
sS'SER-MET'
p275
F3.02
sS'HIS-ILE'
p276
F3.2189999999999999
sS'SER-TYR'
p277
F2.6579999999999999
sS'MET-TYR'
p278
F2.923
sS'GLU-ILE'
p279
F3.1909999999999998
sS'PHE-CYS'
p280
F3.141
sS'PRO-LEU'
p281
F2.843
sS'GLY-MET'
p282
F2.9089999999999998
sS'ARG-ILE'
p283
F3.0249999999999999
sS'HIS-THR'
p284
F2.7749999999999999
sS'THR-GLN'
p285
F2.4550000000000001
sS'TRP-THR'
p286
F3.165
sS'LYS-LEU'
p287
F3.1829999999999998
sS'THR-GLY'
p288
F2.3799999999999999
sS'ASP-TRP'
p289
F3.2949999999999999
sS'TYR-MET'
p290
F3.0139999999999998
sS'PHE-ILE'
p291
F3.0609999999999999
sS'PRO-VAL'
p292
F3.036
sS'MET-ASN'
p293
F2.9159999999999999
sS'LEU-TYR'
p294
F3.0230000000000001
sS'PHE-PHE'
p295
F1.7450000000000001
sS'CYS-PHE'
p296
F3.3100000000000001
sS'TRP-ILE'
p297
F3.4049999999999998
sS'PRO-ASN'
p298
F2.5089999999999999
sS'CYS-CYS'
p299
F0.02
sS'SER-ASP'
p300
F2.6309999999999998
sS'ARG-MET'
p301
F3.0059999999999998
sS'SER-PHE'
p302
F3.0449999999999999
sS'SER-SER'
p303
F1.3280000000000001
sS'ASN-LYS'
p304
F2.4729999999999999
sS'CYS-THR'
p305
F3.3610000000000002
sS'ILE-TRP'
p306
F3.2959999999999998
sS'PRO-ASP'
p307
F2.625
sS'THR-ASP'
p308
F2.7109999999999999
sS'SER-CYS'
p309
F3.0640000000000001
sS'MET-ASP'
p310
F3.1600000000000001
sS'GLN-MET'
p311
F2.984
sS'MET-TRP'
p312
F3.4969999999999999
sS'ARG-VAL'
p313
F2.8919999999999999
sS'GLY-GLN'
p314
F2.2360000000000002
sS'THR-LYS'
p315
F2.8929999999999998
sS'TRP-MET'
p316
F3.4350000000000001
sS'ARG-ARG'
p317
F1.1779999999999999
sS'ILE-ASP'
p318
F3.1440000000000001
sS'GLY-GLY'
p319
F1.0669999999999999
sS'GLY-GLU'
p320
F2.5710000000000002
sS'ALA-ARG'
p321
F2.5289999999999999
sS'GLU-ARG'
p322
F2.137
sS'HIS-VAL'
p323
F3.2370000000000001
sS'VAL-ARG'
p324
F2.9630000000000001
sS'ASN-SER'
p325
F2.3719999999999999
sS'ALA-LYS'
p326
F2.9729999999999999
sS'VAL-GLN'
p327
F2.948
sS'TRP-ASN'
p328
F2.9180000000000001
sS'TYR-ILE'
p329
F3.0339999999999998
sS'TRP-GLY'
p330
F2.8319999999999999
sS'PRO-PHE'
p331
F2.9100000000000001
sS'GLY-HIS'
p332
F2.4220000000000002
sS'PHE-SER'
p333
F2.9289999999999998
sS'TRP-ASP'
p334
F3.1819999999999999
sS'TRP-GLN'
p335
F2.9020000000000001
sS'LEU-ALA'
p336
F2.9159999999999999
sS'VAL-GLU'
p337
F3.1019999999999999
sS'ALA-HIS'
p338
F2.7309999999999999
sS'ARG-ASN'
p339
F2.2330000000000001
sS'LEU-THR'
p340
F2.9790000000000001
sS'TYR-CYS'
p341
F3.101
sS'THR-THR'
p342
F1.4950000000000001
sS'THR-LEU'
p343
F3.0230000000000001
sS'VAL-ASN'
p344
F3
sS'LEU-TRP'
p345
F3.0640000000000001
sS'GLU-ASP'
p346
F2.6339999999999999
sS'ILE-SER'
p347
F3.0379999999999998
sS'ILE-ARG'
p348
F3.0110000000000001
sS'TRP-GLU'
p349
F3.1349999999999998
sS'ILE-MET'
p350
F3.2130000000000001
sS'MET-PHE'
p351
F2.9399999999999999
sS'PRO-ALA'
p352
F2.5409999999999999
sS'PRO-GLY'
p353
F2.464
sS'GLN-THR'
p354
F2.593
sS'MET-ALA'
p355
F3.2269999999999999
sS'TRP-SER'
p356
F3.2010000000000001
sS'ASP-HIS'
p357
F2.5859999999999999
sS'ARG-SER'
p358
F2.335
sS'GLN-HIS'
p359
F2.4950000000000001
sS'HIS-PHE'
p360
F3.2080000000000002
sS'LEU-LEU'
p361
F1.8700000000000001
sS'ALA-GLN'
p362
F2.5609999999999999
sS'ASP-ASN'
p363
F2.46
sS'SER-VAL'
p364
F3.0019999999999998
sS'MET-ILE'
p365
F3.3090000000000002
sS'ALA-PRO'
p366
F2.8260000000000001
sS'ASP-ASP'
p367
F1.6160000000000001
sS'ALA-GLY'
p368
F2.6019999999999999
sS'TRP-TRP'
p369
F1.6499999999999999
sS'MET-CYS'
p370
F3.7320000000000002
sS'ALA-GLU'
p371
F2.8940000000000001
sS'THR-PRO'
p372
F2.48
sS'HIS-ALA'
p373
F2.9990000000000001
sS'GLN-ILE'
p374
F2.895
sS'GLU-VAL'
p375
F3.105
sS'LYS-ASN'
p376
F2.593
sS'ASN-ALA'
p377
F2.6760000000000002
sS'THR-ILE'
p378
F2.9529999999999998
sS'ASP-CYS'
p379
F3.4079999999999999
sS'PRO-LYS'
p380
F2.6320000000000001
sS'TYR-TYR'
p381
F1.661
sS'ARG-LYS'
p382
F2.5590000000000002
sS'ILE-ALA'
p383
F3.0590000000000002
sS'ASP-SER'
p384
F2.6000000000000001
sS'CYS-LYS'
p385
F3.3119999999999998
sS'GLU-ALA'
p386
F2.8700000000000001
sS'PHE-GLU'
p387
F3.073
sS'GLU-LEU'
p388
F3.1640000000000001
sS'PHE-GLY'
p389
F2.9750000000000001
sS'LYS-HIS'
p390
F2.6659999999999999
sS'HIS-PRO'
p391
F2.6499999999999999
sS'ILE-ILE'
p392
F1.806
sS'MET-HIS'
p393
F3.077
sS'VAL-GLY'
p394
F2.8660000000000001
sS'THR-MET'
p395
F3.153
sS'PHE-THR'
p396
F3.052
sS'VAL-TRP'
p397
F3.2709999999999999
sS'PHE-LYS'
p398
F3.181
sS'GLY-PRO'
p399
F2.3660000000000001
sS'PHE-GLN'
p400
F3.0129999999999999
sS'LEU-PHE'
p401
F2.9079999999999999
s.