(dp1
S'MET-MET'
p2
F0.83699999999999997
sS'PRO-ILE'
p3
F2.7509999999999999
sS'TYR-LYS'
p4
F2.379
sS'VAL-ASP'
p5
F2.931
sS'ASP-GLN'
p6
F2.3340000000000001
sS'HIS-TYR'
p7
F2.54
sS'ASP-GLU'
p8
F2.395
sS'ALA-ASP'
p9
F2.617
sS'ASP-GLY'
p10
F2.3849999999999998
sS'LEU-VAL'
p11
F2.9129999999999998
sS'TRP-TYR'
p12
F2.9399999999999999
sS'GLN-TRP'
p13
F2.8159999999999998
sS'TRP-PHE'
p14
F3.036
sS'ARG-TYR'
p15
F2.4350000000000001
sS'GLU-LYS'
p16
F1.8939999999999999
sS'ILE-HIS'
p17
F2.9870000000000001
sS'LEU-MET'
p18
F2.8599999999999999
sS'GLU-HIS'
p19
F2.2120000000000002
sS'GLY-THR'
p20
F2.2450000000000001
sS'ARG-GLU'
p21
F1.8120000000000001
sS'PHE-ASN'
p22
F2.7450000000000001
sS'ASN-MET'
p23
F2.7229999999999999
sS'PRO-THR'
p24
F2.0910000000000002
sS'TYR-GLN'
p25
F2.3650000000000002
sS'ARG-GLY'
p26
F1.8660000000000001
sS'VAL-THR'
p27
F2.9220000000000002
sS'ASP-ILE'
p28
F2.9929999999999999
sS'THR-HIS'
p29
F2.544
sS'TYR-GLU'
p30
F2.3959999999999999
sS'ARG-GLN'
p31
F1.9970000000000001
sS'TYR-GLY'
p32
F2.2959999999999998
sS'PHE-ASP'
p33
F2.8799999999999999
sS'CYS-ARG'
p34
F2.786
sS'GLY-ASN'
p35
F1.9970000000000001
sS'VAL-LYS'
p36
F3.024
sS'LEU-ILE'
p37
F2.7989999999999999
sS'GLN-LEU'
p38
F2.6480000000000001
sS'GLU-MET'
p39
F2.8839999999999999
sS'ASP-THR'
p40
F2.4489999999999998
sS'ASN-PHE'
p41
F2.698
sS'GLU-PRO'
p42
F2.298
sS'TYR-LEU'
p43
F2.8159999999999998
sS'LYS-ARG'
p44
F2.4039999999999999
sS'GLY-ASP'
p45
F2.3090000000000002
sS'PRO-GLN'
p46
F2.2410000000000001
sS'CYS-MET'
p47
F3.3100000000000001
sS'HIS-ARG'
p48
F2.3450000000000002
sS'GLU-THR'
p49
F2.4430000000000001
sS'ILE-THR'
p50
F2.915
sS'SER-PRO'
p51
F2.2919999999999998
sS'GLY-CYS'
p52
F2.423
sS'ARG-LEU'
p53
F2.6320000000000001
sS'PRO-GLU'
p54
F2.3809999999999998
sS'ASP-LEU'
p55
F2.9460000000000002
sS'PHE-VAL'
p56
F3.0129999999999999
sS'ASN-VAL'
p57
F2.6930000000000001
sS'ALA-MET'
p58
F2.8199999999999998
sS'LEU-PRO'
p59
F2.6269999999999998
sS'LEU-SER'
p60
F2.722
sS'ASN-ARG'
p61
F2.125
sS'SER-THR'
p62
F2.5459999999999998
sS'LYS-VAL'
p63
F2.9249999999999998
sS'LYS-GLN'
p64
F2.1459999999999999
sS'GLN-VAL'
p65
F2.7130000000000001
sS'TYR-PHE'
p66
F2.7930000000000001
sS'ASP-VAL'
p67
F2.8919999999999999
sS'ASN-GLY'
p68
F2.0230000000000001
sS'ARG-PHE'
p69
F2.6760000000000002
sS'SER-HIS'
p70
F2.4809999999999999
sS'ALA-ILE'
p71
F2.8620000000000001
sS'ASN-GLU'
p72
F2.1280000000000001
sS'CYS-GLN'
p73
F2.8300000000000001
sS'TYR-PRO'
p74
F2.3540000000000001
sS'LYS-GLU'
p75
F1.994
sS'CYS-GLU'
p76
F3.1949999999999998
sS'ASN-GLN'
p77
F2.081
sS'CYS-GLY'
p78
F2.7189999999999999
sS'GLN-SER'
p79
F2.0430000000000001
sS'HIS-LYS'
p80
F2.4649999999999999
sS'LYS-GLY'
p81
F2.2480000000000002
sS'VAL-MET'
p82
F3.0720000000000001
sS'GLU-GLY'
p83
F2.2330000000000001
sS'THR-SER'
p84
F2.5489999999999999
sS'TYR-THR'
p85
F2.593
sS'PRO-PRO'
p86
F1.151
sS'ILE-PHE'
p87
F2.8530000000000002
sS'PHE-LEU'
p88
F2.6070000000000002
sS'GLU-GLU'
p89
F1.395
sS'SER-ARG'
p90
F2.0800000000000001
sS'GLY-ALA'
p91
F2.2759999999999998
sS'TYR-ASN'
p92
F2.3050000000000002
sS'GLU-GLN'
p93
F2.3090000000000002
sS'TRP-ARG'
p94
F2.6890000000000001
sS'LEU-GLU'
p95
F3.0270000000000001
sS'LEU-GLY'
p96
F2.7000000000000002
sS'LYS-SER'
p97
F2.2610000000000001
sS'MET-VAL'
p98
F3.0179999999999998
sS'SER-ALA'
p99
F2.4420000000000002
sS'PRO-HIS'
p100
F2.3500000000000001
sS'MET-THR'
p101
F2.9460000000000002
sS'ALA-PHE'
p102
F2.7189999999999999
sS'MET-PRO'
p103
F2.7549999999999999
sS'GLY-SER'
p104
F2.1789999999999998
sS'LEU-GLN'
p105
F2.5529999999999999
sS'VAL-LEU'
p106
F2.7959999999999998
sS'LEU-CYS'
p107
F3.3260000000000001
sS'LYS-TYR'
p108
F2.4470000000000001
sS'ASP-ALA'
p109
F2.79
sS'ILE-LEU'
p110
F2.8170000000000002
sS'TRP-VAL'
p111
F3.0550000000000002
sS'PHE-PRO'
p112
F2.649
sS'ALA-ALA'
p113
F1.335
sS'ARG-TRP'
p114
F2.5329999999999999
sS'MET-GLN'
p115
F2.5110000000000001
sS'ILE-LYS'
p116
F3.0840000000000001
sS'MET-ARG'
p117
F2.8100000000000001
sS'ALA-CYS'
p118
F2.9590000000000001
sS'THR-ARG'
p119
F2.5049999999999999
sS'CYS-ILE'
p120
F3.1179999999999999
sS'LEU-ASN'
p121
F2.7410000000000001
sS'LEU-ASP'
p122
F2.9020000000000001
sS'PHE-TRP'
p123
F3.0899999999999999
sS'MET-GLY'
p124
F2.8900000000000001
sS'THR-PHE'
p125
F2.927
sS'MET-GLU'
p126
F3.0009999999999999
sS'THR-TRP'
p127
F3.0760000000000001
sS'THR-TYR'
p128
F2.5190000000000001
sS'CYS-VAL'
p129
F3.1459999999999999
sS'ARG-ALA'
p130
F2.3959999999999999
sS'ALA-TYR'
p131
F2.5670000000000002
sS'ASP-PRO'
p132
F2.266
sS'ARG-CYS'
p133
F2.6629999999999998
sS'GLN-ARG'
p134
F2.0329999999999999
sS'HIS-TRP'
p135
F2.964
sS'PRO-SER'
p136
F2.2149999999999999
sS'VAL-VAL'
p137
F1.7450000000000001
sS'LEU-LYS'
p138
F2.8610000000000002
sS'GLY-LYS'
p139
F2.1880000000000002
sS'CYS-ASN'
p140
F2.5510000000000002
sS'GLY-TRP'
p141
F2.6549999999999998
sS'THR-CYS'
p142
F3.1059999999999999
sS'LYS-LYS'
p143
F1.347
sS'CYS-ASP'
p144
F3.0819999999999999
sS'TYR-ASP'
p145
F2.4289999999999998
sS'VAL-PRO'
p146
F2.9209999999999998
sS'THR-VAL'
p147
F2.875
sS'ASP-TYR'
p148
F2.3889999999999998
sS'PRO-CYS'
p149
F2.6419999999999999
sS'VAL-SER'
p150
F2.8410000000000002
sS'ARG-HIS'
p151
F2.2240000000000002
sS'CYS-PRO'
p152
F2.4129999999999998
sS'MET-LYS'
p153
F2.6829999999999998
sS'ALA-SER'
p154
F2.4860000000000002
sS'TYR-SER'
p155
F2.3580000000000001
sS'GLY-ARG'
p156
F1.901
sS'GLN-ALA'
p157
F2.5190000000000001
sS'MET-LEU'
p158
F2.7240000000000002
sS'ASN-HIS'
p159
F2.3679999999999999
sS'VAL-CYS'
p160
F3.3159999999999998
sS'GLN-TYR'
p161
F2.3530000000000002
sS'GLN-PHE'
p162
F2.8439999999999999
sS'ILE-ASN'
p163
F2.8210000000000002
sS'GLU-ASN'
p164
F2.0830000000000002
sS'CYS-ALA'
p165
F3.0030000000000001
sS'ASN-ASP'
p166
F2.2250000000000001
sS'ASN-PRO'
p167
F2.1459999999999999
sS'PRO-ARG'
p168
F2.1840000000000002
sS'LYS-TRP'
p169
F2.9860000000000002
sS'ASN-ASN'
p170
F0.72299999999999998
sS'ASN-THR'
p171
F2.2669999999999999
sS'THR-ALA'
p172
F2.6259999999999999
sS'LYS-ALA'
p173
F2.766
sS'LYS-PRO'
p174
F2.3769999999999998
sS'SER-GLN'
p175
F2.089
sS'ILE-VAL'
p176
F3.0310000000000001
sS'ASP-ARG'
p177
F1.887
sS'ASP-MET'
p178
F2.9740000000000002
sS'CYS-TYR'
p179
F2.4569999999999999
sS'PRO-TRP'
p180
F2.8140000000000001
sS'THR-GLU'
p181
F2.4089999999999998
sS'TRP-ALA'
p182
F2.5600000000000001
sS'ILE-CYS'
p183
F3.2400000000000002
sS'LYS-ILE'
p184
F3.028
sS'GLN-CYS'
p185
F2.891
sS'TYR-ALA'
p186
F2.6629999999999998
sS'ARG-ASP'
p187
F1.7270000000000001
sS'SER-GLU'
p188
F2.302
sS'TRP-HIS'
p189
F2.7799999999999998
sS'ALA-ASN'
p190
F2.4700000000000002
sS'GLU-CYS'
p191
F3.2810000000000001
sS'PRO-MET'
p192
F2.8050000000000002
sS'TYR-HIS'
p193
F2.347
sS'PHE-MET'
p194
F2.589
sS'GLU-TYR'
p195
F2.5179999999999998
sS'SER-TRP'
p196
F2.8039999999999998
sS'PHE-ARG'
p197
F2.786
sS'GLY-ILE'
p198
F2.7730000000000001
sS'TYR-VAL'
p199
F2.9910000000000001
sS'ASN-TYR'
p200
F2.3140000000000001
sS'SER-ILE'
p201
F2.7949999999999999
sS'GLN-PRO'
p202
F2.222
sS'PHE-TYR'
p203
F2.7330000000000001
sS'ALA-VAL'
p204
F2.8769999999999998
sS'HIS-HIS'
p205
F0.59499999999999997
sS'THR-ASN'
p206
F2.2909999999999999
sS'CYS-LEU'
p207
F3.3879999999999999
sS'LYS-MET'
p208
F2.8439999999999999
sS'LYS-ASP'
p209
F2.008
sS'HIS-ASN'
p210
F2.1720000000000002
sS'ILE-GLN'
p211
F2.7850000000000001
sS'VAL-HIS'
p212
F3.0390000000000001
sS'ALA-LEU'
p213
F2.621
sS'HIS-ASP'
p214
F2.3439999999999999
sS'ILE-TYR'
p215
F2.8610000000000002
sS'ILE-GLU'
p216
F3.1030000000000002
sS'ASN-TRP'
p217
F2.851
sS'ILE-GLY'
p218
F2.7810000000000001
sS'ASN-CYS'
p219
F2.5230000000000001
sS'GLU-SER'
p220
F2.3399999999999999
sS'ALA-TRP'
p221
F2.665
sS'HIS-CYS'
p222
F3.0619999999999998
sS'HIS-MET'
p223
F2.9689999999999999
sS'ILE-PRO'
p224
F2.718
sS'LYS-PHE'
p225
F2.8690000000000002
sS'TRP-PRO'
p226
F2.911
sS'GLU-TRP'
p227
F2.911
sS'PHE-HIS'
p228
F2.9129999999999998
sS'GLY-TYR'
p229
F2.2309999999999999
sS'SER-GLY'
p230
F2.125
sS'CYS-TRP'
p231
F3.9199999999999999
sS'ASP-LYS'
p232
F2.04
sS'ASN-ILE'
p233
F2.742
sS'HIS-SER'
p234
F2.4329999999999998
sS'LYS-CYS'
p235
F2.859
sS'GLY-PHE'
p236
F2.7629999999999999
sS'GLY-LEU'
p237
F2.6030000000000002
sS'MET-SER'
p238
F2.8069999999999999
sS'VAL-ALA'
p239
F2.907
sS'SER-LEU'
p240
F2.7389999999999999
sS'TRP-LYS'
p241
F2.9929999999999999
sS'VAL-TYR'
p242
F2.9940000000000002
sS'VAL-PHE'
p243
F3.0379999999999998
sS'ARG-THR'
p244
F2.3700000000000001
sS'TYR-TRP'
p245
F2.8540000000000001
sS'GLN-GLN'
p246
F0.82999999999999996
sS'GLU-PHE'
p247
F2.831
sS'VAL-ILE'
p248
F2.988
sS'HIS-GLN'
p249
F2.3530000000000002
sS'GLN-GLY'
p250
F1.968
sS'PHE-ALA'
p251
F2.7450000000000001
sS'HIS-GLU'
p252
F2.1379999999999999
sS'ARG-PRO'
p253
F2.1659999999999999
sS'HIS-GLY'
p254
F2.3969999999999998
sS'SER-ASN'
p255
F2.1840000000000002
sS'ALA-THR'
p256
F2.645
sS'GLN-GLU'
p257
F2.177
sS'GLN-LYS'
p258
F2.222
sS'CYS-HIS'
p259
F2.919
sS'GLN-ASP'
p260
F2.177
sS'LEU-HIS'
p261
F2.5819999999999999
sS'SER-LYS'
p262
F2.3889999999999998
sS'TRP-LEU'
p263
F2.782
sS'CYS-SER'
p264
F2.8180000000000001
sS'LYS-THR'
p265
F2.7469999999999999
sS'HIS-LEU'
p266
F2.8199999999999998
sS'LEU-ARG'
p267
F2.585
sS'GLY-VAL'
p268
F2.5169999999999999
sS'GLN-ASN'
p269
F2.0699999999999998
sS'TYR-ARG'
p270
F2.3199999999999998
sS'PRO-TYR'
p271
F2.2989999999999999
sS'ASP-PHE'
p272
F3.0219999999999998
sS'TRP-CYS'
p273
F3.8460000000000001
sS'ASN-LEU'
p274
F2.698
sS'SER-MET'
p275
F2.8399999999999999
sS'HIS-ILE'
p276
F3.0459999999999998
sS'SER-TYR'
p277
F2.5030000000000001
sS'MET-TYR'
p278
F2.609
sS'GLU-ILE'
p279
F2.992
sS'PHE-CYS'
p280
F2.8999999999999999
sS'PRO-LEU'
p281
F2.5720000000000001
sS'GLY-MET'
p282
F2.7360000000000002
sS'ARG-ILE'
p283
F2.8370000000000002
sS'HIS-THR'
p284
F2.5899999999999999
sS'THR-GLN'
p285
F2.2679999999999998
sS'TRP-THR'
p286
F2.871
sS'LYS-LEU'
p287
F2.9660000000000002
sS'THR-GLY'
p288
F2.1179999999999999
sS'ASP-TRP'
p289
F3.004
sS'TYR-MET'
p290
F2.6120000000000001
sS'PHE-ILE'
p291
F2.8420000000000001
sS'PRO-VAL'
p292
F2.9220000000000002
sS'MET-ASN'
p293
F2.5979999999999999
sS'LEU-TYR'
p294
F2.8090000000000002
sS'PHE-PHE'
p295
F1.51
sS'CYS-PHE'
p296
F3.1549999999999998
sS'TRP-ILE'
p297
F3.1859999999999999
sS'PRO-ASN'
p298
F2.2360000000000002
sS'CYS-CYS'
p299
F-0.28799999999999998
sS'SER-ASP'
p300
F2.4329999999999998
sS'ARG-MET'
p301
F2.71
sS'SER-PHE'
p302
F2.9060000000000001
sS'SER-SER'
p303
F1.111
sS'ASN-LYS'
p304
F2.206
sS'CYS-THR'
p305
F3.2909999999999999
sS'ILE-TRP'
p306
F3.0110000000000001
sS'PRO-ASP'
p307
F2.427
sS'THR-ASP'
p308
F2.4510000000000001
sS'SER-CYS'
p309
F2.911
sS'MET-ASP'
p310
F2.8700000000000001
sS'GLN-MET'
p311
F2.7719999999999998
sS'MET-TRP'
p312
F3.2229999999999999
sS'ARG-VAL'
p313
F2.677
sS'GLY-GLN'
p314
F2.0209999999999999
sS'THR-LYS'
p315
F2.698
sS'TRP-MET'
p316
F3.1699999999999999
sS'ARG-ARG'
p317
F0.89200000000000002
sS'ILE-ASP'
p318
F2.9319999999999999
sS'GLY-GLY'
p319
F0.69799999999999995
sS'GLY-GLU'
p320
F2.343
sS'ALA-ARG'
p321
F2.319
sS'GLU-ARG'
p322
F1.8180000000000001
sS'HIS-VAL'
p323
F3.0640000000000001
sS'VAL-ARG'
p324
F2.7269999999999999
sS'ASN-SER'
p325
F2.0979999999999999
sS'ALA-LYS'
p326
F2.7309999999999999
sS'VAL-GLN'
p327
F2.7000000000000002
sS'TRP-ASN'
p328
F2.6779999999999999
sS'TYR-ILE'
p329
F2.8079999999999998
sS'TRP-GLY'
p330
F2.5819999999999999
sS'PRO-PHE'
p331
F2.7000000000000002
sS'GLY-HIS'
p332
F2.2610000000000001
sS'PHE-SER'
p333
F2.6920000000000002
sS'TRP-ASP'
p334
F2.7530000000000001
sS'TRP-GLN'
p335
F2.5960000000000001
sS'LEU-ALA'
p336
F2.6669999999999998
sS'VAL-GLU'
p337
F2.7999999999999998
sS'ALA-HIS'
p338
F2.4889999999999999
sS'ARG-ASN'
p339
F1.9399999999999999
sS'LEU-THR'
p340
F2.7290000000000001
sS'TYR-CYS'
p341
F2.6800000000000002
sS'THR-THR'
p342
F1.286
sS'THR-LEU'
p343
F2.8490000000000002
sS'VAL-ASN'
p344
F2.762
sS'LEU-TRP'
p345
F2.8599999999999999
sS'GLU-ASP'
p346
F2.407
sS'ILE-SER'
p347
F2.7450000000000001
sS'ILE-ARG'
p348
F2.8279999999999998
sS'TRP-GLU'
p349
F2.863
sS'ILE-MET'
p350
F2.903
sS'MET-PHE'
p351
F2.5899999999999999
sS'PRO-ALA'
p352
F2.3100000000000001
sS'PRO-GLY'
p353
F2.2959999999999998
sS'GLN-THR'
p354
F2.4129999999999998
sS'MET-ALA'
p355
F2.9870000000000001
sS'TRP-SER'
p356
F3
sS'ASP-HIS'
p357
F2.2810000000000001
sS'ARG-SER'
p358
F2.1219999999999999
sS'GLN-HIS'
p359
F2.2429999999999999
sS'HIS-PHE'
p360
F2.9180000000000001
sS'LEU-LEU'
p361
F1.524
sS'ALA-GLN'
p362
F2.3660000000000001
sS'ASP-ASN'
p363
F2.2360000000000002
sS'SER-VAL'
p364
F2.8730000000000002
sS'MET-ILE'
p365
F3.1309999999999998
sS'ALA-PRO'
p366
F2.585
sS'ASP-ASP'
p367
F1.387
sS'ALA-GLY'
p368
F2.383
sS'TRP-TRP'
p369
F1.218
sS'MET-CYS'
p370
F3.5430000000000001
sS'ALA-GLU'
p371
F2.649
sS'THR-PRO'
p372
F2.2480000000000002
sS'HIS-ALA'
p373
F2.7610000000000001
sS'GLN-ILE'
p374
F2.694
sS'GLU-VAL'
p375
F2.9409999999999998
sS'LYS-ASN'
p376
F2.3210000000000002
sS'ASN-ALA'
p377
F2.4969999999999999
sS'THR-ILE'
p378
F2.7440000000000002
sS'ASP-CYS'
p379
F3.1680000000000001
sS'PRO-LYS'
p380
F2.4430000000000001
sS'TYR-TYR'
p381
F1.319
sS'ARG-LYS'
p382
F2.319
sS'ILE-ALA'
p383
F2.8820000000000001
sS'ASP-SER'
p384
F2.403
sS'CYS-LYS'
p385
F3.1739999999999999
sS'GLU-ALA'
p386
F2.6200000000000001
sS'PHE-GLU'
p387
F2.7669999999999999
sS'GLU-LEU'
p388
F2.9449999999999998
sS'PHE-GLY'
p389
F2.7509999999999999
sS'LYS-HIS'
p390
F2.4159999999999999
sS'HIS-PRO'
p391
F2.2970000000000002
sS'ILE-ILE'
p392
F1.6499999999999999
sS'MET-HIS'
p393
F2.8540000000000001
sS'VAL-GLY'
p394
F2.653
sS'THR-MET'
p395
F2.9319999999999999
sS'PHE-THR'
p396
F2.9289999999999998
sS'VAL-TRP'
p397
F3.0270000000000001
sS'PHE-LYS'
p398
F2.8399999999999999
sS'GLY-PRO'
p399
F2.1669999999999998
sS'PHE-GLN'
p400
F2.7210000000000001
sS'LEU-PHE'
p401
F2.6230000000000002
s.