(dp1
S'MET-MET'
p2
F-1.121
sS'PRO-ILE'
p3
F0.33000000000000002
sS'TYR-LYS'
p4
F-0.28499999999999998
sS'VAL-ASP'
p5
F0.60399999999999998
sS'ASP-GLN'
p6
F-0.24399999999999999
sS'HIS-TYR'
p7
F-0.54900000000000004
sS'ASP-GLU'
p8
F-0.0040000000000000001
sS'ALA-ASP'
p9
F0.50600000000000001
sS'ASP-GLY'
p10
F0.36199999999999999
sS'LEU-VAL'
p11
F0.32900000000000001
sS'TRP-TYR'
p12
F-0.16300000000000001
sS'GLN-TRP'
p13
F-0.17699999999999999
sS'TRP-PHE'
p14
F-0.154
sS'ARG-TYR'
p15
F-0.73199999999999998
sS'GLU-LYS'
p16
F-0.69499999999999995
sS'ILE-HIS'
p17
F0.183
sS'LEU-MET'
p18
F0.40300000000000002
sS'GLU-HIS'
p19
F-0.52700000000000002
sS'GLY-THR'
p20
F0.20200000000000001
sS'ARG-GLU'
p21
F-1.04
sS'PHE-ASN'
p22
F-0.0080000000000000002
sS'ASN-MET'
p23
F0.39900000000000002
sS'PRO-THR'
p24
F-0.113
sS'TYR-GLN'
p25
F-0.378
sS'ARG-GLY'
p26
F-0.27800000000000002
sS'VAL-THR'
p27
F0.41099999999999998
sS'ASP-ILE'
p28
F0.57699999999999996
sS'THR-HIS'
p29
F-0.042999999999999997
sS'TYR-GLU'
p30
F-0.38900000000000001
sS'ARG-GLN'
p31
F-0.72099999999999997
sS'TYR-GLY'
p32
F0.057000000000000002
sS'PHE-ASP'
p33
F0.31900000000000001
sS'CYS-ARG'
p34
F0.29299999999999998
sS'GLY-ASN'
p35
F-0.126
sS'VAL-LYS'
p36
F0.58999999999999997
sS'LEU-ILE'
p37
F0.23599999999999999
sS'GLN-LEU'
p38
F0.11799999999999999
sS'GLU-MET'
p39
F0.44
sS'ASP-THR'
p40
F0.025000000000000001
sS'ASN-PHE'
p41
F0.017999999999999999
sS'GLU-PRO'
p42
F-0.16900000000000001
sS'TYR-LEU'
p43
F-0.14199999999999999
sS'LYS-ARG'
p44
F-0.14299999999999999
sS'GLY-ASP'
p45
F0.26400000000000001
sS'PRO-GLN'
p46
F-0.374
sS'CYS-MET'
p47
F1.0720000000000001
sS'HIS-ARG'
p48
F-0.44400000000000001
sS'GLU-THR'
p49
F-0.10199999999999999
sS'ILE-THR'
p50
F0.39500000000000002
sS'SER-PRO'
p51
F-0.084000000000000005
sS'GLY-CYS'
p52
F0.45200000000000001
sS'ARG-LEU'
p53
F-0.11799999999999999
sS'PRO-GLU'
p54
F-0.066000000000000003
sS'ASP-LEU'
p55
F0.52200000000000002
sS'PHE-VAL'
p56
F0.14399999999999999
sS'ASN-VAL'
p57
F0.26300000000000001
sS'ALA-MET'
p58
F0.86899999999999999
sS'LEU-PRO'
p59
F0.18099999999999999
sS'LEU-SER'
p60
F0.39700000000000002
sS'ASN-ARG'
p61
F-0.61199999999999999
sS'SER-THR'
p62
F0.17000000000000001
sS'LYS-VAL'
p63
F0.52100000000000002
sS'LYS-GLN'
p64
F-0.36099999999999999
sS'GLN-VAL'
p65
F0.23899999999999999
sS'TYR-PHE'
p66
F-0.218
sS'ASP-VAL'
p67
F0.59499999999999997
sS'ASN-GLY'
p68
F-0.035999999999999997
sS'ARG-PHE'
p69
F-0.34699999999999998
sS'SER-HIS'
p70
F-0.071999999999999995
sS'ALA-ILE'
p71
F0.58299999999999996
sS'ASN-GLU'
p72
F-0.43099999999999999
sS'CYS-GLN'
p73
F0.68000000000000005
sS'TYR-PRO'
p74
F-0.49099999999999999
sS'LYS-GLU'
p75
F-0.71399999999999997
sS'CYS-GLU'
p76
F1.224
sS'ASN-GLN'
p77
F-0.60899999999999999
sS'CYS-GLY'
p78
F0.75600000000000001
sS'GLN-SER'
p79
F-0.27300000000000002
sS'HIS-LYS'
p80
F-0.058000000000000003
sS'LYS-GLY'
p81
F0.20799999999999999
sS'VAL-MET'
p82
F0.73099999999999998
sS'GLU-GLY'
p83
F0.219
sS'THR-SER'
p84
F0.16200000000000001
sS'TYR-THR'
p85
F-0.037999999999999999
sS'PRO-PRO'
p86
F-0.86799999999999999
sS'ILE-PHE'
p87
F0.019
sS'PHE-LEU'
p88
F-0.02
sS'GLU-GLU'
p89
F-0.74299999999999999
sS'SER-ARG'
p90
F-0.31900000000000001
sS'GLY-ALA'
p91
F0.38300000000000001
sS'TYR-ASN'
p92
F-0.435
sS'GLU-GLN'
p93
F-0.26000000000000001
sS'TRP-ARG'
p94
F-0.50700000000000001
sS'LEU-GLU'
p95
F0.40500000000000003
sS'LEU-GLY'
p96
F0.67800000000000005
sS'LYS-SER'
p97
F0.050000000000000003
sS'MET-VAL'
p98
F0.71899999999999997
sS'SER-ALA'
p99
F0.27100000000000002
sS'PRO-HIS'
p100
F-0.34100000000000003
sS'MET-THR'
p101
F0.36899999999999999
sS'ALA-PHE'
p102
F0.26200000000000001
sS'MET-PRO'
p103
F0.53900000000000003
sS'GLY-SER'
p104
F0.20699999999999999
sS'LEU-GLN'
p105
F0.122
sS'VAL-LEU'
p106
F0.27600000000000002
sS'LEU-CYS'
p107
F1.0029999999999999
sS'LYS-TYR'
p108
F-0.31
sS'ASP-ALA'
p109
F0.58899999999999997
sS'ILE-LEU'
p110
F0.184
sS'TRP-VAL'
p111
F0.32600000000000001
sS'PHE-PRO'
p112
F-0.19700000000000001
sS'ALA-ALA'
p113
F-0.159
sS'ARG-TRP'
p114
F-0.64400000000000002
sS'MET-GLN'
p115
F0.189
sS'ILE-LYS'
p116
F0.68400000000000005
sS'MET-ARG'
p117
F0.22700000000000001
sS'ALA-CYS'
p118
F0.98399999999999999
sS'THR-ARG'
p119
F-0.252
sS'CYS-ILE'
p120
F0.97599999999999998
sS'LEU-ASN'
p121
F0.19800000000000001
sS'LEU-ASP'
p122
F0.54800000000000004
sS'PHE-TRP'
p123
F-0.11600000000000001
sS'MET-GLY'
p124
F0.78000000000000003
sS'THR-PHE'
p125
F0.094
sS'MET-GLU'
p126
F0.48699999999999999
sS'THR-TRP'
p127
F0.34300000000000003
sS'THR-TYR'
p128
F-0.098000000000000004
sS'CYS-VAL'
p129
F1.008
sS'ARG-ALA'
p130
F0.121
sS'ALA-TYR'
p131
F0.075999999999999998
sS'ASP-PRO'
p132
F-0.058000000000000003
sS'ARG-CYS'
p133
F0.35799999999999998
sS'GLN-ARG'
p134
F-0.66800000000000004
sS'HIS-TRP'
p135
F-0.0050000000000000001
sS'PRO-SER'
p136
F-0.056000000000000001
sS'VAL-VAL'
p137
F-0.23400000000000001
sS'LEU-LYS'
p138
F0.42399999999999999
sS'GLY-LYS'
p139
F0.071999999999999995
sS'CYS-ASN'
p140
F0.443
sS'GLY-TRP'
p141
F0.27200000000000002
sS'THR-CYS'
p142
F0.99199999999999999
sS'LYS-LYS'
p143
F-0.44700000000000001
sS'CYS-ASP'
p144
F0.96399999999999997
sS'TYR-ASP'
p145
F-0.23400000000000001
sS'VAL-PRO'
p146
F0.36199999999999999
sS'THR-VAL'
p147
F0.34899999999999998
sS'ASP-TYR'
p148
F-0.30599999999999999
sS'PRO-CYS'
p149
F0.48999999999999999
sS'VAL-SER'
p150
F0.436
sS'ARG-HIS'
p151
F-0.55100000000000005
sS'CYS-PRO'
p152
F0.41199999999999998
sS'MET-LYS'
p153
F0.30399999999999999
sS'ALA-SER'
p154
F0.32700000000000001
sS'TYR-SER'
p155
F-0.105
sS'GLY-ARG'
p156
F-0.19
sS'GLN-ALA'
p157
F0.223
sS'MET-LEU'
p158
F0.34399999999999997
sS'ASN-HIS'
p159
F-0.24099999999999999
sS'VAL-CYS'
p160
F1.1539999999999999
sS'GLN-TYR'
p161
F-0.46400000000000002
sS'GLN-PHE'
p162
F-0.075999999999999998
sS'ILE-ASN'
p163
F0.32600000000000001
sS'GLU-ASN'
p164
F-0.44500000000000001
sS'CYS-ALA'
p165
F1.0029999999999999
sS'ASN-ASP'
p166
F-0.23799999999999999
sS'ASN-PRO'
p167
F-0.28799999999999998
sS'PRO-ARG'
p168
F-0.38700000000000001
sS'LYS-TRP'
p169
F0.060999999999999999
sS'ASN-ASN'
p170
F-1.3009999999999999
sS'ASN-THR'
p171
F-0.18099999999999999
sS'THR-ALA'
p172
F0.39200000000000002
sS'LYS-ALA'
p173
F0.56100000000000005
sS'LYS-PRO'
p174
F0.042000000000000003
sS'SER-GLN'
p175
F-0.19800000000000001
sS'ILE-VAL'
p176
F0.443
sS'ASP-ARG'
p177
F-0.93300000000000005
sS'ASP-MET'
p178
F0.61899999999999999
sS'CYS-TYR'
p179
F0.38
sS'PRO-TRP'
p180
F-0.22
sS'THR-GLU'
p181
F-0.082000000000000003
sS'TRP-ALA'
p182
F0.14499999999999999
sS'ILE-CYS'
p183
F0.98699999999999999
sS'LYS-ILE'
p184
F0.59199999999999997
sS'GLN-CYS'
p185
F0.751
sS'TYR-ALA'
p186
F0.14799999999999999
sS'ARG-ASP'
p187
F-0.998
sS'SER-GLU'
p188
F-0.14899999999999999
sS'TRP-HIS'
p189
F-0.17399999999999999
sS'ALA-ASN'
p190
F0.29199999999999998
sS'GLU-CYS'
p191
F1.1399999999999999
sS'PRO-MET'
p192
F0.496
sS'TYR-HIS'
p193
F-0.55300000000000005
sS'PHE-MET'
p194
F-0.017000000000000001
sS'GLU-TYR'
p195
F-0.42999999999999999
sS'SER-TRP'
p196
F0.128
sS'PHE-ARG'
p197
F-0.217
sS'GLY-ILE'
p198
F0.72499999999999998
sS'TYR-VAL'
p199
F0.13100000000000001
sS'ASN-TYR'
p200
F-0.375
sS'SER-ILE'
p201
F0.439
sS'GLN-PRO'
p202
F-0.34300000000000003
sS'PHE-TYR'
p203
F-0.317
sS'ALA-VAL'
p204
F0.628
sS'HIS-HIS'
p205
F-1.881
sS'THR-ASN'
p206
F-0.11700000000000001
sS'CYS-LEU'
p207
F1.0580000000000001
sS'LYS-MET'
p208
F0.45100000000000001
sS'LYS-ASP'
p209
F-0.56699999999999995
sS'HIS-ASN'
p210
F-0.39400000000000002
sS'ILE-GLN'
p211
F0.113
sS'VAL-HIS'
p212
F0.34499999999999997
sS'ALA-LEU'
p213
F0.38700000000000001
sS'HIS-ASP'
p214
F-0.378
sS'ILE-TYR'
p215
F-0.098000000000000004
sS'ILE-GLU'
p216
F0.44400000000000001
sS'ASN-TRP'
p217
F0.025999999999999999
sS'ILE-GLY'
p218
F0.78900000000000003
sS'ASN-CYS'
p219
F0.38400000000000001
sS'GLU-SER'
p220
F-0.158
sS'ALA-TRP'
p221
F0.27100000000000002
sS'HIS-CYS'
p222
F0.89600000000000002
sS'HIS-MET'
p223
F0.39500000000000002
sS'ILE-PRO'
p224
F0.23699999999999999
sS'LYS-PHE'
p225
F0.29199999999999998
sS'TRP-PRO'
p226
F-0.0040000000000000001
sS'GLU-TRP'
p227
F-0.035000000000000003
sS'PHE-HIS'
p228
F0.025999999999999999
sS'GLY-TYR'
p229
F-0.012
sS'SER-GLY'
p230
F0.14899999999999999
sS'CYS-TRP'
p231
F1.262
sS'ASP-LYS'
p232
F-0.51500000000000001
sS'ASN-ILE'
p233
F0.249
sS'HIS-SER'
p234
F-0.104
sS'LYS-CYS'
p235
F0.92700000000000005
sS'GLY-PHE'
p236
F0.47399999999999998
sS'GLY-LEU'
p237
F0.58899999999999997
sS'MET-SER'
p238
F0.501
sS'VAL-ALA'
p239
F0.66100000000000003
sS'SER-LEU'
p240
F0.40200000000000002
sS'TRP-LYS'
p241
F0.035000000000000003
sS'VAL-TYR'
p242
F0.185
sS'VAL-PHE'
p243
F0.20300000000000001
sS'ARG-THR'
p244
F-0.28100000000000003
sS'TYR-TRP'
p245
F-0.23899999999999999
sS'GLN-GLN'
p246
F-1.407
sS'GLU-PHE'
p247
F0.157
sS'VAL-ILE'
p248
F0.432
sS'HIS-GLN'
p249
F-0.26000000000000001
sS'GLN-GLY'
p250
F-0.127
sS'PHE-ALA'
p251
F0.28899999999999998
sS'HIS-GLU'
p252
F-0.51300000000000001
sS'ARG-PRO'
p253
F-0.39000000000000001
sS'HIS-GLY'
p254
F0.18099999999999999
sS'SER-ASN'
p255
F-0.19500000000000001
sS'ALA-THR'
p256
F0.41699999999999998
sS'GLN-GLU'
p257
F-0.29699999999999999
sS'GLN-LYS'
p258
F-0.29499999999999998
sS'CYS-HIS'
p259
F0.91100000000000003
sS'GLN-ASP'
p260
F-0.27500000000000002
sS'LEU-HIS'
p261
F0.13
sS'SER-LYS'
p262
F0.055
sS'TRP-LEU'
p263
F-0.027
sS'CYS-SER'
p264
F0.65800000000000003
sS'LYS-THR'
p265
F0.247
sS'HIS-LEU'
p266
F0.25600000000000001
sS'LEU-ARG'
p267
F-0.039
sS'GLY-VAL'
p268
F0.47699999999999998
sS'GLN-ASN'
p269
F-0.48599999999999999
sS'TYR-ARG'
p270
F-0.66700000000000004
sS'PRO-TYR'
p271
F-0.52600000000000002
sS'ASP-PHE'
p272
F0.42499999999999999
sS'TRP-CYS'
p273
F1.1799999999999999
sS'ASN-LEU'
p274
F0.189
sS'SER-MET'
p275
F0.55700000000000005
sS'HIS-ILE'
p276
F0.23300000000000001
sS'SER-TYR'
p277
F-0.16500000000000001
sS'MET-TYR'
p278
F-0.125
sS'GLU-ILE'
p279
F0.34899999999999998
sS'PHE-CYS'
p280
F0.46400000000000002
sS'PRO-LEU'
p281
F0.22700000000000001
sS'GLY-MET'
p282
F0.68000000000000005
sS'ARG-ILE'
p283
F0.089999999999999997
sS'HIS-THR'
p284
F-0.027
sS'THR-GLN'
p285
F-0.312
sS'TRP-THR'
p286
F0.22900000000000001
sS'LYS-LEU'
p287
F0.44900000000000001
sS'THR-GLY'
p288
F0.16800000000000001
sS'ASP-TRP'
p289
F0.36199999999999999
sS'TYR-MET'
p290
F-0.043999999999999997
sS'PHE-ILE'
p291
F0.024
sS'PRO-VAL'
p292
F0.36399999999999999
sS'MET-ASN'
p293
F0.21299999999999999
sS'LEU-TYR'
p294
F-0.112
sS'PHE-PHE'
p295
F-1.1240000000000001
sS'CYS-PHE'
p296
F0.64100000000000001
sS'TRP-ILE'
p297
F0.17799999999999999
sS'PRO-ASN'
p298
F-0.224
sS'CYS-CYS'
p299
F-2.3849999999999998
sS'SER-ASP'
p300
F-0.029000000000000001
sS'ARG-MET'
p301
F0.062
sS'SER-PHE'
p302
F0.25700000000000001
sS'SER-SER'
p303
F-0.66400000000000003
sS'ASN-LYS'
p304
F-0.35999999999999999
sS'CYS-THR'
p305
F1.052
sS'ILE-TRP'
p306
F0.26100000000000001
sS'PRO-ASP'
p307
F-0.064000000000000001
sS'THR-ASP'
p308
F0.042000000000000003
sS'SER-CYS'
p309
F0.78000000000000003
sS'MET-ASP'
p310
F0.56200000000000006
sS'GLN-MET'
p311
F0.34599999999999997
sS'MET-TRP'
p312
F0.24099999999999999
sS'ARG-VAL'
p313
F0.105
sS'GLY-GLN'
p314
F-0.029999999999999999
sS'THR-LYS'
p315
F0.23899999999999999
sS'TRP-MET'
p316
F0.246
sS'ARG-ARG'
p317
F-1.4610000000000001
sS'ILE-ASP'
p318
F0.57099999999999995
sS'GLY-GLY'
p319
F-0.42699999999999999
sS'GLY-GLU'
p320
F0.27200000000000002
sS'ALA-ARG'
p321
F0.104
sS'GLU-ARG'
p322
F-0.98599999999999999
sS'HIS-VAL'
p323
F0.38
sS'VAL-ARG'
p324
F0.128
sS'ASN-SER'
p325
F-0.27300000000000002
sS'ALA-LYS'
p326
F0.57499999999999996
sS'VAL-GLN'
p327
F0.23799999999999999
sS'TRP-ASN'
p328
F-0.251
sS'TYR-ILE'
p329
F-0.098000000000000004
sS'TRP-GLY'
p330
F0.16800000000000001
sS'PRO-PHE'
p331
F-0.13300000000000001
sS'GLY-HIS'
p332
F0.091999999999999998
sS'PHE-SER'
p333
F0.21299999999999999
sS'TRP-ASP'
p334
F0.47399999999999998
sS'TRP-GLN'
p335
F-0.36399999999999999
sS'LEU-ALA'
p336
F0.433
sS'VAL-GLU'
p337
F0.36399999999999999
sS'ALA-HIS'
p338
F0.071999999999999995
sS'ARG-ASN'
p339
F-0.67000000000000004
sS'LEU-THR'
p340
F0.379
sS'TYR-CYS'
p341
F0.65700000000000003
sS'THR-THR'
p342
F-0.67900000000000005
sS'THR-LEU'
p343
F0.36899999999999999
sS'VAL-ASN'
p344
F0.32600000000000001
sS'LEU-TRP'
p345
F-0.064000000000000001
sS'GLU-ASP'
p346
F-0.0040000000000000001
sS'ILE-SER'
p347
F0.44900000000000001
sS'ILE-ARG'
p348
F0.127
sS'TRP-GLU'
p349
F-0.024
sS'ILE-MET'
p350
F0.53700000000000003
sS'MET-PHE'
p351
F0.014999999999999999
sS'PRO-ALA'
p352
F0.107
sS'PRO-GLY'
p353
F0.157
sS'GLN-THR'
p354
F-0.14999999999999999
sS'MET-ALA'
p355
F0.875
sS'TRP-SER'
p356
F0.13100000000000001
sS'ASP-HIS'
p357
F-0.33200000000000002
sS'ARG-SER'
p358
F-0.36499999999999999
sS'GLN-HIS'
p359
F-0.36499999999999999
sS'HIS-PHE'
p360
F-0.012999999999999999
sS'LEU-LEU'
p361
F-0.47199999999999998
sS'ALA-GLN'
p362
F0.13100000000000001
sS'ASP-ASN'
p363
F-0.215
sS'SER-VAL'
p364
F0.45500000000000002
sS'MET-ILE'
p365
F0.58399999999999996
sS'ALA-PRO'
p366
F0.28000000000000003
sS'ASP-ASP'
p367
F-0.501
sS'ALA-GLY'
p368
F0.51400000000000001
sS'TRP-TRP'
p369
F-1.677
sS'MET-CYS'
p370
F1.276
sS'ALA-GLU'
p371
F0.41099999999999998
sS'THR-PRO'
p372
F-0.121
sS'HIS-ALA'
p373
F0.379
sS'GLN-ILE'
p374
F0.063
sS'GLU-VAL'
p375
F0.379
sS'LYS-ASN'
p376
F-0.254
sS'ASN-ALA'
p377
F0.26600000000000001
sS'THR-ILE'
p378
F0.32500000000000001
sS'ASP-CYS'
p379
F1.0529999999999999
sS'PRO-LYS'
p380
F0.051999999999999998
sS'TYR-TYR'
p381
F-1.3660000000000001
sS'ARG-LYS'
p382
F-0.22
sS'ILE-ALA'
p383
F0.64000000000000001
sS'ASP-SER'
p384
F-0.035999999999999997
sS'CYS-LYS'
p385
F0.94999999999999996
sS'GLU-ALA'
p386
F0.38100000000000001
sS'PHE-GLU'
p387
F0.17499999999999999
sS'GLU-LEU'
p388
F0.33200000000000002
sS'PHE-GLY'
p389
F0.45400000000000001
sS'LYS-HIS'
p390
F-0.125
sS'HIS-PRO'
p391
F-0.22700000000000001
sS'ILE-ILE'
p392
F-0.49099999999999999
sS'MET-HIS'
p393
F0.35699999999999998
sS'VAL-GLY'
p394
F0.60699999999999998
sS'THR-MET'
p395
F0.439
sS'PHE-THR'
p396
F0.13300000000000001
sS'VAL-TRP'
p397
F0.34100000000000003
sS'PHE-LYS'
p398
F0.25600000000000001
sS'GLY-PRO'
p399
F0.044999999999999998
sS'PHE-GLN'
p400
F-0.035000000000000003
sS'LEU-PHE'
p401
F-0.035000000000000003
s.