(dp1
S'MET-MET'
p2
F-4.1239999999999997
sS'PRO-ILE'
p3
F-2.0609999999999999
sS'TYR-LYS'
p4
F-2.556
sS'VAL-ASP'
p5
F-1.905
sS'ASP-GLN'
p6
F-2.3759999999999999
sS'HIS-TYR'
p7
F-2.9540000000000002
sS'ASP-GLU'
p8
F-2.0870000000000002
sS'ALA-ASP'
p9
F-2.0099999999999998
sS'ASP-GLY'
p10
F-2.3300000000000001
sS'LEU-VAL'
p11
F-1.484
sS'TRP-TYR'
p12
F-3.1099999999999999
sS'GLN-TRP'
p13
F-2.5059999999999998
sS'TRP-PHE'
p14
F-1.6359999999999999
sS'ARG-TYR'
p15
F-3.1949999999999998
sS'GLU-LYS'
p16
F-2.1110000000000002
sS'ILE-HIS'
p17
F-1.764
sS'LEU-MET'
p18
F-1.137
sS'GLU-HIS'
p19
F-2.726
sS'GLY-THR'
p20
F-2.3900000000000001
sS'ARG-GLU'
p21
F-2.5750000000000002
sS'PHE-ASN'
p22
F-2.4380000000000002
sS'ASN-MET'
p23
F-1.9890000000000001
sS'PRO-THR'
p24
F-2.6819999999999999
sS'TYR-GLN'
p25
F-2.0670000000000002
sS'ARG-GLY'
p26
F-2.9199999999999999
sS'VAL-THR'
p27
F-1.986
sS'ASP-ILE'
p28
F-1.97
sS'THR-HIS'
p29
F-1.766
sS'TYR-GLU'
p30
F-2.2669999999999999
sS'ARG-GLN'
p31
F-2.681
sS'TYR-GLY'
p32
F-2.6779999999999999
sS'PHE-ASP'
p33
F-2.1429999999999998
sS'CYS-ARG'
p34
F-1.6180000000000001
sS'GLY-ASN'
p35
F-2.746
sS'VAL-LYS'
p36
F-1.766
sS'LEU-ILE'
p37
F-1.417
sS'GLN-LEU'
p38
F-1.6879999999999999
sS'GLU-MET'
p39
F-1.671
sS'ASP-THR'
p40
F-2.4710000000000001
sS'ASN-PHE'
p41
F-2.3260000000000001
sS'GLU-PRO'
p42
F-2.472
sS'TYR-LEU'
p43
F-2.1629999999999998
sS'LYS-ARG'
p44
F-2.0190000000000001
sS'GLY-ASP'
p45
F-2.468
sS'PRO-GLN'
p46
F-2.5790000000000002
sS'CYS-MET'
p47
F0.22900000000000001
sS'HIS-ARG'
p48
F-2.1669999999999998
sS'GLU-THR'
p49
F-2.2320000000000002
sS'ILE-THR'
p50
F-1.867
sS'SER-PRO'
p51
F-2.7050000000000001
sS'GLY-CYS'
p52
F-1.7849999999999999
sS'ARG-LEU'
p53
F-2.2519999999999998
sS'PRO-GLU'
p54
F-2.6099999999999999
sS'ASP-LEU'
p55
F-1.931
sS'PHE-VAL'
p56
F-2.0739999999999998
sS'ASN-VAL'
p57
F-1.8660000000000001
sS'ALA-MET'
p58
F-1.5149999999999999
sS'LEU-PRO'
p59
F-2.302
sS'LEU-SER'
p60
F-1.9770000000000001
sS'ASN-ARG'
p61
F-2.5739999999999998
sS'SER-THR'
p62
F-2.2000000000000002
sS'LYS-VAL'
p63
F-1.8089999999999999
sS'LYS-GLN'
p64
F-2.4239999999999999
sS'GLN-VAL'
p65
F-1.7230000000000001
sS'TYR-PHE'
p66
F-2.4100000000000001
sS'ASP-VAL'
p67
F-1.784
sS'ASN-GLY'
p68
F-2.6150000000000002
sS'ARG-PHE'
p69
F-2.3079999999999998
sS'SER-HIS'
p70
F-2.7320000000000002
sS'ALA-ILE'
p71
F-1.8169999999999999
sS'ASN-GLU'
p72
F-2.2410000000000001
sS'CYS-GLN'
p73
F-2.149
sS'TYR-PRO'
p74
F-2.4119999999999999
sS'LYS-GLU'
p75
F-2.427
sS'CYS-GLU'
p76
F-1.3320000000000001
sS'ASN-GLN'
p77
F-2.621
sS'CYS-GLY'
p78
F-1.4850000000000001
sS'GLN-SER'
p79
F-2.6259999999999999
sS'HIS-LYS'
p80
F-2.202
sS'LYS-GLY'
p81
F-2.2829999999999999
sS'VAL-MET'
p82
F-1.4059999999999999
sS'GLU-GLY'
p83
F-2.4940000000000002
sS'THR-SER'
p84
F-2.012
sS'TYR-THR'
p85
F-2.2759999999999998
sS'PRO-PRO'
p86
F-4.2910000000000004
sS'ILE-PHE'
p87
F-1.665
sS'PHE-LEU'
p88
F-2.0049999999999999
sS'GLU-GLU'
p89
F-3.948
sS'SER-ARG'
p90
F-2.597
sS'GLY-ALA'
p91
F-1.853
sS'TYR-ASN'
p92
F-3.3780000000000001
sS'GLU-GLN'
p93
F-2.157
sS'TRP-ARG'
p94
F-2.5510000000000002
sS'LEU-GLU'
p95
F-1.796
sS'LEU-GLY'
p96
F-1.927
sS'LYS-SER'
p97
F-2.149
sS'MET-VAL'
p98
F-1.27
sS'SER-ALA'
p99
F-1.9630000000000001
sS'PRO-HIS'
p100
F-2.9529999999999998
sS'MET-THR'
p101
F-1.8959999999999999
sS'ALA-PHE'
p102
F-2.2839999999999998
sS'MET-PRO'
p103
F-2.3180000000000001
sS'GLY-SER'
p104
F-2.2360000000000002
sS'LEU-GLN'
p105
F-1.7270000000000001
sS'VAL-LEU'
p106
F-1.556
sS'LEU-CYS'
p107
F-1.036
sS'LYS-TYR'
p108
F-2.3660000000000001
sS'ASP-ALA'
p109
F-2.0299999999999998
sS'ILE-LEU'
p110
F-1.4470000000000001
sS'TRP-VAL'
p111
F-2.2309999999999999
sS'PHE-PRO'
p112
F-2.5880000000000001
sS'ALA-ALA'
p113
F-3.1179999999999999
sS'ARG-TRP'
p114
F-2.339
sS'MET-GLN'
p115
F-2.1739999999999999
sS'ILE-LYS'
p116
F-1.4470000000000001
sS'MET-ARG'
p117
F-2.3220000000000001
sS'ALA-CYS'
p118
F-1.4339999999999999
sS'THR-ARG'
p119
F-2.4569999999999999
sS'CYS-ILE'
p120
F-1.143
sS'LEU-ASN'
p121
F-1.9850000000000001
sS'LEU-ASP'
p122
F-1.768
sS'PHE-TRP'
p123
F-1.671
sS'MET-GLY'
p124
F-1.9319999999999999
sS'THR-PHE'
p125
F-2.0659999999999998
sS'MET-GLU'
p126
F-1.7889999999999999
sS'THR-TRP'
p127
F-2.4940000000000002
sS'THR-TYR'
p128
F-2.351
sS'CYS-VAL'
p129
F-1.3049999999999999
sS'ARG-ALA'
p130
F-2.383
sS'ALA-TYR'
p131
F-2.4060000000000001
sS'ASP-PRO'
p132
F-2.5299999999999998
sS'ARG-CYS'
p133
F-1.9219999999999999
sS'GLN-ARG'
p134
F-2.4209999999999998
sS'HIS-TRP'
p135
F-2.331
sS'PRO-SER'
p136
F-2.613
sS'VAL-VAL'
p137
F-3.3780000000000001
sS'LEU-LYS'
p138
F-1.611
sS'GLY-LYS'
p139
F-2.351
sS'CYS-ASN'
p140
F-1.792
sS'GLY-TRP'
p141
F-2.7549999999999999
sS'THR-CYS'
p142
F-1.3480000000000001
sS'LYS-LYS'
p143
F-2.9710000000000001
sS'CYS-ASP'
p144
F-1.647
sS'TYR-ASP'
p145
F-2.7770000000000001
sS'VAL-PRO'
p146
F-2.0419999999999998
sS'THR-VAL'
p147
F-1.764
sS'ASP-TYR'
p148
F-2.6099999999999999
sS'PRO-CYS'
p149
F-1.796
sS'VAL-SER'
p150
F-1.9079999999999999
sS'ARG-HIS'
p151
F-2.379
sS'CYS-PRO'
p152
F-1.8540000000000001
sS'MET-LYS'
p153
F-1.8049999999999999
sS'ALA-SER'
p154
F-2.0019999999999998
sS'TYR-SER'
p155
F-2.7690000000000001
sS'GLY-ARG'
p156
F-2.7869999999999999
sS'GLN-ALA'
p157
F-2.2690000000000001
sS'MET-LEU'
p158
F-1.6100000000000001
sS'ASN-HIS'
p159
F-2.536
sS'VAL-CYS'
p160
F-1.2390000000000001
sS'GLN-TYR'
p161
F-2.1680000000000001
sS'GLN-PHE'
p162
F-2.427
sS'ILE-ASN'
p163
F-1.9970000000000001
sS'GLU-ASN'
p164
F-2.3740000000000001
sS'CYS-ALA'
p165
F-1.3799999999999999
sS'ASN-ASP'
p166
F-2.48
sS'ASN-PRO'
p167
F-2.7130000000000001
sS'PRO-ARG'
p168
F-2.7320000000000002
sS'LYS-TRP'
p169
F-1.7190000000000001
sS'ASN-ASN'
p170
F-4.2460000000000004
sS'ASN-THR'
p171
F-2.5150000000000001
sS'THR-ALA'
p172
F-1.9299999999999999
sS'LYS-ALA'
p173
F-1.712
sS'LYS-PRO'
p174
F-2.4350000000000001
sS'SER-GLN'
p175
F-2.5510000000000002
sS'ILE-VAL'
p176
F-1.194
sS'ASP-ARG'
p177
F-2.548
sS'ASP-MET'
p178
F-1.411
sS'CYS-TYR'
p179
F-1.7549999999999999
sS'PRO-TRP'
p180
F-2.5600000000000001
sS'THR-GLU'
p181
F-2.2829999999999999
sS'TRP-ALA'
p182
F-2.9910000000000001
sS'ILE-CYS'
p183
F-1.133
sS'LYS-ILE'
p184
F-1.577
sS'GLN-CYS'
p185
F-2.0880000000000001
sS'TYR-ALA'
p186
F-2.1869999999999998
sS'ARG-ASP'
p187
F-2.75
sS'SER-GLU'
p188
F-2.528
sS'TRP-HIS'
p189
F-2.5979999999999999
sS'ALA-ASN'
p190
F-2.2120000000000002
sS'GLU-CYS'
p191
F-1.216
sS'PRO-MET'
p192
F-2.1080000000000001
sS'TYR-HIS'
p193
F-2.484
sS'PHE-MET'
p194
F-1.8180000000000001
sS'GLU-TYR'
p195
F-2.5310000000000001
sS'SER-TRP'
p196
F-2.879
sS'PHE-ARG'
p197
F-2.2290000000000001
sS'GLY-ILE'
p198
F-1.9279999999999999
sS'TYR-VAL'
p199
F-1.867
sS'ASN-TYR'
p200
F-2.9649999999999999
sS'SER-ILE'
p201
F-1.988
sS'GLN-PRO'
p202
F-2.706
sS'PHE-TYR'
p203
F-2.77
sS'ALA-VAL'
p204
F-1.681
sS'HIS-HIS'
p205
F-4.8799999999999999
sS'THR-ASN'
p206
F-2.2549999999999999
sS'CYS-LEU'
p207
F-0.95999999999999996
sS'LYS-MET'
p208
F-1.7889999999999999
sS'LYS-ASP'
p209
F-2.3140000000000001
sS'HIS-ASN'
p210
F-2.6139999999999999
sS'ILE-GLN'
p211
F-2.266
sS'VAL-HIS'
p212
F-1.679
sS'ALA-LEU'
p213
F-1.958
sS'HIS-ASP'
p214
F-2.581
sS'ILE-TYR'
p215
F-2.1459999999999999
sS'ILE-GLU'
p216
F-1.6870000000000001
sS'ASN-TRP'
p217
F-3.0110000000000001
sS'ILE-GLY'
p218
F-1.9490000000000001
sS'ASN-CYS'
p219
F-1.8740000000000001
sS'GLU-SER'
p220
F-2.633
sS'ALA-TRP'
p221
F-2.6579999999999999
sS'HIS-CYS'
p222
F-1.631
sS'HIS-MET'
p223
F-2.629
sS'ILE-PRO'
p224
F-2.2200000000000002
sS'LYS-PHE'
p225
F-2.1139999999999999
sS'TRP-PRO'
p226
F-2.617
sS'GLU-TRP'
p227
F-1.859
sS'PHE-HIS'
p228
F-2.294
sS'GLY-TYR'
p229
F-2.6459999999999999
sS'SER-GLY'
p230
F-2.2200000000000002
sS'CYS-TRP'
p231
F-1.3280000000000001
sS'ASP-LYS'
p232
F-2.0430000000000001
sS'ASN-ILE'
p233
F-1.956
sS'HIS-SER'
p234
F-2.6739999999999999
sS'LYS-CYS'
p235
F-1.752
sS'GLY-PHE'
p236
F-2.3849999999999998
sS'GLY-LEU'
p237
F-2.073
sS'MET-SER'
p238
F-1.8280000000000001
sS'VAL-ALA'
p239
F-1.704
sS'SER-LEU'
p240
F-1.889
sS'TRP-LYS'
p241
F-1.869
sS'VAL-TYR'
p242
F-1.915
sS'VAL-PHE'
p243
F-1.877
sS'ARG-THR'
p244
F-2.302
sS'TYR-TRP'
p245
F-3.1899999999999999
sS'GLN-GLN'
p246
F-4.1070000000000002
sS'GLU-PHE'
p247
F-1.835
sS'VAL-ILE'
p248
F-1.2350000000000001
sS'HIS-GLN'
p249
F-2.2120000000000002
sS'GLN-GLY'
p250
F-2.7149999999999999
sS'PHE-ALA'
p251
F-2.1760000000000002
sS'HIS-GLU'
p252
F-2.3450000000000002
sS'ARG-PRO'
p253
F-3.036
sS'HIS-GLY'
p254
F-2.6779999999999999
sS'SER-ASN'
p255
F-2.5150000000000001
sS'ALA-THR'
p256
F-1.839
sS'GLN-GLU'
p257
F-2.387
sS'GLN-LYS'
p258
F-2.1739999999999999
sS'CYS-HIS'
p259
F-1.671
sS'GLN-ASP'
p260
F-2.3730000000000002
sS'LEU-HIS'
p261
F-1.7849999999999999
sS'SER-LYS'
p262
F-2.089
sS'TRP-LEU'
p263
F-1.9850000000000001
sS'CYS-SER'
p264
F-1.3500000000000001
sS'LYS-THR'
p265
F-1.831
sS'HIS-LEU'
p266
F-1.903
sS'LEU-ARG'
p267
F-1.972
sS'GLY-VAL'
p268
F-2.1400000000000001
sS'GLN-ASN'
p269
F-2.4470000000000001
sS'TYR-ARG'
p270
F-2.8809999999999998
sS'PRO-TYR'
p271
F-2.7309999999999999
sS'ASP-PHE'
p272
F-2.109
sS'TRP-CYS'
p273
F-1.4610000000000001
sS'ASN-LEU'
p274
F-2.1720000000000002
sS'SER-MET'
p275
F-1.756
sS'HIS-ILE'
p276
F-1.7529999999999999
sS'SER-TYR'
p277
F-2.952
sS'MET-TYR'
p278
F-1.849
sS'GLU-ILE'
p279
F-1.6839999999999999
sS'PHE-CYS'
p280
F-2.3759999999999999
sS'PRO-LEU'
p281
F-2.0379999999999998
sS'GLY-MET'
p282
F-1.861
sS'ARG-ILE'
p283
F-2.105
sS'HIS-THR'
p284
F-2.1520000000000001
sS'THR-GLN'
p285
F-2.3540000000000001
sS'TRP-THR'
p286
F-2.544
sS'LYS-LEU'
p287
F-1.5760000000000001
sS'THR-GLY'
p288
F-2.4430000000000001
sS'ASP-TRP'
p289
F-1.651
sS'TYR-MET'
p290
F-1.9079999999999999
sS'PHE-ILE'
p291
F-1.702
sS'PRO-VAL'
p292
F-1.8759999999999999
sS'MET-ASN'
p293
F-2.0779999999999998
sS'LEU-TYR'
p294
F-2.149
sS'PHE-PHE'
p295
F-4.2859999999999996
sS'CYS-PHE'
p296
F-2.0230000000000001
sS'TRP-ILE'
p297
F-1.962
sS'PRO-ASN'
p298
F-2.6219999999999999
sS'CYS-CYS'
p299
F-5.532
sS'SER-ASP'
p300
F-2.3260000000000001
sS'ARG-MET'
p301
F-2.234
sS'SER-PHE'
p302
F-2.5049999999999999
sS'SER-SER'
p303
F-3.6619999999999999
sS'ASN-LYS'
p304
F-2.2639999999999998
sS'CYS-THR'
p305
F-1.115
sS'ILE-TRP'
p306
F-2.1099999999999999
sS'PRO-ASP'
p307
F-2.7370000000000001
sS'THR-ASP'
p308
F-2.3929999999999998
sS'SER-CYS'
p309
F-1.359
sS'MET-ASP'
p310
F-1.821
sS'GLN-MET'
p311
F-1.657
sS'MET-TRP'
p312
F-1.0209999999999999
sS'ARG-VAL'
p313
F-2.069
sS'GLY-GLN'
p314
F-2.552
sS'THR-LYS'
p315
F-1.7470000000000001
sS'TRP-MET'
p316
F-0.99299999999999999
sS'ARG-ARG'
p317
F-4.6050000000000004
sS'ILE-ASP'
p318
F-1.911
sS'GLY-GLY'
p319
F-3.1989999999999998
sS'GLY-GLU'
p320
F-2.48
sS'ALA-ARG'
p321
F-2.488
sS'GLU-ARG'
p322
F-2.3420000000000001
sS'HIS-VAL'
p323
F-1.7490000000000001
sS'VAL-ARG'
p324
F-2.1429999999999998
sS'ASN-SER'
p325
F-2.5990000000000002
sS'ALA-LYS'
p326
F-1.8149999999999999
sS'VAL-GLN'
p327
F-1.708
sS'TRP-ASN'
p328
F-3.2690000000000001
sS'TYR-ILE'
p329
F-2.0419999999999998
sS'TRP-GLY'
p330
F-2.875
sS'PRO-PHE'
p331
F-2.6019999999999999
sS'GLY-HIS'
p332
F-2.5139999999999998
sS'PHE-SER'
p333
F-2.5830000000000002
sS'TRP-ASP'
p334
F-1.871
sS'TRP-GLN'
p335
F-2.9039999999999999
sS'LEU-ALA'
p336
F-1.889
sS'VAL-GLU'
p337
F-1.7909999999999999
sS'ALA-HIS'
p338
F-2.5609999999999999
sS'ARG-ASN'
p339
F-2.7250000000000001
sS'LEU-THR'
p340
F-1.849
sS'TYR-CYS'
p341
F-1.831
sS'THR-THR'
p342
F-3.4569999999999999
sS'THR-LEU'
p343
F-1.829
sS'VAL-ASN'
p344
F-1.9039999999999999
sS'LEU-TRP'
p345
F-2.0840000000000001
sS'GLU-ASP'
p346
F-2.2789999999999999
sS'ILE-SER'
p347
F-1.879
sS'ILE-ARG'
p348
F-1.851
sS'TRP-GLU'
p349
F-2.327
sS'ILE-MET'
p350
F-1.6140000000000001
sS'MET-PHE'
p351
F-2.2490000000000001
sS'PRO-ALA'
p352
F-2.4300000000000002
sS'PRO-GLY'
p353
F-2.4380000000000002
sS'GLN-THR'
p354
F-2.028
sS'MET-ALA'
p355
F-1.6890000000000001
sS'TRP-SER'
p356
F-2.7040000000000002
sS'ASP-HIS'
p357
F-2.536
sS'ARG-SER'
p358
F-2.657
sS'GLN-HIS'
p359
F-2.363
sS'HIS-PHE'
p360
F-2.1230000000000002
sS'LEU-LEU'
p361
F-3.0369999999999999
sS'ALA-GLN'
p362
F-2.2679999999999998
sS'ASP-ASN'
p363
F-2.3039999999999998
sS'SER-VAL'
p364
F-1.895
sS'MET-ILE'
p365
F-1.373
sS'ALA-PRO'
p366
F-2.2730000000000001
sS'ASP-ASP'
p367
F-3.593
sS'ALA-GLY'
p368
F-1.6919999999999999
sS'TRP-TRP'
p369
F-4.5830000000000002
sS'MET-CYS'
p370
F-0.23999999999999999
sS'ALA-GLU'
p371
F-2.1829999999999998
sS'THR-PRO'
p372
F-2.5750000000000002
sS'HIS-ALA'
p373
F-2.4079999999999999
sS'GLN-ILE'
p374
F-1.988
sS'GLU-VAL'
p375
F-2.121
sS'LYS-ASN'
p376
F-2.2189999999999999
sS'ASN-ALA'
p377
F-2.1899999999999999
sS'THR-ILE'
p378
F-1.7430000000000001
sS'ASP-CYS'
p379
F-1.732
sS'PRO-LYS'
p380
F-2.569
sS'TYR-TYR'
p381
F-5.0640000000000001
sS'ARG-LYS'
p382
F-2.0739999999999998
sS'ILE-ALA'
p383
F-1.732
sS'ASP-SER'
p384
F-2.411
sS'CYS-LYS'
p385
F-1.486
sS'GLU-ALA'
p386
F-2.3319999999999999
sS'PHE-GLU'
p387
F-1.7749999999999999
sS'GLU-LEU'
p388
F-1.76
sS'PHE-GLY'
p389
F-2.4500000000000002
sS'LYS-HIS'
p390
F-1.7270000000000001
sS'HIS-PRO'
p391
F-2.948
sS'ILE-ILE'
p392
F-3.2730000000000001
sS'MET-HIS'
p393
F-2.2280000000000002
sS'VAL-GLY'
p394
F-1.907
sS'THR-MET'
p395
F-1.7769999999999999
sS'PHE-THR'
p396
F-1.9330000000000001
sS'VAL-TRP'
p397
F-1.655
sS'PHE-LYS'
p398
F-2.2320000000000002
sS'GLY-PRO'
p399
F-2.5230000000000001
sS'PHE-GLN'
p400
F-2.2559999999999998
sS'LEU-PHE'
p401
F-1.925
s.