(dp1
S'MET-MET'
p2
F-0.188
sS'PRO-ILE'
p3
F1.77
sS'TYR-LYS'
p4
F1.8640000000000001
sS'VAL-ASP'
p5
F1.899
sS'ASP-GLN'
p6
F1.675
sS'HIS-TYR'
p7
F1.6319999999999999
sS'ASP-GLU'
p8
F1.823
sS'ALA-ASP'
p9
F1.627
sS'ASP-GLY'
p10
F1.5209999999999999
sS'LEU-VAL'
p11
F2.3090000000000002
sS'TRP-TYR'
p12
F1.8740000000000001
sS'GLN-TRP'
p13
F1.905
sS'TRP-PHE'
p14
F3.1579999999999999
sS'ARG-TYR'
p15
F1.6220000000000001
sS'GLU-LYS'
p16
F1.9330000000000001
sS'ILE-HIS'
p17
F2.3359999999999999
sS'LEU-MET'
p18
F2.7000000000000002
sS'GLU-HIS'
p19
F1.429
sS'GLY-THR'
p20
F1.2450000000000001
sS'ARG-GLU'
p21
F1.633
sS'PHE-ASN'
p22
F1.732
sS'ASN-MET'
p23
F1.944
sS'PRO-THR'
p24
F1.042
sS'TYR-GLN'
p25
F2.496
sS'ARG-GLY'
p26
F1.3380000000000001
sS'VAL-THR'
p27
F1.6080000000000001
sS'ASP-ILE'
p28
F2.032
sS'THR-HIS'
p29
F2.5299999999999998
sS'TYR-GLU'
p30
F2.1299999999999999
sS'ARG-GLN'
p31
F1.6160000000000001
sS'TYR-GLY'
p32
F1.6439999999999999
sS'PHE-ASP'
p33
F2.1080000000000001
sS'CYS-ARG'
p34
F2.7570000000000001
sS'GLY-ASN'
p35
F0.95299999999999996
sS'VAL-LYS'
p36
F2.2679999999999998
sS'LEU-ILE'
p37
F2.4430000000000001
sS'GLN-LEU'
p38
F2.298
sS'GLU-MET'
p39
F2.3730000000000002
sS'ASP-THR'
p40
F1.4750000000000001
sS'ASN-PHE'
p41
F1.9379999999999999
sS'GLU-PRO'
p42
F1.3979999999999999
sS'TYR-LEU'
p43
F2.121
sS'LYS-ARG'
p44
F2.214
sS'GLY-ASP'
p45
F1.405
sS'PRO-GLN'
p46
F1.3759999999999999
sS'CYS-MET'
p47
F4.234
sS'HIS-ARG'
p48
F2.133
sS'GLU-THR'
p49
F1.6870000000000001
sS'ILE-THR'
p50
F2.1160000000000001
sS'SER-PRO'
p51
F0.95599999999999996
sS'GLY-CYS'
p52
F1.7370000000000001
sS'ARG-LEU'
p53
F1.891
sS'PRO-GLU'
p54
F1.4239999999999999
sS'ASP-LEU'
p55
F2.0049999999999999
sS'PHE-VAL'
p56
F2.2810000000000001
sS'ASN-VAL'
p57
F2.016
sS'ALA-MET'
p58
F2.4510000000000001
sS'LEU-PRO'
p59
F1.4059999999999999
sS'LEU-SER'
p60
F1.8160000000000001
sS'ASN-ARG'
p61
F1.627
sS'SER-THR'
p62
F1.4830000000000001
sS'LYS-VAL'
p63
F2.1299999999999999
sS'LYS-GLN'
p64
F1.6399999999999999
sS'GLN-VAL'
p65
F2.2210000000000001
sS'TYR-PHE'
p66
F2.0630000000000002
sS'ASP-VAL'
p67
F2.0209999999999999
sS'ASN-GLY'
p68
F1.1160000000000001
sS'ARG-PHE'
p69
F1.9670000000000001
sS'SER-HIS'
p70
F1.3460000000000001
sS'ALA-ILE'
p71
F2.0030000000000001
sS'ASN-GLU'
p72
F1.722
sS'CYS-GLN'
p73
F2.2229999999999999
sS'TYR-PRO'
p74
F1.8120000000000001
sS'LYS-GLU'
p75
F1.5389999999999999
sS'CYS-GLU'
p76
F2.4430000000000001
sS'ASN-GLN'
p77
F1.343
sS'CYS-GLY'
p78
F2.0720000000000001
sS'GLN-SER'
p79
F1.294
sS'HIS-LYS'
p80
F1.7789999999999999
sS'LYS-GLY'
p81
F1.655
sS'VAL-MET'
p82
F2.7970000000000002
sS'GLU-GLY'
p83
F1.395
sS'THR-SER'
p84
F1.5629999999999999
sS'TYR-THR'
p85
F2.012
sS'PRO-PRO'
p86
F-0.52300000000000002
sS'ILE-PHE'
p87
F2.5289999999999999
sS'PHE-LEU'
p88
F2.2679999999999998
sS'GLU-GLU'
p89
F0.248
sS'SER-ARG'
p90
F1.5289999999999999
sS'GLY-ALA'
p91
F1.3700000000000001
sS'TYR-ASN'
p92
F0.92600000000000005
sS'GLU-GLN'
p93
F1.8480000000000001
sS'TRP-ARG'
p94
F2.0219999999999998
sS'LEU-GLU'
p95
F2.2290000000000001
sS'LEU-GLY'
p96
F1.8879999999999999
sS'LYS-SER'
p97
F1.738
sS'MET-VAL'
p98
F2.6320000000000001
sS'SER-ALA'
p99
F1.4410000000000001
sS'PRO-HIS'
p100
F1.204
sS'MET-THR'
p101
F2.0190000000000001
sS'ALA-PHE'
p102
F1.8979999999999999
sS'MET-PRO'
p103
F1.343
sS'GLY-SER'
p104
F1.196
sS'LEU-GLN'
p105
F2.2320000000000002
sS'VAL-LEU'
p106
F2.218
sS'LEU-CYS'
p107
F2.802
sS'LYS-TYR'
p108
F1.9079999999999999
sS'ASP-ALA'
p109
F1.758
sS'ILE-LEU'
p110
F2.4300000000000002
sS'TRP-VAL'
p111
F2.411
sS'PHE-PRO'
p112
F1.5609999999999999
sS'ALA-ALA'
p113
F0.121
sS'ARG-TRP'
p114
F2.2679999999999998
sS'MET-GLN'
p115
F1.857
sS'ILE-LYS'
p116
F2.621
sS'MET-ARG'
p117
F2.1509999999999998
sS'ALA-CYS'
p118
F2.2639999999999998
sS'THR-ARG'
p119
F1.6579999999999999
sS'CYS-ILE'
p120
F2.6389999999999998
sS'LEU-ASN'
p121
F1.9159999999999999
sS'LEU-ASP'
p122
F2.0880000000000001
sS'PHE-TRP'
p123
F3.286
sS'MET-GLY'
p124
F1.9019999999999999
sS'THR-PHE'
p125
F2.278
sS'MET-GLU'
p126
F2.1549999999999998
sS'THR-TRP'
p127
F1.833
sS'THR-TYR'
p128
F1.8959999999999999
sS'CYS-VAL'
p129
F2.6110000000000002
sS'ARG-ALA'
p130
F1.6970000000000001
sS'ALA-TYR'
p131
F1.8320000000000001
sS'ASP-PRO'
p132
F1.2350000000000001
sS'ARG-CYS'
p133
F2.4249999999999998
sS'GLN-ARG'
p134
F1.7
sS'HIS-TRP'
p135
F1.778
sS'PRO-SER'
p136
F1.0780000000000001
sS'VAL-VAL'
p137
F0.42399999999999999
sS'LEU-LYS'
p138
F2.46
sS'GLY-LYS'
p139
F1.573
sS'CYS-ASN'
p140
F2.117
sS'GLY-TRP'
p141
F1.6899999999999999
sS'THR-CYS'
p142
F2.2200000000000002
sS'LYS-LYS'
p143
F1.0509999999999999
sS'CYS-ASP'
p144
F2.3700000000000001
sS'TYR-ASP'
p145
F1.613
sS'VAL-PRO'
p146
F1.742
sS'THR-VAL'
p147
F1.9950000000000001
sS'ASP-TYR'
p148
F1.649
sS'PRO-CYS'
p149
F1.9079999999999999
sS'VAL-SER'
p150
F1.6839999999999999
sS'ARG-HIS'
p151
F1.9850000000000001
sS'CYS-PRO'
p152
F1.677
sS'MET-LYS'
p153
F2.1669999999999998
sS'ALA-SER'
p154
F1.3640000000000001
sS'TYR-SER'
p155
F1.5629999999999999
sS'GLY-ARG'
p156
F1.454
sS'GLN-ALA'
p157
F1.6759999999999999
sS'MET-LEU'
p158
F2.2949999999999999
sS'ASN-HIS'
p159
F1.49
sS'VAL-CYS'
p160
F2.6640000000000001
sS'GLN-TYR'
p161
F2.2480000000000002
sS'GLN-PHE'
p162
F1.925
sS'ILE-ASN'
p163
F1.996
sS'GLU-ASN'
p164
F1.659
sS'CYS-ALA'
p165
F2.0870000000000002
sS'ASN-ASP'
p166
F1.4350000000000001
sS'ASN-PRO'
p167
F1.1060000000000001
sS'PRO-ARG'
p168
F1.4239999999999999
sS'LYS-TRP'
p169
F2.6019999999999999
sS'ASN-ASN'
p170
F-0.51100000000000001
sS'ASN-THR'
p171
F1.2350000000000001
sS'THR-ALA'
p172
F1.6839999999999999
sS'LYS-ALA'
p173
F2.1789999999999998
sS'LYS-PRO'
p174
F1.5229999999999999
sS'SER-GLN'
p175
F1.4059999999999999
sS'ILE-VAL'
p176
F2.7090000000000001
sS'ASP-ARG'
p177
F1.5700000000000001
sS'ASP-MET'
p178
F2.4369999999999998
sS'CYS-TYR'
p179
F2.6589999999999998
sS'PRO-TRP'
p180
F2.0190000000000001
sS'THR-GLU'
p181
F1.53
sS'TRP-ALA'
p182
F1.675
sS'ILE-CYS'
p183
F2.6400000000000001
sS'LYS-ILE'
p184
F2.5680000000000001
sS'GLN-CYS'
p185
F2.21
sS'TYR-ALA'
p186
F2.085
sS'ARG-ASP'
p187
F1.3700000000000001
sS'SER-GLU'
p188
F1.4359999999999999
sS'TRP-HIS'
p189
F1.6120000000000001
sS'ALA-ASN'
p190
F1.571
sS'GLU-CYS'
p191
F2.871
sS'PRO-MET'
p192
F1.6299999999999999
sS'TYR-HIS'
p193
F2.0339999999999998
sS'PHE-MET'
p194
F2.262
sS'GLU-TYR'
p195
F1.944
sS'SER-TRP'
p196
F1.841
sS'PHE-ARG'
p197
F2.1779999999999999
sS'GLY-ILE'
p198
F1.8600000000000001
sS'TYR-VAL'
p199
F2.4340000000000002
sS'ASN-TYR'
p200
F1.397
sS'SER-ILE'
p201
F1.9279999999999999
sS'GLN-PRO'
p202
F1.3700000000000001
sS'PHE-TYR'
p203
F1.8680000000000001
sS'ALA-VAL'
p204
F1.964
sS'HIS-HIS'
p205
F-0.77600000000000002
sS'THR-ASN'
p206
F1.583
sS'CYS-LEU'
p207
F2.8879999999999999
sS'LYS-MET'
p208
F2.2410000000000001
sS'LYS-ASP'
p209
F1.7390000000000001
sS'HIS-ASN'
p210
F1.4370000000000001
sS'ILE-GLN'
p211
F1.825
sS'VAL-HIS'
p212
F2.3820000000000001
sS'ALA-LEU'
p213
F1.764
sS'HIS-ASP'
p214
F1.6220000000000001
sS'ILE-TYR'
p215
F2.1859999999999999
sS'ILE-GLU'
p216
F2.2650000000000001
sS'ASN-TRP'
p217
F1.6240000000000001
sS'ILE-GLY'
p218
F1.9059999999999999
sS'ASN-CYS'
p219
F1.9610000000000001
sS'GLU-SER'
p220
F1.3100000000000001
sS'ALA-TRP'
p221
F1.8680000000000001
sS'HIS-CYS'
p222
F2.577
sS'HIS-MET'
p223
F1.7030000000000001
sS'ILE-PRO'
p224
F1.631
sS'LYS-PHE'
p225
F2.1299999999999999
sS'TRP-PRO'
p226
F1.9530000000000001
sS'GLU-TRP'
p227
F2.734
sS'PHE-HIS'
p228
F2.1269999999999998
sS'GLY-TYR'
p229
F1.627
sS'SER-GLY'
p230
F1.1970000000000001
sS'CYS-TRP'
p231
F3.5219999999999998
sS'ASP-LYS'
p232
F1.954
sS'ASN-ILE'
p233
F1.9910000000000001
sS'HIS-SER'
p234
F1.4650000000000001
sS'LYS-CYS'
p235
F2.0640000000000001
sS'GLY-PHE'
p236
F1.7549999999999999
sS'GLY-LEU'
p237
F1.6930000000000001
sS'MET-SER'
p238
F1.9159999999999999
sS'VAL-ALA'
p239
F1.893
sS'SER-LEU'
p240
F1.9039999999999999
sS'TRP-LYS'
p241
F2.7690000000000001
sS'VAL-TYR'
p242
F2.4089999999999998
sS'VAL-PHE'
p243
F2.4239999999999999
sS'ARG-THR'
p244
F1.8420000000000001
sS'TYR-TRP'
p245
F1.619
sS'GLN-GLN'
p246
F-0.036999999999999998
sS'GLU-PHE'
p247
F2.4009999999999998
sS'VAL-ILE'
p248
F2.6579999999999999
sS'HIS-GLN'
p249
F2.1269999999999998
sS'GLN-GLY'
p250
F1.2649999999999999
sS'PHE-ALA'
p251
F1.9550000000000001
sS'HIS-GLU'
p252
F1.651
sS'ARG-PRO'
p253
F1.133
sS'HIS-GLY'
p254
F1.4299999999999999
sS'SER-ASN'
p255
F1.4059999999999999
sS'ALA-THR'
p256
F1.7769999999999999
sS'GLN-GLU'
p257
F1.696
sS'GLN-LYS'
p258
F1.8999999999999999
sS'CYS-HIS'
p259
F2.673
sS'GLN-ASP'
p260
F1.5800000000000001
sS'LEU-HIS'
p261
F2.5590000000000002
sS'SER-LYS'
p262
F1.9490000000000001
sS'TRP-LEU'
p263
F2.5550000000000002
sS'CYS-SER'
p264
F2.1859999999999999
sS'LYS-THR'
p265
F2.0800000000000001
sS'HIS-LEU'
p266
F2.3620000000000001
sS'LEU-ARG'
p267
F2.181
sS'GLY-VAL'
p268
F1.4670000000000001
sS'GLN-ASN'
p269
F1.532
sS'TYR-ARG'
p270
F1.821
sS'PRO-TYR'
p271
F1.548
sS'ASP-PHE'
p272
F2.1709999999999998
sS'TRP-CYS'
p273
F3.3919999999999999
sS'ASN-LEU'
p274
F1.7629999999999999
sS'SER-MET'
p275
F2.105
sS'HIS-ILE'
p276
F2.5
sS'SER-TYR'
p277
F1.409
sS'MET-TYR'
p278
F2.4860000000000002
sS'GLU-ILE'
p279
F2.3090000000000002
sS'PHE-CYS'
p280
F2.0499999999999998
sS'PRO-LEU'
p281
F1.774
sS'GLY-MET'
p282
F1.9370000000000001
sS'ARG-ILE'
p283
F2.1059999999999999
sS'HIS-THR'
p284
F1.829
sS'THR-GLN'
p285
F1.5740000000000001
sS'TRP-THR'
p286
F1.911
sS'LYS-LEU'
p287
F2.512
sS'THR-GLY'
p288
F1.1220000000000001
sS'ASP-TRP'
p289
F2.6499999999999999
sS'TYR-MET'
p290
F2.5139999999999998
sS'PHE-ILE'
p291
F2.5390000000000001
sS'PRO-VAL'
p292
F1.9179999999999999
sS'MET-ASN'
p293
F1.669
sS'LEU-TYR'
p294
F2.1800000000000002
sS'PHE-PHE'
p295
F0.111
sS'CYS-PHE'
p296
F2.4660000000000002
sS'TRP-ILE'
p297
F2.5659999999999998
sS'PRO-ASN'
p298
F1.2729999999999999
sS'CYS-CYS'
p299
F-1.7829999999999999
sS'SER-ASP'
p300
F1.53
sS'ARG-MET'
p301
F2.0579999999999998
sS'SER-PHE'
p302
F1.75
sS'SER-SER'
p303
F-0.111
sS'ASN-LYS'
p304
F1.718
sS'CYS-THR'
p305
F2.4289999999999998
sS'ILE-TRP'
p306
F2.4700000000000002
sS'PRO-ASP'
p307
F1.159
sS'THR-ASP'
p308
F1.29
sS'SER-CYS'
p309
F2.1560000000000001
sS'MET-ASP'
p310
F2.0299999999999998
sS'GLN-MET'
p311
F2.1899999999999999
sS'MET-TRP'
p312
F3.6560000000000001
sS'ARG-VAL'
p313
F2.1360000000000001
sS'GLY-GLN'
p314
F1.4399999999999999
sS'THR-LYS'
p315
F2.218
sS'TRP-MET'
p316
F3.6320000000000001
sS'ARG-ARG'
p317
F-0.39500000000000002
sS'ILE-ASP'
p318
F2.1309999999999998
sS'GLY-GLY'
p319
F-0.14999999999999999
sS'GLY-GLU'
p320
F1.4350000000000001
sS'ALA-ARG'
p321
F1.6140000000000001
sS'GLU-ARG'
p322
F1.9359999999999999
sS'HIS-VAL'
p323
F2.4470000000000001
sS'VAL-ARG'
p324
F2.1139999999999999
sS'ASN-SER'
p325
F1.222
sS'ALA-LYS'
p326
F2.0859999999999999
sS'VAL-GLN'
p327
F2.2440000000000002
sS'TRP-ASN'
p328
F1.444
sS'TYR-ILE'
p329
F2.2360000000000002
sS'TRP-GLY'
p330
F1.581
sS'PRO-PHE'
p331
F1.635
sS'GLY-HIS'
p332
F1.4730000000000001
sS'PHE-SER'
p333
F1.776
sS'TRP-ASP'
p334
F2.5609999999999999
sS'TRP-GLN'
p335
F1.591
sS'LEU-ALA'
p336
F1.8959999999999999
sS'VAL-GLU'
p337
F2.1779999999999999
sS'ALA-HIS'
p338
F1.637
sS'ARG-ASN'
p339
F1.47
sS'LEU-THR'
p340
F1.9430000000000001
sS'TYR-CYS'
p341
F2.7029999999999998
sS'THR-THR'
p342
F0.20399999999999999
sS'THR-LEU'
p343
F2.0489999999999999
sS'VAL-ASN'
p344
F1.996
sS'LEU-TRP'
p345
F2.5169999999999999
sS'GLU-ASP'
p346
F1.637
sS'ILE-SER'
p347
F1.921
sS'ILE-ARG'
p348
F2.3799999999999999
sS'TRP-GLU'
p349
F2.173
sS'ILE-MET'
p350
F2.472
sS'MET-PHE'
p351
F1.863
sS'PRO-ALA'
p352
F1.083
sS'PRO-GLY'
p353
F1.258
sS'GLN-THR'
p354
F1.913
sS'MET-ALA'
p355
F2.2349999999999999
sS'TRP-SER'
p356
F1.923
sS'ASP-HIS'
p357
F1.617
sS'ARG-SER'
p358
F1.4570000000000001
sS'GLN-HIS'
p359
F1.853
sS'HIS-PHE'
p360
F2.1139999999999999
sS'LEU-LEU'
p361
F0.81399999999999995
sS'ALA-GLN'
p362
F1.651
sS'ASP-ASN'
p363
F1.681
sS'SER-VAL'
p364
F1.798
sS'MET-ILE'
p365
F2.528
sS'ALA-PRO'
p366
F1.331
sS'ASP-ASP'
p367
F0.33700000000000002
sS'ALA-GLY'
p368
F1.534
sS'TRP-TRP'
p369
F0.016
sS'MET-CYS'
p370
F3.8370000000000002
sS'ALA-GLU'
p371
F1.661
sS'THR-PRO'
p372
F1.0389999999999999
sS'HIS-ALA'
p373
F1.611
sS'GLN-ILE'
p374
F2.1200000000000001
sS'GLU-VAL'
p375
F1.8600000000000001
sS'LYS-ASN'
p376
F1.748
sS'ASN-ALA'
p377
F1.506
sS'THR-ILE'
p378
F2.1539999999999999
sS'ASP-CYS'
p379
F2.109
sS'PRO-LYS'
p380
F1.4850000000000001
sS'TYR-TYR'
p381
F-0.57399999999999995
sS'ARG-LYS'
p382
F2.1680000000000001
sS'ILE-ALA'
p383
F2.109
sS'ASP-SER'
p384
F1.4470000000000001
sS'CYS-LYS'
p385
F2.452
sS'GLU-ALA'
p386
F1.585
sS'PHE-GLU'
p387
F2.556
sS'GLU-LEU'
p388
F2.1680000000000001
sS'PHE-GLY'
p389
F1.661
sS'LYS-HIS'
p390
F2.3029999999999999
sS'HIS-PRO'
p391
F1.232
sS'ILE-ILE'
p392
F0.65000000000000002
sS'MET-HIS'
p393
F1.893
sS'VAL-GLY'
p394
F1.7170000000000001
sS'THR-MET'
p395
F2.1360000000000001
sS'PHE-THR'
p396
F2.3290000000000002
sS'VAL-TRP'
p397
F2.8769999999999998
sS'PHE-LYS'
p398
F2.028
sS'GLY-PRO'
p399
F1.089
sS'PHE-GLN'
p400
F2.0569999999999999
sS'LEU-PHE'
p401
F2.2570000000000001
s.