(dp1
S'MET-MET'
p2
F-1.119
sS'PRO-ILE'
p3
F0.28100000000000003
sS'TYR-LYS'
p4
F0.23300000000000001
sS'VAL-ASP'
p5
F0.379
sS'ASP-GLN'
p6
F0.098000000000000004
sS'HIS-TYR'
p7
F-0.11700000000000001
sS'ASP-GLU'
p8
F0.40799999999999997
sS'ALA-ASP'
p9
F0.13700000000000001
sS'ASP-GLY'
p10
F-0.16200000000000001
sS'LEU-VAL'
p11
F0.73099999999999998
sS'TRP-TYR'
p12
F-0.021999999999999999
sS'GLN-TRP'
p13
F0.47499999999999998
sS'TRP-PHE'
p14
F1.2470000000000001
sS'ARG-TYR'
p15
F-0.21199999999999999
sS'GLU-LYS'
p16
F0.29899999999999999
sS'ILE-HIS'
p17
F0.68100000000000005
sS'LEU-MET'
p18
F1.014
sS'GLU-HIS'
p19
F-0.044999999999999998
sS'GLY-THR'
p20
F-0.371
sS'ARG-GLU'
p21
F0.028000000000000001
sS'PHE-ASN'
p22
F0.216
sS'ASN-MET'
p23
F0.49399999999999999
sS'PRO-THR'
p24
F-0.46999999999999997
sS'TYR-GLN'
p25
F0.74199999999999999
sS'ARG-GLY'
p26
F-0.40600000000000003
sS'VAL-THR'
p27
F-0.078
sS'ASP-ILE'
p28
F0.35399999999999998
sS'THR-HIS'
p29
F0.68400000000000005
sS'TYR-GLU'
p30
F0.47999999999999998
sS'ARG-GLN'
p31
F0.010999999999999999
sS'TYR-GLY'
p32
F-0.076999999999999999
sS'PHE-ASP'
p33
F0.49399999999999999
sS'CYS-ARG'
p34
F0.92900000000000005
sS'GLY-ASN'
p35
F-0.64200000000000002
sS'VAL-LYS'
p36
F0.56499999999999995
sS'LEU-ILE'
p37
F0.77200000000000002
sS'GLN-LEU'
p38
F0.65500000000000003
sS'GLU-MET'
p39
F0.72799999999999998
sS'ASP-THR'
p40
F-0.16400000000000001
sS'ASN-PHE'
p41
F0.27600000000000002
sS'GLU-PRO'
p42
F-0.070000000000000007
sS'TYR-LEU'
p43
F0.51100000000000001
sS'LYS-ARG'
p44
F0.58399999999999996
sS'GLY-ASP'
p45
F-0.28899999999999998
sS'PRO-GLN'
p46
F-0.19500000000000001
sS'CYS-MET'
p47
F2.508
sS'HIS-ARG'
p48
F0.45600000000000002
sS'GLU-THR'
p49
F0.10100000000000001
sS'ILE-THR'
p50
F0.35499999999999998
sS'SER-PRO'
p51
F-0.61499999999999999
sS'GLY-CYS'
p52
F-0.14999999999999999
sS'ARG-LEU'
p53
F0.44400000000000001
sS'PRO-GLU'
p54
F-0.17699999999999999
sS'ASP-LEU'
p55
F0.41199999999999998
sS'PHE-VAL'
p56
F0.51300000000000001
sS'ASN-VAL'
p57
F0.33700000000000002
sS'ALA-MET'
p58
F0.82199999999999995
sS'LEU-PRO'
p59
F-0.083000000000000004
sS'LEU-SER'
p60
F0.21099999999999999
sS'ASN-ARG'
p61
F0.034000000000000002
sS'SER-THR'
p62
F-0.17100000000000001
sS'LYS-VAL'
p63
F0.46800000000000003
sS'LYS-GLN'
p64
F0.025999999999999999
sS'GLN-VAL'
p65
F0.60499999999999998
sS'TYR-PHE'
p66
F0.33600000000000002
sS'ASP-VAL'
p67
F0.496
sS'ASN-GLY'
p68
F-0.48299999999999998
sS'ARG-PHE'
p69
F0.28100000000000003
sS'SER-HIS'
p70
F-0.25800000000000001
sS'ALA-ILE'
p71
F0.375
sS'ASN-GLU'
p72
F0.14899999999999999
sS'CYS-GLN'
p73
F0.46800000000000003
sS'TYR-PRO'
p74
F0.20899999999999999
sS'LYS-GLU'
p75
F0.0050000000000000001
sS'CYS-GLU'
p76
F1.0349999999999999
sS'ASN-GLN'
p77
F-0.20200000000000001
sS'CYS-GLY'
p78
F0.29399999999999998
sS'GLN-SER'
p79
F-0.373
sS'HIS-LYS'
p80
F0.46600000000000003
sS'LYS-GLY'
p81
F-0.044999999999999998
sS'VAL-MET'
p82
F0.84199999999999997
sS'GLU-GLY'
p83
F-0.11899999999999999
sS'THR-SER'
p84
F-0.025000000000000001
sS'TYR-THR'
p85
F0.40699999999999997
sS'PRO-PRO'
p86
F-1.385
sS'ILE-PHE'
p87
F0.84599999999999997
sS'PHE-LEU'
p88
F0.55500000000000005
sS'GLU-GLU'
p89
F-0.60399999999999998
sS'SER-ARG'
p90
F-0.027
sS'GLY-ALA'
p91
F-0.27800000000000002
sS'TYR-ASN'
p92
F-0.54100000000000004
sS'GLU-GLN'
p93
F0.28499999999999998
sS'TRP-ARG'
p94
F0.35699999999999998
sS'LEU-GLU'
p95
F0.60799999999999998
sS'LEU-GLY'
p96
F0.25600000000000001
sS'LYS-SER'
p97
F0.216
sS'MET-VAL'
p98
F0.95299999999999996
sS'SER-ALA'
p99
F-0.19700000000000001
sS'PRO-HIS'
p100
F-0.34499999999999997
sS'MET-THR'
p101
F0.221
sS'ALA-PHE'
p102
F0.218
sS'MET-PRO'
p103
F0.036999999999999998
sS'GLY-SER'
p104
F-0.48999999999999999
sS'LEU-GLN'
p105
F0.66600000000000004
sS'VAL-LEU'
p106
F0.65000000000000002
sS'LEU-CYS'
p107
F1.1930000000000001
sS'LYS-TYR'
p108
F0.34599999999999997
sS'ASP-ALA'
p109
F0.20999999999999999
sS'ILE-LEU'
p110
F0.79300000000000004
sS'TRP-VAL'
p111
F0.62
sS'PHE-PRO'
p112
F0.02
sS'ALA-ALA'
p113
F-0.67800000000000005
sS'ARG-TRP'
p114
F0.50900000000000001
sS'MET-GLN'
p115
F0.26400000000000001
sS'ILE-LYS'
p116
F0.96399999999999997
sS'MET-ARG'
p117
F0.40799999999999997
sS'ALA-CYS'
p118
F0.51200000000000001
sS'THR-ARG'
p119
F0.089999999999999997
sS'CYS-ILE'
p120
F1.034
sS'LEU-ASN'
p121
F0.26800000000000002
sS'LEU-ASP'
p122
F0.54800000000000004
sS'PHE-TRP'
p123
F1.3120000000000001
sS'MET-GLY'
p124
F0.27300000000000002
sS'THR-PHE'
p125
F0.47499999999999998
sS'MET-GLU'
p126
F0.63600000000000001
sS'THR-TRP'
p127
F0.30399999999999999
sS'THR-TYR'
p128
F0.34499999999999997
sS'CYS-VAL'
p129
F0.75600000000000001
sS'ARG-ALA'
p130
F0.095000000000000001
sS'ALA-TYR'
p131
F0.216
sS'ASP-PRO'
p132
F-0.19400000000000001
sS'ARG-CYS'
p133
F0.68700000000000006
sS'GLN-ARG'
p134
F0.158
sS'HIS-TRP'
p135
F0.64700000000000002
sS'PRO-SER'
p136
F-0.41899999999999998
sS'VAL-VAL'
p137
F-0.497
sS'LEU-LYS'
p138
F0.83399999999999996
sS'GLY-LYS'
p139
F-0.14599999999999999
sS'CYS-ASN'
p140
F0.44
sS'GLY-TRP'
p141
F-0.021000000000000001
sS'THR-CYS'
p142
F0.65800000000000003
sS'LYS-LYS'
p143
F0.14499999999999999
sS'CYS-ASP'
p144
F0.65200000000000002
sS'TYR-ASP'
p145
F0.0070000000000000001
sS'VAL-PRO'
p146
F0.129
sS'THR-VAL'
p147
F0.25700000000000001
sS'ASP-TYR'
p148
F0.062
sS'PRO-CYS'
p149
F0.28299999999999997
sS'VAL-SER'
p150
F0.10000000000000001
sS'ARG-HIS'
p151
F0.29899999999999999
sS'CYS-PRO'
p152
F0.248
sS'MET-LYS'
p153
F0.60999999999999999
sS'ALA-SER'
p154
F-0.23400000000000001
sS'TYR-SER'
p155
F-0.058000000000000003
sS'GLY-ARG'
p156
F-0.254
sS'GLN-ALA'
p157
F0.084000000000000005
sS'MET-LEU'
p158
F0.66000000000000003
sS'ASN-HIS'
p159
F-0.019
sS'VAL-CYS'
p160
F0.85099999999999998
sS'GLN-TYR'
p161
F0.53600000000000003
sS'GLN-PHE'
p162
F0.35999999999999999
sS'ILE-ASN'
p163
F0.33800000000000002
sS'GLU-ASN'
p164
F0.083000000000000004
sS'CYS-ALA'
p165
F0.47499999999999998
sS'ASN-ASP'
p166
F-0.027
sS'ASN-PRO'
p167
F-0.44
sS'PRO-ARG'
p168
F-0.066000000000000003
sS'LYS-TRP'
p169
F1.0669999999999999
sS'ASN-ASN'
p170
F-1.2070000000000001
sS'ASN-THR'
p171
F-0.29299999999999998
sS'THR-ALA'
p172
F0.113
sS'LYS-ALA'
p173
F0.54500000000000004
sS'LYS-PRO'
p174
F-0.063
sS'SER-GLN'
p175
F-0.16700000000000001
sS'ILE-VAL'
p176
F0.89400000000000002
sS'ASP-ARG'
p177
F0.050999999999999997
sS'ASP-MET'
p178
F0.82799999999999996
sS'CYS-TYR'
p179
F1.0780000000000001
sS'PRO-TRP'
p180
F0.39900000000000002
sS'THR-GLU'
p181
F0.0080000000000000002
sS'TRP-ALA'
p182
F-0.092999999999999999
sS'ILE-CYS'
p183
F1.0069999999999999
sS'LYS-ILE'
p184
F0.83599999999999997
sS'GLN-CYS'
p185
F0.51300000000000001
sS'TYR-ALA'
p186
F0.42099999999999999
sS'ARG-ASP'
p187
F-0.161
sS'SER-GLU'
p188
F-0.17100000000000001
sS'TRP-HIS'
p189
F0.30299999999999999
sS'ALA-ASN'
p190
F-0.019
sS'GLU-CYS'
p191
F1.0680000000000001
sS'PRO-MET'
p192
F0.22800000000000001
sS'TYR-HIS'
p193
F0.29499999999999998
sS'PHE-MET'
p194
F0.77100000000000002
sS'GLU-TYR'
p195
F0.25600000000000001
sS'SER-TRP'
p196
F-0.0089999999999999993
sS'PHE-ARG'
p197
F0.55200000000000005
sS'GLY-ILE'
p198
F0.14999999999999999
sS'TYR-VAL'
p199
F0.73799999999999999
sS'ASN-TYR'
p200
F-0.22800000000000001
sS'SER-ILE'
p201
F0.219
sS'GLN-PRO'
p202
F-0.32800000000000001
sS'PHE-TYR'
p203
F0.069000000000000006
sS'ALA-VAL'
p204
F0.371
sS'HIS-HIS'
p205
F-1.762
sS'THR-ASN'
p206
F-0.0050000000000000001
sS'CYS-LEU'
p207
F1.228
sS'LYS-MET'
p208
F0.57299999999999995
sS'LYS-ASP'
p209
F0.109
sS'HIS-ASN'
p210
F-0.033000000000000002
sS'ILE-GLN'
p211
F0.218
sS'VAL-HIS'
p212
F0.69999999999999996
sS'ALA-LEU'
p213
F0.20499999999999999
sS'HIS-ASP'
p214
F-0.016
sS'ILE-TYR'
p215
F0.51900000000000002
sS'ILE-GLU'
p216
F0.66500000000000004
sS'ASN-TRP'
p217
F0.159
sS'ILE-GLY'
p218
F0.245
sS'ASN-CYS'
p219
F0.42499999999999999
sS'GLU-SER'
p220
F-0.26600000000000001
sS'ALA-TRP'
p221
F0.20899999999999999
sS'HIS-CYS'
p222
F0.94899999999999995
sS'HIS-MET'
p223
F0.105
sS'ILE-PRO'
p224
F0.129
sS'LYS-PHE'
p225
F0.47899999999999998
sS'TRP-PRO'
p226
F0.29099999999999998
sS'GLU-TRP'
p227
F1.1040000000000001
sS'PHE-HIS'
p228
F0.42099999999999999
sS'GLY-TYR'
p229
F-0.108
sS'SER-GLY'
p230
F-0.46700000000000003
sS'CYS-TRP'
p231
F1.3959999999999999
sS'ASP-LYS'
p232
F0.42499999999999999
sS'ASN-ILE'
p233
F0.36599999999999999
sS'HIS-SER'
p234
F-0.16700000000000001
sS'LYS-CYS'
p235
F0.51500000000000001
sS'GLY-PHE'
p236
F0.14000000000000001
sS'GLY-LEU'
p237
F0.074999999999999997
sS'MET-SER'
p238
F0.33600000000000002
sS'VAL-ALA'
p239
F0.34999999999999998
sS'SER-LEU'
p240
F0.34300000000000003
sS'TRP-LYS'
p241
F1.0900000000000001
sS'VAL-TYR'
p242
F0.64400000000000002
sS'VAL-PHE'
p243
F0.627
sS'ARG-THR'
p244
F0.33700000000000002
sS'TYR-TRP'
p245
F-0.155
sS'GLN-GLN'
p246
F-0.93999999999999995
sS'GLU-PHE'
p247
F0.76500000000000001
sS'VAL-ILE'
p248
F0.879
sS'HIS-GLN'
p249
F0.42099999999999999
sS'GLN-GLY'
p250
F-0.41799999999999998
sS'PHE-ALA'
p251
F0.30299999999999999
sS'HIS-GLU'
p252
F0.182
sS'ARG-PRO'
p253
F-0.28499999999999998
sS'HIS-GLY'
p254
F-0.24099999999999999
sS'SER-ASN'
p255
F-0.26500000000000001
sS'ALA-THR'
p256
F0.19600000000000001
sS'GLN-GLU'
p257
F0.14799999999999999
sS'GLN-LYS'
p258
F0.14999999999999999
sS'CYS-HIS'
p259
F0.91700000000000004
sS'GLN-ASP'
p260
F0.053999999999999999
sS'LEU-HIS'
p261
F0.80100000000000005
sS'SER-LYS'
p262
F0.26600000000000001
sS'TRP-LEU'
p263
F0.80900000000000005
sS'CYS-SER'
p264
F0.499
sS'LYS-THR'
p265
F0.45800000000000002
sS'HIS-LEU'
p266
F0.66400000000000003
sS'LEU-ARG'
p267
F0.63100000000000001
sS'GLY-VAL'
p268
F-0.20100000000000001
sS'GLN-ASN'
p269
F-0.014
sS'TYR-ARG'
p270
F0.040000000000000001
sS'PRO-TYR'
p271
F0.0070000000000000001
sS'ASP-PHE'
p272
F0.51700000000000002
sS'TRP-CYS'
p273
F1.353
sS'ASN-LEU'
p274
F0.20200000000000001
sS'SER-MET'
p275
F0.378
sS'HIS-ILE'
p276
F0.69299999999999995
sS'SER-TYR'
p277
F-0.24199999999999999
sS'MET-TYR'
p278
F0.76600000000000001
sS'GLU-ILE'
p279
F0.66200000000000003
sS'PHE-CYS'
p280
F0.25700000000000001
sS'PRO-LEU'
p281
F0.155
sS'GLY-MET'
p282
F0.315
sS'ARG-ILE'
p283
F0.51500000000000001
sS'HIS-THR'
p284
F0.216
sS'THR-GLN'
p285
F-0.034000000000000002
sS'TRP-THR'
p286
F0.28899999999999998
sS'LYS-LEU'
p287
F0.91600000000000004
sS'THR-GLY'
p288
F-0.39700000000000002
sS'ASP-TRP'
p289
F1.3560000000000001
sS'TYR-MET'
p290
F0.89300000000000002
sS'PHE-ILE'
p291
F0.89300000000000002
sS'PRO-VAL'
p292
F0.28499999999999998
sS'MET-ASN'
p293
F0.253
sS'LEU-TYR'
p294
F0.56999999999999995
sS'PHE-PHE'
p295
F-0.85099999999999998
sS'CYS-PHE'
p296
F0.59399999999999997
sS'TRP-ILE'
p297
F0.91900000000000004
sS'PRO-ASN'
p298
F-0.27000000000000002
sS'CYS-CYS'
p299
F-2.7400000000000002
sS'SER-ASP'
p300
F-0.088999999999999996
sS'ARG-MET'
p301
F0.40000000000000002
sS'SER-PHE'
p302
F0.074999999999999997
sS'SER-SER'
p303
F-1.0309999999999999
sS'ASN-LYS'
p304
F0.157
sS'CYS-THR'
p305
F0.77700000000000002
sS'ILE-TRP'
p306
F0.80500000000000005
sS'PRO-ASP'
p307
F-0.33100000000000002
sS'THR-ASP'
p308
F-0.17699999999999999
sS'SER-CYS'
p309
F0.53500000000000003
sS'MET-ASP'
p310
F0.56299999999999994
sS'GLN-MET'
p311
F0.55000000000000004
sS'MET-TRP'
p312
F1.6719999999999999
sS'ARG-VAL'
p313
F0.53900000000000003
sS'GLY-GLN'
p314
F-0.251
sS'THR-LYS'
p315
F0.626
sS'TRP-MET'
p316
F1.7370000000000001
sS'ARG-ARG'
p317
F-1.113
sS'ILE-ASP'
p318
F0.435
sS'GLY-GLY'
p319
F-1.0920000000000001
sS'GLY-GLU'
p320
F-0.096000000000000002
sS'ALA-ARG'
p321
F0.087999999999999995
sS'GLU-ARG'
p322
F0.30499999999999999
sS'HIS-VAL'
p323
F0.70899999999999996
sS'VAL-ARG'
p324
F0.46300000000000002
sS'ASN-SER'
p325
F-0.47399999999999998
sS'ALA-LYS'
p326
F0.44600000000000001
sS'VAL-GLN'
p327
F0.63200000000000001
sS'TRP-ASN'
p328
F-0.23599999999999999
sS'TYR-ILE'
p329
F0.60199999999999998
sS'TRP-GLY'
p330
F-0.28000000000000003
sS'PRO-PHE'
p331
F0.060999999999999999
sS'GLY-HIS'
p332
F-0.14299999999999999
sS'PHE-SER'
p333
F0.021000000000000001
sS'TRP-ASP'
p334
F1.0940000000000001
sS'TRP-GLN'
p335
F0.014999999999999999
sS'LEU-ALA'
p336
F0.249
sS'VAL-GLU'
p337
F0.48299999999999998
sS'ALA-HIS'
p338
F-0.094
sS'ARG-ASN'
p339
F-0.088999999999999996
sS'LEU-THR'
p340
F0.35599999999999998
sS'TYR-CYS'
p341
F1.0940000000000001
sS'THR-THR'
p342
F-0.64600000000000002
sS'THR-LEU'
p343
F0.38900000000000001
sS'VAL-ASN'
p344
F0.35299999999999998
sS'LEU-TRP'
p345
F0.76700000000000002
sS'GLU-ASP'
p346
F0.16300000000000001
sS'ILE-SER'
p347
F0.28599999999999998
sS'ILE-ARG'
p348
F0.69799999999999995
sS'TRP-GLU'
p349
F0.59499999999999997
sS'ILE-MET'
p350
F0.71499999999999997
sS'MET-PHE'
p351
F0.30499999999999999
sS'PRO-ALA'
p352
F-0.44400000000000001
sS'PRO-GLY'
p353
F-0.47599999999999998
sS'GLN-THR'
p354
F0.252
sS'MET-ALA'
p355
F0.55000000000000004
sS'TRP-SER'
p356
F0.111
sS'ASP-HIS'
p357
F0.18099999999999999
sS'ARG-SER'
p358
F0.0030000000000000001
sS'GLN-HIS'
p359
F0.155
sS'HIS-PHE'
p360
F0.40899999999999997
sS'LEU-LEU'
p361
F0.014
sS'ALA-GLN'
p362
F0.127
sS'ASP-ASN'
p363
F0.014999999999999999
sS'SER-VAL'
p364
F0.126
sS'MET-ILE'
p365
F0.872
sS'ALA-PRO'
p366
F-0.248
sS'ASP-ASP'
p367
F-0.433
sS'ALA-GLY'
p368
F-0.124
sS'TRP-TRP'
p369
F-1.046
sS'MET-CYS'
p370
F2.0630000000000002
sS'ALA-GLU'
p371
F0.097000000000000003
sS'THR-PRO'
p372
F-0.48999999999999999
sS'HIS-ALA'
p373
F0.080000000000000002
sS'GLN-ILE'
p374
F0.38
sS'GLU-VAL'
p375
F0.17999999999999999
sS'LYS-ASN'
p376
F0.191
sS'ASN-ALA'
p377
F0.0070000000000000001
sS'THR-ILE'
p378
F0.47099999999999997
sS'ASP-CYS'
p379
F0.58099999999999996
sS'PRO-LYS'
p380
F-0.087999999999999995
sS'TYR-TYR'
p381
F-1.3640000000000001
sS'ARG-LYS'
p382
F0.61099999999999999
sS'ILE-ALA'
p383
F0.441
sS'ASP-SER'
p384
F-0.152
sS'CYS-LYS'
p385
F0.89400000000000002
sS'GLU-ALA'
p386
F0.036999999999999998
sS'PHE-GLU'
p387
F0.86699999999999999
sS'GLU-LEU'
p388
F0.58899999999999997
sS'PHE-GLY'
p389
F0.035999999999999997
sS'LYS-HIS'
p390
F0.70399999999999996
sS'HIS-PRO'
p391
F-0.29599999999999999
sS'ILE-ILE'
p392
F-0.28000000000000003
sS'MET-HIS'
p393
F0.47699999999999998
sS'VAL-GLY'
p394
F0.044999999999999998
sS'THR-MET'
p395
F0.37
sS'PHE-THR'
p396
F0.57799999999999996
sS'VAL-TRP'
p397
F1.1879999999999999
sS'PHE-LYS'
p398
F0.39600000000000002
sS'GLY-PRO'
p399
F-0.58199999999999996
sS'PHE-GLN'
p400
F0.45900000000000002
sS'LEU-PHE'
p401
F0.64600000000000002
s.