(dp1
S'MET-MET'
p2
F0.035999999999999997
sS'PRO-ILE'
p3
F1.9970000000000001
sS'TYR-LYS'
p4
F1.9810000000000001
sS'VAL-ASP'
p5
F2.1080000000000001
sS'ASP-GLN'
p6
F1.8129999999999999
sS'HIS-TYR'
p7
F1.665
sS'ASP-GLU'
p8
F2.0419999999999998
sS'ALA-ASP'
p9
F1.9319999999999999
sS'ASP-GLY'
p10
F1.669
sS'LEU-VAL'
p11
F2.4870000000000001
sS'TRP-TYR'
p12
F1.903
sS'GLN-TRP'
p13
F2.1440000000000001
sS'TRP-PHE'
p14
F3.1520000000000001
sS'ARG-TYR'
p15
F1.552
sS'GLU-LYS'
p16
F2.0569999999999999
sS'ILE-HIS'
p17
F2.5299999999999998
sS'LEU-MET'
p18
F2.8650000000000002
sS'GLU-HIS'
p19
F1.673
sS'GLY-THR'
p20
F1.4610000000000001
sS'ARG-GLU'
p21
F1.8480000000000001
sS'PHE-ASN'
p22
F1.9510000000000001
sS'ASN-MET'
p23
F2.1219999999999999
sS'PRO-THR'
p24
F1.2609999999999999
sS'TYR-GLN'
p25
F2.5049999999999999
sS'ARG-GLY'
p26
F1.444
sS'VAL-THR'
p27
F1.7609999999999999
sS'ASP-ILE'
p28
F2.1320000000000001
sS'THR-HIS'
p29
F2.54
sS'TYR-GLU'
p30
F2.2719999999999998
sS'ARG-GLN'
p31
F1.7669999999999999
sS'TYR-GLY'
p32
F1.758
sS'PHE-ASP'
p33
F2.2879999999999998
sS'CYS-ARG'
p34
F2.7810000000000001
sS'GLY-ASN'
p35
F1.1879999999999999
sS'VAL-LYS'
p36
F2.3599999999999999
sS'LEU-ILE'
p37
F2.5859999999999999
sS'GLN-LEU'
p38
F2.4580000000000002
sS'GLU-MET'
p39
F2.4380000000000002
sS'ASP-THR'
p40
F1.587
sS'ASN-PHE'
p41
F2.036
sS'GLU-PRO'
p42
F1.669
sS'TYR-LEU'
p43
F2.347
sS'LYS-ARG'
p44
F2.3969999999999998
sS'GLY-ASP'
p45
F1.5369999999999999
sS'PRO-GLN'
p46
F1.5629999999999999
sS'CYS-MET'
p47
F4.2939999999999996
sS'HIS-ARG'
p48
F2.2810000000000001
sS'GLU-THR'
p49
F1.875
sS'ILE-THR'
p50
F2.1819999999999999
sS'SER-PRO'
p51
F1.151
sS'GLY-CYS'
p52
F1.7789999999999999
sS'ARG-LEU'
p53
F2.1680000000000001
sS'PRO-GLU'
p54
F1.5389999999999999
sS'ASP-LEU'
p55
F2.1360000000000001
sS'PHE-VAL'
p56
F2.3599999999999999
sS'ASN-VAL'
p57
F2.1320000000000001
sS'ALA-MET'
p58
F2.585
sS'LEU-PRO'
p59
F1.671
sS'LEU-SER'
p60
F2.0249999999999999
sS'ASN-ARG'
p61
F1.776
sS'SER-THR'
p62
F1.651
sS'LYS-VAL'
p63
F2.2919999999999998
sS'LYS-GLN'
p64
F1.794
sS'GLN-VAL'
p65
F2.367
sS'TYR-PHE'
p66
F2.1739999999999999
sS'ASP-VAL'
p67
F2.2490000000000001
sS'ASN-GLY'
p68
F1.337
sS'ARG-PHE'
p69
F2.1139999999999999
sS'SER-HIS'
p70
F1.532
sS'ALA-ILE'
p71
F2.1720000000000002
sS'ASN-GLU'
p72
F1.891
sS'CYS-GLN'
p73
F2.181
sS'TYR-PRO'
p74
F1.9590000000000001
sS'LYS-GLU'
p75
F1.7470000000000001
sS'CYS-GLU'
p76
F2.7829999999999999
sS'ASN-GLN'
p77
F1.5580000000000001
sS'CYS-GLY'
p78
F2.1920000000000002
sS'GLN-SER'
p79
F1.4319999999999999
sS'HIS-LYS'
p80
F2.1179999999999999
sS'LYS-GLY'
p81
F1.8089999999999999
sS'VAL-MET'
p82
F2.6789999999999998
sS'GLU-GLY'
p83
F1.6719999999999999
sS'THR-SER'
p84
F1.7789999999999999
sS'TYR-THR'
p85
F2.194
sS'PRO-PRO'
p86
F-0.30099999999999999
sS'ILE-PHE'
p87
F2.6709999999999998
sS'PHE-LEU'
p88
F2.343
sS'GLU-GLU'
p89
F0.50600000000000001
sS'SER-ARG'
p90
F1.7669999999999999
sS'GLY-ALA'
p91
F1.601
sS'TYR-ASN'
p92
F1.1759999999999999
sS'GLU-GLN'
p93
F2.0449999999999999
sS'TRP-ARG'
p94
F2.1640000000000001
sS'LEU-GLU'
p95
F2.3570000000000002
sS'LEU-GLY'
p96
F2.0630000000000002
sS'LYS-SER'
p97
F1.9830000000000001
sS'MET-VAL'
p98
F2.7490000000000001
sS'SER-ALA'
p99
F1.649
sS'PRO-HIS'
p100
F1.389
sS'MET-THR'
p101
F2.0790000000000002
sS'ALA-PHE'
p102
F2.004
sS'MET-PRO'
p103
F1.7090000000000001
sS'GLY-SER'
p104
F1.355
sS'LEU-GLN'
p105
F2.4180000000000001
sS'VAL-LEU'
p106
F2.4220000000000002
sS'LEU-CYS'
p107
F2.964
sS'LYS-TYR'
p108
F2.1179999999999999
sS'ASP-ALA'
p109
F1.9630000000000001
sS'ILE-LEU'
p110
F2.597
sS'TRP-VAL'
p111
F2.548
sS'PHE-PRO'
p112
F1.7809999999999999
sS'ALA-ALA'
p113
F0.51400000000000001
sS'ARG-TRP'
p114
F2.3999999999999999
sS'MET-GLN'
p115
F2.028
sS'ILE-LYS'
p116
F2.7170000000000001
sS'MET-ARG'
p117
F2.177
sS'ALA-CYS'
p118
F2.3079999999999998
sS'THR-ARG'
p119
F1.889
sS'CYS-ILE'
p120
F2.831
sS'LEU-ASN'
p121
F2.0369999999999999
sS'LEU-ASP'
p122
F2.258
sS'PHE-TRP'
p123
F3.2599999999999998
sS'MET-GLY'
p124
F2.0840000000000001
sS'THR-PHE'
p125
F2.3279999999999998
sS'MET-GLU'
p126
F2.3849999999999998
sS'THR-TRP'
p127
F2.1099999999999999
sS'THR-TYR'
p128
F2.0800000000000001
sS'CYS-VAL'
p129
F2.6440000000000001
sS'ARG-ALA'
p130
F1.885
sS'ALA-TYR'
p131
F2.0550000000000002
sS'ASP-PRO'
p132
F1.5069999999999999
sS'ARG-CYS'
p133
F2.4569999999999999
sS'GLN-ARG'
p134
F1.948
sS'HIS-TRP'
p135
F2.21
sS'PRO-SER'
p136
F1.3180000000000001
sS'VAL-VAL'
p137
F0.63
sS'LEU-LYS'
p138
F2.5939999999999999
sS'GLY-LYS'
p139
F1.7410000000000001
sS'CYS-ASN'
p140
F2.2160000000000002
sS'GLY-TRP'
p141
F1.8839999999999999
sS'THR-CYS'
p142
F2.4359999999999999
sS'LYS-LYS'
p143
F1.262
sS'CYS-ASP'
p144
F2.492
sS'TYR-ASP'
p145
F1.766
sS'VAL-PRO'
p146
F1.877
sS'THR-VAL'
p147
F2.0950000000000002
sS'ASP-TYR'
p148
F1.835
sS'PRO-CYS'
p149
F2.081
sS'VAL-SER'
p150
F1.9159999999999999
sS'ARG-HIS'
p151
F2.121
sS'CYS-PRO'
p152
F1.972
sS'MET-LYS'
p153
F2.4390000000000001
sS'ALA-SER'
p154
F1.5900000000000001
sS'TYR-SER'
p155
F1.704
sS'GLY-ARG'
p156
F1.6080000000000001
sS'GLN-ALA'
p157
F1.831
sS'MET-LEU'
p158
F2.4820000000000002
sS'ASN-HIS'
p159
F1.7070000000000001
sS'VAL-CYS'
p160
F2.7109999999999999
sS'GLN-TYR'
p161
F2.3490000000000002
sS'GLN-PHE'
p162
F2.0910000000000002
sS'ILE-ASN'
p163
F2.0920000000000001
sS'GLU-ASN'
p164
F1.8300000000000001
sS'CYS-ALA'
p165
F2.2559999999999998
sS'ASN-ASP'
p166
F1.633
sS'ASN-PRO'
p167
F1.3009999999999999
sS'PRO-ARG'
p168
F1.669
sS'LYS-TRP'
p169
F2.879
sS'ASN-ASN'
p170
F-0.127
sS'ASN-THR'
p171
F1.488
sS'THR-ALA'
p172
F1.909
sS'LYS-ALA'
p173
F2.3759999999999999
sS'LYS-PRO'
p174
F1.671
sS'SER-GLN'
p175
F1.587
sS'ILE-VAL'
p176
F2.8140000000000001
sS'ASP-ARG'
p177
F1.8280000000000001
sS'ASP-MET'
p178
F2.6120000000000001
sS'CYS-TYR'
p179
F2.6970000000000001
sS'PRO-TRP'
p180
F2.1459999999999999
sS'THR-GLU'
p181
F1.7849999999999999
sS'TRP-ALA'
p182
F1.677
sS'ILE-CYS'
p183
F2.8490000000000002
sS'LYS-ILE'
p184
F2.6219999999999999
sS'GLN-CYS'
p185
F2.214
sS'TYR-ALA'
p186
F2.274
sS'ARG-ASP'
p187
F1.613
sS'SER-GLU'
p188
F1.6060000000000001
sS'TRP-HIS'
p189
F1.9830000000000001
sS'ALA-ASN'
p190
F1.748
sS'GLU-CYS'
p191
F2.8719999999999999
sS'PRO-MET'
p192
F1.946
sS'TYR-HIS'
p193
F2.1110000000000002
sS'PHE-MET'
p194
F2.5339999999999998
sS'GLU-TYR'
p195
F2.04
sS'SER-TRP'
p196
F1.8320000000000001
sS'PHE-ARG'
p197
F2.298
sS'GLY-ILE'
p198
F2.0110000000000001
sS'TYR-VAL'
p199
F2.5529999999999999
sS'ASN-TYR'
p200
F1.5209999999999999
sS'SER-ILE'
p201
F2.0499999999999998
sS'GLN-PRO'
p202
F1.444
sS'PHE-TYR'
p203
F1.9079999999999999
sS'ALA-VAL'
p204
F2.1890000000000001
sS'HIS-HIS'
p205
F-0.51400000000000001
sS'THR-ASN'
p206
F1.7689999999999999
sS'CYS-LEU'
p207
F3.0790000000000002
sS'LYS-MET'
p208
F2.3940000000000001
sS'LYS-ASP'
p209
F1.869
sS'HIS-ASN'
p210
F1.712
sS'ILE-GLN'
p211
F1.994
sS'VAL-HIS'
p212
F2.556
sS'ALA-LEU'
p213
F2.0019999999999998
sS'HIS-ASP'
p214
F1.7330000000000001
sS'ILE-TYR'
p215
F2.3730000000000002
sS'ILE-GLU'
p216
F2.4580000000000002
sS'ASN-TRP'
p217
F1.8560000000000001
sS'ILE-GLY'
p218
F2.0670000000000002
sS'ASN-CYS'
p219
F2.2130000000000001
sS'GLU-SER'
p220
F1.514
sS'ALA-TRP'
p221
F1.9990000000000001
sS'HIS-CYS'
p222
F2.677
sS'HIS-MET'
p223
F1.8160000000000001
sS'ILE-PRO'
p224
F1.8799999999999999
sS'LYS-PHE'
p225
F2.3029999999999999
sS'TRP-PRO'
p226
F1.9790000000000001
sS'GLU-TRP'
p227
F2.8450000000000002
sS'PHE-HIS'
p228
F2.2360000000000002
sS'GLY-TYR'
p229
F1.7589999999999999
sS'SER-GLY'
p230
F1.395
sS'CYS-TRP'
p231
F3.4700000000000002
sS'ASP-LYS'
p232
F2.1459999999999999
sS'ASN-ILE'
p233
F2.1280000000000001
sS'HIS-SER'
p234
F1.609
sS'LYS-CYS'
p235
F2.2989999999999999
sS'GLY-PHE'
p236
F1.976
sS'GLY-LEU'
p237
F1.8899999999999999
sS'MET-SER'
p238
F2.1299999999999999
sS'VAL-ALA'
p239
F2.149
sS'SER-LEU'
p240
F2.1509999999999998
sS'TRP-LYS'
p241
F2.8799999999999999
sS'VAL-TYR'
p242
F2.4969999999999999
sS'VAL-PHE'
p243
F2.4660000000000002
sS'ARG-THR'
p244
F2.133
sS'TYR-TRP'
p245
F1.661
sS'GLN-GLN'
p246
F0.217
sS'GLU-PHE'
p247
F2.5419999999999998
sS'VAL-ILE'
p248
F2.7789999999999999
sS'HIS-GLN'
p249
F2.1749999999999998
sS'GLN-GLY'
p250
F1.4259999999999999
sS'PHE-ALA'
p251
F2.081
sS'HIS-GLU'
p252
F1.9390000000000001
sS'ARG-PRO'
p253
F1.4430000000000001
sS'HIS-GLY'
p254
F1.5860000000000001
sS'SER-ASN'
p255
F1.5109999999999999
sS'ALA-THR'
p256
F2.0249999999999999
sS'GLN-GLU'
p257
F1.8839999999999999
sS'GLN-LYS'
p258
F1.988
sS'CYS-HIS'
p259
F2.7160000000000002
sS'GLN-ASP'
p260
F1.8089999999999999
sS'LEU-HIS'
p261
F2.5779999999999998
sS'SER-LYS'
p262
F2.0939999999999999
sS'TRP-LEU'
p263
F2.6459999999999999
sS'CYS-SER'
p264
F2.3119999999999998
sS'LYS-THR'
p265
F2.2480000000000002
sS'HIS-LEU'
p266
F2.4529999999999998
sS'LEU-ARG'
p267
F2.3809999999999998
sS'GLY-VAL'
p268
F1.653
sS'GLN-ASN'
p269
F1.702
sS'TYR-ARG'
p270
F1.833
sS'PRO-TYR'
p271
F1.7569999999999999
sS'ASP-PHE'
p272
F2.286
sS'TRP-CYS'
p273
F3.3679999999999999
sS'ASN-LEU'
p274
F1.96
sS'SER-MET'
p275
F2.2130000000000001
sS'HIS-ILE'
p276
F2.5459999999999998
sS'SER-TYR'
p277
F1.585
sS'MET-TYR'
p278
F2.5640000000000001
sS'GLU-ILE'
p279
F2.4529999999999998
sS'PHE-CYS'
p280
F2.0800000000000001
sS'PRO-LEU'
p281
F1.9159999999999999
sS'GLY-MET'
p282
F2.1739999999999999
sS'ARG-ILE'
p283
F2.3090000000000002
sS'HIS-THR'
p284
F2.0819999999999999
sS'THR-GLN'
p285
F1.7709999999999999
sS'TRP-THR'
p286
F2.069
sS'LYS-LEU'
p287
F2.6549999999999998
sS'THR-GLY'
p288
F1.4239999999999999
sS'ASP-TRP'
p289
F3.0129999999999999
sS'TYR-MET'
p290
F2.633
sS'PHE-ILE'
p291
F2.6720000000000002
sS'PRO-VAL'
p292
F2.0449999999999999
sS'MET-ASN'
p293
F1.917
sS'LEU-TYR'
p294
F2.399
sS'PHE-PHE'
p295
F0.39200000000000002
sS'CYS-PHE'
p296
F2.4740000000000002
sS'TRP-ILE'
p297
F2.8029999999999999
sS'PRO-ASN'
p298
F1.494
sS'CYS-CYS'
p299
F-1.556
sS'SER-ASP'
p300
F1.706
sS'ARG-MET'
p301
F2.1760000000000002
sS'SER-PHE'
p302
F1.8999999999999999
sS'SER-SER'
p303
F0.17100000000000001
sS'ASN-LYS'
p304
F1.9359999999999999
sS'CYS-THR'
p305
F2.6259999999999999
sS'ILE-TRP'
p306
F2.657
sS'PRO-ASP'
p307
F1.3520000000000001
sS'THR-ASP'
p308
F1.5720000000000001
sS'SER-CYS'
p309
F2.3340000000000001
sS'MET-ASP'
p310
F2.2690000000000001
sS'GLN-MET'
p311
F2.3700000000000001
sS'MET-TRP'
p312
F3.524
sS'ARG-VAL'
p313
F2.3300000000000001
sS'GLY-GLN'
p314
F1.5900000000000001
sS'THR-LYS'
p315
F2.423
sS'TRP-MET'
p316
F3.5489999999999999
sS'ARG-ARG'
p317
F0.039
sS'ILE-ASP'
p318
F2.202
sS'GLY-GLY'
p319
F0.16900000000000001
sS'GLY-GLU'
p320
F1.6870000000000001
sS'ALA-ARG'
p321
F1.877
sS'GLU-ARG'
p322
F2.1160000000000001
sS'HIS-VAL'
p323
F2.5179999999999998
sS'VAL-ARG'
p324
F2.2749999999999999
sS'ASN-SER'
p325
F1.3520000000000001
sS'ALA-LYS'
p326
F2.266
sS'VAL-GLN'
p327
F2.371
sS'TRP-ASN'
p328
F1.5409999999999999
sS'TYR-ILE'
p329
F2.4809999999999999
sS'TRP-GLY'
p330
F1.633
sS'PRO-PHE'
p331
F1.8360000000000001
sS'GLY-HIS'
p332
F1.6739999999999999
sS'PHE-SER'
p333
F1.843
sS'TRP-ASP'
p334
F2.742
sS'TRP-GLN'
p335
F1.764
sS'LEU-ALA'
p336
F2.0350000000000001
sS'VAL-GLU'
p337
F2.3159999999999998
sS'ALA-HIS'
p338
F1.704
sS'ARG-ASN'
p339
F1.6679999999999999
sS'LEU-THR'
p340
F2.137
sS'TYR-CYS'
p341
F2.6899999999999999
sS'THR-THR'
p342
F0.496
sS'THR-LEU'
p343
F2.1709999999999998
sS'VAL-ASN'
p344
F2.113
sS'LEU-TRP'
p345
F2.5920000000000001
sS'GLU-ASP'
p346
F1.851
sS'ILE-SER'
p347
F2.1219999999999999
sS'ILE-ARG'
p348
F2.5019999999999998
sS'TRP-GLU'
p349
F2.351
sS'ILE-MET'
p350
F2.5379999999999998
sS'MET-PHE'
p351
F2.0630000000000002
sS'PRO-ALA'
p352
F1.357
sS'PRO-GLY'
p353
F1.379
sS'GLN-THR'
p354
F2.0750000000000002
sS'MET-ALA'
p355
F2.3479999999999999
sS'TRP-SER'
p356
F2.0150000000000001
sS'ASP-HIS'
p357
F1.847
sS'ARG-SER'
p358
F1.786
sS'GLN-HIS'
p359
F1.907
sS'HIS-PHE'
p360
F2.262
sS'LEU-LEU'
p361
F1.129
sS'ALA-GLN'
p362
F1.901
sS'ASP-ASN'
p363
F1.7529999999999999
sS'SER-VAL'
p364
F1.9410000000000001
sS'MET-ILE'
p365
F2.7040000000000002
sS'ALA-PRO'
p366
F1.5469999999999999
sS'ASP-ASP'
p367
F0.63600000000000001
sS'ALA-GLY'
p368
F1.75
sS'TRP-TRP'
p369
F0.20100000000000001
sS'MET-CYS'
p370
F3.8210000000000002
sS'ALA-GLU'
p371
F1.891
sS'THR-PRO'
p372
F1.2649999999999999
sS'HIS-ALA'
p373
F1.825
sS'GLN-ILE'
p374
F2.177
sS'GLU-VAL'
p375
F2.0150000000000001
sS'LYS-ASN'
p376
F1.9730000000000001
sS'ASN-ALA'
p377
F1.7609999999999999
sS'THR-ILE'
p378
F2.2970000000000002
sS'ASP-CYS'
p379
F2.3399999999999999
sS'PRO-LYS'
p380
F1.6659999999999999
sS'TYR-TYR'
p381
F-0.214
sS'ARG-LYS'
p382
F2.3610000000000002
sS'ILE-ALA'
p383
F2.2629999999999999
sS'ASP-SER'
p384
F1.605
sS'CYS-LYS'
p385
F2.6219999999999999
sS'GLU-ALA'
p386
F1.8260000000000001
sS'PHE-GLU'
p387
F2.6179999999999999
sS'GLU-LEU'
p388
F2.367
sS'PHE-GLY'
p389
F1.8660000000000001
sS'LYS-HIS'
p390
F2.5030000000000001
sS'HIS-PRO'
p391
F1.4490000000000001
sS'ILE-ILE'
p392
F0.879
sS'MET-HIS'
p393
F2.0649999999999999
sS'VAL-GLY'
p394
F1.8899999999999999
sS'THR-MET'
p395
F2.2309999999999999
sS'PHE-THR'
p396
F2.4159999999999999
sS'VAL-TRP'
p397
F2.9950000000000001
sS'PHE-LYS'
p398
F2.1899999999999999
sS'GLY-PRO'
p399
F1.2849999999999999
sS'PHE-GLN'
p400
F2.2069999999999999
sS'LEU-PHE'
p401
F2.4239999999999999
s.