(dp1
S'MET-MET'
p2
F-4.1879999999999997
sS'PRO-ILE'
p3
F-1.861
sS'TYR-LYS'
p4
F-2.431
sS'VAL-ASP'
p5
F-1.845
sS'ASP-GLN'
p6
F-2.242
sS'HIS-TYR'
p7
F-2.5990000000000002
sS'ASP-GLU'
p8
F-1.9830000000000001
sS'ALA-ASP'
p9
F-2.008
sS'ASP-GLY'
p10
F-2.194
sS'LEU-VAL'
p11
F-1.4410000000000001
sS'TRP-TYR'
p12
F-2.8140000000000001
sS'GLN-TRP'
p13
F-2.3250000000000002
sS'TRP-PHE'
p14
F-1.452
sS'ARG-TYR'
p15
F-2.8839999999999999
sS'GLU-LYS'
p16
F-2.024
sS'ILE-HIS'
p17
F-1.6459999999999999
sS'LEU-MET'
p18
F-1.077
sS'GLU-HIS'
p19
F-2.4460000000000002
sS'GLY-THR'
p20
F-2.3239999999999998
sS'ARG-GLU'
p21
F-2.5419999999999998
sS'PHE-ASN'
p22
F-2.3759999999999999
sS'ASN-MET'
p23
F-1.714
sS'PRO-THR'
p24
F-2.403
sS'TYR-GLN'
p25
F-1.8160000000000001
sS'ARG-GLY'
p26
F-2.782
sS'VAL-THR'
p27
F-1.9299999999999999
sS'ASP-ILE'
p28
F-1.77
sS'THR-HIS'
p29
F-1.6339999999999999
sS'TYR-GLU'
p30
F-2.133
sS'ARG-GLN'
p31
F-2.4929999999999999
sS'TYR-GLY'
p32
F-2.5910000000000002
sS'PHE-ASP'
p33
F-2.0219999999999998
sS'CYS-ARG'
p34
F-1.484
sS'GLY-ASN'
p35
F-2.7269999999999999
sS'VAL-LYS'
p36
F-1.6830000000000001
sS'LEU-ILE'
p37
F-1.343
sS'GLN-LEU'
p38
F-1.6399999999999999
sS'GLU-MET'
p39
F-1.4490000000000001
sS'ASP-THR'
p40
F-2.246
sS'ASN-PHE'
p41
F-2.2189999999999999
sS'GLU-PRO'
p42
F-2.4420000000000002
sS'TYR-LEU'
p43
F-2.1190000000000002
sS'LYS-ARG'
p44
F-1.881
sS'GLY-ASP'
p45
F-2.319
sS'PRO-GLN'
p46
F-2.363
sS'CYS-MET'
p47
F0.56299999999999994
sS'HIS-ARG'
p48
F-2.0800000000000001
sS'GLU-THR'
p49
F-2.21
sS'ILE-THR'
p50
F-1.6870000000000001
sS'SER-PRO'
p51
F-2.5339999999999998
sS'GLY-CYS'
p52
F-1.6990000000000001
sS'ARG-LEU'
p53
F-2.2389999999999999
sS'PRO-GLU'
p54
F-2.407
sS'ASP-LEU'
p55
F-1.726
sS'PHE-VAL'
p56
F-1.9079999999999999
sS'ASN-VAL'
p57
F-1.7529999999999999
sS'ALA-MET'
p58
F-1.262
sS'LEU-PRO'
p59
F-2.1379999999999999
sS'LEU-SER'
p60
F-1.925
sS'ASN-ARG'
p61
F-2.4100000000000001
sS'SER-THR'
p62
F-2.0579999999999998
sS'LYS-VAL'
p63
F-1.74
sS'LYS-GLN'
p64
F-2.2450000000000001
sS'GLN-VAL'
p65
F-1.657
sS'TYR-PHE'
p66
F-2.2109999999999999
sS'ASP-VAL'
p67
F-1.76
sS'ASN-GLY'
p68
F-2.5630000000000002
sS'ARG-PHE'
p69
F-2.2309999999999999
sS'SER-HIS'
p70
F-2.6499999999999999
sS'ALA-ILE'
p71
F-1.7589999999999999
sS'ASN-GLU'
p72
F-2.2130000000000001
sS'CYS-GLN'
p73
F-1.758
sS'TYR-PRO'
p74
F-2.3149999999999999
sS'LYS-GLU'
p75
F-2.3719999999999999
sS'CYS-GLU'
p76
F-1.163
sS'ASN-GLN'
p77
F-2.4660000000000002
sS'CYS-GLY'
p78
F-1.397
sS'GLN-SER'
p79
F-2.496
sS'HIS-LYS'
p80
F-1.944
sS'LYS-GLY'
p81
F-2.2269999999999999
sS'VAL-MET'
p82
F-1.044
sS'GLU-GLY'
p83
F-2.4550000000000001
sS'THR-SER'
p84
F-1.986
sS'TYR-THR'
p85
F-2.278
sS'PRO-PRO'
p86
F-4.2249999999999996
sS'ILE-PHE'
p87
F-1.611
sS'PHE-LEU'
p88
F-1.8089999999999999
sS'GLU-GLU'
p89
F-3.9430000000000001
sS'SER-ARG'
p90
F-2.548
sS'GLY-ALA'
p91
F-1.7929999999999999
sS'TYR-ASN'
p92
F-3.1749999999999998
sS'GLU-GLN'
p93
F-2.0590000000000002
sS'TRP-ARG'
p94
F-2.306
sS'LEU-GLU'
p95
F-1.7210000000000001
sS'LEU-GLY'
p96
F-1.8700000000000001
sS'LYS-SER'
p97
F-2.1160000000000001
sS'MET-VAL'
p98
F-1.175
sS'SER-ALA'
p99
F-1.9139999999999999
sS'PRO-HIS'
p100
F-2.669
sS'MET-THR'
p101
F-1.736
sS'ALA-PHE'
p102
F-2.2130000000000001
sS'MET-PRO'
p103
F-2.0499999999999998
sS'GLY-SER'
p104
F-2.177
sS'LEU-GLN'
p105
F-1.7150000000000001
sS'VAL-LEU'
p106
F-1.524
sS'LEU-CYS'
p107
F-0.98199999999999998
sS'LYS-TYR'
p108
F-2.3799999999999999
sS'ASP-ALA'
p109
F-1.8340000000000001
sS'ILE-LEU'
p110
F-1.361
sS'TRP-VAL'
p111
F-2.2290000000000001
sS'PHE-PRO'
p112
F-2.5369999999999999
sS'ALA-ALA'
p113
F-3.133
sS'ARG-TRP'
p114
F-2.1419999999999999
sS'MET-GLN'
p115
F-1.835
sS'ILE-LYS'
p116
F-1.278
sS'MET-ARG'
p117
F-2.044
sS'ALA-CYS'
p118
F-1.2170000000000001
sS'THR-ARG'
p119
F-2.4529999999999998
sS'CYS-ILE'
p120
F-0.98599999999999999
sS'LEU-ASN'
p121
F-1.8260000000000001
sS'LEU-ASP'
p122
F-1.651
sS'PHE-TRP'
p123
F-1.357
sS'MET-GLY'
p124
F-1.8680000000000001
sS'THR-PHE'
p125
F-1.9570000000000001
sS'MET-GLU'
p126
F-1.6859999999999999
sS'THR-TRP'
p127
F-2.3039999999999998
sS'THR-TYR'
p128
F-2.3180000000000001
sS'CYS-VAL'
p129
F-0.92400000000000004
sS'ARG-ALA'
p130
F-2.355
sS'ALA-TYR'
p131
F-2.3719999999999999
sS'ASP-PRO'
p132
F-2.3679999999999999
sS'ARG-CYS'
p133
F-1.6930000000000001
sS'GLN-ARG'
p134
F-2.3719999999999999
sS'HIS-TRP'
p135
F-2.1509999999999998
sS'PRO-SER'
p136
F-2.4169999999999998
sS'VAL-VAL'
p137
F-3.375
sS'LEU-LYS'
p138
F-1.476
sS'GLY-LYS'
p139
F-2.3039999999999998
sS'CYS-ASN'
p140
F-1.5800000000000001
sS'GLY-TRP'
p141
F-2.6970000000000001
sS'THR-CYS'
p142
F-1.2490000000000001
sS'LYS-LYS'
p143
F-2.9580000000000002
sS'CYS-ASP'
p144
F-1.323
sS'TYR-ASP'
p145
F-2.5790000000000002
sS'VAL-PRO'
p146
F-1.8180000000000001
sS'THR-VAL'
p147
F-1.661
sS'ASP-TYR'
p148
F-2.5089999999999999
sS'PRO-CYS'
p149
F-1.4750000000000001
sS'VAL-SER'
p150
F-1.869
sS'ARG-HIS'
p151
F-2.2149999999999999
sS'CYS-PRO'
p152
F-1.544
sS'MET-LYS'
p153
F-1.673
sS'ALA-SER'
p154
F-1.964
sS'TYR-SER'
p155
F-2.6400000000000001
sS'GLY-ARG'
p156
F-2.673
sS'GLN-ALA'
p157
F-2.1480000000000001
sS'MET-LEU'
p158
F-1.4319999999999999
sS'ASN-HIS'
p159
F-2.4820000000000002
sS'VAL-CYS'
p160
F-0.85099999999999998
sS'GLN-TYR'
p161
F-1.9990000000000001
sS'GLN-PHE'
p162
F-2.246
sS'ILE-ASN'
p163
F-1.728
sS'GLU-ASN'
p164
F-2.2759999999999998
sS'CYS-ALA'
p165
F-1.202
sS'ASN-ASP'
p166
F-2.29
sS'ASN-PRO'
p167
F-2.5089999999999999
sS'PRO-ARG'
p168
F-2.653
sS'LYS-TRP'
p169
F-1.5469999999999999
sS'ASN-ASN'
p170
F-4.3120000000000003
sS'ASN-THR'
p171
F-2.4220000000000002
sS'THR-ALA'
p172
F-1.8540000000000001
sS'LYS-ALA'
p173
F-1.6699999999999999
sS'LYS-PRO'
p174
F-2.3279999999999998
sS'SER-GLN'
p175
F-2.4319999999999999
sS'ILE-VAL'
p176
F-1.0940000000000001
sS'ASP-ARG'
p177
F-2.5569999999999999
sS'ASP-MET'
p178
F-1.2030000000000001
sS'CYS-TYR'
p179
F-1.5009999999999999
sS'PRO-TRP'
p180
F-2.3069999999999999
sS'THR-GLU'
p181
F-2.2749999999999999
sS'TRP-ALA'
p182
F-2.8239999999999998
sS'ILE-CYS'
p183
F-0.97899999999999998
sS'LYS-ILE'
p184
F-1.405
sS'GLN-CYS'
p185
F-1.804
sS'TYR-ALA'
p186
F-2.1360000000000001
sS'ARG-ASP'
p187
F-2.7280000000000002
sS'SER-GLU'
p188
F-2.395
sS'TRP-HIS'
p189
F-2.4540000000000002
sS'ALA-ASN'
p190
F-2.0800000000000001
sS'GLU-CYS'
p191
F-1.091
sS'PRO-MET'
p192
F-1.8240000000000001
sS'TYR-HIS'
p193
F-2.3010000000000002
sS'PHE-MET'
p194
F-1.625
sS'GLU-TYR'
p195
F-2.363
sS'SER-TRP'
p196
F-2.633
sS'PHE-ARG'
p197
F-2.0659999999999998
sS'GLY-ILE'
p198
F-1.8819999999999999
sS'TYR-VAL'
p199
F-1.8029999999999999
sS'ASN-TYR'
p200
F-2.7400000000000002
sS'SER-ILE'
p201
F-1.8260000000000001
sS'GLN-PRO'
p202
F-2.395
sS'PHE-TYR'
p203
F-2.5579999999999998
sS'ALA-VAL'
p204
F-1.633
sS'HIS-HIS'
p205
F-4.8789999999999996
sS'THR-ASN'
p206
F-2.1459999999999999
sS'CYS-LEU'
p207
F-0.92200000000000004
sS'LYS-MET'
p208
F-1.5720000000000001
sS'LYS-ASP'
p209
F-2.0939999999999999
sS'HIS-ASN'
p210
F-2.544
sS'ILE-GLN'
p211
F-2.0920000000000001
sS'VAL-HIS'
p212
F-1.637
sS'ALA-LEU'
p213
F-1.925
sS'HIS-ASP'
p214
F-2.3980000000000001
sS'ILE-TYR'
p215
F-2.1230000000000002
sS'ILE-GLU'
p216
F-1.651
sS'ASN-TRP'
p217
F-2.8319999999999999
sS'ILE-GLY'
p218
F-1.8839999999999999
sS'ASN-CYS'
p219
F-1.7609999999999999
sS'GLU-SER'
p220
F-2.5070000000000001
sS'ALA-TRP'
p221
F-2.5379999999999998
sS'HIS-CYS'
p222
F-1.3149999999999999
sS'HIS-MET'
p223
F-2.2850000000000001
sS'ILE-PRO'
p224
F-1.9490000000000001
sS'LYS-PHE'
p225
F-1.9570000000000001
sS'TRP-PRO'
p226
F-2.3239999999999998
sS'GLU-TRP'
p227
F-1.724
sS'PHE-HIS'
p228
F-2.1200000000000001
sS'GLY-TYR'
p229
F-2.601
sS'SER-GLY'
p230
F-2.1619999999999999
sS'CYS-TRP'
p231
F-1.038
sS'ASP-LYS'
p232
F-1.899
sS'ASN-ILE'
p233
F-1.7070000000000001
sS'HIS-SER'
p234
F-2.5459999999999998
sS'LYS-CYS'
p235
F-1.5189999999999999
sS'GLY-PHE'
p236
F-2.323
sS'GLY-LEU'
p237
F-2.0249999999999999
sS'MET-SER'
p238
F-1.794
sS'VAL-ALA'
p239
F-1.6579999999999999
sS'SER-LEU'
p240
F-1.8380000000000001
sS'TRP-LYS'
p241
F-1.577
sS'VAL-TYR'
p242
F-1.8340000000000001
sS'VAL-PHE'
p243
F-1.794
sS'ARG-THR'
p244
F-2.2839999999999998
sS'TYR-TRP'
p245
F-2.843
sS'GLN-GLN'
p246
F-4.117
sS'GLU-PHE'
p247
F-1.7849999999999999
sS'VAL-ILE'
p248
F-1.145
sS'HIS-GLN'
p249
F-1.9770000000000001
sS'GLN-GLY'
p250
F-2.5840000000000001
sS'PHE-ALA'
p251
F-2.1190000000000002
sS'HIS-GLU'
p252
F-2.113
sS'ARG-PRO'
p253
F-2.9630000000000001
sS'HIS-GLY'
p254
F-2.524
sS'SER-ASN'
p255
F-2.3530000000000002
sS'ALA-THR'
p256
F-1.772
sS'GLN-GLU'
p257
F-2.2229999999999999
sS'GLN-LYS'
p258
F-1.9710000000000001
sS'CYS-HIS'
p259
F-1.2410000000000001
sS'GLN-ASP'
p260
F-2.2850000000000001
sS'LEU-HIS'
p261
F-1.569
sS'SER-LYS'
p262
F-1.9399999999999999
sS'TRP-LEU'
p263
F-1.7050000000000001
sS'CYS-SER'
p264
F-1.2529999999999999
sS'LYS-THR'
p265
F-1.772
sS'HIS-LEU'
p266
F-1.738
sS'LEU-ARG'
p267
F-1.9410000000000001
sS'GLY-VAL'
p268
F-2.0819999999999999
sS'GLN-ASN'
p269
F-2.3210000000000002
sS'TYR-ARG'
p270
F-2.6869999999999998
sS'PRO-TYR'
p271
F-2.5419999999999998
sS'ASP-PHE'
p272
F-1.9590000000000001
sS'TRP-CYS'
p273
F-1.1879999999999999
sS'ASN-LEU'
p274
F-1.9690000000000001
sS'SER-MET'
p275
F-1.6479999999999999
sS'HIS-ILE'
p276
F-1.5720000000000001
sS'SER-TYR'
p277
F-2.6949999999999998
sS'MET-TYR'
p278
F-1.7110000000000001
sS'GLU-ILE'
p279
F-1.6200000000000001
sS'PHE-CYS'
p280
F-2.1989999999999998
sS'PRO-LEU'
p281
F-1.8620000000000001
sS'GLY-MET'
p282
F-1.7609999999999999
sS'ARG-ILE'
p283
F-1.994
sS'HIS-THR'
p284
F-2.0659999999999998
sS'THR-GLN'
p285
F-2.3130000000000002
sS'TRP-THR'
p286
F-2.282
sS'LYS-LEU'
p287
F-1.46
sS'THR-GLY'
p288
F-2.4049999999999998
sS'ASP-TRP'
p289
F-1.6599999999999999
sS'TYR-MET'
p290
F-1.8109999999999999
sS'PHE-ILE'
p291
F-1.6200000000000001
sS'PRO-VAL'
p292
F-1.6579999999999999
sS'MET-ASN'
p293
F-1.875
sS'LEU-TYR'
p294
F-2.105
sS'PHE-PHE'
p295
F-4.3049999999999997
sS'CYS-PHE'
p296
F-1.738
sS'TRP-ILE'
p297
F-1.9630000000000001
sS'PRO-ASN'
p298
F-2.444
sS'CYS-CYS'
p299
F-5.4640000000000004
sS'SER-ASP'
p300
F-2.1819999999999999
sS'ARG-MET'
p301
F-1.9530000000000001
sS'SER-PHE'
p302
F-2.4500000000000002
sS'SER-SER'
p303
F-3.6480000000000001
sS'ASN-LYS'
p304
F-2.1619999999999999
sS'CYS-THR'
p305
F-0.999
sS'ILE-TRP'
p306
F-2.0539999999999998
sS'PRO-ASP'
p307
F-2.4750000000000001
sS'THR-ASP'
p308
F-2.395
sS'SER-CYS'
p309
F-1.2410000000000001
sS'MET-ASP'
p310
F-1.6910000000000001
sS'GLN-MET'
p311
F-1.397
sS'MET-TRP'
p312
F-0.65600000000000003
sS'ARG-VAL'
p313
F-2.0129999999999999
sS'GLY-GLN'
p314
F-2.4180000000000001
sS'THR-LYS'
p315
F-1.6890000000000001
sS'TRP-MET'
p316
F-0.66500000000000004
sS'ARG-ARG'
p317
F-4.7960000000000003
sS'ILE-ASP'
p318
F-1.696
sS'GLY-GLY'
p319
F-3.169
sS'GLY-GLU'
p320
F-2.4300000000000002
sS'ALA-ARG'
p321
F-2.4630000000000001
sS'GLU-ARG'
p322
F-2.2669999999999999
sS'HIS-VAL'
p323
F-1.6499999999999999
sS'VAL-ARG'
p324
F-2.0910000000000002
sS'ASN-SER'
p325
F-2.5329999999999999
sS'ALA-LYS'
p326
F-1.76
sS'VAL-GLN'
p327
F-1.6499999999999999
sS'TRP-ASN'
p328
F-2.9630000000000001
sS'TYR-ILE'
p329
F-2.0049999999999999
sS'TRP-GLY'
p330
F-2.677
sS'PRO-PHE'
p331
F-2.5289999999999999
sS'GLY-HIS'
p332
F-2.4870000000000001
sS'PHE-SER'
p333
F-2.4430000000000001
sS'TRP-ASP'
p334
F-1.8320000000000001
sS'TRP-GLN'
p335
F-2.7160000000000002
sS'LEU-ALA'
p336
F-1.8240000000000001
sS'VAL-GLU'
p337
F-1.714
sS'ALA-HIS'
p338
F-2.3849999999999998
sS'ARG-ASN'
p339
F-2.6179999999999999
sS'LEU-THR'
p340
F-1.7989999999999999
sS'TYR-CYS'
p341
F-1.5860000000000001
sS'THR-THR'
p342
F-3.448
sS'THR-LEU'
p343
F-1.7170000000000001
sS'VAL-ASN'
p344
F-1.782
sS'LEU-TRP'
p345
F-1.9470000000000001
sS'GLU-ASP'
p346
F-2.1779999999999999
sS'ILE-SER'
p347
F-1.8240000000000001
sS'ILE-ARG'
p348
F-1.782
sS'TRP-GLU'
p349
F-2.0990000000000002
sS'ILE-MET'
p350
F-1.2629999999999999
sS'MET-PHE'
p351
F-2.0670000000000002
sS'PRO-ALA'
p352
F-2.3290000000000002
sS'PRO-GLY'
p353
F-2.298
sS'GLN-THR'
p354
F-1.976
sS'MET-ALA'
p355
F-1.4099999999999999
sS'TRP-SER'
p356
F-2.48
sS'ASP-HIS'
p357
F-2.2909999999999999
sS'ARG-SER'
p358
F-2.6150000000000002
sS'GLN-HIS'
p359
F-2.266
sS'HIS-PHE'
p360
F-2.0150000000000001
sS'LEU-LEU'
p361
F-3.048
sS'ALA-GLN'
p362
F-2.1970000000000001
sS'ASP-ASN'
p363
F-2.089
sS'SER-VAL'
p364
F-1.792
sS'MET-ILE'
p365
F-1.0189999999999999
sS'ALA-PRO'
p366
F-2.109
sS'ASP-ASP'
p367
F-3.4990000000000001
sS'ALA-GLY'
p368
F-1.6180000000000001
sS'TRP-TRP'
p369
F-4.4320000000000004
sS'MET-CYS'
p370
F0.094
sS'ALA-GLU'
p371
F-2.1699999999999999
sS'THR-PRO'
p372
F-2.3799999999999999
sS'HIS-ALA'
p373
F-2.2069999999999999
sS'GLN-ILE'
p374
F-1.833
sS'GLU-VAL'
p375
F-2.0630000000000002
sS'LYS-ASN'
p376
F-2.117
sS'ASN-ALA'
p377
F-2.1749999999999998
sS'THR-ILE'
p378
F-1.595
sS'ASP-CYS'
p379
F-1.516
sS'PRO-LYS'
p380
F-2.3759999999999999
sS'TYR-TYR'
p381
F-5.0830000000000002
sS'ARG-LYS'
p382
F-1.9419999999999999
sS'ILE-ALA'
p383
F-1.6659999999999999
sS'ASP-SER'
p384
F-2.2480000000000002
sS'CYS-LYS'
p385
F-1.5149999999999999
sS'GLU-ALA'
p386
F-2.2330000000000001
sS'PHE-GLU'
p387
F-1.6519999999999999
sS'GLU-LEU'
p388
F-1.7150000000000001
sS'PHE-GLY'
p389
F-2.3999999999999999
sS'LYS-HIS'
p390
F-1.645
sS'HIS-PRO'
p391
F-2.6749999999999998
sS'ILE-ILE'
p392
F-3.2450000000000001
sS'MET-HIS'
p393
F-2.0129999999999999
sS'VAL-GLY'
p394
F-1.857
sS'THR-MET'
p395
F-1.53
sS'PHE-THR'
p396
F-1.8320000000000001
sS'VAL-TRP'
p397
F-1.5549999999999999
sS'PHE-LYS'
p398
F-2.008
sS'GLY-PRO'
p399
F-2.4470000000000001
sS'PHE-GLN'
p400
F-2.1080000000000001
sS'LEU-PHE'
p401
F-1.8460000000000001
s.