(dp1
S'MET-MET'
p2
F-2.246
sS'PRO-ILE'
p3
F-0.40799999999999997
sS'TYR-LYS'
p4
F-0.68799999999999994
sS'VAL-ASP'
p5
F-0.41899999999999998
sS'ASP-GLN'
p6
F-0.621
sS'HIS-TYR'
p7
F-0.83999999999999997
sS'ASP-GLU'
p8
F-0.35099999999999998
sS'ALA-ASP'
p9
F-0.71399999999999997
sS'ASP-GLY'
p10
F-0.96799999999999997
sS'LEU-VAL'
p11
F-0.036999999999999998
sS'TRP-TYR'
p12
F-1.048
sS'GLN-TRP'
p13
F-0.35599999999999998
sS'TRP-PHE'
p14
F0.30599999999999999
sS'ARG-TYR'
p15
F-1.0700000000000001
sS'GLU-LYS'
p16
F-0.501
sS'ILE-HIS'
p17
F-0.17799999999999999
sS'LEU-MET'
p18
F0.23899999999999999
sS'GLU-HIS'
p19
F-0.78400000000000003
sS'GLY-THR'
p20
F-1.1990000000000001
sS'ARG-GLU'
p21
F-0.93100000000000005
sS'PHE-ASN'
p22
F-0.68600000000000005
sS'ASN-MET'
p23
F-0.20799999999999999
sS'PRO-THR'
p24
F-1.0580000000000001
sS'TYR-GLN'
p25
F-0.092999999999999999
sS'ARG-GLY'
p26
F-1.256
sS'VAL-THR'
p27
F-0.754
sS'ASP-ILE'
p28
F-0.39200000000000002
sS'THR-HIS'
p29
F-0.14499999999999999
sS'TYR-GLU'
p30
F-0.39600000000000002
sS'ARG-GLN'
p31
F-0.78800000000000003
sS'TYR-GLY'
p32
F-0.93899999999999995
sS'PHE-ASP'
p33
F-0.39700000000000002
sS'CYS-ARG'
p34
F0.082000000000000003
sS'GLY-ASN'
p35
F-1.4850000000000001
sS'VAL-LYS'
p36
F-0.215
sS'LEU-ILE'
p37
F0.001
sS'GLN-LEU'
p38
F-0.16900000000000001
sS'GLU-MET'
p39
F0.098000000000000004
sS'ASP-THR'
p40
F-0.82999999999999996
sS'ASN-PHE'
p41
F-0.53200000000000003
sS'GLU-PRO'
p42
F-0.93799999999999994
sS'TYR-LEU'
p43
F-0.42199999999999999
sS'LYS-ARG'
p44
F-0.24399999999999999
sS'GLY-ASP'
p45
F-1.0820000000000001
sS'PRO-GLN'
p46
F-0.88900000000000001
sS'CYS-MET'
p47
F2.0259999999999998
sS'HIS-ARG'
p48
F-0.441
sS'GLU-THR'
p49
F-0.72599999999999998
sS'ILE-THR'
p50
F-0.38300000000000001
sS'SER-PRO'
p51
F-1.272
sS'GLY-CYS'
p52
F-0.86199999999999999
sS'ARG-LEU'
p53
F-0.53500000000000003
sS'PRO-GLU'
p54
F-0.86799999999999999
sS'ASP-LEU'
p55
F-0.27100000000000002
sS'PHE-VAL'
p56
F-0.34599999999999997
sS'ASN-VAL'
p57
F-0.39600000000000002
sS'ALA-MET'
p58
F0.085000000000000006
sS'LEU-PRO'
p59
F-0.73999999999999999
sS'LEU-SER'
p60
F-0.629
sS'ASN-ARG'
p61
F-0.73699999999999999
sS'SER-THR'
p62
F-0.86599999999999999
sS'LYS-VAL'
p63
F-0.32200000000000001
sS'LYS-GLN'
p64
F-0.748
sS'GLN-VAL'
p65
F-0.17499999999999999
sS'TYR-PHE'
p66
F-0.48999999999999999
sS'ASP-VAL'
p67
F-0.36399999999999999
sS'ASN-GLY'
p68
F-1.321
sS'ARG-PHE'
p69
F-0.59199999999999997
sS'SER-HIS'
p70
F-1.131
sS'ALA-ILE'
p71
F-0.441
sS'ASN-GLU'
p72
F-0.68899999999999995
sS'CYS-GLN'
p73
F-0.29199999999999998
sS'TYR-PRO'
p74
F-0.57999999999999996
sS'LYS-GLU'
p75
F-0.81399999999999995
sS'CYS-GLU'
p76
F0.28599999999999998
sS'ASN-GLN'
p77
F-0.98199999999999998
sS'CYS-GLY'
p78
F-0.47099999999999997
sS'GLN-SER'
p79
F-1.111
sS'HIS-LYS'
p80
F-0.21199999999999999
sS'LYS-GLY'
p81
F-0.875
sS'VAL-MET'
p82
F0.33900000000000002
sS'GLU-GLY'
p83
F-1.0660000000000001
sS'THR-SER'
p84
F-0.76200000000000001
sS'TYR-THR'
p85
F-0.59999999999999998
sS'PRO-PRO'
p86
F-2.3140000000000001
sS'ILE-PHE'
p87
F-0.025999999999999999
sS'PHE-LEU'
p88
F-0.16200000000000001
sS'GLU-GLU'
p89
F-1.8200000000000001
sS'SER-ARG'
p90
F-0.97299999999999998
sS'GLY-ALA'
p91
F-1.0309999999999999
sS'TYR-ASN'
p92
F-1.3580000000000001
sS'GLU-GLN'
p93
F-0.51000000000000001
sS'TRP-ARG'
p94
F-0.433
sS'LEU-GLU'
p95
F-0.19
sS'LEU-GLY'
p96
F-0.59899999999999998
sS'LYS-SER'
p97
F-0.67900000000000005
sS'MET-VAL'
p98
F0.214
sS'SER-ALA'
p99
F-0.90300000000000002
sS'PRO-HIS'
p100
F-1.099
sS'MET-THR'
p101
F-0.46100000000000002
sS'ALA-PHE'
p102
F-0.63100000000000001
sS'MET-PRO'
p103
F-0.50700000000000001
sS'GLY-SER'
p104
F-1.208
sS'LEU-GLN'
p105
F-0.17799999999999999
sS'VAL-LEU'
p106
F-0.125
sS'LEU-CYS'
p107
F0.39800000000000002
sS'LYS-TYR'
p108
F-0.66600000000000004
sS'ASP-ALA'
p109
F-0.505
sS'ILE-LEU'
p110
F0.002
sS'TRP-VAL'
p111
F-0.54500000000000004
sS'PHE-PRO'
p112
F-0.88200000000000001
sS'ALA-ALA'
p113
F-1.6759999999999999
sS'ARG-TRP'
p114
F-0.34999999999999998
sS'MET-GLN'
p115
F-0.32000000000000001
sS'ILE-LYS'
p116
F0.249
sS'MET-ARG'
p117
F-0.36899999999999999
sS'ALA-CYS'
p118
F-0.14199999999999999
sS'THR-ARG'
p119
F-0.85799999999999998
sS'CYS-ILE'
p120
F0.32000000000000001
sS'LEU-ASN'
p121
F-0.39600000000000002
sS'LEU-ASP'
p122
F-0.182
sS'PHE-TRP'
p123
F0.34300000000000003
sS'MET-GLY'
p124
F-0.61799999999999999
sS'THR-PHE'
p125
F-0.42799999999999999
sS'MET-GLU'
p126
F-0.191
sS'THR-TRP'
p127
F-0.495
sS'THR-TYR'
p128
F-0.56999999999999995
sS'CYS-VAL'
p129
F0.19900000000000001
sS'ARG-ALA'
p130
F-0.75900000000000001
sS'ALA-TYR'
p131
F-0.76200000000000001
sS'ASP-PRO'
p132
F-0.90300000000000002
sS'ARG-CYS'
p133
F-0.035999999999999997
sS'GLN-ARG'
p134
F-0.71299999999999997
sS'HIS-TRP'
p135
F0.001
sS'PRO-SER'
p136
F-1.117
sS'VAL-VAL'
p137
F-1.5069999999999999
sS'LEU-LYS'
p138
F0.044999999999999998
sS'GLY-LYS'
p139
F-0.98999999999999999
sS'CYS-ASN'
p140
F-0.22700000000000001
sS'GLY-TRP'
p141
F-0.96999999999999997
sS'THR-CYS'
p142
F-0.027
sS'LYS-LYS'
p143
F-0.85699999999999998
sS'CYS-ASP'
p144
F-0.10299999999999999
sS'TYR-ASP'
p145
F-0.89400000000000002
sS'VAL-PRO'
p146
F-0.51300000000000001
sS'THR-VAL'
p147
F-0.48599999999999999
sS'ASP-TYR'
p148
F-0.84199999999999997
sS'PRO-CYS'
p149
F-0.28699999999999998
sS'VAL-SER'
p150
F-0.66100000000000003
sS'ARG-HIS'
p151
F-0.59399999999999997
sS'CYS-PRO'
p152
F-0.27000000000000002
sS'MET-LYS'
p153
F-0.28199999999999997
sS'ALA-SER'
p154
F-0.93799999999999994
sS'TYR-SER'
p155
F-0.93600000000000005
sS'GLY-ARG'
p156
F-1.169
sS'GLN-ALA'
p157
F-0.70499999999999996
sS'MET-LEU'
p158
F-0.114
sS'ASN-HIS'
p159
F-0.83199999999999996
sS'VAL-CYS'
p160
F0.29399999999999998
sS'GLN-TYR'
p161
F-0.29099999999999998
sS'GLN-PHE'
p162
F-0.505
sS'ILE-ASN'
p163
F-0.31900000000000001
sS'GLU-ASN'
p164
F-0.755
sS'CYS-ALA'
p165
F-0.16
sS'ASN-ASP'
p166
F-0.73099999999999998
sS'ASN-PRO'
p167
F-1.0820000000000001
sS'PRO-ARG'
p168
F-0.93300000000000005
sS'LYS-TRP'
p169
F0.217
sS'ASN-ASN'
p170
F-2.2360000000000002
sS'ASN-THR'
p171
F-1.04
sS'THR-ALA'
p172
F-0.67300000000000004
sS'LYS-ALA'
p173
F-0.311
sS'LYS-PRO'
p174
F-0.83799999999999997
sS'SER-GLN'
p175
F-0.98199999999999998
sS'ILE-VAL'
p176
F0.094
sS'ASP-ARG'
p177
F-0.89000000000000001
sS'ASP-MET'
p178
F0.158
sS'CYS-TYR'
p179
F0.36799999999999999
sS'PRO-TRP'
p180
F-0.379
sS'THR-GLU'
p181
F-0.78900000000000003
sS'TRP-ALA'
p182
F-0.93200000000000005
sS'ILE-CYS'
p183
F0.29899999999999999
sS'LYS-ILE'
p184
F0.080000000000000002
sS'GLN-CYS'
p185
F-0.29199999999999998
sS'TYR-ALA'
p186
F-0.54700000000000004
sS'ARG-ASP'
p187
F-1.0669999999999999
sS'SER-GLU'
p188
F-0.96699999999999997
sS'TRP-HIS'
p189
F-0.48399999999999999
sS'ALA-ASN'
p190
F-0.78000000000000003
sS'GLU-CYS'
p191
F0.36599999999999999
sS'PRO-MET'
p192
F-0.33800000000000002
sS'TYR-HIS'
p193
F-0.66600000000000004
sS'PHE-MET'
p194
F0.025999999999999999
sS'GLU-TYR'
p195
F-0.60199999999999998
sS'SER-TRP'
p196
F-0.88
sS'PHE-ARG'
p197
F-0.28499999999999998
sS'GLY-ILE'
p198
F-0.66600000000000004
sS'TYR-VAL'
p199
F-0.14099999999999999
sS'ASN-TYR'
p200
F-0.96699999999999997
sS'SER-ILE'
p201
F-0.53200000000000003
sS'GLN-PRO'
p202
F-0.95099999999999996
sS'PHE-TYR'
p203
F-0.84799999999999998
sS'ALA-VAL'
p204
F-0.46800000000000003
sS'HIS-HIS'
p205
F-2.794
sS'THR-ASN'
p206
F-0.754
sS'CYS-LEU'
p207
F0.35999999999999999
sS'LYS-MET'
p208
F-0.16900000000000001
sS'LYS-ASP'
p209
F-0.56200000000000006
sS'HIS-ASN'
p210
F-0.93600000000000005
sS'ILE-GLN'
p211
F-0.59299999999999997
sS'VAL-HIS'
p212
F-0.20399999999999999
sS'ALA-LEU'
p213
F-0.63600000000000001
sS'HIS-ASP'
p214
F-0.81699999999999995
sS'ILE-TYR'
p215
F-0.47499999999999998
sS'ILE-GLU'
p216
F-0.186
sS'ASN-TRP'
p217
F-0.85599999999999998
sS'ILE-GLY'
p218
F-0.61399999999999999
sS'ASN-CYS'
p219
F-0.42699999999999999
sS'GLU-SER'
p220
F-1.0800000000000001
sS'ALA-TRP'
p221
F-0.69399999999999995
sS'HIS-CYS'
p222
F0.28799999999999998
sS'HIS-MET'
p223
F-0.66800000000000004
sS'ILE-PRO'
p224
F-0.53600000000000003
sS'LYS-PHE'
p225
F-0.34399999999999997
sS'TRP-PRO'
p226
F-0.36899999999999999
sS'GLU-TRP'
p227
F0.16700000000000001
sS'PHE-HIS'
p228
F-0.46999999999999997
sS'GLY-TYR'
p229
F-0.97899999999999998
sS'SER-GLY'
p230
F-1.234
sS'CYS-TRP'
p231
F0.55200000000000005
sS'ASP-LYS'
p232
F-0.32200000000000001
sS'ASN-ILE'
p233
F-0.29299999999999998
sS'HIS-SER'
p234
F-0.98499999999999999
sS'LYS-CYS'
p235
F-0.14799999999999999
sS'GLY-PHE'
p236
F-0.77900000000000003
sS'GLY-LEU'
p237
F-0.75600000000000001
sS'MET-SER'
p238
F-0.501
sS'VAL-ALA'
p239
F-0.46600000000000003
sS'SER-LEU'
p240
F-0.53700000000000003
sS'TRP-LYS'
p241
F0.19900000000000001
sS'VAL-TYR'
p242
F-0.21099999999999999
sS'VAL-PHE'
p243
F-0.23599999999999999
sS'ARG-THR'
p244
F-0.69099999999999995
sS'TYR-TRP'
p245
F-0.94499999999999995
sS'GLN-GLN'
p246
F-2.0310000000000001
sS'GLU-PHE'
p247
F-0.127
sS'VAL-ILE'
p248
F0.066000000000000003
sS'HIS-GLN'
p249
F-0.38700000000000001
sS'GLN-GLY'
p250
F-1.268
sS'PHE-ALA'
p251
F-0.52000000000000002
sS'HIS-GLU'
p252
F-0.495
sS'ARG-PRO'
p253
F-1.2789999999999999
sS'HIS-GLY'
p254
F-1.095
sS'SER-ASN'
p255
F-1.006
sS'ALA-THR'
p256
F-0.63400000000000001
sS'GLN-GLU'
p257
F-0.627
sS'GLN-LYS'
p258
F-0.54300000000000004
sS'CYS-HIS'
p259
F0.28499999999999998
sS'GLN-ASP'
p260
F-0.73099999999999998
sS'LEU-HIS'
p261
F0.0050000000000000001
sS'SER-LYS'
p262
F-0.56200000000000006
sS'TRP-LEU'
p263
F0.081000000000000003
sS'CYS-SER'
p264
F-0.189
sS'LYS-THR'
p265
F-0.34300000000000003
sS'HIS-LEU'
p266
F-0.17799999999999999
sS'LEU-ARG'
p267
F-0.27500000000000002
sS'GLY-VAL'
p268
F-0.99099999999999999
sS'GLN-ASN'
p269
F-0.76800000000000002
sS'TYR-ARG'
p270
F-0.92000000000000004
sS'PRO-TYR'
p271
F-0.78200000000000003
sS'ASP-PHE'
p272
F-0.28799999999999998
sS'TRP-CYS'
p273
F0.53400000000000003
sS'ASN-LEU'
p274
F-0.53900000000000003
sS'SER-MET'
p275
F-0.42999999999999999
sS'HIS-ILE'
p276
F-0.070999999999999994
sS'SER-TYR'
p277
F-1.0589999999999999
sS'MET-TYR'
p278
F0.031
sS'GLU-ILE'
p279
F-0.16800000000000001
sS'PHE-CYS'
p280
F-0.64000000000000001
sS'PRO-LEU'
p281
F-0.47999999999999998
sS'GLY-MET'
p282
F-0.54400000000000004
sS'ARG-ILE'
p283
F-0.41599999999999998
sS'HIS-THR'
p284
F-0.60899999999999999
sS'THR-GLN'
p285
F-0.88200000000000001
sS'TRP-THR'
p286
F-0.47699999999999998
sS'LYS-LEU'
p287
F0.088999999999999996
sS'THR-GLY'
p288
F-1.2609999999999999
sS'ASP-TRP'
p289
F0.251
sS'TYR-MET'
p290
F0.02
sS'PHE-ILE'
p291
F0.039
sS'PRO-VAL'
p292
F-0.36399999999999999
sS'MET-ASN'
p293
F-0.375
sS'LEU-TYR'
p294
F-0.435
sS'PHE-PHE'
p295
F-2.1000000000000001
sS'CYS-PHE'
p296
F-0.22800000000000001
sS'TRP-ILE'
p297
F-0.21099999999999999
sS'PRO-ASN'
p298
F-1.042
sS'CYS-CYS'
p299
F-3.722
sS'SER-ASP'
p300
F-0.85299999999999998
sS'ARG-MET'
p301
F-0.308
sS'SER-PHE'
p302
F-0.877
sS'SER-SER'
p303
F-2.0150000000000001
sS'ASN-LYS'
p304
F-0.67500000000000004
sS'CYS-THR'
p305
F0.16600000000000001
sS'ILE-TRP'
p306
F-0.29199999999999998
sS'PRO-ASP'
p307
F-0.99099999999999999
sS'THR-ASP'
p308
F-0.94999999999999996
sS'SER-CYS'
p309
F-0.123
sS'MET-ASP'
p310
F-0.25700000000000001
sS'GLN-MET'
p311
F0.034000000000000002
sS'MET-TRP'
p312
F1.079
sS'ARG-VAL'
p313
F-0.38600000000000001
sS'GLY-GLN'
p314
F-1.091
sS'THR-LYS'
p315
F-0.26600000000000001
sS'TRP-MET'
p316
F1.109
sS'ARG-ARG'
p317
F-2.5190000000000001
sS'ILE-ASP'
p318
F-0.29299999999999998
sS'GLY-GLY'
p319
F-1.9990000000000001
sS'GLY-GLU'
p320
F-0.999
sS'ALA-ARG'
p321
F-0.86899999999999999
sS'GLU-ARG'
p322
F-0.63900000000000001
sS'HIS-VAL'
p323
F-0.128
sS'VAL-ARG'
p324
F-0.47899999999999998
sS'ASN-SER'
p325
F-1.244
sS'ALA-LYS'
p326
F-0.39600000000000002
sS'VAL-GLN'
p327
F-0.14399999999999999
sS'TRP-ASN'
p328
F-1.073
sS'TYR-ILE'
p329
F-0.36899999999999999
sS'TRP-GLY'
p330
F-0.96799999999999997
sS'PRO-PHE'
p331
F-0.88400000000000001
sS'GLY-HIS'
p332
F-1.018
sS'PHE-SER'
p333
F-0.86299999999999999
sS'TRP-ASP'
p334
F0.17999999999999999
sS'TRP-GLN'
p335
F-0.83299999999999996
sS'LEU-ALA'
p336
F-0.51200000000000001
sS'VAL-GLU'
p337
F-0.314
sS'ALA-HIS'
p338
F-0.90500000000000003
sS'ARG-ASN'
p339
F-0.97699999999999998
sS'LEU-THR'
p340
F-0.42399999999999999
sS'TYR-CYS'
p341
F0.29499999999999998
sS'THR-THR'
p342
F-1.597
sS'THR-LEU'
p343
F-0.35099999999999998
sS'VAL-ASN'
p344
F-0.39400000000000002
sS'LEU-TRP'
p345
F-0.122
sS'GLU-ASP'
p346
F-0.59299999999999997
sS'ILE-SER'
p347
F-0.55500000000000005
sS'ILE-ARG'
p348
F-0.19600000000000001
sS'TRP-GLU'
p349
F-0.218
sS'ILE-MET'
p350
F0.055
sS'MET-PHE'
p351
F-0.35399999999999998
sS'PRO-ALA'
p352
F-1.1619999999999999
sS'PRO-GLY'
p353
F-1.2130000000000001
sS'GLN-THR'
p354
F-0.57699999999999996
sS'MET-ALA'
p355
F-0.126
sS'TRP-SER'
p356
F-0.81399999999999995
sS'ASP-HIS'
p357
F-0.58999999999999997
sS'ARG-SER'
p358
F-1.012
sS'GLN-HIS'
p359
F-0.64700000000000002
sS'HIS-PHE'
p360
F-0.38300000000000001
sS'LEU-LEU'
p361
F-1.0189999999999999
sS'ALA-GLN'
p362
F-0.79000000000000004
sS'ASP-ASN'
p363
F-0.60699999999999998
sS'SER-VAL'
p364
F-0.58099999999999996
sS'MET-ILE'
p365
F0.308
sS'ALA-PRO'
p366
F-0.93999999999999995
sS'ASP-ASP'
p367
F-1.454
sS'ALA-GLY'
p368
F-0.85799999999999998
sS'TRP-TRP'
p369
F-2.0539999999999998
sS'MET-CYS'
p370
F1.494
sS'ALA-GLU'
p371
F-0.74399999999999999
sS'THR-PRO'
p372
F-1.069
sS'HIS-ALA'
p373
F-0.64300000000000002
sS'GLN-ILE'
p374
F-0.36699999999999999
sS'GLU-VAL'
p375
F-0.67000000000000004
sS'LYS-ASN'
p376
F-0.624
sS'ASN-ALA'
p377
F-0.84199999999999997
sS'THR-ILE'
p378
F-0.28899999999999998
sS'ASP-CYS'
p379
F-0.20699999999999999
sS'PRO-LYS'
p380
F-0.91400000000000003
sS'TYR-TYR'
p381
F-2.7250000000000001
sS'ARG-LYS'
p382
F-0.252
sS'ILE-ALA'
p383
F-0.38500000000000001
sS'ASP-SER'
p384
F-0.89600000000000002
sS'CYS-LYS'
p385
F-0.021999999999999999
sS'GLU-ALA'
p386
F-0.78900000000000003
sS'PHE-GLU'
p387
F0.012
sS'GLU-LEU'
p388
F-0.20699999999999999
sS'PHE-GLY'
p389
F-0.84199999999999997
sS'LYS-HIS'
p390
F-0.084000000000000005
sS'HIS-PRO'
p391
F-1.101
sS'ILE-ILE'
p392
F-1.294
sS'MET-HIS'
p393
F-0.31
sS'VAL-GLY'
p394
F-0.752
sS'THR-MET'
p395
F-0.25800000000000001
sS'PHE-THR'
p396
F-0.28199999999999997
sS'VAL-TRP'
p397
F0.25
sS'PHE-LYS'
p398
F-0.36799999999999999
sS'GLY-PRO'
p399
F-1.3819999999999999
sS'PHE-GLN'
p400
F-0.35599999999999998
sS'LEU-PHE'
p401
F-0.20399999999999999
s.