(dp1
S'MET-MET'
p2
F-2.1040000000000001
sS'PRO-ILE'
p3
F-0.629
sS'TYR-LYS'
p4
F-0.78700000000000003
sS'VAL-ASP'
p5
F-0.49199999999999999
sS'ASP-GLN'
p6
F-0.82299999999999995
sS'HIS-TYR'
p7
F-1.179
sS'ASP-GLU'
p8
F-0.496
sS'ALA-ASP'
p9
F-0.65200000000000002
sS'ASP-GLY'
p10
F-1.0149999999999999
sS'LEU-VAL'
p11
F-0.086999999999999994
sS'TRP-TYR'
p12
F-1.2490000000000001
sS'GLN-TRP'
p13
F-0.54500000000000004
sS'TRP-PHE'
p14
F0.19400000000000001
sS'ARG-TYR'
p15
F-1.3779999999999999
sS'GLU-LYS'
p16
F-0.59599999999999997
sS'ILE-HIS'
p17
F-0.24299999999999999
sS'LEU-MET'
p18
F0.217
sS'GLU-HIS'
p19
F-1.073
sS'GLY-THR'
p20
F-1.208
sS'ARG-GLU'
p21
F-0.92200000000000004
sS'PHE-ASN'
p22
F-0.751
sS'ASN-MET'
p23
F-0.47699999999999998
sS'PRO-THR'
p24
F-1.369
sS'TYR-GLN'
p25
F-0.29499999999999998
sS'ARG-GLY'
p26
F-1.3129999999999999
sS'VAL-THR'
p27
F-0.76900000000000002
sS'ASP-ILE'
p28
F-0.57199999999999995
sS'THR-HIS'
p29
F-0.24199999999999999
sS'TYR-GLU'
p30
F-0.499
sS'ARG-GLN'
p31
F-0.97499999999999998
sS'TYR-GLY'
p32
F-0.95899999999999996
sS'PHE-ASP'
p33
F-0.49099999999999999
sS'CYS-ARG'
p34
F0.021000000000000001
sS'GLY-ASN'
p35
F-1.431
sS'VAL-LYS'
p36
F-0.28999999999999998
sS'LEU-ILE'
p37
F-0.051999999999999998
sS'GLN-LEU'
p38
F-0.19
sS'GLU-MET'
p39
F-0.13
sS'ASP-THR'
p40
F-1.0469999999999999
sS'ASN-PHE'
p41
F-0.63200000000000001
sS'GLU-PRO'
p42
F-0.95399999999999996
sS'TYR-LEU'
p43
F-0.43099999999999999
sS'LYS-ARG'
p44
F-0.34300000000000003
sS'GLY-ASP'
p45
F-1.149
sS'PRO-GLN'
p46
F-1.0800000000000001
sS'CYS-MET'
p47
F1.641
sS'HIS-ARG'
p48
F-0.48199999999999998
sS'GLU-THR'
p49
F-0.746
sS'ILE-THR'
p50
F-0.52000000000000002
sS'SER-PRO'
p51
F-1.429
sS'GLY-CYS'
p52
F-0.82999999999999996
sS'ARG-LEU'
p53
F-0.55000000000000004
sS'PRO-GLU'
p54
F-1.073
sS'ASP-LEU'
p55
F-0.48399999999999999
sS'PHE-VAL'
p56
F-0.44600000000000001
sS'ASN-VAL'
p57
F-0.49399999999999999
sS'ALA-MET'
p58
F-0.13300000000000001
sS'LEU-PRO'
p59
F-0.89300000000000002
sS'LEU-SER'
p60
F-0.628
sS'ASN-ARG'
p61
F-0.86799999999999999
sS'SER-THR'
p62
F-0.98199999999999998
sS'LYS-VAL'
p63
F-0.35999999999999999
sS'LYS-GLN'
p64
F-0.89200000000000002
sS'GLN-VAL'
p65
F-0.223
sS'TYR-PHE'
p66
F-0.65400000000000003
sS'ASP-VAL'
p67
F-0.38500000000000001
sS'ASN-GLY'
p68
F-1.296
sS'ARG-PHE'
p69
F-0.63400000000000001
sS'SER-HIS'
p70
F-1.159
sS'ALA-ILE'
p71
F-0.46600000000000003
sS'ASN-GLU'
p72
F-0.71099999999999997
sS'CYS-GLN'
p73
F-0.67100000000000004
sS'TYR-PRO'
p74
F-0.61599999999999999
sS'LYS-GLU'
p75
F-0.88600000000000001
sS'CYS-GLU'
p76
F0.14799999999999999
sS'ASN-GLN'
p77
F-1.1160000000000001
sS'CYS-GLY'
p78
F-0.501
sS'GLN-SER'
p79
F-1.1799999999999999
sS'HIS-LYS'
p80
F-0.502
sS'LYS-GLY'
p81
F-0.86199999999999999
sS'VAL-MET'
p82
F-0.031
sS'GLU-GLY'
p83
F-1.044
sS'THR-SER'
p84
F-0.77500000000000002
sS'TYR-THR'
p85
F-0.54500000000000004
sS'PRO-PRO'
p86
F-2.3340000000000001
sS'ILE-PHE'
p87
F-0.023
sS'PHE-LEU'
p88
F-0.32900000000000001
sS'GLU-GLU'
p89
F-1.786
sS'SER-ARG'
p90
F-0.95099999999999996
sS'GLY-ALA'
p91
F-1.0069999999999999
sS'TYR-ASN'
p92
F-1.571
sS'GLU-GLN'
p93
F-0.61899999999999999
sS'TRP-ARG'
p94
F-0.64500000000000002
sS'LEU-GLU'
p95
F-0.26000000000000001
sS'LEU-GLY'
p96
F-0.59099999999999997
sS'LYS-SER'
p97
F-0.67100000000000004
sS'MET-VAL'
p98
F0.104
sS'SER-ALA'
p99
F-0.90300000000000002
sS'PRO-HIS'
p100
F-1.339
sS'MET-THR'
p101
F-0.54400000000000004
sS'ALA-PHE'
p102
F-0.627
sS'MET-PRO'
p103
F-0.82999999999999996
sS'GLY-SER'
p104
F-1.202
sS'LEU-GLN'
p105
F-0.20100000000000001
sS'VAL-LEU'
p106
F-0.16600000000000001
sS'LEU-CYS'
p107
F0.33100000000000002
sS'LYS-TYR'
p108
F-0.61399999999999999
sS'ASP-ALA'
p109
F-0.65300000000000002
sS'ILE-LEU'
p110
F-0.074999999999999997
sS'TRP-VAL'
p111
F-0.442
sS'PHE-PRO'
p112
F-0.90300000000000002
sS'ALA-ALA'
p113
F-1.571
sS'ARG-TRP'
p114
F-0.49399999999999999
sS'MET-GLN'
p115
F-0.64900000000000002
sS'ILE-LYS'
p116
F0.070000000000000007
sS'MET-ARG'
p117
F-0.623
sS'ALA-CYS'
p118
F-0.34599999999999997
sS'THR-ARG'
p119
F-0.80500000000000005
sS'CYS-ILE'
p120
F0.192
sS'LEU-ASN'
p121
F-0.55900000000000005
sS'LEU-ASP'
p122
F-0.317
sS'PHE-TRP'
p123
F0.14899999999999999
sS'MET-GLY'
p124
F-0.61799999999999999
sS'THR-PHE'
p125
F-0.44800000000000001
sS'MET-GLU'
p126
F-0.26600000000000001
sS'THR-TRP'
p127
F-0.621
sS'THR-TYR'
p128
F-0.58199999999999996
sS'CYS-VAL'
p129
F-0.124
sS'ARG-ALA'
p130
F-0.72599999999999998
sS'ALA-TYR'
p131
F-0.70699999999999996
sS'ASP-PRO'
p132
F-1.0940000000000001
sS'ARG-CYS'
p133
F-0.253
sS'GLN-ARG'
p134
F-0.73899999999999999
sS'HIS-TRP'
p135
F-0.28299999999999997
sS'PRO-SER'
p136
F-1.327
sS'VAL-VAL'
p137
F-1.486
sS'LEU-LYS'
p138
F-0.083000000000000004
sS'GLY-LYS'
p139
F-0.94599999999999995
sS'CYS-ASN'
p140
F-0.41299999999999998
sS'GLY-TRP'
p141
F-0.94599999999999995
sS'THR-CYS'
p142
F-0.11600000000000001
sS'LYS-LYS'
p143
F-0.80600000000000005
sS'CYS-ASP'
p144
F-0.34100000000000003
sS'TYR-ASP'
p145
F-1.026
sS'VAL-PRO'
p146
F-0.74399999999999999
sS'THR-VAL'
p147
F-0.55100000000000005
sS'ASP-TYR'
p148
F-0.87
sS'PRO-CYS'
p149
F-0.54800000000000004
sS'VAL-SER'
p150
F-0.68300000000000005
sS'ARG-HIS'
p151
F-0.69699999999999995
sS'CYS-PRO'
p152
F-0.56100000000000005
sS'MET-LYS'
p153
F-0.35999999999999999
sS'ALA-SER'
p154
F-0.93000000000000005
sS'TYR-SER'
p155
F-1.014
sS'GLY-ARG'
p156
F-1.1899999999999999
sS'GLN-ALA'
p157
F-0.78000000000000003
sS'MET-LEU'
p158
F-0.247
sS'ASN-HIS'
p159
F-0.90800000000000003
sS'VAL-CYS'
p160
F-0.032000000000000001
sS'GLN-TYR'
p161
F-0.42199999999999999
sS'GLN-PHE'
p162
F-0.70099999999999996
sS'ILE-ASN'
p163
F-0.57399999999999995
sS'GLU-ASN'
p164
F-0.85599999999999998
sS'CYS-ALA'
p165
F-0.30399999999999999
sS'ASN-ASP'
p166
F-0.97199999999999998
sS'ASN-PRO'
p167
F-1.2969999999999999
sS'PRO-ARG'
p168
F-1.006
sS'LYS-TRP'
p169
F0.14699999999999999
sS'ASN-ASN'
p170
F-2.149
sS'ASN-THR'
p171
F-1.1240000000000001
sS'THR-ALA'
p172
F-0.71099999999999997
sS'LYS-ALA'
p173
F-0.27600000000000002
sS'LYS-PRO'
p174
F-0.91900000000000004
sS'SER-GLN'
p175
F-1.0700000000000001
sS'ILE-VAL'
p176
F0.071999999999999995
sS'ASP-ARG'
p177
F-0.85899999999999999
sS'ASP-MET'
p178
F-0.01
sS'CYS-TYR'
p179
F0.062
sS'PRO-TRP'
p180
F-0.629
sS'THR-GLU'
p181
F-0.80000000000000004
sS'TRP-ALA'
p182
F-1.0589999999999999
sS'ILE-CYS'
p183
F0.17599999999999999
sS'LYS-ILE'
p184
F-0.083000000000000004
sS'GLN-CYS'
p185
F-0.59699999999999998
sS'TYR-ALA'
p186
F-0.49399999999999999
sS'ARG-ASP'
p187
F-1.0640000000000001
sS'SER-GLU'
p188
F-1.0549999999999999
sS'TRP-HIS'
p189
F-0.62
sS'ALA-ASN'
p190
F-0.84799999999999998
sS'GLU-CYS'
p191
F0.24199999999999999
sS'PRO-MET'
p192
F-0.65600000000000003
sS'TYR-HIS'
p193
F-0.76000000000000001
sS'PHE-MET'
p194
F-0.155
sS'GLU-TYR'
p195
F-0.752
sS'SER-TRP'
p196
F-1.0309999999999999
sS'PHE-ARG'
p197
F-0.45400000000000001
sS'GLY-ILE'
p198
F-0.63400000000000001
sS'TYR-VAL'
p199
F-0.14999999999999999
sS'ASN-TYR'
p200
F-1.1719999999999999
sS'SER-ILE'
p201
F-0.65600000000000003
sS'GLN-PRO'
p202
F-1.214
sS'PHE-TYR'
p203
F-0.998
sS'ALA-VAL'
p204
F-0.48299999999999998
sS'HIS-HIS'
p205
F-2.6749999999999998
sS'THR-ASN'
p206
F-0.86399999999999999
sS'CYS-LEU'
p207
F0.35099999999999998
sS'LYS-MET'
p208
F-0.32500000000000001
sS'LYS-ASP'
p209
F-0.78900000000000003
sS'HIS-ASN'
p210
F-0.99099999999999999
sS'ILE-GLN'
p211
F-0.76100000000000001
sS'VAL-HIS'
p212
F-0.17599999999999999
sS'ALA-LEU'
p213
F-0.61199999999999999
sS'HIS-ASP'
p214
F-0.95799999999999996
sS'ILE-TYR'
p215
F-0.44400000000000001
sS'ILE-GLU'
p216
F-0.19600000000000001
sS'ASN-TRP'
p217
F-1.0469999999999999
sS'ILE-GLY'
p218
F-0.625
sS'ASN-CYS'
p219
F-0.51800000000000002
sS'GLU-SER'
p220
F-1.1579999999999999
sS'ALA-TRP'
p221
F-0.75600000000000001
sS'HIS-CYS'
p222
F-0.02
sS'HIS-MET'
p223
F-1.0049999999999999
sS'ILE-PRO'
p224
F-0.80400000000000005
sS'LYS-PHE'
p225
F-0.45200000000000001
sS'TRP-PRO'
p226
F-0.65200000000000002
sS'GLU-TRP'
p227
F0.089999999999999997
sS'PHE-HIS'
p228
F-0.628
sS'GLY-TYR'
p229
F-0.93100000000000005
sS'SER-GLY'
p230
F-1.2070000000000001
sS'CYS-TRP'
p231
F0.38500000000000001
sS'ASP-LYS'
p232
F-0.495
sS'ASN-ILE'
p233
F-0.54000000000000004
sS'HIS-SER'
p234
F-1.083
sS'LYS-CYS'
p235
F-0.29599999999999999
sS'GLY-PHE'
p236
F-0.77500000000000002
sS'GLY-LEU'
p237
F-0.74299999999999999
sS'MET-SER'
p238
F-0.48699999999999999
sS'VAL-ALA'
p239
F-0.48999999999999999
sS'SER-LEU'
p240
F-0.54200000000000004
sS'TRP-LYS'
p241
F-0.014
sS'VAL-TYR'
p242
F-0.223
sS'VAL-PHE'
p243
F-0.26600000000000001
sS'ARG-THR'
p244
F-0.65600000000000003
sS'TYR-TRP'
p245
F-1.268
sS'GLN-GLN'
p246
F-1.968
sS'GLU-PHE'
p247
F-0.13900000000000001
sS'VAL-ILE'
p248
F0.044999999999999998
sS'HIS-GLN'
p249
F-0.58999999999999997
sS'GLN-GLY'
p250
F-1.302
sS'PHE-ALA'
p251
F-0.51400000000000001
sS'HIS-GLU'
p252
F-0.71899999999999997
sS'ARG-PRO'
p253
F-1.3240000000000001
sS'HIS-GLY'
p254
F-1.1459999999999999
sS'SER-ASN'
p255
F-1.137
sS'ALA-THR'
p256
F-0.64300000000000002
sS'GLN-GLU'
p257
F-0.81999999999999995
sS'GLN-LYS'
p258
F-0.68899999999999995
sS'CYS-HIS'
p259
F-0.106
sS'GLN-ASP'
p260
F-0.82799999999999996
sS'LEU-HIS'
p261
F-0.187
sS'SER-LYS'
p262
F-0.64100000000000001
sS'TRP-LEU'
p263
F-0.123
sS'CYS-SER'
p264
F-0.26300000000000001
sS'LYS-THR'
p265
F-0.35299999999999998
sS'HIS-LEU'
p266
F-0.313
sS'LEU-ARG'
p267
F-0.28599999999999998
sS'GLY-VAL'
p268
F-0.96999999999999997
sS'GLN-ASN'
p269
F-0.89700000000000002
sS'TYR-ARG'
p270
F-1.0840000000000001
sS'PRO-TYR'
p271
F-0.93200000000000005
sS'ASP-PHE'
p272
F-0.433
sS'TRP-CYS'
p273
F0.36699999999999999
sS'ASN-LEU'
p274
F-0.745
sS'SER-MET'
p275
F-0.45800000000000002
sS'HIS-ILE'
p276
F-0.223
sS'SER-TYR'
p277
F-1.2270000000000001
sS'MET-TYR'
p278
F-0.087999999999999995
sS'GLU-ILE'
p279
F-0.20200000000000001
sS'PHE-CYS'
p280
F-0.72999999999999998
sS'PRO-LEU'
p281
F-0.63700000000000001
sS'GLY-MET'
p282
F-0.56100000000000005
sS'ARG-ILE'
p283
F-0.45700000000000002
sS'HIS-THR'
p284
F-0.63600000000000001
sS'THR-GLN'
p285
F-0.89200000000000002
sS'TRP-THR'
p286
F-0.67400000000000004
sS'LYS-LEU'
p287
F-0.041000000000000002
sS'THR-GLY'
p288
F-1.2450000000000001
sS'ASP-TRP'
p289
F0.29299999999999998
sS'TYR-MET'
p290
F-0.086999999999999994
sS'PHE-ILE'
p291
F-0.029999999999999999
sS'PRO-VAL'
p292
F-0.57899999999999996
sS'MET-ASN'
p293
F-0.58499999999999996
sS'LEU-TYR'
p294
F-0.42499999999999999
sS'PHE-PHE'
p295
F-2.016
sS'CYS-PHE'
p296
F-0.41399999999999998
sS'TRP-ILE'
p297
F-0.13600000000000001
sS'PRO-ASN'
p298
F-1.222
sS'CYS-CYS'
p299
F-3.7789999999999999
sS'SER-ASP'
p300
F-0.95499999999999996
sS'ARG-MET'
p301
F-0.55700000000000005
sS'SER-PHE'
p302
F-0.86399999999999999
sS'SER-SER'
p303
F-1.95
sS'ASN-LYS'
p304
F-0.75700000000000001
sS'CYS-THR'
p305
F0.090999999999999998
sS'ILE-TRP'
p306
F-0.25900000000000001
sS'PRO-ASP'
p307
F-1.278
sS'THR-ASP'
p308
F-0.97699999999999998
sS'SER-CYS'
p309
F-0.22700000000000001
sS'MET-ASP'
p310
F-0.38800000000000001
sS'GLN-MET'
p311
F-0.185
sS'MET-TRP'
p312
F0.78900000000000003
sS'ARG-VAL'
p313
F-0.40999999999999998
sS'GLY-GLN'
p314
F-1.1339999999999999
sS'THR-LYS'
p315
F-0.27900000000000003
sS'TRP-MET'
p316
F0.82599999999999996
sS'ARG-ARG'
p317
F-2.2599999999999998
sS'ILE-ASP'
p318
F-0.51200000000000001
sS'GLY-GLY'
p319
F-1.9379999999999999
sS'GLY-GLU'
p320
F-1.0169999999999999
sS'ALA-ARG'
p321
F-0.82799999999999996
sS'GLU-ARG'
p322
F-0.67100000000000004
sS'HIS-VAL'
p323
F-0.20200000000000001
sS'VAL-ARG'
p324
F-0.5
sS'ASN-SER'
p325
F-1.256
sS'ALA-LYS'
p326
F-0.36899999999999999
sS'VAL-GLN'
p327
F-0.19900000000000001
sS'TRP-ASN'
p328
F-1.3580000000000001
sS'TYR-ILE'
p329
F-0.35299999999999998
sS'TRP-GLY'
p330
F-1.0669999999999999
sS'PRO-PHE'
p331
F-0.92700000000000005
sS'GLY-HIS'
p332
F-0.96999999999999997
sS'PHE-SER'
p333
F-0.94399999999999995
sS'TRP-ASP'
p334
F0.109
sS'TRP-GLN'
p335
F-0.96899999999999997
sS'LEU-ALA'
p336
F-0.53800000000000003
sS'VAL-GLU'
p337
F-0.34200000000000003
sS'ALA-HIS'
p338
F-1.008
sS'ARG-ASN'
p339
F-1.0429999999999999
sS'LEU-THR'
p340
F-0.46500000000000002
sS'TYR-CYS'
p341
F0.014
sS'THR-THR'
p342
F-1.5600000000000001
sS'THR-LEU'
p343
F-0.442
sS'VAL-ASN'
p344
F-0.51400000000000001
sS'LEU-TRP'
p345
F-0.20599999999999999
sS'GLU-ASP'
p346
F-0.72099999999999997
sS'ILE-SER'
p347
F-0.55600000000000005
sS'ILE-ARG'
p348
F-0.21099999999999999
sS'TRP-GLU'
p349
F-0.39800000000000002
sS'ILE-MET'
p350
F-0.24199999999999999
sS'MET-PHE'
p351
F-0.55400000000000005
sS'PRO-ALA'
p352
F-1.21
sS'PRO-GLY'
p353
F-1.264
sS'GLN-THR'
p354
F-0.58199999999999996
sS'MET-ALA'
p355
F-0.34100000000000003
sS'TRP-SER'
p356
F-0.90400000000000003
sS'ASP-HIS'
p357
F-0.875
sS'ARG-SER'
p358
F-1.0049999999999999
sS'GLN-HIS'
p359
F-0.73599999999999999
sS'HIS-PHE'
p360
F-0.45100000000000001
sS'LEU-LEU'
p361
F-0.97399999999999998
sS'ALA-GLN'
p362
F-0.79400000000000004
sS'ASP-ASN'
p363
F-0.84499999999999997
sS'SER-VAL'
p364
F-0.66400000000000003
sS'MET-ILE'
p365
F0.0030000000000000001
sS'ALA-PRO'
p366
F-1.05
sS'ASP-ASP'
p367
F-1.5149999999999999
sS'ALA-GLY'
p368
F-0.84899999999999998
sS'TRP-TRP'
p369
F-2.0710000000000002
sS'MET-CYS'
p370
F1.165
sS'ALA-GLU'
p371
F-0.71699999999999997
sS'THR-PRO'
p372
F-1.276
sS'HIS-ALA'
p373
F-0.81999999999999995
sS'GLN-ILE'
p374
F-0.51000000000000001
sS'GLU-VAL'
p375
F-0.67600000000000005
sS'LYS-ASN'
p376
F-0.72299999999999998
sS'ASN-ALA'
p377
F-0.80900000000000005
sS'THR-ILE'
p378
F-0.39800000000000002
sS'ASP-CYS'
p379
F-0.38800000000000001
sS'PRO-LYS'
p380
F-1.0680000000000001
sS'TYR-TYR'
p381
F-2.6360000000000001
sS'ARG-LYS'
p382
F-0.36199999999999999
sS'ILE-ALA'
p383
F-0.40000000000000002
sS'ASP-SER'
p384
F-1.0289999999999999
sS'CYS-LYS'
p385
F0
sS'GLU-ALA'
p386
F-0.85899999999999999
sS'PHE-GLU'
p387
F-0.081000000000000003
sS'GLU-LEU'
p388
F-0.24399999999999999
sS'PHE-GLY'
p389
F-0.82599999999999996
sS'LYS-HIS'
p390
F-0.126
sS'HIS-PRO'
p391
F-1.3280000000000001
sS'ILE-ILE'
p392
F-1.276
sS'MET-HIS'
p393
F-0.53100000000000003
sS'VAL-GLY'
p394
F-0.72799999999999998
sS'THR-MET'
p395
F-0.42899999999999999
sS'PHE-THR'
p396
F-0.307
sS'VAL-TRP'
p397
F0.22700000000000001
sS'PHE-LYS'
p398
F-0.55100000000000005
sS'GLY-PRO'
p399
F-1.359
sS'PHE-GLN'
p400
F-0.53200000000000003
sS'LEU-PHE'
p401
F-0.253
s.