(dp1
S'MET-MET'
p2
F-1.2110000000000001
sS'PRO-ILE'
p3
F0.35099999999999998
sS'TYR-LYS'
p4
F0.36499999999999999
sS'VAL-ASP'
p5
F0.432
sS'ASP-GLN'
p6
F0.27300000000000002
sS'HIS-TYR'
p7
F0.092999999999999999
sS'ASP-GLU'
p8
F0.52800000000000002
sS'ALA-ASP'
p9
F0.024
sS'ASP-GLY'
p10
F-0.158
sS'LEU-VAL'
p11
F0.78600000000000003
sS'TRP-TYR'
p12
F0.070999999999999994
sS'GLN-TRP'
p13
F0.58099999999999996
sS'TRP-PHE'
p14
F1.3320000000000001
sS'ARG-TYR'
p15
F0.111
sS'GLU-LYS'
p16
F0.39200000000000002
sS'ILE-HIS'
p17
F0.61099999999999999
sS'LEU-MET'
p18
F0.97599999999999998
sS'GLU-HIS'
p19
F-0.0060000000000000001
sS'GLY-THR'
p20
F-0.40799999999999997
sS'ARG-GLU'
p21
F-0.032000000000000001
sS'PHE-ASN'
p22
F0.25
sS'ASN-MET'
p23
F0.60299999999999998
sS'PRO-THR'
p24
F-0.38
sS'TYR-GLN'
p25
F0.94899999999999995
sS'ARG-GLY'
p26
F-0.38700000000000001
sS'VAL-THR'
p27
F-0.060999999999999999
sS'ASP-ILE'
p28
F0.48999999999999999
sS'THR-HIS'
p29
F0.86499999999999999
sS'TYR-GLU'
p30
F0.54800000000000004
sS'ARG-GLN'
p31
F0.081000000000000003
sS'TYR-GLY'
p32
F-0.036999999999999998
sS'PHE-ASP'
p33
F0.502
sS'CYS-ARG'
p34
F1.089
sS'GLY-ASN'
p35
F-0.70399999999999996
sS'VAL-LYS'
p36
F0.69599999999999995
sS'LEU-ILE'
p37
F0.80800000000000005
sS'GLN-LEU'
p38
F0.69499999999999995
sS'GLU-MET'
p39
F0.90400000000000003
sS'ASP-THR'
p40
F-0.012
sS'ASN-PHE'
p41
F0.42299999999999999
sS'GLU-PRO'
p42
F-0.089999999999999997
sS'TYR-LEU'
p43
F0.46100000000000002
sS'LYS-ARG'
p44
F0.56399999999999995
sS'GLY-ASP'
p45
F-0.27700000000000002
sS'PRO-GLN'
p46
F-0.13100000000000001
sS'CYS-MET'
p47
F2.742
sS'HIS-ARG'
p48
F0.47299999999999998
sS'GLU-THR'
p49
F0.127
sS'ILE-THR'
p50
F0.47199999999999998
sS'SER-PRO'
p51
F-0.56200000000000006
sS'GLY-CYS'
p52
F-0.13100000000000001
sS'ARG-LEU'
p53
F0.41999999999999998
sS'PRO-GLU'
p54
F-0.01
sS'ASP-LEU'
p55
F0.53200000000000003
sS'PHE-VAL'
p56
F0.623
sS'ASN-VAL'
p57
F0.437
sS'ALA-MET'
p58
F0.96399999999999997
sS'LEU-PRO'
p59
F-0.094
sS'LEU-SER'
p60
F0.17699999999999999
sS'ASN-ARG'
p61
F0.123
sS'SER-THR'
p62
F-0.14499999999999999
sS'LYS-VAL'
p63
F0.47499999999999998
sS'LYS-GLN'
p64
F0.048000000000000001
sS'GLN-VAL'
p65
F0.69999999999999996
sS'TYR-PHE'
p66
F0.40600000000000003
sS'ASP-VAL'
p67
F0.50700000000000001
sS'ASN-GLY'
p68
F-0.55100000000000005
sS'ARG-PHE'
p69
F0.29699999999999999
sS'SER-HIS'
p70
F-0.22900000000000001
sS'ALA-ILE'
p71
F0.45800000000000002
sS'ASN-GLU'
p72
F0.19600000000000001
sS'CYS-GLN'
p73
F0.76800000000000002
sS'TYR-PRO'
p74
F0.27700000000000002
sS'LYS-GLU'
p75
F0.041000000000000002
sS'CYS-GLU'
p76
F0.97199999999999998
sS'ASN-GLN'
p77
F-0.21299999999999999
sS'CYS-GLY'
p78
F0.312
sS'GLN-SER'
p79
F-0.308
sS'HIS-LYS'
p80
F0.45100000000000001
sS'LYS-GLY'
p81
F-0.060999999999999999
sS'VAL-MET'
p82
F1.1679999999999999
sS'GLU-GLY'
p83
F-0.22
sS'THR-SER'
p84
F-0.036999999999999998
sS'TYR-THR'
p85
F0.45100000000000001
sS'PRO-PRO'
p86
F-1.4239999999999999
sS'ILE-PHE'
p87
F0.86499999999999999
sS'PHE-LEU'
p88
F0.68799999999999994
sS'GLU-GLU'
p89
F-0.68600000000000005
sS'SER-ARG'
p90
F-0.092999999999999999
sS'GLY-ALA'
p91
F-0.40300000000000002
sS'TYR-ASN'
p92
F-0.49099999999999999
sS'GLU-GLN'
p93
F0.31
sS'TRP-ARG'
p94
F0.434
sS'LEU-GLU'
p95
F0.70699999999999996
sS'LEU-GLY'
p96
F0.26500000000000001
sS'LYS-SER'
p97
F0.20499999999999999
sS'MET-VAL'
p98
F1.046
sS'SER-ALA'
p99
F-0.23899999999999999
sS'PRO-HIS'
p100
F-0.27000000000000002
sS'MET-THR'
p101
F0.27400000000000002
sS'ALA-PHE'
p102
F0.314
sS'MET-PRO'
p103
F0.053999999999999999
sS'GLY-SER'
p104
F-0.504
sS'LEU-GLN'
p105
F0.746
sS'VAL-LEU'
p106
F0.68000000000000005
sS'LEU-CYS'
p107
F1.2789999999999999
sS'LYS-TYR'
p108
F0.36299999999999999
sS'ASP-ALA'
p109
F0.24299999999999999
sS'ILE-LEU'
p110
F0.81299999999999994
sS'TRP-VAL'
p111
F0.54600000000000004
sS'PHE-PRO'
p112
F0.058000000000000003
sS'ALA-ALA'
p113
F-0.95799999999999996
sS'ARG-TRP'
p114
F0.53600000000000003
sS'MET-GLN'
p115
F0.33100000000000002
sS'ILE-LYS'
p116
F1.1279999999999999
sS'MET-ARG'
p117
F0.60399999999999998
sS'ALA-CYS'
p118
F0.66400000000000003
sS'THR-ARG'
p119
F0.058999999999999997
sS'CYS-ILE'
p120
F1.046
sS'LEU-ASN'
p121
F0.372
sS'LEU-ASP'
p122
F0.65600000000000003
sS'PHE-TRP'
p123
F1.373
sS'MET-GLY'
p124
F0.26600000000000001
sS'THR-PHE'
p125
F0.57799999999999996
sS'MET-GLU'
p126
F0.60199999999999998
sS'THR-TRP'
p127
F0.22800000000000001
sS'THR-TYR'
p128
F0.43099999999999999
sS'CYS-VAL'
p129
F0.86099999999999999
sS'ARG-ALA'
p130
F0.115
sS'ALA-TYR'
p131
F0.154
sS'ASP-PRO'
p132
F-0.14699999999999999
sS'ARG-CYS'
p133
F0.89800000000000002
sS'GLN-ARG'
p134
F0.108
sS'HIS-TRP'
p135
F0.63500000000000001
sS'PRO-SER'
p136
F-0.35699999999999998
sS'VAL-VAL'
p137
F-0.51100000000000001
sS'LEU-LYS'
p138
F0.92600000000000005
sS'GLY-LYS'
p139
F-0.20699999999999999
sS'CYS-ASN'
p140
F0.502
sS'GLY-TRP'
p141
F-0.13400000000000001
sS'THR-CYS'
p142
F0.63200000000000001
sS'LYS-LYS'
p143
F0.051999999999999998
sS'CYS-ASP'
p144
F0.69899999999999995
sS'TYR-ASP'
p145
F0.058999999999999997
sS'VAL-PRO'
p146
F0.26500000000000001
sS'THR-VAL'
p147
F0.31900000000000001
sS'ASP-TYR'
p148
F0.058999999999999997
sS'PRO-CYS'
p149
F0.29599999999999999
sS'VAL-SER'
p150
F0.064000000000000001
sS'ARG-HIS'
p151
F0.316
sS'CYS-PRO'
p152
F0.247
sS'MET-LYS'
p153
F0.46000000000000002
sS'ALA-SER'
p154
F-0.28699999999999998
sS'TYR-SER'
p155
F0.033000000000000002
sS'GLY-ARG'
p156
F-0.30099999999999999
sS'GLN-ALA'
p157
F0.17999999999999999
sS'MET-LEU'
p158
F0.63200000000000001
sS'ASN-HIS'
p159
F0.048000000000000001
sS'VAL-CYS'
p160
F0.97999999999999998
sS'GLN-TYR'
p161
F0.64800000000000002
sS'GLN-PHE'
p162
F0.504
sS'ILE-ASN'
p163
F0.45800000000000002
sS'GLU-ASN'
p164
F0.14299999999999999
sS'CYS-ALA'
p165
F0.51300000000000001
sS'ASN-ASP'
p166
F0.073999999999999996
sS'ASN-PRO'
p167
F-0.36699999999999999
sS'PRO-ARG'
p168
F-0.033000000000000002
sS'LYS-TRP'
p169
F0.999
sS'ASN-ASN'
p170
F-1.3740000000000001
sS'ASN-THR'
p171
F-0.32300000000000001
sS'THR-ALA'
p172
F0.11700000000000001
sS'LYS-ALA'
p173
F0.52100000000000002
sS'LYS-PRO'
p174
F0.016
sS'SER-GLN'
p175
F-0.104
sS'ILE-VAL'
p176
F0.85099999999999998
sS'ASP-ARG'
p177
F0.0080000000000000002
sS'ASP-MET'
p178
F0.83799999999999997
sS'CYS-TYR'
p179
F1.3300000000000001
sS'PRO-TRP'
p180
F0.59099999999999997
sS'THR-GLU'
p181
F-0.025000000000000001
sS'TRP-ALA'
p182
F0.17299999999999999
sS'ILE-CYS'
p183
F0.96999999999999997
sS'LYS-ILE'
p184
F1.016
sS'GLN-CYS'
p185
F0.79600000000000004
sS'TYR-ALA'
p186
F0.38300000000000001
sS'ARG-ASP'
p187
F-0.18099999999999999
sS'SER-GLU'
p188
F-0.126
sS'TRP-HIS'
p189
F0.27400000000000002
sS'ALA-ASN'
p190
F0.027
sS'GLU-CYS'
p191
F1.2130000000000001
sS'PRO-MET'
p192
F0.28999999999999998
sS'TYR-HIS'
p193
F0.377
sS'PHE-MET'
p194
F0.71199999999999997
sS'GLU-TYR'
p195
F0.41499999999999998
sS'SER-TRP'
p196
F0.13
sS'PHE-ARG'
p197
F0.68200000000000005
sS'GLY-ILE'
p198
F0.158
sS'TYR-VAL'
p199
F0.83199999999999996
sS'ASN-TYR'
p200
F-0.098000000000000004
sS'SER-ILE'
p201
F0.30099999999999999
sS'GLN-PRO'
p202
F-0.17799999999999999
sS'PHE-TYR'
p203
F0.17100000000000001
sS'ALA-VAL'
p204
F0.36099999999999999
sS'HIS-HIS'
p205
F-2.0019999999999998
sS'THR-ASN'
p206
F0.029000000000000001
sS'CYS-LEU'
p207
F1.2030000000000001
sS'LYS-MET'
p208
F0.57699999999999996
sS'LYS-ASP'
p209
F0.20000000000000001
sS'HIS-ASN'
p210
F-0.10199999999999999
sS'ILE-GLN'
p211
F0.25700000000000001
sS'VAL-HIS'
p212
F0.66600000000000004
sS'ALA-LEU'
p213
F0.20699999999999999
sS'HIS-ASP'
p214
F0.095000000000000001
sS'ILE-TYR'
p215
F0.499
sS'ILE-GLU'
p216
F0.64900000000000002
sS'ASN-TRP'
p217
F0.27300000000000002
sS'ILE-GLY'
p218
F0.27700000000000002
sS'ASN-CYS'
p219
F0.39300000000000002
sS'GLU-SER'
p220
F-0.26700000000000002
sS'ALA-TRP'
p221
F0.32300000000000001
sS'HIS-CYS'
p222
F1.069
sS'HIS-MET'
p223
F0.188
sS'ILE-PRO'
p224
F0.157
sS'LYS-PHE'
p225
F0.48099999999999998
sS'TRP-PRO'
p226
F0.65400000000000003
sS'GLU-TRP'
p227
F1.1499999999999999
sS'PHE-HIS'
p228
F0.53100000000000003
sS'GLY-TYR'
p229
F-0.113
sS'SER-GLY'
p230
F-0.54900000000000004
sS'CYS-TRP'
p231
F1.425
sS'ASP-LYS'
p232
F0.499
sS'ASN-ILE'
p233
F0.45500000000000002
sS'HIS-SER'
p234
F-0.070999999999999994
sS'LYS-CYS'
p235
F0.46800000000000003
sS'GLY-PHE'
p236
F0.107
sS'GLY-LEU'
p237
F0.044999999999999998
sS'MET-SER'
p238
F0.31900000000000001
sS'VAL-ALA'
p239
F0.32800000000000001
sS'SER-LEU'
p240
F0.28699999999999998
sS'TRP-LYS'
p241
F1.1539999999999999
sS'VAL-TYR'
p242
F0.70799999999999996
sS'VAL-PHE'
p243
F0.77800000000000002
sS'ARG-THR'
p244
F0.253
sS'TYR-TRP'
p245
F0.01
sS'GLN-GLN'
p246
F-1.0700000000000001
sS'GLU-PHE'
p247
F0.80900000000000005
sS'VAL-ILE'
p248
F0.85799999999999998
sS'HIS-GLN'
p249
F0.56100000000000005
sS'GLN-GLY'
p250
F-0.45200000000000001
sS'PHE-ALA'
p251
F0.38500000000000001
sS'HIS-GLU'
p252
F0.158
sS'ARG-PRO'
p253
F-0.33200000000000002
sS'HIS-GLY'
p254
F-0.251
sS'SER-ASN'
p255
F-0.152
sS'ALA-THR'
p256
F0.13500000000000001
sS'GLN-GLU'
p257
F0.19800000000000001
sS'GLN-LYS'
p258
F0.187
sS'CYS-HIS'
p259
F1.0640000000000001
sS'GLN-ASP'
p260
F0.066000000000000003
sS'LEU-HIS'
p261
F0.97599999999999998
sS'SER-LYS'
p262
F0.27500000000000002
sS'TRP-LEU'
p263
F0.91200000000000003
sS'CYS-SER'
p264
F0.53900000000000003
sS'LYS-THR'
p265
F0.47799999999999998
sS'HIS-LEU'
p266
F0.76000000000000001
sS'LEU-ARG'
p267
F0.67900000000000005
sS'GLY-VAL'
p268
F-0.252
sS'GLN-ASN'
p269
F0.065000000000000002
sS'TYR-ARG'
p270
F0.23300000000000001
sS'PRO-TYR'
p271
F0.021000000000000001
sS'ASP-PHE'
p272
F0.65200000000000002
sS'TRP-CYS'
p273
F1.3939999999999999
sS'ASN-LEU'
p274
F0.23899999999999999
sS'SER-MET'
p275
F0.432
sS'HIS-ILE'
p276
F0.78800000000000003
sS'SER-TYR'
p277
F-0.24299999999999999
sS'MET-TYR'
p278
F0.91800000000000004
sS'GLU-ILE'
p279
F0.69699999999999995
sS'PHE-CYS'
p280
F0.376
sS'PRO-LEU'
p281
F0.246
sS'GLY-MET'
p282
F0.21199999999999999
sS'ARG-ILE'
p283
F0.48499999999999999
sS'HIS-THR'
p284
F0.11899999999999999
sS'THR-GLN'
p285
F-0.047
sS'TRP-THR'
p286
F0.34799999999999998
sS'LYS-LEU'
p287
F1.006
sS'THR-GLY'
p288
F-0.50600000000000001
sS'ASP-TRP'
p289
F1.2230000000000001
sS'TYR-MET'
p290
F1.0669999999999999
sS'PHE-ILE'
p291
F0.98099999999999998
sS'PRO-VAL'
p292
F0.40600000000000003
sS'MET-ASN'
p293
F0.26500000000000001
sS'LEU-TYR'
p294
F0.52600000000000002
sS'PHE-PHE'
p295
F-1.0620000000000001
sS'CYS-PHE'
p296
F0.70199999999999996
sS'TRP-ILE'
p297
F0.83299999999999996
sS'PRO-ASN'
p298
F-0.253
sS'CYS-CYS'
p299
F-2.734
sS'SER-ASP'
p300
F-0.044999999999999998
sS'ARG-MET'
p301
F0.48899999999999999
sS'SER-PHE'
p302
F0.087999999999999995
sS'SER-SER'
p303
F-1.2050000000000001
sS'ASN-LYS'
p304
F0.109
sS'CYS-THR'
p305
F0.746
sS'ILE-TRP'
p306
F0.77700000000000002
sS'PRO-ASP'
p307
F-0.19900000000000001
sS'THR-ASP'
p308
F-0.17299999999999999
sS'SER-CYS'
p309
F0.52100000000000002
sS'MET-ASP'
p310
F0.57299999999999995
sS'GLN-MET'
p311
F0.59599999999999997
sS'MET-TRP'
p312
F1.9750000000000001
sS'ARG-VAL'
p313
F0.55900000000000005
sS'GLY-GLN'
p314
F-0.26800000000000002
sS'THR-LYS'
p315
F0.58999999999999997
sS'TRP-MET'
p316
F1.974
sS'ARG-ARG'
p317
F-1.4350000000000001
sS'ILE-ASP'
p318
F0.59999999999999998
sS'GLY-GLY'
p319
F-1.3779999999999999
sS'GLY-GLU'
p320
F-0.157
sS'ALA-ARG'
p321
F0.024
sS'GLU-ARG'
p322
F0.27500000000000002
sS'HIS-VAL'
p323
F0.84599999999999997
sS'VAL-ARG'
p324
F0.501
sS'ASN-SER'
p325
F-0.43099999999999999
sS'ALA-LYS'
p326
F0.439
sS'VAL-GLN'
p327
F0.755
sS'TRP-ASN'
p328
F-0.128
sS'TYR-ILE'
p329
F0.48999999999999999
sS'TRP-GLY'
p330
F-0.255
sS'PRO-PHE'
p331
F0.068000000000000005
sS'GLY-HIS'
p332
F-0.17699999999999999
sS'PHE-SER'
p333
F0.128
sS'TRP-ASP'
p334
F1.1930000000000001
sS'TRP-GLN'
p335
F0.078
sS'LEU-ALA'
p336
F0.34999999999999998
sS'VAL-GLU'
p337
F0.5
sS'ALA-HIS'
p338
F0.042000000000000003
sS'ARG-ASN'
p339
F-0.067000000000000004
sS'LEU-THR'
p340
F0.38300000000000001
sS'TYR-CYS'
p341
F1.496
sS'THR-THR'
p342
F-0.78100000000000003
sS'THR-LEU'
p343
F0.47699999999999998
sS'VAL-ASN'
p344
F0.46800000000000003
sS'LEU-TRP'
p345
F0.90800000000000003
sS'GLU-ASP'
p346
F0.26000000000000001
sS'ILE-SER'
p347
F0.26800000000000002
sS'ILE-ARG'
p348
F0.76100000000000001
sS'TRP-GLU'
p349
F0.68300000000000005
sS'ILE-MET'
p350
F0.85399999999999998
sS'MET-PHE'
p351
F0.38500000000000001
sS'PRO-ALA'
p352
F-0.51700000000000002
sS'PRO-GLY'
p353
F-0.45600000000000002
sS'GLN-THR'
p354
F0.247
sS'MET-ALA'
p355
F0.69099999999999995
sS'TRP-SER'
p356
F0.10299999999999999
sS'ASP-HIS'
p357
F0.28199999999999997
sS'ARG-SER'
p358
F-0.129
sS'GLN-HIS'
p359
F0.32800000000000001
sS'HIS-PHE'
p360
F0.45300000000000001
sS'LEU-LEU'
p361
F-0.105
sS'ALA-GLN'
p362
F0.090999999999999998
sS'ASP-ASN'
p363
F0.20699999999999999
sS'SER-VAL'
p364
F0.16800000000000001
sS'MET-ILE'
p365
F0.88300000000000001
sS'ALA-PRO'
p366
F-0.26900000000000002
sS'ASP-ASP'
p367
F-0.53900000000000003
sS'ALA-GLY'
p368
F-0.24199999999999999
sS'TRP-TRP'
p369
F-1.1719999999999999
sS'MET-CYS'
p370
F2.351
sS'ALA-GLU'
p371
F0.111
sS'THR-PRO'
p372
F-0.45700000000000002
sS'HIS-ALA'
p373
F0.14399999999999999
sS'GLN-ILE'
p374
F0.51100000000000001
sS'GLU-VAL'
p375
F0.185
sS'LYS-ASN'
p376
F0.16400000000000001
sS'ASN-ALA'
p377
F-0.019
sS'THR-ILE'
p378
F0.51100000000000001
sS'ASP-CYS'
p379
F0.53700000000000003
sS'PRO-LYS'
p380
F-0.059999999999999998
sS'TYR-TYR'
p381
F-1.5980000000000001
sS'ARG-LYS'
p382
F0.623
sS'ILE-ALA'
p383
F0.48999999999999999
sS'ASP-SER'
p384
F-0.067000000000000004
sS'CYS-LYS'
p385
F0.95299999999999996
sS'GLU-ALA'
p386
F0.034000000000000002
sS'PHE-GLU'
p387
F1.002
sS'GLU-LEU'
p388
F0.59799999999999998
sS'PHE-GLY'
p389
F0.010999999999999999
sS'LYS-HIS'
p390
F0.68600000000000005
sS'HIS-PRO'
p391
F-0.252
sS'ILE-ILE'
p392
F-0.36399999999999999
sS'MET-HIS'
p393
F0.55200000000000005
sS'VAL-GLY'
p394
F0.0030000000000000001
sS'THR-MET'
p395
F0.42299999999999999
sS'PHE-THR'
p396
F0.67100000000000004
sS'VAL-TRP'
p397
F1.23
sS'PHE-LYS'
p398
F0.42199999999999999
sS'GLY-PRO'
p399
F-0.64700000000000002
sS'PHE-GLN'
p400
F0.61499999999999999
sS'LEU-PHE'
p401
F0.69399999999999995
s.