(dp1
S'MET-MET'
p2
F-2.702
sS'PRO-ILE'
p3
F-1.008
sS'TYR-LYS'
p4
F-1.6890000000000001
sS'VAL-ASP'
p5
F-0.82399999999999995
sS'ASP-GLN'
p6
F-1.512
sS'HIS-TYR'
p7
F-1.895
sS'ASP-GLU'
p8
F-1.321
sS'ALA-ASP'
p9
F-0.83699999999999997
sS'ASP-GLY'
p10
F-1.484
sS'LEU-VAL'
p11
F-0.89400000000000002
sS'TRP-TYR'
p12
F-1.595
sS'GLN-TRP'
p13
F-1.7549999999999999
sS'TRP-PHE'
p14
F-1.5640000000000001
sS'ARG-TYR'
p15
F-2.0259999999999998
sS'GLU-LYS'
p16
F-1.6919999999999999
sS'ILE-HIS'
p17
F-1.028
sS'LEU-MET'
p18
F-0.80800000000000005
sS'GLU-HIS'
p19
F-1.6719999999999999
sS'GLY-THR'
p20
F-1.5980000000000001
sS'ARG-GLU'
p21
F-2.0409999999999999
sS'PHE-ASN'
p22
F-1.3149999999999999
sS'ASN-MET'
p23
F-0.96399999999999997
sS'PRO-THR'
p24
F-1.448
sS'TYR-GLN'
p25
F-1.7709999999999999
sS'ARG-GLY'
p26
F-2.0859999999999999
sS'VAL-THR'
p27
F-0.82499999999999996
sS'ASP-ILE'
p28
F-0.82499999999999996
sS'THR-HIS'
p29
F-1.234
sS'TYR-GLU'
p30
F-1.7809999999999999
sS'ARG-GLN'
p31
F-2.0139999999999998
sS'TYR-GLY'
p32
F-1.6839999999999999
sS'PHE-ASP'
p33
F-1.2370000000000001
sS'CYS-ARG'
p34
F-1.345
sS'GLY-ASN'
p35
F-1.909
sS'VAL-LYS'
p36
F-0.91500000000000004
sS'LEU-ILE'
p37
F-0.95799999999999996
sS'GLN-LEU'
p38
F-1.288
sS'GLU-MET'
p39
F-0.95799999999999996
sS'ASP-THR'
p40
F-1.21
sS'ASN-PHE'
p41
F-1.3660000000000001
sS'GLU-PRO'
p42
F-1.5349999999999999
sS'TYR-LEU'
p43
F-1.4390000000000001
sS'LYS-ARG'
p44
F-1.544
sS'GLY-ASP'
p45
F-1.552
sS'PRO-GLN'
p46
F-1.6100000000000001
sS'CYS-MET'
p47
F-0.61299999999999999
sS'HIS-ARG'
p48
F-1.8360000000000001
sS'GLU-THR'
p49
F-1.2270000000000001
sS'ILE-THR'
p50
F-0.84199999999999997
sS'SER-PRO'
p51
F-1.2809999999999999
sS'GLY-CYS'
p52
F-1.6559999999999999
sS'ARG-LEU'
p53
F-1.5269999999999999
sS'PRO-GLU'
p54
F-1.429
sS'ASP-LEU'
p55
F-0.79800000000000004
sS'PHE-VAL'
p56
F-1.0489999999999999
sS'ASN-VAL'
p57
F-1.0209999999999999
sS'ALA-MET'
p58
F-0.63500000000000001
sS'LEU-PRO'
p59
F-1.071
sS'LEU-SER'
p60
F-0.90600000000000003
sS'ASN-ARG'
p61
F-1.915
sS'SER-THR'
p62
F-0.93999999999999995
sS'LYS-VAL'
p63
F-0.91700000000000004
sS'LYS-GLN'
p64
F-1.5309999999999999
sS'GLN-VAL'
p65
F-0.97599999999999998
sS'TYR-PHE'
p66
F-1.534
sS'ASP-VAL'
p67
F-0.76500000000000001
sS'ASN-GLY'
p68
F-1.8080000000000001
sS'ARG-PHE'
p69
F-1.724
sS'SER-HIS'
p70
F-1.3819999999999999
sS'ALA-ILE'
p71
F-0.76800000000000002
sS'ASN-GLU'
p72
F-1.6319999999999999
sS'CYS-GLN'
p73
F-0.98299999999999998
sS'TYR-PRO'
p74
F-1.7569999999999999
sS'LYS-GLU'
p75
F-1.6899999999999999
sS'CYS-GLU'
p76
F-0.41299999999999998
sS'ASN-GLN'
p77
F-1.6899999999999999
sS'CYS-GLY'
p78
F-1.3260000000000001
sS'GLN-SER'
p79
F-1.633
sS'HIS-LYS'
p80
F-1.544
sS'LYS-GLY'
p81
F-1.742
sS'VAL-MET'
p82
F-0.86099999999999999
sS'GLU-GLY'
p83
F-1.591
sS'THR-SER'
p84
F-0.89700000000000002
sS'TYR-THR'
p85
F-1.625
sS'PRO-PRO'
p86
F-2.4769999999999999
sS'ILE-PHE'
p87
F-1.2509999999999999
sS'PHE-LEU'
p88
F-1.24
sS'GLU-GLU'
p89
F-2.2850000000000001
sS'SER-ARG'
p90
F-1.758
sS'GLY-ALA'
p91
F-1.8919999999999999
sS'TYR-ASN'
p92
F-1.883
sS'GLU-GLN'
p93
F-1.579
sS'TRP-ARG'
p94
F-1.845
sS'LEU-GLU'
p95
F-0.90800000000000003
sS'LEU-GLY'
p96
F-1.085
sS'LYS-SER'
p97
F-1.3169999999999999
sS'MET-VAL'
p98
F-0.68600000000000005
sS'SER-ALA'
p99
F-0.77600000000000002
sS'PRO-HIS'
p100
F-1.6299999999999999
sS'MET-THR'
p101
F-0.82499999999999996
sS'ALA-PHE'
p102
F-1.151
sS'MET-PRO'
p103
F-0.88800000000000001
sS'GLY-SER'
p104
F-1.7749999999999999
sS'LEU-GLN'
p105
F-1.206
sS'VAL-LEU'
p106
F-0.89400000000000002
sS'LEU-CYS'
p107
F-0.53200000000000003
sS'LYS-TYR'
p108
F-1.585
sS'ASP-ALA'
p109
F-0.67800000000000005
sS'ILE-LEU'
p110
F-1.0580000000000001
sS'TRP-VAL'
p111
F-1.3420000000000001
sS'PHE-PRO'
p112
F-1.502
sS'ALA-ALA'
p113
F-1.649
sS'ARG-TRP'
p114
F-1.974
sS'MET-GLN'
p115
F-1.29
sS'ILE-LYS'
p116
F-0.92400000000000004
sS'MET-ARG'
p117
F-1.181
sS'ALA-CYS'
p118
F-0.214
sS'THR-ARG'
p119
F-1.526
sS'CYS-ILE'
p120
F-0.41499999999999998
sS'LEU-ASN'
p121
F-1.111
sS'LEU-ASP'
p122
F-0.80300000000000005
sS'PHE-TRP'
p123
F-1.5780000000000001
sS'MET-GLY'
p124
F-1.107
sS'THR-PHE'
p125
F-1.3160000000000001
sS'MET-GLU'
p126
F-0.79000000000000004
sS'THR-TRP'
p127
F-1.1619999999999999
sS'THR-TYR'
p128
F-1.599
sS'CYS-VAL'
p129
F-0.45200000000000001
sS'ARG-ALA'
p130
F-1.3740000000000001
sS'ALA-TYR'
p131
F-1.377
sS'ASP-PRO'
p132
F-1.3859999999999999
sS'ARG-CYS'
p133
F-1.3999999999999999
sS'GLN-ARG'
p134
F-1.9390000000000001
sS'HIS-TRP'
p135
F-1.3140000000000001
sS'PRO-SER'
p136
F-1.1759999999999999
sS'VAL-VAL'
p137
F-1.8899999999999999
sS'LEU-LYS'
p138
F-0.98799999999999999
sS'GLY-LYS'
p139
F-1.8400000000000001
sS'CYS-ASN'
p140
F-0.96399999999999997
sS'GLY-TRP'
p141
F-1.407
sS'THR-CYS'
p142
F-0.60599999999999998
sS'LYS-LYS'
p143
F-2.1459999999999999
sS'CYS-ASP'
p144
F-0.45900000000000002
sS'TYR-ASP'
p145
F-1.7230000000000001
sS'VAL-PRO'
p146
F-0.88100000000000001
sS'THR-VAL'
p147
F-0.84999999999999998
sS'ASP-TYR'
p148
F-1.7170000000000001
sS'PRO-CYS'
p149
F-0.96699999999999997
sS'VAL-SER'
p150
F-0.67400000000000004
sS'ARG-HIS'
p151
F-1.9099999999999999
sS'CYS-PRO'
p152
F-1.0289999999999999
sS'MET-LYS'
p153
F-1.109
sS'ALA-SER'
p154
F-0.72599999999999998
sS'TYR-SER'
p155
F-1.5960000000000001
sS'GLY-ARG'
p156
F-2.0049999999999999
sS'GLN-ALA'
p157
F-1.1339999999999999
sS'MET-LEU'
p158
F-0.88900000000000001
sS'ASN-HIS'
p159
F-1.5569999999999999
sS'VAL-CYS'
p160
F-0.26700000000000002
sS'GLN-TYR'
p161
F-1.909
sS'GLN-PHE'
p162
F-1.4319999999999999
sS'ILE-ASN'
p163
F-0.93600000000000005
sS'GLU-ASN'
p164
F-1.661
sS'CYS-ALA'
p165
F-0.29899999999999999
sS'ASN-ASP'
p166
F-1.4510000000000001
sS'ASN-PRO'
p167
F-1.6559999999999999
sS'PRO-ARG'
p168
F-1.796
sS'LYS-TRP'
p169
F-1.3560000000000001
sS'ASN-ASN'
p170
F-2.879
sS'ASN-THR'
p171
F-1.407
sS'THR-ALA'
p172
F-0.68600000000000005
sS'LYS-ALA'
p173
F-0.80600000000000005
sS'LYS-PRO'
p174
F-1.28
sS'SER-GLN'
p175
F-1.589
sS'ILE-VAL'
p176
F-0.84299999999999997
sS'ASP-ARG'
p177
F-2.1819999999999999
sS'ASP-MET'
p178
F-0.72999999999999998
sS'CYS-TYR'
p179
F-1.462
sS'PRO-TRP'
p180
F-1.6519999999999999
sS'THR-GLU'
p181
F-1.2849999999999999
sS'TRP-ALA'
p182
F-1.369
sS'ILE-CYS'
p183
F-0.42199999999999999
sS'LYS-ILE'
p184
F-0.77500000000000002
sS'GLN-CYS'
p185
F-1.004
sS'TYR-ALA'
p186
F-1.375
sS'ARG-ASP'
p187
F-2.3079999999999998
sS'SER-GLU'
p188
F-1.353
sS'TRP-HIS'
p189
F-1.6850000000000001
sS'ALA-ASN'
p190
F-0.93899999999999995
sS'GLU-CYS'
p191
F-0.52000000000000002
sS'PRO-MET'
p192
F-0.93400000000000005
sS'TYR-HIS'
p193
F-1.8759999999999999
sS'PHE-MET'
p194
F-1.3320000000000001
sS'GLU-TYR'
p195
F-1.7
sS'SER-TRP'
p196
F-1.355
sS'PHE-ARG'
p197
F-1.5900000000000001
sS'GLY-ILE'
p198
F-1.0620000000000001
sS'TYR-VAL'
p199
F-1.258
sS'ASN-TYR'
p200
F-1.8149999999999999
sS'SER-ILE'
p201
F-0.89200000000000002
sS'GLN-PRO'
p202
F-1.675
sS'PHE-TYR'
p203
F-1.6399999999999999
sS'ALA-VAL'
p204
F-0.57599999999999996
sS'HIS-HIS'
p205
F-3.4279999999999999
sS'THR-ASN'
p206
F-1.323
sS'CYS-LEU'
p207
F-0.47299999999999998
sS'LYS-MET'
p208
F-0.98799999999999999
sS'LYS-ASP'
p209
F-1.74
sS'HIS-ASN'
p210
F-1.5840000000000001
sS'ILE-GLN'
p211
F-1.1759999999999999
sS'VAL-HIS'
p212
F-1.071
sS'ALA-LEU'
p213
F-0.89500000000000002
sS'HIS-ASP'
p214
F-1.5649999999999999
sS'ILE-TYR'
p215
F-1.591
sS'ILE-GLU'
p216
F-0.90100000000000002
sS'ILE-GLY'
p217
F-1.147
sS'ASN-CYS'
p218
F-1.0720000000000001
sS'GLU-SER'
p219
F-1.3779999999999999
sS'ALA-TRP'
p220
F-1.2829999999999999
sS'HIS-CYS'
p221
F-0.59499999999999997
sS'HIS-MET'
p222
F-1.1220000000000001
sS'ILE-PRO'
p223
F-1.111
sS'LYS-PHE'
p224
F-1.03
sS'TRP-PRO'
p225
F-1.3919999999999999
sS'GLU-TRP'
p226
F-1.3959999999999999
sS'PHE-HIS'
p227
F-1.3120000000000001
sS'GLY-TYR'
p228
F-1.7529999999999999
sS'SER-GLY'
p229
F-1.8580000000000001
sS'CYS-TRP'
p230
F-0.41599999999999998
sS'ASP-LYS'
p231
F-1.7150000000000001
sS'ASN-ILE'
p232
F-1.0469999999999999
sS'HIS-SER'
p233
F-1.4770000000000001
sS'LYS-CYS'
p234
F-0.83799999999999997
sS'GLY-PHE'
p235
F-1.155
sS'GLY-LEU'
p236
F-1.1519999999999999
sS'MET-SER'
p237
F-0.86699999999999999
sS'VAL-ALA'
p238
F-0.54600000000000004
sS'SER-LEU'
p239
F-0.85399999999999998
sS'TRP-LYS'
p240
F-1.506
sS'VAL-TYR'
p241
F-1.1679999999999999
sS'VAL-PHE'
p242
F-1.139
sS'ARG-THR'
p243
F-1.712
sS'TYR-TRP'
p244
F-1.7629999999999999
sS'GLN-GLN'
p245
F-2.956
sS'GLU-PHE'
p246
F-1.3029999999999999
sS'VAL-ILE'
p247
F-0.84299999999999997
sS'HIS-GLN'
p248
F-1.5409999999999999
sS'GLN-GLY'
p249
F-1.861
sS'PHE-ALA'
p250
F-1.113
sS'HIS-GLU'
p251
F-1.5880000000000001
sS'ARG-PRO'
p252
F-1.9199999999999999
sS'HIS-GLY'
p253
F-1.429
sS'SER-ASN'
p254
F-1.3919999999999999
sS'ALA-THR'
p255
F-0.70799999999999996
sS'GLN-GLU'
p256
F-1.552
sS'GLN-LYS'
p257
F-1.5980000000000001
sS'CYS-HIS'
p258
F-0.60099999999999998
sS'GLN-ASP'
p259
F-1.6599999999999999
sS'LEU-HIS'
p260
F-1.288
sS'SER-LYS'
p261
F-1.3069999999999999
sS'TRP-LEU'
p262
F-1.52
sS'CYS-SER'
p263
F-0.623
sS'LYS-THR'
p264
F-1.111
sS'HIS-LEU'
p265
F-1.111
sS'LEU-ARG'
p266
F-1.452
sS'GLY-VAL'
p267
F-1.337
sS'GLN-ASN'
p268
F-1.5920000000000001
sS'TYR-ARG'
p269
F-2.0339999999999998
sS'PRO-TYR'
p270
F-1.804
sS'ASP-PHE'
p271
F-1.1060000000000001
sS'TRP-CYS'
p272
F-0.56599999999999995
sS'ASN-LEU'
p273
F-1.1040000000000001
sS'SER-MET'
p274
F-0.84299999999999997
sS'HIS-ILE'
p275
F-1.052
sS'SER-TYR'
p276
F-1.6100000000000001
sS'MET-TYR'
p277
F-1.4239999999999999
sS'GLU-ILE'
p278
F-1.056
sS'PHE-CYS'
p279
F-0.97699999999999998
sS'PRO-LEU'
p280
F-1.179
sS'GLY-MET'
p281
F-1.137
sS'ARG-ILE'
p282
F-1.327
sS'HIS-THR'
p283
F-1.3660000000000001
sS'THR-GLN'
p284
F-1.5609999999999999
sS'TRP-THR'
p285
F-1.4019999999999999
sS'LYS-LEU'
p286
F-0.92000000000000004
sS'THR-GLY'
p287
F-1.681
sS'ASP-TRP'
p288
F-1.296
sS'TYR-MET'
p289
F-1.385
sS'PHE-ILE'
p290
F-1.2849999999999999
sS'PRO-VAL'
p291
F-0.79900000000000004
sS'MET-ASN'
p292
F-1.0720000000000001
sS'LEU-TYR'
p293
F-1.4239999999999999
sS'PHE-PHE'
p294
F-2.637
sS'CYS-PHE'
p295
F-0.78800000000000003
sS'TRP-ILE'
p296
F-1.2549999999999999
sS'PRO-ASN'
p297
F-1.5700000000000001
sS'CYS-CYS'
p298
F-3.774
sS'SER-ASP'
p299
F-1.0980000000000001
sS'ARG-MET'
p300
F-1.1850000000000001
sS'SER-PHE'
p301
F-1.139
sS'SER-SER'
p302
F-2.2090000000000001
sS'ASN-LYS'
p303
F-1.6950000000000001
sS'CYS-THR'
p304
F-0.37
sS'ILE-TRP'
p305
F-1.2569999999999999
sS'PRO-ASP'
p306
F-1.3580000000000001
sS'THR-ASP'
p307
F-1.1579999999999999
sS'SER-CYS'
p308
F-0.505
sS'MET-ASP'
p309
F-1.022
sS'GLN-MET'
p310
F-1.0800000000000001
sS'MET-TRP'
p311
F-0.84499999999999997
sS'ARG-VAL'
p312
F-1.3120000000000001
sS'GLY-GLN'
p313
F-1.8220000000000001
sS'THR-LYS'
p314
F-1.101
sS'TRP-MET'
p315
F-0.88100000000000001
sS'ARG-ARG'
p316
F-3.0579999999999998
sS'ILE-ASP'
p317
F-0.88900000000000001
sS'ALA-ARG'
p318
F-1.4259999999999999
sS'GLY-GLU'
p319
F-1.552
sS'ASN-TRP'
p320
F-1.4470000000000001
sS'GLU-ARG'
p321
F-2.0139999999999998
sS'HIS-VAL'
p322
F-1.0649999999999999
sS'VAL-ARG'
p323
F-1.3
sS'ASN-SER'
p324
F-1.4299999999999999
sS'ALA-LYS'
p325
F-0.86799999999999999
sS'VAL-GLN'
p326
F-1.1020000000000001
sS'TRP-ASN'
p327
F-1.6830000000000001
sS'TYR-ILE'
p328
F-1.536
sS'TRP-GLY'
p329
F-1.4390000000000001
sS'PRO-PHE'
p330
F-1.4690000000000001
sS'GLY-HIS'
p331
F-1.579
sS'PHE-SER'
p332
F-1.1970000000000001
sS'TRP-ASP'
p333
F-1.232
sS'TRP-GLN'
p334
F-2
sS'LEU-ALA'
p335
F-0.78800000000000003
sS'VAL-GLU'
p336
F-0.95599999999999996
sS'ALA-HIS'
p337
F-1.3180000000000001
sS'ARG-ASN'
p338
F-1.899
sS'LEU-THR'
p339
F-0.90800000000000003
sS'TYR-CYS'
p340
F-1.0489999999999999
sS'THR-THR'
p341
F-2.1789999999999998
sS'THR-LEU'
p342
F-0.93000000000000005
sS'VAL-ASN'
p343
F-1.0109999999999999
sS'LEU-TRP'
p344
F-1.502
sS'GLU-ASP'
p345
F-1.3620000000000001
sS'ILE-SER'
p346
F-0.84699999999999998
sS'ILE-ARG'
p347
F-1.264
sS'TRP-GLU'
p348
F-1.444
sS'ILE-MET'
p349
F-0.90800000000000003
sS'MET-PHE'
p350
F-1.373
sS'PRO-ALA'
p351
F-1.0800000000000001
sS'PRO-GLY'
p352
F-1.7050000000000001
sS'GLN-THR'
p353
F-1.4359999999999999
sS'MET-ALA'
p354
F-0.39000000000000001
sS'TRP-SER'
p355
F-1.296
sS'ASP-HIS'
p356
F-1.649
sS'ARG-SER'
p357
F-1.724
sS'GLN-HIS'
p358
F-1.7150000000000001
sS'HIS-PHE'
p359
F-1.395
sS'LEU-LEU'
p360
F-1.9379999999999999
sS'ALA-GLN'
p361
F-1.2170000000000001
sS'ASP-ASN'
p362
F-1.4610000000000001
sS'SER-VAL'
p363
F-0.70499999999999996
sS'MET-ILE'
p364
F-0.66200000000000003
sS'ALA-PRO'
p365
F-0.77800000000000002
sS'ASP-ASP'
p366
F-2.0710000000000002
sS'ALA-GLY'
p367
F-1.766
sS'TRP-TRP'
p368
F-3.3980000000000001
sS'MET-CYS'
p369
F-0.28699999999999998
sS'ALA-GLU'
p370
F-0.91200000000000003
sS'THR-PRO'
p371
F-1.3160000000000001
sS'HIS-ALA'
p372
F-0.94699999999999995
sS'GLN-ILE'
p373
F-1.341
sS'GLU-VAL'
p374
F-0.91500000000000004
sS'LYS-ASN'
p375
F-1.5680000000000001
sS'ASN-ALA'
p376
F-0.96999999999999997
sS'THR-ILE'
p377
F-0.92200000000000004
sS'ASP-CYS'
p378
F-0.40400000000000003
sS'PRO-LYS'
p379
F-1.417
sS'TYR-TYR'
p380
F-3.012
sS'ARG-LYS'
p381
F-1.605
sS'ILE-ALA'
p382
F-0.66300000000000003
sS'ASP-SER'
p383
F-1.1890000000000001
sS'CYS-LYS'
p384
F-0.56899999999999995
sS'GLU-ALA'
p385
F-0.93200000000000005
sS'PHE-GLU'
p386
F-1.266
sS'GLU-LEU'
p387
F-0.98299999999999998
sS'PHE-GLY'
p388
F-1.194
sS'LYS-HIS'
p389
F-1.4950000000000001
sS'HIS-PRO'
p390
F-1.528
sS'ILE-ILE'
p391
F-2.0379999999999998
sS'MET-HIS'
p392
F-1.155
sS'VAL-GLY'
p393
F-1.1870000000000001
sS'THR-MET'
p394
F-0.70999999999999996
sS'PHE-THR'
p395
F-1.337
sS'VAL-TRP'
p396
F-1.1910000000000001
sS'PHE-LYS'
p397
F-1.1890000000000001
sS'GLY-PRO'
p398
F-1.788
sS'PHE-GLN'
p399
F-1.427
sS'LEU-PHE'
p400
F-1.294
s.