(dp1
S'MET-MET'
p2
F-0.69799999999999995
sS'PRO-ILE'
p3
F0.27400000000000002
sS'TYR-LYS'
p4
F-0.058999999999999997
sS'VAL-ASP'
p5
F0.55100000000000005
sS'ASP-GLN'
p6
F-0.091999999999999998
sS'HIS-TYR'
p7
F-0.248
sS'ASP-GLU'
p8
F0.29599999999999999
sS'ALA-ASP'
p9
F0.36499999999999999
sS'ASP-GLY'
p10
F0.049000000000000002
sS'LEU-VAL'
p11
F0.58199999999999996
sS'TRP-TYR'
p12
F-0.0050000000000000001
sS'GLN-TRP'
p13
F-0.13700000000000001
sS'TRP-PHE'
p14
F0.191
sS'ARG-TYR'
p15
F-0.42399999999999999
sS'GLU-LYS'
p16
F-0.13100000000000001
sS'ILE-HIS'
p17
F0.33100000000000002
sS'LEU-MET'
p18
F0.63100000000000001
sS'GLU-HIS'
p19
F-0.076999999999999999
sS'GLY-THR'
p20
F-0.13100000000000001
sS'ARG-GLU'
p21
F-0.55300000000000005
sS'PHE-ASN'
p22
F0.088999999999999996
sS'ASN-MET'
p23
F0.46700000000000003
sS'PRO-THR'
p24
F-0.16700000000000001
sS'TYR-GLN'
p25
F-0.044999999999999998
sS'ARG-GLY'
p26
F-0.68500000000000005
sS'VAL-THR'
p27
F0.52100000000000002
sS'ASP-ILE'
p28
F0.623
sS'THR-HIS'
p29
F-0.033000000000000002
sS'TYR-GLU'
p30
F-0.10199999999999999
sS'ARG-GLN'
p31
F-0.441
sS'TYR-GLY'
p32
F-0.29899999999999999
sS'PHE-ASP'
p33
F0.32100000000000001
sS'CYS-ARG'
p34
F0.251
sS'GLY-ASN'
p35
F-0.58699999999999997
sS'VAL-LYS'
p36
F0.76400000000000001
sS'LEU-ILE'
p37
F0.54300000000000004
sS'GLN-LEU'
p38
F0.26700000000000002
sS'GLU-MET'
p39
F0.46700000000000003
sS'ASP-THR'
p40
F0.10000000000000001
sS'ASN-PHE'
p41
F-0.0050000000000000001
sS'GLU-PRO'
p42
F-0.16900000000000001
sS'TYR-LEU'
p43
F0.20799999999999999
sS'LYS-ARG'
p44
F0.066000000000000003
sS'GLY-ASP'
p45
F-0.034000000000000002
sS'PRO-GLN'
p46
F-0.42299999999999999
sS'CYS-MET'
p47
F0.77400000000000002
sS'HIS-ARG'
p48
F-0.23699999999999999
sS'GLU-THR'
p49
F0.051999999999999998
sS'ILE-THR'
p50
F0.53600000000000003
sS'SER-PRO'
p51
F-0.16300000000000001
sS'GLY-CYS'
p52
F-0.048000000000000001
sS'ARG-LEU'
p53
F-0.021000000000000001
sS'PRO-GLU'
p54
F-0.109
sS'ASP-LEU'
p55
F0.64500000000000002
sS'PHE-VAL'
p56
F0.41099999999999998
sS'ASN-VAL'
p57
F0.23899999999999999
sS'ALA-MET'
p58
F0.81299999999999994
sS'LEU-PRO'
p59
F0.23799999999999999
sS'LEU-SER'
p60
F0.39500000000000002
sS'ASN-ARG'
p61
F-0.39500000000000002
sS'SER-THR'
p62
F0.124
sS'LYS-VAL'
p63
F0.47699999999999998
sS'LYS-GLN'
p64
F0.047
sS'GLN-VAL'
p65
F0.307
sS'TYR-PHE'
p66
F-0.0070000000000000001
sS'ASP-VAL'
p67
F0.57399999999999995
sS'ASN-GLY'
p68
F-0.47299999999999998
sS'ARG-PHE'
p69
F-0.192
sS'SER-HIS'
p70
F-0.099000000000000005
sS'ALA-ILE'
p71
F0.46400000000000002
sS'ASN-GLU'
p72
F-0.11700000000000001
sS'CYS-GLN'
p73
F0.52200000000000002
sS'TYR-PRO'
p74
F-0.40999999999999998
sS'LYS-GLU'
p75
F-0.078
sS'CYS-GLU'
p76
F0.99199999999999999
sS'ASN-GLN'
p77
F-0.39300000000000002
sS'CYS-GLY'
p78
F0.48199999999999998
sS'GLN-SER'
p79
F-0.35499999999999998
sS'HIS-LYS'
p80
F0.21099999999999999
sS'LYS-GLY'
p81
F-0.17899999999999999
sS'VAL-MET'
p82
F0.67100000000000004
sS'GLU-GLY'
p83
F-0.14000000000000001
sS'THR-SER'
p84
F0.115
sS'TYR-THR'
p85
F-0.055
sS'PRO-PRO'
p86
F-0.77200000000000002
sS'ILE-PHE'
p87
F0.49399999999999999
sS'PHE-LEU'
p88
F0.254
sS'GLU-GLU'
p89
F-0.16400000000000001
sS'SER-ARG'
p90
F-0.34699999999999998
sS'GLY-ALA'
p91
F0.045999999999999999
sS'TYR-ASN'
p92
F-0.33200000000000002
sS'GLU-GLN'
p93
F0.021000000000000001
sS'TRP-ARG'
p94
F-0.17299999999999999
sS'LEU-GLU'
p95
F0.63200000000000001
sS'LEU-GLY'
p96
F0.38900000000000001
sS'LYS-SER'
p97
F0.023
sS'MET-VAL'
p98
F0.68100000000000005
sS'SER-ALA'
p99
F0.041000000000000002
sS'PRO-HIS'
p100
F-0.45100000000000001
sS'MET-THR'
p101
F0.45100000000000001
sS'ALA-PHE'
p102
F0.023
sS'MET-PRO'
p103
F0.35799999999999998
sS'GLY-SER'
p104
F-0.219
sS'LEU-GLN'
p105
F0.16200000000000001
sS'VAL-LEU'
p106
F0.51700000000000002
sS'LEU-CYS'
p107
F0.89500000000000002
sS'LYS-TYR'
p108
F-0.058999999999999997
sS'ASP-ALA'
p109
F0.48499999999999999
sS'ILE-LEU'
p110
F0.55200000000000005
sS'TRP-VAL'
p111
F0.27800000000000002
sS'PHE-PRO'
p112
F-0.28699999999999998
sS'ALA-ALA'
p113
F-0.44500000000000001
sS'ARG-TRP'
p114
F-0.42199999999999999
sS'MET-GLN'
p115
F0.115
sS'ILE-LYS'
p116
F0.81200000000000006
sS'MET-ARG'
p117
F0.375
sS'ALA-CYS'
p118
F0.85699999999999998
sS'THR-ARG'
p119
F-0.037999999999999999
sS'CYS-ILE'
p120
F0.85899999999999999
sS'LEU-ASN'
p121
F0.28999999999999998
sS'LEU-ASP'
p122
F0.68300000000000005
sS'PHE-TRP'
p123
F0.20100000000000001
sS'MET-GLY'
p124
F0.53300000000000003
sS'THR-PHE'
p125
F0.35499999999999998
sS'MET-GLU'
p126
F0.52400000000000002
sS'THR-TRP'
p127
F0.60799999999999998
sS'THR-TYR'
p128
F-0.081000000000000003
sS'CYS-VAL'
p129
F0.83599999999999997
sS'ARG-ALA'
p130
F-0.084000000000000005
sS'ALA-TYR'
p131
F-0.050999999999999997
sS'ASP-PRO'
p132
F-0.124
sS'ARG-CYS'
p133
F0.312
sS'GLN-ARG'
p134
F-0.46000000000000002
sS'HIS-TRP'
p135
F0.20599999999999999
sS'PRO-SER'
p136
F-0.087999999999999995
sS'VAL-VAL'
p137
F0.081000000000000003
sS'LEU-LYS'
p138
F0.58099999999999996
sS'GLY-LYS'
p139
F-0.34399999999999997
sS'CYS-ASN'
p140
F0.436
sS'GLY-TRP'
p141
F-0.069000000000000006
sS'THR-CYS'
p142
F1.0680000000000001
sS'LYS-LYS'
p143
F0.071999999999999995
sS'CYS-ASP'
p144
F1.054
sS'TYR-ASP'
p145
F-0.014999999999999999
sS'VAL-PRO'
p146
F0.433
sS'THR-VAL'
p147
F0.44600000000000001
sS'ASP-TYR'
p148
F-0.089999999999999997
sS'PRO-CYS'
p149
F0.21199999999999999
sS'VAL-SER'
p150
F0.40699999999999997
sS'ARG-HIS'
p151
F-0.378
sS'CYS-PRO'
p152
F0.057000000000000002
sS'MET-LYS'
p153
F0.186
sS'ALA-SER'
p154
F0.106
sS'TYR-SER'
p155
F-0.19900000000000001
sS'GLY-ARG'
p156
F-0.60599999999999998
sS'GLN-ALA'
p157
F0.042000000000000003
sS'MET-LEU'
p158
F0.58599999999999997
sS'ASN-HIS'
p159
F-0.218
sS'VAL-CYS'
p160
F1.022
sS'GLN-TYR'
p161
F-0.17699999999999999
sS'GLN-PHE'
p162
F0.082000000000000003
sS'ILE-ASN'
p163
F0.51500000000000001
sS'GLU-ASN'
p164
F-0.14799999999999999
sS'CYS-ALA'
p165
F0.82699999999999996
sS'ASN-ASP'
p166
F-0.072999999999999995
sS'ASN-PRO'
p167
F-0.34000000000000002
sS'PRO-ARG'
p168
F-0.42399999999999999
sS'LYS-TRP'
p169
F0.17000000000000001
sS'ASN-ASN'
p170
F-1.018
sS'ASN-THR'
p171
F-0.159
sS'THR-ALA'
p172
F0.29999999999999999
sS'LYS-ALA'
p173
F0.30199999999999999
sS'LYS-PRO'
p174
F-0.025000000000000001
sS'SER-GLN'
p175
F-0.33200000000000002
sS'ILE-VAL'
p176
F0.66600000000000004
sS'ASP-ARG'
p177
F-0.749
sS'ASP-MET'
p178
F0.55200000000000005
sS'CYS-TYR'
p179
F0.216
sS'PRO-TRP'
p180
F-0.36299999999999999
sS'THR-GLU'
p181
F-0.025000000000000001
sS'TRP-ALA'
p182
F-0.031
sS'ILE-CYS'
p183
F0.70199999999999996
sS'LYS-ILE'
p184
F0.75600000000000001
sS'GLN-CYS'
p185
F0.60899999999999999
sS'TYR-ALA'
p186
F0.057000000000000002
sS'ARG-ASP'
p187
F-0.76100000000000001
sS'SER-GLU'
p188
F-0.19400000000000001
sS'TRP-HIS'
p189
F0.037999999999999999
sS'ALA-ASN'
p190
F0.115
sS'GLU-CYS'
p191
F1.0329999999999999
sS'PRO-MET'
p192
F0.40799999999999997
sS'TYR-HIS'
p193
F-0.39200000000000002
sS'PHE-MET'
p194
F0.185
sS'GLU-TYR'
p195
F0.012999999999999999
sS'SER-TRP'
p196
F0.182
sS'PHE-ARG'
p197
F-0.029999999999999999
sS'GLY-ILE'
p198
F0.46899999999999997
sS'TYR-VAL'
p199
F0.34300000000000003
sS'ASN-TYR'
p200
F-0.17199999999999999
sS'SER-ILE'
p201
F0.40699999999999997
sS'GLN-PRO'
p202
F-0.35299999999999998
sS'PHE-TYR'
p203
F-0.050000000000000003
sS'ALA-VAL'
p204
F0.48299999999999998
sS'HIS-HIS'
p205
F-1.4890000000000001
sS'THR-ASN'
p206
F-0.12
sS'CYS-LEU'
p207
F1.105
sS'LYS-MET'
p208
F0.33400000000000002
sS'LYS-ASP'
p209
F-0.17599999999999999
sS'HIS-ASN'
p210
F-0.32500000000000001
sS'ILE-GLN'
p211
F0.28799999999999998
sS'VAL-HIS'
p212
F0.48199999999999998
sS'ALA-LEU'
p213
F0.28000000000000003
sS'HIS-ASP'
p214
F-0.20599999999999999
sS'ILE-TYR'
p215
F0.126
sS'ILE-GLU'
p216
F0.61099999999999999
sS'ILE-GLY'
p217
F0.52800000000000002
sS'ASN-CYS'
p218
F0.36099999999999999
sS'GLU-SER'
p219
F-0.14299999999999999
sS'ALA-TRP'
p220
F0.14299999999999999
sS'HIS-CYS'
p221
F0.89100000000000001
sS'HIS-MET'
p222
F0.51600000000000001
sS'ILE-PRO'
p223
F0.31900000000000001
sS'LYS-PHE'
p224
F0.28499999999999998
sS'TRP-PRO'
p225
F-0.073999999999999996
sS'GLU-TRP'
p226
F0.28999999999999998
sS'PHE-HIS'
p227
F0.35099999999999998
sS'GLY-TYR'
p228
F-0.38700000000000001
sS'SER-GLY'
p229
F-0.255
sS'CYS-TRP'
p230
F1.169
sS'ASP-LYS'
p231
F-0.10299999999999999
sS'ASN-ILE'
p232
F0.35899999999999999
sS'HIS-SER'
p233
F-0.082000000000000003
sS'LYS-CYS'
p234
F0.66300000000000003
sS'GLY-PHE'
p235
F0.20000000000000001
sS'GLY-LEU'
p236
F0.248
sS'MET-SER'
p237
F0.34799999999999998
sS'VAL-ALA'
p238
F0.54200000000000004
sS'SER-LEU'
p239
F0.42499999999999999
sS'TRP-LYS'
p240
F-0.023
sS'VAL-TYR'
p241
F0.28499999999999998
sS'VAL-PHE'
p242
F0.44400000000000001
sS'ARG-THR'
p243
F-0.248
sS'TYR-TRP'
p244
F0.11700000000000001
sS'GLN-GLN'
p245
F-0.92100000000000004
sS'GLU-PHE'
p246
F0.373
sS'VAL-ILE'
p247
F0.67100000000000004
sS'HIS-GLN'
p248
F-0.001
sS'GLN-GLY'
p249
F-0.51400000000000001
sS'PHE-ALA'
p250
F0.029000000000000001
sS'HIS-GLU'
p251
F-0.19700000000000001
sS'ARG-PRO'
p252
F-0.43099999999999999
sS'HIS-GLY'
p253
F-0.14299999999999999
sS'SER-ASN'
p254
F-0.24399999999999999
sS'ALA-THR'
p255
F0.34699999999999998
sS'GLN-GLU'
p256
F0.0050000000000000001
sS'GLN-LYS'
p257
F-0.021000000000000001
sS'CYS-HIS'
p258
F0.89800000000000002
sS'GLN-ASP'
p259
F-0.071999999999999995
sS'LEU-HIS'
p260
F0.317
sS'SER-LYS'
p261
F-0.037999999999999999
sS'TRP-LEU'
p262
F0.156
sS'CYS-SER'
p263
F0.59799999999999998
sS'LYS-THR'
p264
F0.378
sS'HIS-LEU'
p265
F0.35399999999999998
sS'LEU-ARG'
p266
F0.129
sS'GLY-VAL'
p267
F0.13300000000000001
sS'GLN-ASN'
p268
F-0.28899999999999998
sS'TYR-ARG'
p269
F-0.307
sS'PRO-TYR'
p270
F-0.436
sS'ASP-PHE'
p271
F0.5
sS'TRP-CYS'
p272
F1.238
sS'ASN-LEU'
p273
F0.26600000000000001
sS'SER-MET'
p274
F0.433
sS'HIS-ILE'
p275
F0.40100000000000002
sS'SER-TYR'
p276
F-0.13500000000000001
sS'MET-TYR'
p277
F-0.017999999999999999
sS'GLU-ILE'
p278
F0.438
sS'PHE-CYS'
p279
F0.499
sS'PRO-LEU'
p280
F0.26100000000000001
sS'GLY-MET'
p281
F0.32000000000000001
sS'ARG-ILE'
p282
F0.19800000000000001
sS'HIS-THR'
p283
F-0.042999999999999997
sS'THR-GLN'
p284
F-0.26000000000000001
sS'TRP-THR'
p285
F0.23100000000000001
sS'LYS-LEU'
p286
F0.56499999999999995
sS'THR-GLY'
p287
F-0.20699999999999999
sS'ASP-TRP'
p288
F0.49099999999999999
sS'TYR-MET'
p289
F-0.078
sS'PHE-ILE'
p290
F0.33600000000000002
sS'PRO-VAL'
p291
F0.49199999999999999
sS'MET-ASN'
p292
F0.21299999999999999
sS'LEU-TYR'
p293
F0.20000000000000001
sS'PHE-PHE'
p294
F-0.46500000000000002
sS'CYS-PHE'
p295
F0.68899999999999995
sS'TRP-ILE'
p296
F0.48299999999999998
sS'PRO-ASN'
p297
F-0.22500000000000001
sS'CYS-CYS'
p298
F-2.7130000000000001
sS'SER-ASP'
p299
F-0.016
sS'ARG-MET'
p300
F0.28100000000000003
sS'SER-PHE'
p301
F0.24399999999999999
sS'SER-SER'
p302
F-0.753
sS'ASN-LYS'
p303
F-0.032000000000000001
sS'CYS-THR'
p304
F0.96999999999999997
sS'ILE-TRP'
p305
F0.27300000000000002
sS'PRO-ASP'
p306
F0.019
sS'THR-ASP'
p307
F0.0040000000000000001
sS'SER-CYS'
p308
F0.65600000000000003
sS'MET-ASP'
p309
F0.52300000000000002
sS'GLN-MET'
p310
F0.52500000000000002
sS'MET-TRP'
p311
F0.57499999999999996
sS'ARG-VAL'
p312
F0.157
sS'GLY-GLN'
p313
F-0.496
sS'THR-LYS'
p314
F0.373
sS'TRP-MET'
p315
F0.66900000000000004
sS'ARG-ARG'
p316
F-0.78700000000000003
sS'ILE-ASP'
p317
F0.65300000000000002
sS'ALA-ARG'
p318
F-0.124
sS'GLY-GLU'
p319
F-0.091999999999999998
sS'ASN-TRP'
p320
F0.084000000000000005
sS'GLU-ARG'
p321
F-0.50700000000000001
sS'HIS-VAL'
p322
F0.38500000000000001
sS'VAL-ARG'
p323
F0.17000000000000001
sS'ASN-SER'
p324
F-0.30399999999999999
sS'ALA-LYS'
p325
F0.377
sS'VAL-GLN'
p326
F0.32100000000000001
sS'TRP-ASN'
p327
F-0.13600000000000001
sS'TYR-ILE'
p328
F0.029999999999999999
sS'TRP-GLY'
p329
F-0.20200000000000001
sS'PRO-PHE'
p330
F-0.22600000000000001
sS'GLY-HIS'
p331
F-0.28399999999999997
sS'PHE-SER'
p332
F0.23400000000000001
sS'TRP-ASP'
p333
F0.52100000000000002
sS'TRP-GLN'
p334
F-0.246
sS'LEU-ALA'
p335
F0.31900000000000001
sS'VAL-GLU'
p336
F0.503
sS'ALA-HIS'
p337
F-0.050000000000000003
sS'ARG-ASN'
p338
F-0.40999999999999998
sS'LEU-THR'
p339
F0.47299999999999998
sS'TYR-CYS'
p340
F0.47599999999999998
sS'THR-THR'
p341
F-0.46899999999999997
sS'THR-LEU'
p342
F0.45600000000000002
sS'VAL-ASN'
p343
F0.24399999999999999
sS'LEU-TRP'
p344
F0.36099999999999999
sS'GLU-ASP'
p345
F0.32700000000000001
sS'ILE-SER'
p346
F0.40600000000000003
sS'ILE-ARG'
p347
F0.28299999999999997
sS'TRP-GLU'
p348
F0.19600000000000001
sS'ILE-MET'
p349
F0.67000000000000004
sS'MET-PHE'
p350
F0.19800000000000001
sS'PRO-ALA'
p351
F-0.126
sS'PRO-GLY'
p352
F-0.247
sS'GLN-THR'
p353
F-0.14499999999999999
sS'MET-ALA'
p354
F0.67600000000000005
sS'TRP-SER'
p355
F0.16900000000000001
sS'ASP-HIS'
p356
F-0.088999999999999996
sS'ARG-SER'
p357
F-0.42499999999999999
sS'GLN-HIS'
p358
F-0.29199999999999998
sS'HIS-PHE'
p359
F0.156
sS'LEU-LEU'
p360
F0.070000000000000007
sS'ALA-GLN'
p361
F-0.042000000000000003
sS'ASP-ASN'
p362
F-0.097000000000000003
sS'SER-VAL'
p363
F0.45600000000000002
sS'MET-ILE'
p364
F0.878
sS'ALA-PRO'
p365
F0.10000000000000001
sS'ASP-ASP'
p366
F-0.068000000000000005
sS'ALA-GLY'
p367
F0.13
sS'TRP-TRP'
p368
F-1.3400000000000001
sS'MET-CYS'
p369
F0.88100000000000001
sS'ALA-GLU'
p370
F0.31
sS'THR-PRO'
p371
F-0.21199999999999999
sS'HIS-ALA'
p372
F0.20899999999999999
sS'GLN-ILE'
p373
F0.085000000000000006
sS'GLU-VAL'
p374
F0.50900000000000001
sS'LYS-ASN'
p375
F-0.049000000000000002
sS'ASN-ALA'
p376
F0.104
sS'THR-ILE'
p377
F0.40799999999999997
sS'ASP-CYS'
p378
F1.113
sS'PRO-LYS'
p379
F0.062
sS'TYR-TYR'
p380
F-0.84999999999999998
sS'ARG-LYS'
p381
F-0.043999999999999997
sS'ILE-ALA'
p382
F0.49199999999999999
sS'ASP-SER'
p383
F-0.042999999999999997
sS'CYS-LYS'
p384
F0.89500000000000002
sS'GLU-ALA'
p385
F0.27100000000000002
sS'PHE-GLU'
p386
F0.20599999999999999
sS'GLU-LEU'
p387
F0.49399999999999999
sS'PHE-GLY'
p388
F0.151
sS'LYS-HIS'
p389
F-0.158
sS'HIS-PRO'
p390
F-0.34699999999999998
sS'ILE-ILE'
p391
F0.092999999999999999
sS'MET-HIS'
p392
F0.62
sS'VAL-GLY'
p393
F0.30399999999999999
sS'THR-MET'
p394
F0.52800000000000002
sS'PHE-THR'
p395
F0.42399999999999999
sS'VAL-TRP'
p396
F0.34499999999999997
sS'PHE-LYS'
p397
F0.223
sS'GLY-PRO'
p398
F-0.38600000000000001
sS'PHE-GLN'
p399
F0.090999999999999998
sS'LEU-PHE'
p400
F0.35999999999999999
s.