(dp1
S'MET-MET'
p2
F-1.1080000000000001
sS'PRO-ILE'
p3
F-0.049000000000000002
sS'TYR-LYS'
p4
F-0.42299999999999999
sS'VAL-ASP'
p5
F0.17999999999999999
sS'ASP-GLN'
p6
F-0.438
sS'HIS-TYR'
p7
F-0.64700000000000002
sS'ASP-GLU'
p8
F-0.19900000000000001
sS'ALA-ASP'
p9
F0.13600000000000001
sS'ASP-GLY'
p10
F-0.23699999999999999
sS'LEU-VAL'
p11
F0.086999999999999994
sS'TRP-TYR'
p12
F-0.193
sS'GLN-TRP'
p13
F-0.47799999999999998
sS'TRP-PHE'
p14
F-0.223
sS'ARG-TYR'
p15
F-0.73299999999999998
sS'GLU-LYS'
p16
F-0.51500000000000001
sS'ILE-HIS'
p17
F0.034000000000000002
sS'LEU-MET'
p18
F0.22900000000000001
sS'GLU-HIS'
p19
F-0.52400000000000002
sS'GLY-THR'
p20
F-0.27900000000000003
sS'ARG-GLU'
p21
F-0.82499999999999996
sS'PHE-ASN'
p22
F-0.23000000000000001
sS'ASN-MET'
p23
F0.097000000000000003
sS'PRO-THR'
p24
F-0.52500000000000002
sS'TYR-GLN'
p25
F-0.52400000000000002
sS'ARG-GLY'
p26
F-0.93500000000000005
sS'VAL-THR'
p27
F0.090999999999999998
sS'ASP-ILE'
p28
F0.20599999999999999
sS'THR-HIS'
p29
F-0.25600000000000001
sS'TYR-GLU'
p30
F-0.53400000000000003
sS'ARG-GLN'
p31
F-0.78700000000000003
sS'TYR-GLY'
p32
F-0.56299999999999994
sS'PHE-ASP'
p33
F-0.084000000000000005
sS'CYS-ARG'
p34
F-0.187
sS'GLY-ASN'
p35
F-0.72499999999999998
sS'VAL-LYS'
p36
F0.193
sS'LEU-ILE'
p37
F0.044999999999999998
sS'GLN-LEU'
p38
F-0.192
sS'GLU-MET'
p39
F0.114
sS'ASP-THR'
p40
F-0.25900000000000001
sS'ASN-PHE'
p41
F-0.27500000000000002
sS'GLU-PRO'
p42
F-0.55600000000000005
sS'TYR-LEU'
p43
F-0.30199999999999999
sS'LYS-ARG'
p44
F-0.24199999999999999
sS'GLY-ASP'
p45
F-0.313
sS'PRO-GLN'
p46
F-0.63900000000000001
sS'CYS-MET'
p47
F0.46899999999999997
sS'HIS-ARG'
p48
F-0.55300000000000005
sS'GLU-THR'
p49
F-0.27400000000000002
sS'ILE-THR'
p50
F0.14199999999999999
sS'SER-PRO'
p51
F-0.41399999999999998
sS'GLY-CYS'
p52
F-0.128
sS'ARG-LEU'
p53
F-0.35599999999999998
sS'PRO-GLU'
p54
F-0.44600000000000001
sS'ASP-LEU'
p55
F0.221
sS'PHE-VAL'
p56
F-0.0040000000000000001
sS'ASN-VAL'
p57
F-0.040000000000000001
sS'ALA-MET'
p58
F0.44400000000000001
sS'LEU-PRO'
p59
F-0.087999999999999995
sS'LEU-SER'
p60
F0.085000000000000006
sS'ASN-ARG'
p61
F-0.751
sS'SER-THR'
p62
F-0.050000000000000003
sS'LYS-VAL'
p63
F0.16800000000000001
sS'LYS-GLN'
p64
F-0.35299999999999998
sS'GLN-VAL'
p65
F0.053999999999999999
sS'TYR-PHE'
p66
F-0.23799999999999999
sS'ASP-VAL'
p67
F0.22800000000000001
sS'ASN-GLY'
p68
F-0.62
sS'ARG-PHE'
p69
F-0.48399999999999999
sS'SER-HIS'
p70
F-0.41199999999999998
sS'ALA-ILE'
p71
F0.16300000000000001
sS'ASN-GLU'
p72
F-0.59299999999999997
sS'CYS-GLN'
p73
F0.13200000000000001
sS'TYR-PRO'
p74
F-0.75
sS'LYS-GLU'
p75
F-0.505
sS'CYS-GLU'
p76
F0.70699999999999996
sS'ASN-GLN'
p77
F-0.67300000000000004
sS'CYS-GLY'
p78
F0.21099999999999999
sS'GLN-SER'
p79
F-0.65300000000000002
sS'HIS-LYS'
p80
F-0.28499999999999998
sS'LYS-GLY'
p81
F-0.48699999999999999
sS'VAL-MET'
p82
F0.19800000000000001
sS'GLU-GLY'
p83
F-0.38900000000000001
sS'THR-SER'
p84
F-0.0070000000000000001
sS'TYR-THR'
p85
F-0.47699999999999998
sS'PRO-PRO'
p86
F-1.016
sS'ILE-PHE'
p87
F-0.115
sS'PHE-LEU'
p88
F-0.085999999999999993
sS'GLU-GLU'
p89
F-0.54700000000000004
sS'SER-ARG'
p90
F-0.65700000000000003
sS'GLY-ALA'
p91
F-0.014999999999999999
sS'TYR-ASN'
p92
F-0.69199999999999995
sS'GLU-GLN'
p93
F-0.436
sS'TRP-ARG'
p94
F-0.49199999999999999
sS'LEU-GLU'
p95
F0.18099999999999999
sS'LEU-GLY'
p96
F0.17399999999999999
sS'LYS-SER'
p97
F-0.23100000000000001
sS'MET-VAL'
p98
F0.32100000000000001
sS'SER-ALA'
p99
F0.094
sS'PRO-HIS'
p100
F-0.68400000000000005
sS'MET-THR'
p101
F0.123
sS'ALA-PHE'
p102
F-0.16700000000000001
sS'MET-PRO'
p103
F0.091999999999999998
sS'GLY-SER'
p104
F-0.28499999999999998
sS'LEU-GLN'
p105
F-0.115
sS'VAL-LEU'
p106
F0.092999999999999999
sS'LEU-CYS'
p107
F0.51100000000000001
sS'LYS-TYR'
p108
F-0.34200000000000003
sS'ASP-ALA'
p109
F0.27600000000000002
sS'ILE-LEU'
p110
F-0.035000000000000003
sS'TRP-VAL'
p111
F-0.151
sS'PHE-PRO'
p112
F-0.51300000000000001
sS'ALA-ALA'
p113
F-0.23100000000000001
sS'ARG-TRP'
p114
F-0.624
sS'MET-GLN'
p115
F-0.16700000000000001
sS'ILE-LYS'
p116
F0.20599999999999999
sS'MET-ARG'
p117
F0.0080000000000000002
sS'ALA-CYS'
p118
F0.74199999999999999
sS'THR-ARG'
p119
F-0.35899999999999999
sS'CYS-ILE'
p120
F0.59099999999999997
sS'LEU-ASN'
p121
F-0.091999999999999998
sS'LEU-ASP'
p122
F0.23999999999999999
sS'PHE-TRP'
p123
F-0.23000000000000001
sS'MET-GLY'
p124
F0.17399999999999999
sS'THR-PHE'
p125
F-0.26300000000000001
sS'MET-GLU'
p126
F0.28899999999999998
sS'THR-TRP'
p127
F0.035999999999999997
sS'THR-TYR'
p128
F-0.46100000000000002
sS'CYS-VAL'
p129
F0.54300000000000004
sS'ARG-ALA'
p130
F-0.27500000000000002
sS'ALA-TYR'
p131
F-0.35799999999999998
sS'ASP-PRO'
p132
F-0.44900000000000001
sS'ARG-CYS'
p133
F-0.19500000000000001
sS'GLN-ARG'
p134
F-0.71799999999999997
sS'HIS-TRP'
p135
F-0.057000000000000002
sS'PRO-SER'
p136
F-0.28799999999999998
sS'VAL-VAL'
p137
F-0.39600000000000002
sS'LEU-LYS'
p138
F0.14999999999999999
sS'GLY-LYS'
p139
F-0.59599999999999997
sS'CYS-ASN'
p140
F0.043999999999999997
sS'GLY-TRP'
p141
F-0.32100000000000001
sS'THR-CYS'
p142
F0.46999999999999997
sS'LYS-LYS'
p143
F-0.28299999999999997
sS'CYS-ASP'
p144
F0.629
sS'TYR-ASP'
p145
F-0.503
sS'VAL-PRO'
p146
F0.017000000000000001
sS'THR-VAL'
p147
F0.065000000000000002
sS'ASP-TYR'
p148
F-0.51300000000000001
sS'PRO-CYS'
p149
F0.017000000000000001
sS'VAL-SER'
p150
F0.224
sS'ARG-HIS'
p151
F-0.67900000000000005
sS'CYS-PRO'
p152
F-0.039
sS'MET-LYS'
p153
F-0.019
sS'ALA-SER'
p154
F0.158
sS'TYR-SER'
p155
F-0.48399999999999999
sS'GLY-ARG'
p156
F-0.83299999999999996
sS'GLN-ALA'
p157
F-0.127
sS'MET-LEU'
p158
F0.16200000000000001
sS'ASN-HIS'
p159
F-0.503
sS'VAL-CYS'
p160
F0.71899999999999997
sS'GLN-TYR'
p161
F-0.64500000000000002
sS'GLN-PHE'
p162
F-0.27800000000000002
sS'ILE-ASN'
p163
F0.043999999999999997
sS'GLU-ASN'
p164
F-0.60099999999999998
sS'CYS-ALA'
p165
F0.67700000000000005
sS'ASN-ASP'
p166
F-0.442
sS'ASN-PRO'
p167
F-0.72199999999999998
sS'PRO-ARG'
p168
F-0.67200000000000004
sS'LYS-TRP'
p169
F-0.111
sS'ASN-ASN'
p170
F-1.3300000000000001
sS'ASN-THR'
p171
F-0.47799999999999998
sS'THR-ALA'
p172
F0.224
sS'LYS-ALA'
p173
F0.24299999999999999
sS'LYS-PRO'
p174
F-0.20499999999999999
sS'SER-GLN'
p175
F-0.59499999999999997
sS'ILE-VAL'
p176
F0.105
sS'ASP-ARG'
p177
F-1.0069999999999999
sS'ASP-MET'
p178
F0.30499999999999999
sS'CYS-TYR'
p179
F-0.247
sS'PRO-TRP'
p180
F-0.59799999999999998
sS'THR-GLU'
p181
F-0.308
sS'TRP-ALA'
p182
F-0.31
sS'ILE-CYS'
p183
F0.57099999999999995
sS'LYS-ILE'
p184
F0.31
sS'GLN-CYS'
p185
F0.124
sS'TYR-ALA'
p186
F-0.33400000000000002
sS'ARG-ASP'
p187
F-1.1339999999999999
sS'SER-GLU'
p188
F-0.38900000000000001
sS'TRP-HIS'
p189
F-0.36399999999999999
sS'ALA-ASN'
p190
F-0.010999999999999999
sS'GLU-CYS'
p191
F0.624
sS'PRO-MET'
p192
F0.062
sS'TYR-HIS'
p193
F-0.63400000000000001
sS'PHE-MET'
p194
F-0.23200000000000001
sS'GLU-TYR'
p195
F-0.441
sS'SER-TRP'
p196
F-0.24099999999999999
sS'PHE-ARG'
p197
F-0.33000000000000002
sS'GLY-ILE'
p198
F0.23200000000000001
sS'TYR-VAL'
p199
F-0.127
sS'ASN-TYR'
p200
F-0.60799999999999998
sS'SER-ILE'
p201
F0.058999999999999997
sS'GLN-PRO'
p202
F-0.69599999999999995
sS'PHE-TYR'
p203
F-0.33200000000000002
sS'ALA-VAL'
p204
F0.313
sS'HIS-HIS'
p205
F-1.831
sS'THR-ASN'
p206
F-0.36899999999999999
sS'CYS-LEU'
p207
F0.59199999999999997
sS'LYS-MET'
p208
F0.073999999999999996
sS'LYS-ASP'
p209
F-0.60999999999999999
sS'HIS-ASN'
p210
F-0.53000000000000003
sS'ILE-GLN'
p211
F-0.14399999999999999
sS'VAL-HIS'
p212
F-0.047
sS'ALA-LEU'
p213
F0.056000000000000001
sS'HIS-ASP'
p214
F-0.51300000000000001
sS'ILE-TYR'
p215
F-0.45100000000000001
sS'ILE-GLU'
p216
F0.13900000000000001
sS'ILE-GLY'
p217
F0.17299999999999999
sS'ASN-CYS'
p218
F-0.043999999999999997
sS'GLU-SER'
p219
F-0.41999999999999998
sS'ALA-TRP'
p220
F-0.224
sS'HIS-CYS'
p221
F0.39300000000000002
sS'HIS-MET'
p222
F-0.0050000000000000001
sS'ILE-PRO'
p223
F-0.14299999999999999
sS'LYS-PHE'
p224
F0.127
sS'TRP-PRO'
p225
F-0.34000000000000002
sS'GLU-TRP'
p226
F-0.11700000000000001
sS'PHE-HIS'
p227
F-0.126
sS'GLY-TYR'
p228
F-0.63600000000000001
sS'SER-GLY'
p229
F-0.36199999999999999
sS'CYS-TRP'
p230
F0.73799999999999999
sS'ASP-LYS'
p231
F-0.55700000000000005
sS'ASN-ILE'
p232
F-0.060999999999999999
sS'HIS-SER'
p233
F-0.48699999999999999
sS'LYS-CYS'
p234
F0.32000000000000001
sS'GLY-PHE'
p235
F-0.040000000000000001
sS'GLY-LEU'
p236
F0.087999999999999995
sS'MET-SER'
p237
F0.129
sS'VAL-ALA'
p238
F0.34899999999999998
sS'SER-LEU'
p239
F0.13200000000000001
sS'TRP-LYS'
p240
F-0.253
sS'VAL-TYR'
p241
F-0.050999999999999997
sS'VAL-PHE'
p242
F-0.076999999999999999
sS'ARG-THR'
p243
F-0.56200000000000006
sS'TYR-TRP'
p244
F-0.32900000000000001
sS'GLN-GLN'
p245
F-1.331
sS'GLU-PHE'
p246
F-0.107
sS'VAL-ILE'
p247
F0.11
sS'HIS-GLN'
p248
F-0.42999999999999999
sS'GLN-GLY'
p249
F-0.69799999999999995
sS'PHE-ALA'
p250
F-0.13200000000000001
sS'HIS-GLU'
p251
F-0.45500000000000002
sS'ARG-PRO'
p252
F-0.81399999999999995
sS'HIS-GLY'
p253
F-0.34599999999999997
sS'SER-ASN'
p254
F-0.46899999999999997
sS'ALA-THR'
p255
F0.219
sS'GLN-GLU'
p256
F-0.41499999999999998
sS'GLN-LYS'
p257
F-0.45000000000000001
sS'CYS-HIS'
p258
F0.45400000000000001
sS'GLN-ASP'
p259
F-0.54400000000000004
sS'LEU-HIS'
p260
F-0.14399999999999999
sS'SER-LYS'
p261
F-0.23100000000000001
sS'TRP-LEU'
p262
F-0.251
sS'CYS-SER'
p263
F0.40899999999999997
sS'LYS-THR'
p264
F-0.050000000000000003
sS'HIS-LEU'
p265
F-0.0040000000000000001
sS'LEU-ARG'
p266
F-0.28100000000000003
sS'GLY-VAL'
p267
F0.0040000000000000001
sS'GLN-ASN'
p268
F-0.53900000000000003
sS'TYR-ARG'
p269
F-0.71899999999999997
sS'PRO-TYR'
p270
F-0.78200000000000003
sS'ASP-PHE'
p271
F0.037999999999999999
sS'TRP-CYS'
p272
F0.629
sS'ASN-LEU'
p273
F-0.096000000000000002
sS'SER-MET'
p274
F0.216
sS'HIS-ILE'
p275
F-0.010999999999999999
sS'SER-TYR'
p276
F-0.52300000000000002
sS'MET-TYR'
p277
F-0.314
sS'GLU-ILE'
p278
F0.012999999999999999
sS'PHE-CYS'
p279
F0.090999999999999998
sS'PRO-LEU'
p280
F-0.19500000000000001
sS'GLY-MET'
p281
F0.125
sS'ARG-ILE'
p282
F-0.126
sS'HIS-THR'
p283
F-0.36399999999999999
sS'THR-GLN'
p284
F-0.57699999999999996
sS'TRP-THR'
p285
F-0.23999999999999999
sS'LYS-LEU'
p286
F0.20699999999999999
sS'THR-GLY'
p287
F-0.33800000000000002
sS'ASP-TRP'
p288
F-0.0040000000000000001
sS'TYR-MET'
p289
F-0.26200000000000001
sS'PHE-ILE'
p290
F-0.16500000000000001
sS'PRO-VAL'
p291
F0.092999999999999999
sS'MET-ASN'
p292
F-0.044999999999999998
sS'LEU-TYR'
p293
F-0.26400000000000001
sS'PHE-PHE'
p294
F-0.94499999999999995
sS'CYS-PHE'
p295
F0.26400000000000001
sS'TRP-ILE'
p296
F-0.043999999999999997
sS'PRO-ASN'
p297
F-0.628
sS'CYS-CYS'
p298
F-2.6059999999999999
sS'SER-ASP'
p299
F-0.19600000000000001
sS'ARG-MET'
p300
F0.016
sS'SER-PHE'
p301
F-0.13100000000000001
sS'SER-SER'
p302
F-0.76500000000000001
sS'ASN-LYS'
p303
F-0.57199999999999995
sS'CYS-THR'
p304
F0.66100000000000003
sS'ILE-TRP'
p305
F-0.025000000000000001
sS'PRO-ASP'
p306
F-0.41199999999999998
sS'THR-ASP'
p307
F-0.23400000000000001
sS'SER-CYS'
p308
F0.52700000000000002
sS'MET-ASP'
p309
F0.029999999999999999
sS'GLN-MET'
p310
F0.012
sS'MET-TRP'
p311
F0.19900000000000001
sS'ARG-VAL'
p312
F-0.17499999999999999
sS'GLY-GLN'
p313
F-0.67400000000000004
sS'THR-LYS'
p314
F-0.025000000000000001
sS'TRP-MET'
p315
F0.27300000000000002
sS'ARG-ARG'
p316
F-1.1559999999999999
sS'ILE-ASP'
p317
F0.17299999999999999
sS'ALA-ARG'
p318
F-0.32400000000000001
sS'GLY-GLU'
p319
F-0.34599999999999997
sS'ASN-TRP'
p320
F-0.23599999999999999
sS'GLU-ARG'
p321
F-0.79900000000000004
sS'HIS-VAL'
p322
F-0.043999999999999997
sS'VAL-ARG'
p323
F-0.17399999999999999
sS'ASN-SER'
p324
F-0.52200000000000002
sS'ALA-LYS'
p325
F0.19500000000000001
sS'VAL-GLN'
p326
F-0.073999999999999996
sS'TRP-ASN'
p327
F-0.501
sS'TYR-ILE'
p328
F-0.39800000000000002
sS'TRP-GLY'
p329
F-0.374
sS'PRO-PHE'
p330
F-0.48899999999999999
sS'GLY-HIS'
p331
F-0.47399999999999998
sS'PHE-SER'
p332
F-0.17399999999999999
sS'TRP-ASP'
p333
F0.095000000000000001
sS'TRP-GLN'
p334
F-0.67500000000000004
sS'LEU-ALA'
p335
F0.154
sS'VAL-GLU'
p336
F0.081000000000000003
sS'ALA-HIS'
p337
F-0.36899999999999999
sS'ARG-ASN'
p338
F-0.73999999999999999
sS'LEU-THR'
p339
F0.113
sS'TYR-CYS'
p340
F0.22
sS'THR-THR'
p341
F-0.70299999999999996
sS'THR-LEU'
p342
F0.064000000000000001
sS'VAL-ASN'
p343
F-0.049000000000000002
sS'LEU-TRP'
p344
F-0.23200000000000001
sS'GLU-ASP'
p345
F-0.23899999999999999
sS'ILE-SER'
p346
F0.109
sS'ILE-ARG'
p347
F-0.070999999999999994
sS'TRP-GLU'
p348
F-0.14799999999999999
sS'ILE-MET'
p349
F0.183
sS'MET-PHE'
p350
F-0.248
sS'PRO-ALA'
p351
F-0.23899999999999999
sS'PRO-GLY'
p352
F-0.39000000000000001
sS'GLN-THR'
p353
F-0.436
sS'MET-ALA'
p354
F0.60199999999999998
sS'TRP-SER'
p355
F-0.253
sS'ASP-HIS'
p356
F-0.56699999999999995
sS'ARG-SER'
p357
F-0.628
sS'GLN-HIS'
p358
F-0.61299999999999999
sS'HIS-PHE'
p359
F-0.23400000000000001
sS'LEU-LEU'
p360
F-0.314
sS'ALA-GLN'
p361
F-0.23100000000000001
sS'ASP-ASN'
p362
F-0.46999999999999997
sS'SER-VAL'
p363
F0.186
sS'MET-ILE'
p364
F0.42099999999999999
sS'ALA-PRO'
p365
F0.069000000000000006
sS'ASP-ASP'
p366
F-0.46899999999999997
sS'ALA-GLY'
p367
F0.11600000000000001
sS'TRP-TRP'
p368
F-1.583
sS'MET-CYS'
p369
F0.76200000000000001
sS'ALA-GLU'
p370
F0.076999999999999999
sS'THR-PRO'
p371
F-0.42899999999999999
sS'HIS-ALA'
p372
F0.0030000000000000001
sS'GLN-ILE'
p373
F-0.30399999999999999
sS'GLU-VAL'
p374
F0.105
sS'LYS-ASN'
p375
F-0.434
sS'ASN-ALA'
p376
F-0.029999999999999999
sS'THR-ILE'
p377
F0.078
sS'ASP-CYS'
p378
F0.67500000000000004
sS'PRO-LYS'
p379
F-0.33100000000000002
sS'TYR-TYR'
p380
F-1.2569999999999999
sS'ARG-LYS'
p381
F-0.28899999999999998
sS'ILE-ALA'
p382
F0.27000000000000002
sS'ASP-SER'
p383
F-0.28899999999999998
sS'CYS-LYS'
p384
F0.58899999999999997
sS'GLU-ALA'
p385
F0.045999999999999999
sS'PHE-GLU'
p386
F-0.060999999999999999
sS'GLU-LEU'
p387
F0.087999999999999995
sS'PHE-GLY'
p388
F-0.092999999999999999
sS'LYS-HIS'
p389
F-0.26000000000000001
sS'HIS-PRO'
p390
F-0.54900000000000004
sS'ILE-ILE'
p391
F-0.45000000000000001
sS'MET-HIS'
p392
F-0.0080000000000000002
sS'VAL-GLY'
p393
F0.14699999999999999
sS'THR-MET'
p394
F0.23999999999999999
sS'PHE-THR'
p395
F-0.23799999999999999
sS'VAL-TRP'
p396
F0.0050000000000000001
sS'PHE-LYS'
p397
F-0.023
sS'GLY-PRO'
p398
F-0.46999999999999997
sS'PHE-GLN'
p399
F-0.26700000000000002
sS'LEU-PHE'
p400
F-0.14799999999999999
s.