(dp1
S'MET-MET'
p2
F-2.6019999999999999
sS'PRO-ILE'
p3
F-0.82499999999999996
sS'TYR-LYS'
p4
F-1.542
sS'VAL-ASP'
p5
F-0.62
sS'ASP-GLN'
p6
F-1.347
sS'HIS-TYR'
p7
F-1.6659999999999999
sS'ASP-GLU'
p8
F-1.1339999999999999
sS'ALA-ASP'
p9
F-0.69999999999999996
sS'ASP-GLY'
p10
F-1.5109999999999999
sS'LEU-VAL'
p11
F-0.73599999999999999
sS'TRP-TYR'
p12
F-1.371
sS'GLN-TRP'
p13
F-1.516
sS'TRP-PHE'
p14
F-1.3029999999999999
sS'ARG-TYR'
p15
F-1.8300000000000001
sS'GLU-LYS'
p16
F-1.476
sS'ILE-HIS'
p17
F-0.95199999999999996
sS'LEU-MET'
p18
F-0.61299999999999999
sS'GLU-HIS'
p19
F-1.4510000000000001
sS'GLY-THR'
p20
F-1.6579999999999999
sS'ARG-GLU'
p21
F-1.976
sS'PHE-ASN'
p22
F-1.1579999999999999
sS'ASN-MET'
p23
F-0.91000000000000003
sS'PRO-THR'
p24
F-1.218
sS'TYR-GLN'
p25
F-1.53
sS'ARG-GLY'
p26
F-2.0899999999999999
sS'VAL-THR'
p27
F-0.68000000000000005
sS'ASP-ILE'
p28
F-0.65900000000000003
sS'THR-HIS'
p29
F-1.1319999999999999
sS'TYR-GLU'
p30
F-1.6299999999999999
sS'ARG-GLN'
p31
F-1.8109999999999999
sS'TYR-GLY'
p32
F-1.6970000000000001
sS'PHE-ASP'
p33
F-1.012
sS'CYS-ARG'
p34
F-1.0860000000000001
sS'GLY-ASN'
p35
F-1.9319999999999999
sS'VAL-LYS'
p36
F-0.72199999999999998
sS'LEU-ILE'
p37
F-0.78300000000000003
sS'GLN-LEU'
p38
F-1.079
sS'GLU-MET'
p39
F-0.75
sS'ASP-THR'
p40
F-1.069
sS'ASN-PHE'
p41
F-1.2589999999999999
sS'GLU-PRO'
p42
F-1.3100000000000001
sS'TYR-LEU'
p43
F-1.236
sS'LYS-ARG'
p44
F-1.3129999999999999
sS'GLY-ASP'
p45
F-1.587
sS'PRO-GLN'
p46
F-1.4990000000000001
sS'CYS-MET'
p47
F-0.40100000000000002
sS'HIS-ARG'
p48
F-1.5960000000000001
sS'GLU-THR'
p49
F-1.163
sS'ILE-THR'
p50
F-0.73599999999999999
sS'SER-PRO'
p51
F-1.1240000000000001
sS'GLY-CYS'
p52
F-1.708
sS'ARG-LEU'
p53
F-1.323
sS'PRO-GLU'
p54
F-1.2310000000000001
sS'ASP-LEU'
p55
F-0.66100000000000003
sS'PHE-VAL'
p56
F-0.93600000000000005
sS'ASN-VAL'
p57
F-0.90300000000000002
sS'ALA-MET'
p58
F-0.36099999999999999
sS'LEU-PRO'
p59
F-0.99399999999999999
sS'LEU-SER'
p60
F-0.77500000000000002
sS'ASN-ARG'
p61
F-1.806
sS'SER-THR'
p62
F-0.872
sS'LYS-VAL'
p63
F-0.72699999999999998
sS'LYS-GLN'
p64
F-1.4339999999999999
sS'GLN-VAL'
p65
F-0.97599999999999998
sS'TYR-PHE'
p66
F-1.407
sS'ASP-VAL'
p67
F-0.60299999999999998
sS'ASN-GLY'
p68
F-1.849
sS'ARG-PHE'
p69
F-1.649
sS'SER-HIS'
p70
F-1.246
sS'ALA-ILE'
p71
F-0.53000000000000003
sS'ASN-GLU'
p72
F-1.492
sS'CYS-GLN'
p73
F-0.76200000000000001
sS'TYR-PRO'
p74
F-1.575
sS'LYS-GLU'
p75
F-1.5289999999999999
sS'CYS-GLU'
p76
F-0.19
sS'ASN-GLN'
p77
F-1.641
sS'CYS-GLY'
p78
F-1.3839999999999999
sS'GLN-SER'
p79
F-1.464
sS'HIS-LYS'
p80
F-1.3180000000000001
sS'LYS-GLY'
p81
F-1.7130000000000001
sS'VAL-MET'
p82
F-0.47999999999999998
sS'GLU-GLY'
p83
F-1.635
sS'THR-SER'
p84
F-0.87
sS'TYR-THR'
p85
F-1.3959999999999999
sS'PRO-PRO'
p86
F-2.4550000000000001
sS'ILE-PHE'
p87
F-0.99299999999999999
sS'PHE-LEU'
p88
F-1.044
sS'GLU-GLU'
p89
F-2.3500000000000001
sS'SER-ARG'
p90
F-1.6319999999999999
sS'GLY-ALA'
p91
F-1.9390000000000001
sS'TYR-ASN'
p92
F-1.7090000000000001
sS'GLU-GLN'
p93
F-1.327
sS'TRP-ARG'
p94
F-1.734
sS'LEU-GLU'
p95
F-0.80200000000000005
sS'LEU-GLY'
p96
F-1.1220000000000001
sS'LYS-SER'
p97
F-1.179
sS'MET-VAL'
p98
F-0.38300000000000001
sS'SER-ALA'
p99
F-0.69999999999999996
sS'PRO-HIS'
p100
F-1.454
sS'MET-THR'
p101
F-0.70099999999999996
sS'ALA-PHE'
p102
F-0.96699999999999997
sS'MET-PRO'
p103
F-0.60399999999999998
sS'GLY-SER'
p104
F-1.821
sS'LEU-GLN'
p105
F-1.0609999999999999
sS'VAL-LEU'
p106
F-0.80800000000000005
sS'LEU-CYS'
p107
F-0.27300000000000002
sS'LYS-TYR'
p108
F-1.3560000000000001
sS'ASP-ALA'
p109
F-0.58299999999999996
sS'ILE-LEU'
p110
F-0.83399999999999996
sS'TRP-VAL'
p111
F-1.288
sS'PHE-PRO'
p112
F-1.3049999999999999
sS'ALA-ALA'
p113
F-1.6439999999999999
sS'ARG-TRP'
p114
F-1.9299999999999999
sS'MET-GLN'
p115
F-1.0960000000000001
sS'ILE-LYS'
p116
F-0.63300000000000001
sS'MET-ARG'
p117
F-1.002
sS'ALA-CYS'
p118
F-0.021999999999999999
sS'THR-ARG'
p119
F-1.53
sS'CYS-ILE'
p120
F-0.255
sS'LEU-ASN'
p121
F-0.97099999999999997
sS'LEU-ASP'
p122
F-0.67600000000000005
sS'PHE-TRP'
p123
F-1.49
sS'MET-GLY'
p124
F-1.1060000000000001
sS'THR-PHE'
p125
F-1.075
sS'MET-GLU'
p126
F-0.72999999999999998
sS'THR-TRP'
p127
F-1.069
sS'THR-TYR'
p128
F-1.4119999999999999
sS'CYS-VAL'
p129
F-0.14899999999999999
sS'ARG-ALA'
p130
F-1.2370000000000001
sS'ALA-TYR'
p131
F-1.1919999999999999
sS'ASP-PRO'
p132
F-1.169
sS'ARG-CYS'
p133
F-1.1919999999999999
sS'GLN-ARG'
p134
F-1.8300000000000001
sS'HIS-TRP'
p135
F-1.165
sS'PRO-SER'
p136
F-1.117
sS'VAL-VAL'
p137
F-1.736
sS'LEU-LYS'
p138
F-0.81799999999999995
sS'GLY-LYS'
p139
F-1.853
sS'CYS-ASN'
p140
F-0.77600000000000002
sS'GLY-TRP'
p141
F-1.4279999999999999
sS'THR-CYS'
p142
F-0.27100000000000002
sS'LYS-LYS'
p143
F-2.1110000000000002
sS'CYS-ASP'
p144
F-0.33700000000000002
sS'TYR-ASP'
p145
F-1.458
sS'VAL-PRO'
p146
F-0.72799999999999998
sS'THR-VAL'
p147
F-0.76000000000000001
sS'ASP-TYR'
p148
F-1.516
sS'PRO-CYS'
p149
F-0.73899999999999999
sS'VAL-SER'
p150
F-0.60999999999999999
sS'ARG-HIS'
p151
F-1.6839999999999999
sS'CYS-PRO'
p152
F-0.83099999999999996
sS'MET-LYS'
p153
F-0.93400000000000005
sS'ALA-SER'
p154
F-0.65400000000000003
sS'TYR-SER'
p155
F-1.4339999999999999
sS'GLY-ARG'
p156
F-2.0489999999999999
sS'GLN-ALA'
p157
F-1.01
sS'MET-LEU'
p158
F-0.70999999999999996
sS'ASN-HIS'
p159
F-1.3580000000000001
sS'VAL-CYS'
p160
F0.039
sS'GLN-TYR'
p161
F-1.7430000000000001
sS'GLN-PHE'
p162
F-1.1990000000000001
sS'ILE-ASN'
p163
F-0.83899999999999997
sS'GLU-ASN'
p164
F-1.526
sS'CYS-ALA'
p165
F-0.019
sS'ASN-ASP'
p166
F-1.3140000000000001
sS'ASN-PRO'
p167
F-1.4370000000000001
sS'PRO-ARG'
p168
F-1.6799999999999999
sS'LYS-TRP'
p169
F-1.292
sS'ASN-ASN'
p170
F-2.9180000000000001
sS'ASN-THR'
p171
F-1.2390000000000001
sS'THR-ALA'
p172
F-0.66800000000000004
sS'LYS-ALA'
p173
F-0.68899999999999995
sS'LYS-PRO'
p174
F-1.173
sS'SER-GLN'
p175
F-1.3999999999999999
sS'ILE-VAL'
p176
F-0.60399999999999998
sS'ASP-ARG'
p177
F-2.073
sS'ASP-MET'
p178
F-0.55900000000000005
sS'CYS-TYR'
p179
F-1.3520000000000001
sS'PRO-TRP'
p180
F-1.4139999999999999
sS'THR-GLU'
p181
F-1.179
sS'TRP-ALA'
p182
F-1.1950000000000001
sS'ILE-CYS'
p183
F-0.28599999999999998
sS'LYS-ILE'
p184
F-0.61199999999999999
sS'GLN-CYS'
p185
F-0.74099999999999999
sS'TYR-ALA'
p186
F-1.151
sS'ARG-ASP'
p187
F-2.1349999999999998
sS'SER-GLU'
p188
F-1.282
sS'TRP-HIS'
p189
F-1.4410000000000001
sS'ALA-ASN'
p190
F-0.85799999999999998
sS'GLU-CYS'
p191
F-0.30599999999999999
sS'PRO-MET'
p192
F-0.69999999999999996
sS'TYR-HIS'
p193
F-1.7450000000000001
sS'PHE-MET'
p194
F-1.208
sS'GLU-TYR'
p195
F-1.518
sS'SER-TRP'
p196
F-1.224
sS'PHE-ARG'
p197
F-1.508
sS'GLY-ILE'
p198
F-1.101
sS'TYR-VAL'
p199
F-1.0820000000000001
sS'ASN-TYR'
p200
F-1.605
sS'SER-ILE'
p201
F-0.71199999999999997
sS'GLN-PRO'
p202
F-1.4910000000000001
sS'PHE-TYR'
p203
F-1.425
sS'ALA-VAL'
p204
F-0.41799999999999998
sS'HIS-HIS'
p205
F-3.3260000000000001
sS'THR-ASN'
p206
F-1.1799999999999999
sS'CYS-LEU'
p207
F-0.17799999999999999
sS'LYS-MET'
p208
F-0.77900000000000003
sS'LYS-ASP'
p209
F-1.6180000000000001
sS'HIS-ASN'
p210
F-1.5089999999999999
sS'ILE-GLN'
p211
F-1.038
sS'VAL-HIS'
p212
F-0.79600000000000004
sS'ALA-LEU'
p213
F-0.75900000000000001
sS'HIS-ASP'
p214
F-1.474
sS'ILE-TYR'
p215
F-1.3009999999999999
sS'ILE-GLU'
p216
F-0.69399999999999995
sS'ILE-GLY'
p217
F-1.113
sS'ASN-CYS'
p218
F-0.89800000000000002
sS'GLU-SER'
p219
F-1.302
sS'ALA-TRP'
p220
F-1.0389999999999999
sS'HIS-CYS'
p221
F-0.26000000000000001
sS'HIS-MET'
p222
F-0.878
sS'ILE-PRO'
p223
F-0.94499999999999995
sS'LYS-PHE'
p224
F-0.94499999999999995
sS'TRP-PRO'
p225
F-1.1910000000000001
sS'GLU-TRP'
p226
F-1.129
sS'PHE-HIS'
p227
F-1.2010000000000001
sS'GLY-TYR'
p228
F-1.7689999999999999
sS'SER-GLY'
p229
F-1.901
sS'CYS-TRP'
p230
F-0.094
sS'ASP-LYS'
p231
F-1.5900000000000001
sS'ASN-ILE'
p232
F-0.95099999999999996
sS'HIS-SER'
p233
F-1.262
sS'LYS-CYS'
p234
F-0.58499999999999996
sS'GLY-PHE'
p235
F-1.1879999999999999
sS'GLY-LEU'
p236
F-1.2090000000000001
sS'MET-SER'
p237
F-0.65600000000000003
sS'VAL-ALA'
p238
F-0.38800000000000001
sS'SER-LEU'
p239
F-0.76500000000000001
sS'TRP-LYS'
p240
F-1.4419999999999999
sS'VAL-TYR'
p241
F-1.0189999999999999
sS'VAL-PHE'
p242
F-0.91300000000000003
sS'ARG-THR'
p243
F-1.5469999999999999
sS'TYR-TRP'
p244
F-1.637
sS'GLN-GLN'
p245
F-2.9020000000000001
sS'GLU-PHE'
p246
F-1.0680000000000001
sS'VAL-ILE'
p247
F-0.61899999999999999
sS'HIS-GLN'
p248
F-1.292
sS'GLN-GLY'
p249
F-1.9159999999999999
sS'PHE-ALA'
p250
F-0.93300000000000005
sS'HIS-GLU'
p251
F-1.409
sS'ARG-PRO'
p252
F-1.667
sS'HIS-GLY'
p253
F-1.4690000000000001
sS'SER-ASN'
p254
F-1.302
sS'ALA-THR'
p255
F-0.65400000000000003
sS'GLN-GLU'
p256
F-1.3819999999999999
sS'GLN-LYS'
p257
F-1.415
sS'CYS-HIS'
p258
F-0.32100000000000001
sS'GLN-ASP'
p259
F-1.4159999999999999
sS'LEU-HIS'
p260
F-1.0840000000000001
sS'SER-LYS'
p261
F-1.171
sS'TRP-LEU'
p262
F-1.298
sS'CYS-SER'
p263
F-0.47699999999999998
sS'LYS-THR'
p264
F-0.89200000000000002
sS'HIS-LEU'
p265
F-0.90600000000000003
sS'LEU-ARG'
p266
F-1.248
sS'GLY-VAL'
p267
F-1.379
sS'GLN-ASN'
p268
F-1.54
sS'TYR-ARG'
p269
F-1.8089999999999999
sS'PRO-TYR'
p270
F-1.639
sS'ASP-PHE'
p271
F-0.874
sS'TRP-CYS'
p272
F-0.27900000000000003
sS'ASN-LEU'
p273
F-0.97499999999999998
sS'SER-MET'
p274
F-0.65300000000000002
sS'HIS-ILE'
p275
F-0.80700000000000005
sS'SER-TYR'
p276
F-1.4930000000000001
sS'MET-TYR'
p277
F-1.1870000000000001
sS'GLU-ILE'
p278
F-0.86699999999999999
sS'PHE-CYS'
p279
F-0.79500000000000004
sS'PRO-LEU'
p280
F-0.94999999999999996
sS'GLY-MET'
p281
F-1.179
sS'ARG-ILE'
p282
F-1.145
sS'HIS-THR'
p283
F-1.1459999999999999
sS'THR-GLN'
p284
F-1.45
sS'TRP-THR'
p285
F-1.1890000000000001
sS'LYS-LEU'
p286
F-0.80200000000000005
sS'THR-GLY'
p287
F-1.7450000000000001
sS'ASP-TRP'
p288
F-1.1000000000000001
sS'TYR-MET'
p289
F-1.1379999999999999
sS'PHE-ILE'
p290
F-1.016
sS'PRO-VAL'
p291
F-0.68999999999999995
sS'MET-ASN'
p292
F-0.93000000000000005
sS'LEU-TYR'
p293
F-1.2230000000000001
sS'PHE-PHE'
p294
F-2.4830000000000001
sS'CYS-PHE'
p295
F-0.55600000000000005
sS'TRP-ILE'
p296
F-0.96399999999999997
sS'PRO-ASN'
p297
F-1.387
sS'CYS-CYS'
p298
F-3.746
sS'SER-ASP'
p299
F-1.081
sS'ARG-MET'
p300
F-1.1279999999999999
sS'SER-PHE'
p301
F-0.95699999999999996
sS'SER-SER'
p302
F-2.21
sS'ASN-LYS'
p303
F-1.5349999999999999
sS'CYS-THR'
p304
F-0.247
sS'ILE-TRP'
p305
F-1.0229999999999999
sS'PRO-ASP'
p306
F-1.208
sS'THR-ASP'
p307
F-1.056
sS'SER-CYS'
p308
F-0.374
sS'MET-ASP'
p309
F-0.80000000000000004
sS'GLN-MET'
p310
F-0.81200000000000006
sS'MET-TRP'
p311
F-0.59299999999999997
sS'ARG-VAL'
p312
F-1.1579999999999999
sS'GLY-GLN'
p313
F-1.865
sS'THR-LYS'
p314
F-0.92100000000000004
sS'TRP-MET'
p315
F-0.65700000000000003
sS'ARG-ARG'
p316
F-3.0579999999999998
sS'ILE-ASP'
p317
F-0.71299999999999997
sS'ALA-ARG'
p318
F-1.2649999999999999
sS'GLY-GLU'
p319
F-1.6020000000000001
sS'ASN-TRP'
p320
F-1.3180000000000001
sS'GLU-ARG'
p321
F-1.9139999999999999
sS'HIS-VAL'
p322
F-0.79100000000000004
sS'VAL-ARG'
p323
F-1.157
sS'ASN-SER'
p324
F-1.355
sS'ALA-LYS'
p325
F-0.68200000000000005
sS'VAL-GLN'
p326
F-0.93999999999999995
sS'TRP-ASN'
p327
F-1.468
sS'TYR-ILE'
p328
F-1.3129999999999999
sS'TRP-GLY'
p329
F-1.5009999999999999
sS'PRO-PHE'
p330
F-1.246
sS'GLY-HIS'
p331
F-1.635
sS'PHE-SER'
p332
F-0.95599999999999996
sS'TRP-ASP'
p333
F-1.0369999999999999
sS'TRP-GLN'
p334
F-1.843
sS'LEU-ALA'
p335
F-0.70199999999999996
sS'VAL-GLU'
p336
F-0.83599999999999997
sS'ALA-HIS'
p337
F-1.119
sS'ARG-ASN'
p338
F-1.8049999999999999
sS'LEU-THR'
p339
F-0.81599999999999995
sS'TYR-CYS'
p340
F-0.93600000000000005
sS'THR-THR'
p341
F-2.2050000000000001
sS'THR-LEU'
p342
F-0.77700000000000002
sS'VAL-ASN'
p343
F-0.83899999999999997
sS'LEU-TRP'
p344
F-1.1850000000000001
sS'GLU-ASP'
p345
F-1.1719999999999999
sS'ILE-SER'
p346
F-0.69399999999999995
sS'ILE-ARG'
p347
F-1.085
sS'TRP-GLU'
p348
F-1.1990000000000001
sS'ILE-MET'
p349
F-0.65700000000000003
sS'MET-PHE'
p350
F-1.2509999999999999
sS'PRO-ALA'
p351
F-0.92700000000000005
sS'PRO-GLY'
p352
F-1.7410000000000001
sS'GLN-THR'
p353
F-1.3280000000000001
sS'MET-ALA'
p354
F-0.28199999999999997
sS'TRP-SER'
p355
F-1.1679999999999999
sS'ASP-HIS'
p356
F-1.556
sS'ARG-SER'
p357
F-1.6639999999999999
sS'GLN-HIS'
p358
F-1.476
sS'HIS-PHE'
p359
F-1.1579999999999999
sS'LEU-LEU'
p360
F-1.954
sS'ALA-GLN'
p361
F-1.1040000000000001
sS'ASP-ASN'
p362
F-1.3200000000000001
sS'SER-VAL'
p363
F-0.59399999999999997
sS'MET-ILE'
p364
F-0.49399999999999999
sS'ALA-PRO'
p365
F-0.70399999999999996
sS'ASP-ASP'
p366
F-2.0489999999999999
sS'ALA-GLY'
p367
F-1.8200000000000001
sS'TRP-TRP'
p368
F-3.2519999999999998
sS'MET-CYS'
p369
F-0.052999999999999999
sS'ALA-GLU'
p370
F-0.80700000000000005
sS'THR-PRO'
p371
F-1.171
sS'HIS-ALA'
p372
F-0.84399999999999997
sS'GLN-ILE'
p373
F-1.091
sS'GLU-VAL'
p374
F-0.80400000000000005
sS'LYS-ASN'
p375
F-1.4159999999999999
sS'ASN-ALA'
p376
F-0.872
sS'THR-ILE'
p377
F-0.82799999999999996
sS'ASP-CYS'
p378
F-0.222
sS'PRO-LYS'
p379
F-1.1819999999999999
sS'TYR-TYR'
p380
F-2.9009999999999998
sS'ARG-LYS'
p381
F-1.4450000000000001
sS'ILE-ALA'
p382
F-0.496
sS'ASP-SER'
p383
F-1.1180000000000001
sS'CYS-LYS'
p384
F-0.40400000000000003
sS'GLU-ALA'
p385
F-0.84599999999999997
sS'PHE-GLU'
p386
F-1.077
sS'GLU-LEU'
p387
F-0.86799999999999999
sS'PHE-GLY'
p388
F-1.1919999999999999
sS'LYS-HIS'
p389
F-1.4279999999999999
sS'HIS-PRO'
p390
F-1.3819999999999999
sS'ILE-ILE'
p391
F-1.974
sS'MET-HIS'
p392
F-0.91000000000000003
sS'VAL-GLY'
p393
F-1.2250000000000001
sS'THR-MET'
p394
F-0.63100000000000001
sS'PHE-THR'
p395
F-1.0489999999999999
sS'VAL-TRP'
p396
F-1.0229999999999999
sS'PHE-LYS'
p397
F-1.0069999999999999
sS'GLY-PRO'
p398
F-1.8460000000000001
sS'PHE-GLN'
p399
F-1.1639999999999999
sS'LEU-PHE'
p400
F-1.056
s.