(dp1
S'MET-MET'
p2
F0.67600000000000005
sS'PRO-ILE'
p3
F2.1240000000000001
sS'TYR-LYS'
p4
F2.0760000000000001
sS'VAL-ASP'
p5
F2.3759999999999999
sS'ASP-GLN'
p6
F1.863
sS'HIS-TYR'
p7
F2.0179999999999998
sS'ASP-GLU'
p8
F2.1669999999999998
sS'ALA-ASP'
p9
F2.1099999999999999
sS'ASP-GLY'
p10
F1.865
sS'LEU-VAL'
p11
F2.3679999999999999
sS'TRP-TYR'
p12
F2.3370000000000002
sS'GLN-TRP'
p13
F2.1560000000000001
sS'TRP-PHE'
p14
F2.5139999999999998
sS'ARG-TYR'
p15
F1.825
sS'GLU-LYS'
p16
F1.778
sS'ILE-HIS'
p17
F2.4319999999999999
sS'LEU-MET'
p18
F2.4950000000000001
sS'GLU-HIS'
p19
F1.931
sS'GLY-THR'
p20
F1.5720000000000001
sS'ARG-GLU'
p21
F1.518
sS'PHE-ASN'
p22
F2.2559999999999998
sS'ASN-MET'
p23
F2.3479999999999999
sS'PRO-THR'
p24
F1.635
sS'TYR-GLN'
p25
F2.0659999999999998
sS'ARG-GLY'
p26
F1.5449999999999999
sS'VAL-THR'
p27
F2.3170000000000002
sS'ASP-ILE'
p28
F2.4820000000000002
sS'THR-HIS'
p29
F2.0670000000000002
sS'TYR-GLU'
p30
F2.024
sS'ARG-GLN'
p31
F1.6499999999999999
sS'TYR-GLY'
p32
F2.0209999999999999
sS'PHE-ASP'
p33
F2.3690000000000002
sS'CYS-ARG'
p34
F2.2309999999999999
sS'GLY-ASN'
p35
F1.3919999999999999
sS'VAL-LYS'
p36
F2.5649999999999999
sS'LEU-ILE'
p37
F2.359
sS'GLN-LEU'
p38
F2.2109999999999999
sS'GLU-MET'
p39
F2.456
sS'ASP-THR'
p40
F2.02
sS'ASN-PHE'
p41
F2.1699999999999999
sS'GLU-PRO'
p42
F1.831
sS'TYR-LEU'
p43
F2.3359999999999999
sS'LYS-ARG'
p44
F2.1589999999999998
sS'GLY-ASP'
p45
F1.7809999999999999
sS'PRO-GLN'
p46
F1.631
sS'CYS-MET'
p47
F2.5539999999999998
sS'HIS-ARG'
p48
F1.927
sS'GLU-THR'
p49
F2.0790000000000002
sS'ILE-THR'
p50
F2.3239999999999998
sS'SER-PRO'
p51
F1.6830000000000001
sS'GLY-CYS'
p52
F1.2909999999999999
sS'ARG-LEU'
p53
F2.0830000000000002
sS'PRO-GLU'
p54
F1.9119999999999999
sS'ASP-LEU'
p55
F2.5329999999999999
sS'PHE-VAL'
p56
F2.4710000000000001
sS'ASN-VAL'
p57
F2.1619999999999999
sS'ALA-MET'
p58
F2.4900000000000002
sS'LEU-PRO'
p59
F2.052
sS'LEU-SER'
p60
F2.1909999999999998
sS'ASN-ARG'
p61
F1.7430000000000001
sS'SER-THR'
p62
F1.927
sS'LYS-VAL'
p63
F2.339
sS'LYS-GLN'
p64
F2.0179999999999998
sS'GLN-VAL'
p65
F2.2250000000000001
sS'TYR-PHE'
p66
F2.1859999999999999
sS'ASP-VAL'
p67
F2.4039999999999999
sS'ASN-GLY'
p68
F1.498
sS'ARG-PHE'
p69
F2.0590000000000002
sS'SER-HIS'
p70
F2.0009999999999999
sS'ALA-ILE'
p71
F2.2559999999999998
sS'ASN-GLU'
p72
F1.9079999999999999
sS'CYS-GLN'
p73
F2.3399999999999999
sS'TYR-PRO'
p74
F1.9079999999999999
sS'LYS-GLU'
p75
F1.841
sS'CYS-GLU'
p76
F2.6859999999999999
sS'ASN-GLN'
p77
F1.659
sS'CYS-GLY'
p78
F1.786
sS'GLN-SER'
p79
F1.6160000000000001
sS'HIS-LYS'
p80
F2.2050000000000001
sS'LYS-GLY'
p81
F1.7649999999999999
sS'VAL-MET'
p82
F2.3980000000000001
sS'GLU-GLY'
p83
F1.8149999999999999
sS'THR-SER'
p84
F1.9390000000000001
sS'TYR-THR'
p85
F2.0230000000000001
sS'PRO-PRO'
p86
F0.57899999999999996
sS'ILE-PHE'
p87
F2.516
sS'PHE-LEU'
p88
F2.2360000000000002
sS'GLU-GLU'
p89
F1.1890000000000001
sS'SER-ARG'
p90
F1.7190000000000001
sS'GLY-ALA'
p91
F1.01
sS'TYR-ASN'
p92
F1.8360000000000001
sS'GLU-GLN'
p93
F1.982
sS'TRP-ARG'
p94
F2.2050000000000001
sS'LEU-GLU'
p95
F2.5299999999999998
sS'LEU-GLY'
p96
F2.2450000000000001
sS'LYS-SER'
p97
F1.863
sS'MET-VAL'
p98
F2.4630000000000001
sS'SER-ALA'
p99
F1.6439999999999999
sS'PRO-HIS'
p100
F1.752
sS'MET-THR'
p101
F2.4100000000000001
sS'ALA-PHE'
p102
F2.202
sS'MET-PRO'
p103
F2.2389999999999999
sS'GLY-SER'
p104
F1.2649999999999999
sS'LEU-GLN'
p105
F2.0920000000000001
sS'VAL-LEU'
p106
F2.2799999999999998
sS'LEU-CYS'
p107
F2.6190000000000002
sS'LYS-TYR'
p108
F2.1040000000000001
sS'ASP-ALA'
p109
F2.2490000000000001
sS'ILE-LEU'
p110
F2.3380000000000001
sS'TRP-VAL'
p111
F2.4249999999999998
sS'PHE-PRO'
p112
F1.9530000000000001
sS'ALA-ALA'
p113
F0.34300000000000003
sS'ARG-TRP'
p114
F1.944
sS'MET-GLN'
p115
F2.0699999999999998
sS'ILE-LYS'
p116
F2.7040000000000002
sS'MET-ARG'
p117
F2.4430000000000001
sS'ALA-CYS'
p118
F2.3170000000000002
sS'THR-ARG'
p119
F1.9930000000000001
sS'CYS-ILE'
p120
F2.6299999999999999
sS'LEU-ASN'
p121
F2.1960000000000002
sS'LEU-ASP'
p122
F2.5219999999999998
sS'PHE-TRP'
p123
F2.4969999999999999
sS'MET-GLY'
p124
F2.327
sS'THR-PHE'
p125
F2.403
sS'MET-GLU'
p126
F2.4849999999999999
sS'THR-TRP'
p127
F2.7570000000000001
sS'THR-TYR'
p128
F2.004
sS'CYS-VAL'
p129
F2.48
sS'ARG-ALA'
p130
F1.976
sS'ALA-TYR'
p131
F2.157
sS'ASP-PRO'
p132
F1.823
sS'ARG-CYS'
p133
F2.1930000000000001
sS'GLN-ARG'
p134
F1.6439999999999999
sS'HIS-TRP'
p135
F2.5299999999999998
sS'PRO-SER'
p136
F1.718
sS'VAL-VAL'
p137
F1.282
sS'LEU-LYS'
p138
F2.4870000000000001
sS'GLY-LYS'
p139
F1.6259999999999999
sS'CYS-ASN'
p140
F2.2440000000000002
sS'GLY-TRP'
p141
F2.4390000000000001
sS'THR-CYS'
p142
F2.5419999999999998
sS'LYS-LYS'
p143
F1.3879999999999999
sS'CYS-ASP'
p144
F2.698
sS'TYR-ASP'
p145
F2.0779999999999998
sS'VAL-PRO'
p146
F2.2679999999999998
sS'THR-VAL'
p147
F2.2309999999999999
sS'ASP-TYR'
p148
F2.0009999999999999
sS'PRO-CYS'
p149
F1.875
sS'VAL-SER'
p150
F2.2120000000000002
sS'ARG-HIS'
p151
F1.863
sS'CYS-PRO'
p152
F1.704
sS'MET-LYS'
p153
F2.214
sS'ALA-SER'
p154
F1.677
sS'TYR-SER'
p155
F1.8899999999999999
sS'GLY-ARG'
p156
F1.5840000000000001
sS'GLN-ALA'
p157
F1.931
sS'MET-LEU'
p158
F2.3959999999999999
sS'ASN-HIS'
p159
F1.9219999999999999
sS'VAL-CYS'
p160
F2.6949999999999998
sS'GLN-TYR'
p161
F1.915
sS'GLN-PHE'
p162
F2.3050000000000002
sS'ILE-ASN'
p163
F2.4430000000000001
sS'GLU-ASN'
p164
F1.8300000000000001
sS'CYS-ALA'
p165
F2.2970000000000002
sS'ASN-ASP'
p166
F1.8380000000000001
sS'ASN-PRO'
p167
F1.6120000000000001
sS'PRO-ARG'
p168
F1.675
sS'LYS-TRP'
p169
F2.496
sS'ASN-ASN'
p170
F0.40000000000000002
sS'ASN-THR'
p171
F1.8149999999999999
sS'THR-ALA'
p172
F1.9510000000000001
sS'LYS-ALA'
p173
F2.234
sS'LYS-PRO'
p174
F1.8839999999999999
sS'SER-GLN'
p175
F1.609
sS'ILE-VAL'
p176
F2.4820000000000002
sS'ASP-ARG'
p177
F1.286
sS'ASP-MET'
p178
F2.456
sS'CYS-TYR'
p179
F2.028
sS'PRO-TRP'
p180
F2.1099999999999999
sS'THR-GLU'
p181
F1.968
sS'TRP-ALA'
p182
F2.286
sS'ILE-CYS'
p183
F2.4689999999999999
sS'LYS-ILE'
p184
F2.7210000000000001
sS'GLN-CYS'
p185
F2.3780000000000001
sS'TYR-ALA'
p186
F2.2360000000000002
sS'ARG-ASP'
p187
F1.2569999999999999
sS'SER-GLU'
p188
F1.792
sS'TRP-HIS'
p189
F2.234
sS'ALA-ASN'
p190
F2.0049999999999999
sS'GLU-CYS'
p191
F2.677
sS'PRO-MET'
p192
F2.2770000000000001
sS'TYR-HIS'
p193
F1.823
sS'PHE-MET'
p194
F2.2799999999999998
sS'GLU-TYR'
p195
F2.1139999999999999
sS'SER-TRP'
p196
F2.427
sS'PHE-ARG'
p197
F2.1899999999999999
sS'GLY-ILE'
p198
F2.2570000000000001
sS'TYR-VAL'
p199
F2.3879999999999999
sS'ASN-TYR'
p200
F1.948
sS'SER-ILE'
p201
F2.2160000000000002
sS'GLN-PRO'
p202
F1.6950000000000001
sS'PHE-TYR'
p203
F2.157
sS'ALA-VAL'
p204
F2.1760000000000002
sS'HIS-HIS'
p205
F0.27700000000000002
sS'THR-ASN'
p206
F1.7969999999999999
sS'CYS-LEU'
p207
F2.7829999999999999
sS'LYS-MET'
p208
F2.3969999999999998
sS'LYS-ASP'
p209
F1.7010000000000001
sS'HIS-ASN'
p210
F1.794
sS'ILE-GLN'
p211
F2.2719999999999998
sS'VAL-HIS'
p212
F2.5049999999999999
sS'ALA-LEU'
p213
F2.0710000000000002
sS'HIS-ASP'
p214
F1.8779999999999999
sS'ILE-TYR'
p215
F2.2109999999999999
sS'ILE-GLU'
p216
F2.577
sS'ILE-GLY'
p217
F2.2559999999999998
sS'ASN-CYS'
p218
F2.0870000000000002
sS'GLU-SER'
p219
F1.853
sS'ALA-TRP'
p220
F2.476
sS'HIS-CYS'
p221
F2.8820000000000001
sS'HIS-MET'
p222
F2.4990000000000001
sS'ILE-PRO'
p223
F2.1309999999999998
sS'LYS-PHE'
p224
F2.5150000000000001
sS'TRP-PRO'
p225
F2.407
sS'GLU-TRP'
p226
F2.5720000000000001
sS'PHE-HIS'
p227
F2.4969999999999999
sS'GLY-TYR'
p228
F1.9410000000000001
sS'SER-GLY'
p229
F1.2010000000000001
sS'CYS-TRP'
p230
F3.472
sS'ASP-LYS'
p231
F1.73
sS'ASN-ILE'
p232
F2.2909999999999999
sS'HIS-SER'
p233
F2.0070000000000001
sS'LYS-CYS'
p234
F2.4079999999999999
sS'GLY-PHE'
p235
F2.4710000000000001
sS'GLY-LEU'
p236
F2.1539999999999999
sS'MET-SER'
p237
F2.181
sS'VAL-ALA'
p238
F2.2269999999999999
sS'SER-LEU'
p239
F2.2240000000000002
sS'TRP-LYS'
p240
F2.3380000000000001
sS'VAL-TYR'
p241
F2.363
sS'VAL-PHE'
p242
F2.4689999999999999
sS'ARG-THR'
p243
F1.768
sS'TYR-TRP'
p244
F2.3100000000000001
sS'GLN-GLN'
p245
F0.66400000000000003
sS'GLU-PHE'
p246
F2.472
sS'VAL-ILE'
p247
F2.4630000000000001
sS'HIS-GLN'
p248
F2.1480000000000001
sS'GLN-GLY'
p249
F1.5449999999999999
sS'PHE-ALA'
p250
F2.2280000000000002
sS'HIS-GLU'
p251
F1.8919999999999999
sS'ARG-PRO'
p252
F1.6970000000000001
sS'HIS-GLY'
p253
F2.0950000000000002
sS'SER-ASN'
p254
F1.675
sS'ALA-THR'
p255
F1.9790000000000001
sS'GLN-GLU'
p256
F1.9610000000000001
sS'GLN-LYS'
p257
F2.0230000000000001
sS'CYS-HIS'
p258
F2.7440000000000002
sS'GLN-ASP'
p259
F1.8140000000000001
sS'LEU-HIS'
p260
F2.2320000000000002
sS'SER-LYS'
p261
F1.8380000000000001
sS'TRP-LEU'
p262
F2.2719999999999998
sS'CYS-SER'
p263
F2.1389999999999998
sS'LYS-THR'
p264
F2.2999999999999998
sS'HIS-LEU'
p265
F2.3820000000000001
sS'LEU-ARG'
p266
F2.2210000000000001
sS'GLY-VAL'
p267
F1.8520000000000001
sS'GLN-ASN'
p268
F1.7210000000000001
sS'TYR-ARG'
p269
F1.893
sS'PRO-TYR'
p270
F1.855
sS'ASP-PHE'
p271
F2.5830000000000002
sS'TRP-CYS'
p272
F3.4159999999999999
sS'ASN-LEU'
p273
F2.194
sS'SER-MET'
p274
F2.1520000000000001
sS'HIS-ILE'
p275
F2.5209999999999999
sS'SER-TYR'
p276
F2.0150000000000001
sS'MET-TYR'
p277
F2.246
sS'GLU-ILE'
p278
F2.3759999999999999
sS'PHE-CYS'
p279
F2.5179999999999998
sS'PRO-LEU'
p280
F2.0609999999999999
sS'GLY-MET'
p281
F2.2189999999999999
sS'ARG-ILE'
p282
F2.226
sS'HIS-THR'
p283
F2.0369999999999999
sS'THR-GLN'
p284
F1.7569999999999999
sS'TRP-THR'
p285
F2.4420000000000002
sS'LYS-LEU'
p286
F2.5059999999999998
sS'THR-GLY'
p287
F1.4650000000000001
sS'ASP-TRP'
p288
F2.5529999999999999
sS'TYR-MET'
p289
F2.133
sS'PHE-ILE'
p290
F2.371
sS'PRO-VAL'
p291
F2.323
sS'MET-ASN'
p292
F2.133
sS'LEU-TYR'
p293
F2.3260000000000001
sS'PHE-PHE'
p294
F1.272
sS'CYS-PHE'
p295
F2.7320000000000002
sS'TRP-ILE'
p296
F2.6829999999999998
sS'PRO-ASN'
p297
F1.7150000000000001
sS'CYS-CYS'
p298
F-1.0880000000000001
sS'SER-ASP'
p299
F1.929
sS'ARG-MET'
p300
F2.298
sS'SER-PHE'
p301
F2.3620000000000001
sS'SER-SER'
p302
F0.44600000000000001
sS'ASN-LYS'
p303
F1.931
sS'CYS-THR'
p304
F2.5470000000000002
sS'ILE-TRP'
p305
F2.472
sS'PRO-ASP'
p306
F1.9410000000000001
sS'THR-ASP'
p307
F1.9630000000000001
sS'SER-CYS'
p308
F2.214
sS'MET-ASP'
p309
F2.3639999999999999
sS'GLN-MET'
p310
F2.512
sS'MET-TRP'
p311
F3.0979999999999999
sS'ARG-VAL'
p312
F2.1890000000000001
sS'GLY-GLN'
p313
F1.5880000000000001
sS'THR-LYS'
p314
F2.2810000000000001
sS'TRP-MET'
p315
F3.056
sS'ARG-ARG'
p316
F0.80400000000000005
sS'ILE-ASP'
p317
F2.4649999999999999
sS'ALA-ARG'
p318
F1.929
sS'GLY-GLU'
p319
F1.8600000000000001
sS'ASN-TRP'
p320
F2.3530000000000002
sS'GLU-ARG'
p321
F1.556
sS'HIS-VAL'
p322
F2.4420000000000002
sS'VAL-ARG'
p323
F2.2050000000000001
sS'ASN-SER'
p324
F1.6339999999999999
sS'ALA-LYS'
p325
F2.2789999999999999
sS'VAL-GLN'
p326
F2.258
sS'TRP-ASN'
p327
F2.2080000000000002
sS'TYR-ILE'
p328
F2.1179999999999999
sS'TRP-GLY'
p329
F2.367
sS'PRO-PHE'
p330
F2.02
sS'GLY-HIS'
p331
F1.915
sS'PHE-SER'
p332
F2.3100000000000001
sS'TRP-ASP'
p333
F2.5470000000000002
sS'TRP-GLN'
p334
F1.956
sS'LEU-ALA'
p335
F2.1269999999999998
sS'VAL-GLU'
p336
F2.3740000000000001
sS'ALA-HIS'
p337
F2.0209999999999999
sS'ARG-ASN'
p338
F1.716
sS'LEU-THR'
p339
F2.2530000000000001
sS'TYR-CYS'
p340
F2.3050000000000002
sS'THR-THR'
p341
F0.79600000000000004
sS'THR-LEU'
p342
F2.2839999999999998
sS'VAL-ASN'
p343
F2.1659999999999999
sS'LEU-TRP'
p344
F2.4940000000000002
sS'GLU-ASP'
p345
F2.1819999999999999
sS'ILE-SER'
p346
F2.194
sS'ILE-ARG'
p347
F2.3239999999999998
sS'TRP-GLU'
p348
F2.4350000000000001
sS'ILE-MET'
p349
F2.4700000000000002
sS'MET-PHE'
p350
F2.2519999999999998
sS'PRO-ALA'
p351
F1.6599999999999999
sS'PRO-GLY'
p352
F1.5049999999999999
sS'GLN-THR'
p353
F1.8400000000000001
sS'MET-ALA'
p354
F2.4809999999999999
sS'TRP-SER'
p355
F2.532
sS'ASP-HIS'
p356
F1.8779999999999999
sS'ARG-SER'
p357
F1.6619999999999999
sS'GLN-HIS'
p358
F1.871
sS'HIS-PHE'
p359
F2.4140000000000001
sS'LEU-LEU'
p360
F1.3480000000000001
sS'ALA-GLN'
p361
F1.8999999999999999
sS'ASP-ASN'
p362
F1.831
sS'SER-VAL'
p363
F2.2469999999999999
sS'MET-ILE'
p364
F2.73
sS'ALA-PRO'
p365
F1.8919999999999999
sS'ASP-ASP'
p366
F1.2509999999999999
sS'ALA-GLY'
p367
F1.101
sS'TRP-TRP'
p368
F0.64400000000000002
sS'MET-CYS'
p369
F2.7599999999999998
sS'ALA-GLU'
p370
F2.1859999999999999
sS'THR-PRO'
p371
F1.6459999999999999
sS'HIS-ALA'
p372
F2.3090000000000002
sS'GLN-ILE'
p373
F2.081
sS'GLU-VAL'
p374
F2.3959999999999999
sS'LYS-ASN'
p375
F1.8799999999999999
sS'ASN-ALA'
p376
F1.9590000000000001
sS'THR-ILE'
p377
F2.1850000000000001
sS'ASP-CYS'
p378
F2.7090000000000001
sS'PRO-LYS'
p379
F1.956
sS'TYR-TYR'
p380
F1.0169999999999999
sS'ARG-LYS'
p381
F2.0369999999999999
sS'ILE-ALA'
p382
F2.2770000000000001
sS'ASP-SER'
p383
F1.8899999999999999
sS'CYS-LYS'
p384
F2.6709999999999998
sS'GLU-ALA'
p385
F2.1589999999999998
sS'PHE-GLU'
p386
F2.2909999999999999
sS'GLU-LEU'
p387
F2.4140000000000001
sS'PHE-GLY'
p388
F2.4670000000000001
sS'LYS-HIS'
p389
F1.8740000000000001
sS'HIS-PRO'
p390
F1.8460000000000001
sS'ILE-ILE'
p391
F1.3169999999999999
sS'MET-HIS'
p392
F2.589
sS'VAL-GLY'
p393
F2.0230000000000001
sS'THR-MET'
p394
F2.5070000000000001
sS'PHE-THR'
p395
F2.3999999999999999
sS'VAL-TRP'
p396
F2.524
sS'PHE-LYS'
p397
F2.448
sS'GLY-PRO'
p398
F1.369
sS'PHE-GLN'
p399
F2.3149999999999999
sS'LEU-PHE'
p400
F2.383
s.