(dp1
S'MET-MET'
p2
F-1.01
sS'PRO-ILE'
p3
F0.224
sS'TYR-LYS'
p4
F-0.219
sS'VAL-ASP'
p5
F0.46000000000000002
sS'ASP-GLN'
p6
F-0.182
sS'HIS-TYR'
p7
F-0.33300000000000002
sS'ASP-GLU'
p8
F0.098000000000000004
sS'ALA-ASP'
p9
F0.30599999999999999
sS'ASP-GLY'
p10
F-0.33200000000000002
sS'LEU-VAL'
p11
F0.371
sS'TRP-TYR'
p12
F0.097000000000000003
sS'GLN-TRP'
p13
F-0.156
sS'TRP-PHE'
p14
F0.11799999999999999
sS'ARG-TYR'
p15
F-0.47199999999999998
sS'GLU-LYS'
p16
F-0.192
sS'ILE-HIS'
p17
F0.16900000000000001
sS'LEU-MET'
p18
F0.50600000000000001
sS'GLU-HIS'
p19
F-0.16500000000000001
sS'GLY-THR'
p20
F-0.48299999999999998
sS'ARG-GLU'
p21
F-0.65900000000000003
sS'PHE-ASN'
p22
F-0.017000000000000001
sS'ASN-MET'
p23
F0.24399999999999999
sS'PRO-THR'
p24
F-0.22900000000000001
sS'TYR-GLN'
p25
F-0.185
sS'ARG-GLY'
p26
F-0.97999999999999998
sS'VAL-THR'
p27
F0.29699999999999999
sS'ASP-ILE'
p28
F0.46100000000000002
sS'THR-HIS'
p29
F-0.087999999999999995
sS'TYR-GLU'
p30
F-0.28799999999999998
sS'ARG-GLN'
p31
F-0.50800000000000001
sS'TYR-GLY'
p32
F-0.60199999999999998
sS'PHE-ASP'
p33
F0.247
sS'CYS-ARG'
p34
F0.122
sS'GLY-ASN'
p35
F-0.86099999999999999
sS'VAL-LYS'
p36
F0.47399999999999998
sS'LEU-ILE'
p37
F0.35399999999999998
sS'GLN-LEU'
p38
F0.097000000000000003
sS'GLU-MET'
p39
F0.376
sS'ASP-THR'
p40
F-0.067000000000000004
sS'ASN-PHE'
p41
F-0.112
sS'GLU-PRO'
p42
F-0.27400000000000002
sS'TYR-LEU'
p43
F0.0050000000000000001
sS'LYS-ARG'
p44
F0.012999999999999999
sS'GLY-ASP'
p45
F-0.41799999999999998
sS'PRO-GLN'
p46
F-0.47399999999999998
sS'CYS-MET'
p47
F0.71299999999999997
sS'HIS-ARG'
p48
F-0.28000000000000003
sS'GLU-THR'
p49
F-0.14999999999999999
sS'ILE-THR'
p50
F0.36399999999999999
sS'SER-PRO'
p51
F-0.23899999999999999
sS'GLY-CYS'
p52
F-0.379
sS'ARG-LEU'
p53
F-0.091999999999999998
sS'PRO-GLU'
p54
F-0.216
sS'ASP-LEU'
p55
F0.44700000000000001
sS'PHE-VAL'
p56
F0.22
sS'ASN-VAL'
p57
F0.13600000000000001
sS'ALA-MET'
p58
F0.79400000000000004
sS'LEU-PRO'
p59
F0.089999999999999997
sS'LEU-SER'
p60
F0.28399999999999997
sS'ASN-ARG'
p61
F-0.59999999999999998
sS'SER-THR'
p62
F0.047
sS'LYS-VAL'
p63
F0.43099999999999999
sS'LYS-GLN'
p64
F-0.191
sS'GLN-VAL'
p65
F0.13300000000000001
sS'TYR-PHE'
p66
F0.001
sS'ASP-VAL'
p67
F0.47499999999999998
sS'ASN-GLY'
p68
F-0.76600000000000001
sS'ARG-PHE'
p69
F-0.36899999999999999
sS'SER-HIS'
p70
F-0.24099999999999999
sS'ALA-ILE'
p71
F0.44600000000000001
sS'ASN-GLU'
p72
F-0.376
sS'CYS-GLN'
p73
F0.46700000000000003
sS'TYR-PRO'
p74
F-0.53500000000000003
sS'LYS-GLU'
p75
F-0.252
sS'CYS-GLU'
p76
F1.0209999999999999
sS'ASN-GLN'
p77
F-0.56799999999999995
sS'CYS-GLY'
p78
F-0.025000000000000001
sS'GLN-SER'
p79
F-0.437
sS'HIS-LYS'
p80
F0.021000000000000001
sS'LYS-GLY'
p81
F-0.51800000000000002
sS'VAL-MET'
p82
F0.68999999999999995
sS'GLU-GLY'
p83
F-0.48399999999999999
sS'THR-SER'
p84
F0.035000000000000003
sS'TYR-THR'
p85
F-0.14399999999999999
sS'PRO-PRO'
p86
F-1.044
sS'ILE-PHE'
p87
F0.26000000000000001
sS'PHE-LEU'
p88
F0.23100000000000001
sS'GLU-GLU'
p89
F-0.55700000000000005
sS'SER-ARG'
p90
F-0.47699999999999998
sS'GLY-ALA'
p91
F-0.32600000000000001
sS'TYR-ASN'
p92
F-0.437
sS'GLU-GLN'
p93
F-0.090999999999999998
sS'TRP-ARG'
p94
F-0.33500000000000002
sS'LEU-GLU'
p95
F0.39100000000000001
sS'LEU-GLY'
p96
F0.035999999999999997
sS'LYS-SER'
p97
F-0.036999999999999998
sS'MET-VAL'
p98
F0.71399999999999997
sS'SER-ALA'
p99
F0.152
sS'PRO-HIS'
p100
F-0.48599999999999999
sS'MET-THR'
p101
F0.29099999999999998
sS'ALA-PHE'
p102
F0.051999999999999998
sS'MET-PRO'
p103
F0.442
sS'GLY-SER'
p104
F-0.53000000000000003
sS'LEU-GLN'
p105
F0.121
sS'VAL-LEU'
p106
F0.309
sS'LEU-CYS'
p107
F0.85799999999999998
sS'LYS-TYR'
p108
F-0.058000000000000003
sS'ASP-ALA'
p109
F0.40899999999999997
sS'ILE-LEU'
p110
F0.33000000000000002
sS'TRP-VAL'
p111
F0.033000000000000002
sS'PHE-PRO'
p112
F-0.27400000000000002
sS'ALA-ALA'
p113
F-0.32000000000000001
sS'ARG-TRP'
p114
F-0.53500000000000003
sS'MET-GLN'
p115
F0.109
sS'ILE-LYS'
p116
F0.57699999999999996
sS'MET-ARG'
p117
F0.22800000000000001
sS'ALA-CYS'
p118
F1.0029999999999999
sS'THR-ARG'
p119
F-0.29199999999999998
sS'CYS-ILE'
p120
F0.84599999999999997
sS'LEU-ASN'
p121
F0.127
sS'LEU-ASP'
p122
F0.46999999999999997
sS'PHE-TRP'
p123
F-0.085999999999999993
sS'MET-GLY'
p124
F0.105
sS'THR-PHE'
p125
F0.10000000000000001
sS'MET-GLU'
p126
F0.42699999999999999
sS'THR-TRP'
p127
F0.23899999999999999
sS'THR-TYR'
p128
F-0.17999999999999999
sS'CYS-VAL'
p129
F0.94099999999999995
sS'ARG-ALA'
p130
F-0.10100000000000001
sS'ALA-TYR'
p131
F-0.127
sS'ASP-PRO'
p132
F-0.20300000000000001
sS'ARG-CYS'
p133
F0.083000000000000004
sS'GLN-ARG'
p134
F-0.53200000000000003
sS'HIS-TRP'
p135
F0.155
sS'PRO-SER'
p136
F-0.19900000000000001
sS'VAL-VAL'
p137
F-0.23799999999999999
sS'LEU-LYS'
p138
F0.38800000000000001
sS'GLY-LYS'
p139
F-0.68500000000000005
sS'CYS-ASN'
p140
F0.253
sS'GLY-TRP'
p141
F-0.33900000000000002
sS'THR-CYS'
p142
F0.89800000000000002
sS'LYS-LYS'
p143
F-0.24299999999999999
sS'CYS-ASP'
p144
F0.82099999999999995
sS'TYR-ASP'
p145
F-0.14099999999999999
sS'VAL-PRO'
p146
F0.24199999999999999
sS'THR-VAL'
p147
F0.23400000000000001
sS'ASP-TYR'
p148
F-0.20899999999999999
sS'PRO-CYS'
p149
F0.30399999999999999
sS'VAL-SER'
p150
F0.31
sS'ARG-HIS'
p151
F-0.42199999999999999
sS'CYS-PRO'
p152
F0.219
sS'MET-LYS'
p153
F0.189
sS'ALA-SER'
p154
F0.224
sS'TYR-SER'
p155
F-0.24199999999999999
sS'GLY-ARG'
p156
F-0.89700000000000002
sS'GLN-ALA'
p157
F0.034000000000000002
sS'MET-LEU'
p158
F0.44
sS'ASN-HIS'
p159
F-0.25
sS'VAL-CYS'
p160
F1.0860000000000001
sS'GLN-TYR'
p161
F-0.379
sS'GLN-PHE'
p162
F-0.002
sS'ILE-ASN'
p163
F0.22800000000000001
sS'GLU-ASN'
p164
F-0.376
sS'CYS-ALA'
p165
F1
sS'ASN-ASP'
p166
F-0.20699999999999999
sS'ASN-PRO'
p167
F-0.46000000000000002
sS'PRO-ARG'
p168
F-0.50800000000000001
sS'LYS-TRP'
p169
F-0.0060000000000000001
sS'ASN-ASN'
p170
F-1.347
sS'ASN-THR'
p171
F-0.25600000000000001
sS'THR-ALA'
p172
F0.27800000000000002
sS'LYS-ALA'
p173
F0.35799999999999998
sS'LYS-PRO'
p174
F-0.050000000000000003
sS'SER-GLN'
p175
F-0.34599999999999997
sS'ILE-VAL'
p176
F0.45400000000000001
sS'ASP-ARG'
p177
F-0.80900000000000005
sS'ASP-MET'
p178
F0.53200000000000003
sS'CYS-TYR'
p179
F0.0060000000000000001
sS'PRO-TRP'
p180
F-0.33400000000000002
sS'THR-GLU'
p181
F-0.14199999999999999
sS'TRP-ALA'
p182
F-0.083000000000000004
sS'ILE-CYS'
p183
F0.77900000000000003
sS'LYS-ILE'
p184
F0.53300000000000003
sS'GLN-CYS'
p185
F0.47899999999999998
sS'TYR-ALA'
p186
F-0.068000000000000005
sS'ARG-ASP'
p187
F-0.86299999999999999
sS'SER-GLU'
p188
F-0.25900000000000001
sS'TRP-HIS'
p189
F-0.0030000000000000001
sS'ALA-ASN'
p190
F0.089999999999999997
sS'GLU-CYS'
p191
F0.94499999999999995
sS'PRO-MET'
p192
F0.35799999999999998
sS'TYR-HIS'
p193
F-0.41399999999999998
sS'PHE-MET'
p194
F-0.002
sS'GLU-TYR'
p195
F-0.152
sS'SER-TRP'
p196
F-0.021000000000000001
sS'PHE-ARG'
p197
F-0.20499999999999999
sS'GLY-ILE'
p198
F0.108
sS'TYR-VAL'
p199
F0.16600000000000001
sS'ASN-TYR'
p200
F-0.30299999999999999
sS'SER-ILE'
p201
F0.29799999999999999
sS'GLN-PRO'
p202
F-0.46899999999999997
sS'PHE-TYR'
p203
F-0.0089999999999999993
sS'ALA-VAL'
p204
F0.501
sS'HIS-HIS'
p205
F-1.736
sS'THR-ASN'
p206
F-0.16200000000000001
sS'CYS-LEU'
p207
F0.97999999999999998
sS'LYS-MET'
p208
F0.32300000000000001
sS'LYS-ASP'
p209
F-0.38
sS'HIS-ASN'
p210
F-0.40000000000000002
sS'ILE-GLN'
p211
F0.082000000000000003
sS'VAL-HIS'
p212
F0.29899999999999999
sS'ALA-LEU'
p213
F0.247
sS'HIS-ASP'
p214
F-0.311
sS'ILE-TYR'
p215
F-0.044999999999999998
sS'ILE-GLU'
p216
F0.434
sS'ILE-GLY'
p217
F0.13600000000000001
sS'ASN-CYS'
p218
F0.20000000000000001
sS'GLU-SER'
p219
F-0.27600000000000002
sS'ALA-TRP'
p220
F0.067000000000000004
sS'HIS-CYS'
p221
F0.78100000000000003
sS'HIS-MET'
p222
F0.34000000000000002
sS'ILE-PRO'
p223
F0.13500000000000001
sS'LYS-PHE'
p224
F0.23999999999999999
sS'TRP-PRO'
p225
F-0.11
sS'GLU-TRP'
p226
F0.20100000000000001
sS'PHE-HIS'
p227
F0.075999999999999998
sS'GLY-TYR'
p228
F-0.67600000000000005
sS'SER-GLY'
p229
F-0.60499999999999998
sS'CYS-TRP'
p230
F1.1240000000000001
sS'ASP-LYS'
p231
F-0.30299999999999999
sS'ASN-ILE'
p232
F0.11899999999999999
sS'HIS-SER'
p233
F-0.23499999999999999
sS'LYS-CYS'
p234
F0.67600000000000005
sS'GLY-PHE'
p235
F-0.109
sS'GLY-LEU'
p236
F-0.085999999999999993
sS'MET-SER'
p237
F0.375
sS'VAL-ALA'
p238
F0.53000000000000003
sS'SER-LEU'
p239
F0.28899999999999998
sS'TRP-LYS'
p240
F-0.157
sS'VAL-TYR'
p241
F0.21199999999999999
sS'VAL-PHE'
p242
F0.26700000000000002
sS'ARG-THR'
p243
F-0.32600000000000001
sS'TYR-TRP'
p244
F-0.079000000000000001
sS'GLN-GLN'
p245
F-1.2809999999999999
sS'GLU-PHE'
p246
F0.23000000000000001
sS'VAL-ILE'
p247
F0.45000000000000001
sS'HIS-GLN'
p248
F-0.11600000000000001
sS'GLN-GLY'
p249
F-0.82799999999999996
sS'PHE-ALA'
p250
F0.072999999999999995
sS'HIS-GLU'
p251
F-0.184
sS'ARG-PRO'
p252
F-0.52200000000000002
sS'HIS-GLY'
p253
F-0.45500000000000002
sS'SER-ASN'
p254
F-0.33300000000000002
sS'ALA-THR'
p255
F0.315
sS'GLN-GLU'
p256
F-0.159
sS'GLN-LYS'
p257
F-0.23000000000000001
sS'CYS-HIS'
p258
F0.84699999999999998
sS'GLN-ASP'
p259
F-0.19400000000000001
sS'LEU-HIS'
p260
F0.215
sS'SER-LYS'
p261
F-0.067000000000000004
sS'TRP-LEU'
p262
F0.070000000000000007
sS'CYS-SER'
p263
F0.56899999999999995
sS'LYS-THR'
p264
F0.222
sS'HIS-LEU'
p265
F0.32700000000000001
sS'LEU-ARG'
p266
F-0.014999999999999999
sS'GLY-VAL'
p267
F-0.19600000000000001
sS'GLN-ASN'
p268
F-0.41299999999999998
sS'TYR-ARG'
p269
F-0.41999999999999998
sS'PRO-TYR'
p270
F-0.57299999999999995
sS'ASP-PHE'
p271
F0.36199999999999999
sS'TRP-CYS'
p272
F1.028
sS'ASN-LEU'
p273
F0.122
sS'SER-MET'
p274
F0.47099999999999997
sS'HIS-ILE'
p275
F0.28999999999999998
sS'SER-TYR'
p276
F-0.34899999999999998
sS'MET-TYR'
p277
F-0.028000000000000001
sS'GLU-ILE'
p278
F0.29799999999999999
sS'PHE-CYS'
p279
F0.37
sS'PRO-LEU'
p280
F0.14599999999999999
sS'GLY-MET'
p281
F-0
sS'ARG-ILE'
p282
F0.13400000000000001
sS'HIS-THR'
p283
F-0.070000000000000007
sS'THR-GLN'
p284
F-0.41299999999999998
sS'TRP-THR'
p285
F0.074999999999999997
sS'LYS-LEU'
p286
F0.38
sS'THR-GLY'
p287
F-0.54100000000000004
sS'ASP-TRP'
p288
F0.318
sS'TYR-MET'
p289
F0.039
sS'PHE-ILE'
p290
F0.215
sS'PRO-VAL'
p291
F0.28299999999999997
sS'MET-ASN'
p292
F0.16900000000000001
sS'LEU-TYR'
p293
F0.042999999999999997
sS'PHE-PHE'
p294
F-0.76400000000000001
sS'CYS-PHE'
p295
F0.57699999999999996
sS'TRP-ILE'
p296
F0.34100000000000003
sS'PRO-ASN'
p297
F-0.39000000000000001
sS'CYS-CYS'
p298
F-2.754
sS'SER-ASP'
p299
F-0.155
sS'ARG-MET'
p300
F0.11899999999999999
sS'SER-PHE'
p301
F0.12
sS'SER-SER'
p302
F-0.83899999999999997
sS'ASN-LYS'
p303
F-0.35299999999999998
sS'CYS-THR'
p304
F0.87
sS'ILE-TRP'
p305
F0.30499999999999999
sS'PRO-ASP'
p306
F-0.20899999999999999
sS'THR-ASP'
p307
F-0.087999999999999995
sS'SER-CYS'
p308
F0.64800000000000002
sS'MET-ASP'
p309
F0.32400000000000001
sS'GLN-MET'
p310
F0.36599999999999999
sS'MET-TRP'
p311
F0.48199999999999998
sS'ARG-VAL'
p312
F0.042000000000000003
sS'GLY-GLN'
p313
F-0.78700000000000003
sS'THR-LYS'
p314
F0.215
sS'TRP-MET'
p315
F0.55900000000000005
sS'ARG-ARG'
p316
F-1.1339999999999999
sS'ILE-ASP'
p317
F0.44600000000000001
sS'ALA-ARG'
p318
F-0.128
sS'GLY-GLU'
p319
F-0.44
sS'ASN-TRP'
p320
F-0.019
sS'GLU-ARG'
p321
F-0.59099999999999997
sS'HIS-VAL'
p322
F0.28799999999999998
sS'VAL-ARG'
p323
F0.035000000000000003
sS'ASN-SER'
p324
F-0.40400000000000003
sS'ALA-LYS'
p325
F0.39300000000000002
sS'VAL-GLN'
p326
F0.16300000000000001
sS'TRP-ASN'
p327
F-0.219
sS'TYR-ILE'
p328
F-0.058000000000000003
sS'TRP-GLY'
p329
F-0.432
sS'PRO-PHE'
p330
F-0.219
sS'GLY-HIS'
p331
F-0.58299999999999996
sS'PHE-SER'
p332
F0.13500000000000001
sS'TRP-ASP'
p333
F0.43099999999999999
sS'TRP-GLN'
p334
F-0.439
sS'LEU-ALA'
p335
F0.29699999999999999
sS'VAL-GLU'
p336
F0.28799999999999998
sS'ALA-HIS'
p337
F-0.127
sS'ARG-ASN'
p338
F-0.59499999999999997
sS'LEU-THR'
p339
F0.30299999999999999
sS'TYR-CYS'
p340
F0.46000000000000002
sS'THR-THR'
p341
F-0.74199999999999999
sS'THR-LEU'
p342
F0.29999999999999999
sS'VAL-ASN'
p343
F0.18099999999999999
sS'LEU-TRP'
p344
F0.19400000000000001
sS'GLU-ASP'
p345
F0.081000000000000003
sS'ILE-SER'
p346
F0.33600000000000002
sS'ILE-ARG'
p347
F0.17399999999999999
sS'TRP-GLU'
p348
F0.17100000000000001
sS'ILE-MET'
p349
F0.53800000000000003
sS'MET-PHE'
p350
F0.0060000000000000001
sS'PRO-ALA'
p351
F-0.085999999999999993
sS'PRO-GLY'
p352
F-0.58899999999999997
sS'GLN-THR'
p353
F-0.26400000000000001
sS'MET-ALA'
p354
F0.76400000000000001
sS'TRP-SER'
p355
F-0.050000000000000003
sS'ASP-HIS'
p356
F-0.31900000000000001
sS'ARG-SER'
p357
F-0.51700000000000002
sS'GLN-HIS'
p358
F-0.29699999999999999
sS'HIS-PHE'
p359
F0.068000000000000005
sS'LEU-LEU'
p360
F-0.27100000000000002
sS'ALA-GLN'
p361
F-0.085000000000000006
sS'ASP-ASN'
p362
F-0.24299999999999999
sS'SER-VAL'
p363
F0.32200000000000001
sS'MET-ILE'
p364
F0.66300000000000003
sS'ALA-PRO'
p365
F0.14399999999999999
sS'ASP-ASP'
p366
F-0.40899999999999997
sS'ALA-GLY'
p367
F-0.20599999999999999
sS'TRP-TRP'
p368
F-1.421
sS'MET-CYS'
p369
F0.996
sS'ALA-GLU'
p370
F0.222
sS'THR-PRO'
p371
F-0.23100000000000001
sS'HIS-ALA'
p372
F0.126
sS'GLN-ILE'
p373
F0.029999999999999999
sS'GLU-VAL'
p374
F0.307
sS'LYS-ASN'
p375
F-0.214
sS'ASN-ALA'
p376
F0.10299999999999999
sS'THR-ILE'
p377
F0.28799999999999998
sS'ASP-CYS'
p378
F0.99399999999999999
sS'PRO-LYS'
p379
F-0.051999999999999998
sS'TYR-TYR'
p380
F-1.147
sS'ARG-LYS'
p381
F-0.097000000000000003
sS'ILE-ALA'
p382
F0.48899999999999999
sS'ASP-SER'
p383
F-0.183
sS'CYS-LYS'
p384
F0.84899999999999998
sS'GLU-ALA'
p385
F0.16500000000000001
sS'PHE-GLU'
p386
F0.218
sS'GLU-LEU'
p387
F0.307
sS'PHE-GLY'
p388
F-0.13600000000000001
sS'LYS-HIS'
p389
F-0.14899999999999999
sS'HIS-PRO'
p390
F-0.38100000000000001
sS'ILE-ILE'
p391
F-0.315
sS'MET-HIS'
p392
F0.32200000000000001
sS'VAL-GLY'
p393
F-0.042000000000000003
sS'THR-MET'
p394
F0.38100000000000001
sS'PHE-THR'
p395
F0.17399999999999999
sS'VAL-TRP'
p396
F0.29599999999999999
sS'PHE-LYS'
p397
F0.17100000000000001
sS'GLY-PRO'
p398
F-0.68400000000000005
sS'PHE-GLN'
p399
F0.045999999999999999
sS'LEU-PHE'
p400
F0.20000000000000001
s.