(dp1
S'MET-MET'
p2
F0.877
sS'PRO-ILE'
p3
F2.327
sS'TYR-LYS'
p4
F2.278
sS'VAL-ASP'
p5
F2.569
sS'ASP-GLN'
p6
F2.044
sS'HIS-TYR'
p7
F2.1749999999999998
sS'ASP-GLU'
p8
F2.3519999999999999
sS'ALA-ASP'
p9
F2.2930000000000001
sS'ASP-GLY'
p10
F2.1309999999999998
sS'LEU-VAL'
p11
F2.5030000000000001
sS'TRP-TYR'
p12
F2.6549999999999998
sS'GLN-TRP'
p13
F2.391
sS'TRP-PHE'
p14
F2.726
sS'ARG-TYR'
p15
F2.0379999999999998
sS'GLU-LYS'
p16
F2.0720000000000001
sS'ILE-HIS'
p17
F2.6720000000000002
sS'LEU-MET'
p18
F2.657
sS'GLU-HIS'
p19
F2.1469999999999998
sS'GLY-THR'
p20
F1.895
sS'ARG-GLU'
p21
F1.8069999999999999
sS'PHE-ASN'
p22
F2.4580000000000002
sS'ASN-MET'
p23
F2.585
sS'PRO-THR'
p24
F1.758
sS'TYR-GLN'
p25
F2.238
sS'ARG-GLY'
p26
F1.7170000000000001
sS'VAL-THR'
p27
F2.4399999999999999
sS'ASP-ILE'
p28
F2.6640000000000001
sS'THR-HIS'
p29
F2.3029999999999999
sS'TYR-GLU'
p30
F2.1859999999999999
sS'ARG-GLN'
p31
F1.8480000000000001
sS'TYR-GLY'
p32
F2.2450000000000001
sS'PHE-ASP'
p33
F2.6000000000000001
sS'CYS-ARG'
p34
F2.3380000000000001
sS'GLY-ASN'
p35
F1.6539999999999999
sS'VAL-LYS'
p36
F2.6749999999999998
sS'LEU-ILE'
p37
F2.552
sS'GLN-LEU'
p38
F2.359
sS'GLU-MET'
p39
F2.629
sS'ASP-THR'
p40
F2.1389999999999998
sS'ASN-PHE'
p41
F2.379
sS'GLU-PRO'
p42
F1.9810000000000001
sS'TYR-LEU'
p43
F2.488
sS'LYS-ARG'
p44
F2.3719999999999999
sS'GLY-ASP'
p45
F2.044
sS'PRO-GLN'
p46
F1.885
sS'CYS-MET'
p47
F2.7480000000000002
sS'HIS-ARG'
p48
F2.1000000000000001
sS'GLU-THR'
p49
F2.2320000000000002
sS'ILE-THR'
p50
F2.5209999999999999
sS'SER-PRO'
p51
F1.823
sS'GLY-CYS'
p52
F1.595
sS'ARG-LEU'
p53
F2.29
sS'PRO-GLU'
p54
F2.0870000000000002
sS'ASP-LEU'
p55
F2.6880000000000002
sS'PHE-VAL'
p56
F2.6320000000000001
sS'ASN-VAL'
p57
F2.335
sS'ALA-MET'
p58
F2.512
sS'LEU-PRO'
p59
F2.2320000000000002
sS'LEU-SER'
p60
F2.391
sS'ASN-ARG'
p61
F1.8959999999999999
sS'SER-THR'
p62
F2.105
sS'LYS-VAL'
p63
F2.5659999999999998
sS'LYS-GLN'
p64
F2.161
sS'GLN-VAL'
p65
F2.4969999999999999
sS'TYR-PHE'
p66
F2.528
sS'ASP-VAL'
p67
F2.6230000000000002
sS'ASN-GLY'
p68
F1.7609999999999999
sS'ARG-PHE'
p69
F2.335
sS'SER-HIS'
p70
F2.1760000000000002
sS'ALA-ILE'
p71
F2.3820000000000001
sS'ASN-GLU'
p72
F2.0030000000000001
sS'CYS-GLN'
p73
F2.4580000000000002
sS'TYR-PRO'
p74
F2.0819999999999999
sS'LYS-GLU'
p75
F2
sS'CYS-GLU'
p76
F2.9449999999999998
sS'ASN-GLN'
p77
F1.8859999999999999
sS'CYS-GLY'
p78
F2.0859999999999999
sS'GLN-SER'
p79
F1.7849999999999999
sS'HIS-LYS'
p80
F2.3540000000000001
sS'LYS-GLY'
p81
F1.909
sS'VAL-MET'
p82
F2.593
sS'GLU-GLY'
p83
F2.0790000000000002
sS'THR-SER'
p84
F2.149
sS'TYR-THR'
p85
F2.278
sS'PRO-PRO'
p86
F0.754
sS'ILE-PHE'
p87
F2.6829999999999998
sS'PHE-LEU'
p88
F2.472
sS'GLU-GLU'
p89
F1.468
sS'SER-ARG'
p90
F1.8580000000000001
sS'GLY-ALA'
p91
F1.3740000000000001
sS'TYR-ASN'
p92
F2.081
sS'GLU-GLN'
p93
F2.161
sS'TRP-ARG'
p94
F2.4039999999999999
sS'LEU-GLU'
p95
F2.706
sS'LEU-GLY'
p96
F2.4590000000000001
sS'LYS-SER'
p97
F1.9990000000000001
sS'MET-VAL'
p98
F2.6819999999999999
sS'SER-ALA'
p99
F1.8899999999999999
sS'PRO-HIS'
p100
F1.9770000000000001
sS'MET-THR'
p101
F2.605
sS'ALA-PHE'
p102
F2.403
sS'MET-PRO'
p103
F2.4900000000000002
sS'GLY-SER'
p104
F1.6060000000000001
sS'LEU-GLN'
p105
F2.3380000000000001
sS'VAL-LEU'
p106
F2.4729999999999999
sS'LEU-CYS'
p107
F2.7789999999999999
sS'LYS-TYR'
p108
F2.3580000000000001
sS'ASP-ALA'
p109
F2.444
sS'ILE-LEU'
p110
F2.472
sS'TRP-VAL'
p111
F2.742
sS'PHE-PRO'
p112
F2.2130000000000001
sS'ALA-ALA'
p113
F0.66100000000000003
sS'ARG-TRP'
p114
F2.2290000000000001
sS'MET-GLN'
p115
F2.3330000000000002
sS'ILE-LYS'
p116
F2.8140000000000001
sS'MET-ARG'
p117
F2.677
sS'ALA-CYS'
p118
F2.419
sS'THR-ARG'
p119
F2.2389999999999999
sS'CYS-ILE'
p120
F2.8570000000000002
sS'LEU-ASN'
p121
F2.4049999999999998
sS'LEU-ASP'
p122
F2.6840000000000002
sS'PHE-TRP'
p123
F2.7050000000000001
sS'MET-GLY'
p124
F2.4950000000000001
sS'THR-PHE'
p125
F2.4569999999999999
sS'MET-GLU'
p126
F2.7330000000000001
sS'THR-TRP'
p127
F2.9889999999999999
sS'THR-TYR'
p128
F2.2519999999999998
sS'CYS-VAL'
p129
F2.6309999999999998
sS'ARG-ALA'
p130
F2.1200000000000001
sS'ALA-TYR'
p131
F2.274
sS'ASP-PRO'
p132
F2.0070000000000001
sS'ARG-CYS'
p133
F2.3570000000000002
sS'GLN-ARG'
p134
F1.9419999999999999
sS'HIS-TRP'
p135
F2.8069999999999999
sS'PRO-SER'
p136
F1.9299999999999999
sS'VAL-VAL'
p137
F1.387
sS'LEU-LYS'
p138
F2.6549999999999998
sS'GLY-LYS'
p139
F1.792
sS'CYS-ASN'
p140
F2.383
sS'GLY-TRP'
p141
F2.6469999999999998
sS'THR-CYS'
p142
F2.589
sS'LYS-LYS'
p143
F1.5700000000000001
sS'CYS-ASP'
p144
F2.8420000000000001
sS'TYR-ASP'
p145
F2.266
sS'VAL-PRO'
p146
F2.391
sS'THR-VAL'
p147
F2.403
sS'ASP-TYR'
p148
F2.2429999999999999
sS'PRO-CYS'
p149
F2.0990000000000002
sS'VAL-SER'
p150
F2.3460000000000001
sS'ARG-HIS'
p151
F2.0369999999999999
sS'CYS-PRO'
p152
F2.0259999999999998
sS'MET-LYS'
p153
F2.4670000000000001
sS'ALA-SER'
p154
F1.9299999999999999
sS'TYR-SER'
p155
F2.1379999999999999
sS'GLY-ARG'
p156
F1.7529999999999999
sS'GLN-ALA'
p157
F2.129
sS'MET-LEU'
p158
F2.609
sS'ASN-HIS'
p159
F2.2280000000000002
sS'VAL-CYS'
p160
F2.831
sS'GLN-TYR'
p161
F2.0750000000000002
sS'GLN-PHE'
p162
F2.5009999999999999
sS'ILE-ASN'
p163
F2.5739999999999998
sS'GLU-ASN'
p164
F1.9339999999999999
sS'CYS-ALA'
p165
F2.379
sS'ASN-ASP'
p166
F1.9950000000000001
sS'ASN-PRO'
p167
F1.7729999999999999
sS'PRO-ARG'
p168
F1.851
sS'LYS-TRP'
p169
F2.7959999999999998
sS'ASN-ASN'
p170
F0.64100000000000001
sS'ASN-THR'
p171
F1.9930000000000001
sS'THR-ALA'
p172
F2.1829999999999998
sS'LYS-ALA'
p173
F2.3929999999999998
sS'LYS-PRO'
p174
F2.1640000000000001
sS'SER-GLN'
p175
F1.8140000000000001
sS'ILE-VAL'
p176
F2.5569999999999999
sS'ASP-ARG'
p177
F1.5549999999999999
sS'ASP-MET'
p178
F2.714
sS'CYS-TYR'
p179
F2.4220000000000002
sS'PRO-TRP'
p180
F2.3500000000000001
sS'THR-GLU'
p181
F2.2149999999999999
sS'TRP-ALA'
p182
F2.512
sS'ILE-CYS'
p183
F2.8340000000000001
sS'LYS-ILE'
p184
F2.8199999999999998
sS'GLN-CYS'
p185
F2.4609999999999999
sS'TYR-ALA'
p186
F2.327
sS'ARG-ASP'
p187
F1.508
sS'SER-GLU'
p188
F1.9630000000000001
sS'TRP-HIS'
p189
F2.5129999999999999
sS'ALA-ASN'
p190
F2.1579999999999999
sS'GLU-CYS'
p191
F2.9279999999999999
sS'PRO-MET'
p192
F2.4409999999999998
sS'TYR-HIS'
p193
F2.1339999999999999
sS'PHE-MET'
p194
F2.5739999999999998
sS'GLU-TYR'
p195
F2.2799999999999998
sS'SER-TRP'
p196
F2.629
sS'PHE-ARG'
p197
F2.4710000000000001
sS'GLY-ILE'
p198
F2.5
sS'TYR-VAL'
p199
F2.5910000000000002
sS'ASN-TYR'
p200
F2.1299999999999999
sS'SER-ILE'
p201
F2.4039999999999999
sS'GLN-PRO'
p202
F1.8540000000000001
sS'PHE-TYR'
p203
F2.4199999999999999
sS'ALA-VAL'
p204
F2.3599999999999999
sS'HIS-HIS'
p205
F0.44500000000000001
sS'THR-ASN'
p206
F2.0569999999999999
sS'CYS-LEU'
p207
F2.8650000000000002
sS'LYS-MET'
p208
F2.665
sS'LYS-ASP'
p209
F1.8839999999999999
sS'HIS-ASN'
p210
F2.097
sS'ILE-GLN'
p211
F2.4870000000000001
sS'VAL-HIS'
p212
F2.6080000000000001
sS'ALA-LEU'
p213
F2.161
sS'HIS-ASP'
p214
F2.109
sS'ILE-TYR'
p215
F2.3740000000000001
sS'ILE-GLU'
p216
F2.7280000000000002
sS'ILE-GLY'
p217
F2.4300000000000002
sS'ASN-CYS'
p218
F2.2330000000000001
sS'GLU-SER'
p219
F2.0030000000000001
sS'ALA-TRP'
p220
F2.6760000000000002
sS'HIS-CYS'
p221
F2.9380000000000002
sS'HIS-MET'
p222
F2.6869999999999998
sS'ILE-PRO'
p223
F2.2989999999999999
sS'LYS-PHE'
p224
F2.786
sS'TRP-PRO'
p225
F2.6099999999999999
sS'GLU-TRP'
p226
F2.73
sS'PHE-HIS'
p227
F2.6890000000000001
sS'GLY-TYR'
p228
F2.165
sS'SER-GLY'
p229
F1.4850000000000001
sS'CYS-TRP'
p230
F3.5569999999999999
sS'ASP-LYS'
p231
F1.8759999999999999
sS'ASN-ILE'
p232
F2.4239999999999999
sS'HIS-SER'
p233
F2.0939999999999999
sS'LYS-CYS'
p234
F2.6339999999999999
sS'GLY-PHE'
p235
F2.641
sS'GLY-LEU'
p236
F2.427
sS'MET-SER'
p237
F2.3719999999999999
sS'VAL-ALA'
p238
F2.371
sS'SER-LEU'
p239
F2.423
sS'TRP-LYS'
p240
F2.6720000000000002
sS'VAL-TYR'
p241
F2.6429999999999998
sS'VAL-PHE'
p242
F2.5790000000000002
sS'ARG-THR'
p243
F2.081
sS'TYR-TRP'
p244
F2.5819999999999999
sS'GLN-GLN'
p245
F0.82999999999999996
sS'GLU-PHE'
p246
F2.6230000000000002
sS'VAL-ILE'
p247
F2.552
sS'HIS-GLN'
p248
F2.3050000000000002
sS'GLN-GLY'
p249
F1.758
sS'PHE-ALA'
p250
F2.4329999999999998
sS'HIS-GLU'
p251
F2.1800000000000002
sS'ARG-PRO'
p252
F1.871
sS'HIS-GLY'
p253
F2.3410000000000002
sS'SER-ASN'
p254
F1.859
sS'ALA-THR'
p255
F2.1930000000000001
sS'GLN-GLU'
p256
F2.1259999999999999
sS'GLN-LYS'
p257
F2.181
sS'CYS-HIS'
p258
F2.9009999999999998
sS'GLN-ASP'
p259
F1.954
sS'LEU-HIS'
p260
F2.4399999999999999
sS'SER-LYS'
p261
F2.0310000000000001
sS'TRP-LEU'
p262
F2.5169999999999999
sS'CYS-SER'
p263
F2.3250000000000002
sS'LYS-THR'
p264
F2.4169999999999998
sS'HIS-LEU'
p265
F2.5840000000000001
sS'LEU-ARG'
p266
F2.3959999999999999
sS'GLY-VAL'
p267
F2.1589999999999998
sS'GLN-ASN'
p268
F1.9790000000000001
sS'TYR-ARG'
p269
F2.0939999999999999
sS'PRO-TYR'
p270
F2.036
sS'ASP-PHE'
p271
F2.7530000000000001
sS'TRP-CYS'
p272
F3.4350000000000001
sS'ASN-LEU'
p273
F2.4119999999999999
sS'SER-MET'
p274
F2.3559999999999999
sS'HIS-ILE'
p275
F2.6760000000000002
sS'SER-TYR'
p276
F2.1760000000000002
sS'MET-TYR'
p277
F2.5369999999999999
sS'GLU-ILE'
p278
F2.5249999999999999
sS'PHE-CYS'
p279
F2.6899999999999999
sS'PRO-LEU'
p280
F2.2149999999999999
sS'GLY-MET'
p281
F2.4340000000000002
sS'ARG-ILE'
p282
F2.4430000000000001
sS'HIS-THR'
p283
F2.298
sS'THR-GLN'
p284
F1.9690000000000001
sS'TRP-THR'
p285
F2.6930000000000001
sS'LYS-LEU'
p286
F2.6920000000000002
sS'THR-GLY'
p287
F1.77
sS'ASP-TRP'
p288
F2.8079999999999998
sS'TYR-MET'
p289
F2.4809999999999999
sS'PHE-ILE'
p290
F2.593
sS'PRO-VAL'
p291
F2.4580000000000002
sS'MET-ASN'
p292
F2.4209999999999998
sS'LEU-TYR'
p293
F2.5049999999999999
sS'PHE-PHE'
p294
F1.431
sS'CYS-PHE'
p295
F2.8620000000000001
sS'TRP-ILE'
p296
F2.879
sS'PRO-ASN'
p297
F1.8129999999999999
sS'CYS-CYS'
p298
F-0.82799999999999996
sS'SER-ASP'
p299
F2.1240000000000001
sS'ARG-MET'
p300
F2.6259999999999999
sS'SER-PHE'
p301
F2.4900000000000002
sS'SER-SER'
p302
F0.67600000000000005
sS'ASN-LYS'
p303
F1.9650000000000001
sS'CYS-THR'
p304
F2.7250000000000001
sS'ILE-TRP'
p305
F2.798
sS'PRO-ASP'
p306
F2.048
sS'THR-ASP'
p307
F2.2330000000000001
sS'SER-CYS'
p308
F2.4180000000000001
sS'MET-ASP'
p309
F2.5880000000000001
sS'GLN-MET'
p310
F2.556
sS'MET-TRP'
p311
F3.2069999999999999
sS'ARG-VAL'
p312
F2.4289999999999998
sS'GLY-GLN'
p313
F1.8129999999999999
sS'THR-LYS'
p314
F2.3650000000000002
sS'TRP-MET'
p315
F3.141
sS'ARG-ARG'
p316
F0.97599999999999998
sS'ILE-ASP'
p317
F2.6219999999999999
sS'ALA-ARG'
p318
F2.0870000000000002
sS'GLY-GLU'
p319
F2.1419999999999999
sS'ASN-TRP'
p320
F2.6389999999999998
sS'GLU-ARG'
p321
F1.8500000000000001
sS'HIS-VAL'
p322
F2.6309999999999998
sS'VAL-ARG'
p323
F2.4100000000000001
sS'ASN-SER'
p324
F1.8580000000000001
sS'ALA-LYS'
p325
F2.395
sS'VAL-GLN'
p326
F2.4140000000000001
sS'TRP-ASN'
p327
F2.3959999999999999
sS'TYR-ILE'
p328
F2.3460000000000001
sS'TRP-GLY'
p329
F2.6389999999999998
sS'PRO-PHE'
p330
F2.29
sS'GLY-HIS'
p331
F2.1840000000000002
sS'PHE-SER'
p332
F2.4950000000000001
sS'TRP-ASP'
p333
F2.8100000000000001
sS'TRP-GLN'
p334
F2.1760000000000002
sS'LEU-ALA'
p335
F2.2909999999999999
sS'VAL-GLU'
p336
F2.5179999999999998
sS'ALA-HIS'
p337
F2.1600000000000001
sS'ARG-ASN'
p338
F1.9059999999999999
sS'LEU-THR'
p339
F2.4809999999999999
sS'TYR-CYS'
p340
F2.6760000000000002
sS'THR-THR'
p341
F1.0509999999999999
sS'THR-LEU'
p342
F2.4609999999999999
sS'VAL-ASN'
p343
F2.3319999999999999
sS'LEU-TRP'
p344
F2.6230000000000002
sS'GLU-ASP'
p345
F2.3010000000000002
sS'ILE-SER'
p346
F2.383
sS'ILE-ARG'
p347
F2.5470000000000002
sS'TRP-GLU'
p348
F2.6819999999999999
sS'ILE-MET'
p349
F2.6139999999999999
sS'MET-PHE'
p350
F2.5659999999999998
sS'PRO-ALA'
p351
F1.8109999999999999
sS'PRO-GLY'
p352
F1.8009999999999999
sS'GLN-THR'
p353
F2.0089999999999999
sS'MET-ALA'
p354
F2.661
sS'TRP-SER'
p355
F2.6930000000000001
sS'ASP-HIS'
p356
F2.0819999999999999
sS'ARG-SER'
p357
F1.8169999999999999
sS'GLN-HIS'
p358
F2.0899999999999999
sS'HIS-PHE'
p359
F2.621
sS'LEU-LEU'
p360
F1.6599999999999999
sS'ALA-GLN'
p361
F2.0110000000000001
sS'ASP-ASN'
p362
F2.012
sS'SER-VAL'
p363
F2.3740000000000001
sS'MET-ILE'
p364
F2.847
sS'ALA-PRO'
p365
F2.1070000000000002
sS'ASP-ASP'
p366
F1.4199999999999999
sS'ALA-GLY'
p367
F1.492
sS'TRP-TRP'
p368
F0.998
sS'MET-CYS'
p369
F2.9670000000000001
sS'ALA-GLU'
p370
F2.2989999999999999
sS'THR-PRO'
p371
F1.8799999999999999
sS'HIS-ALA'
p372
F2.552
sS'GLN-ILE'
p373
F2.3149999999999999
sS'GLU-VAL'
p374
F2.5489999999999999
sS'LYS-ASN'
p375
F2.0270000000000001
sS'ASN-ALA'
p376
F2.1720000000000002
sS'THR-ILE'
p377
F2.4449999999999998
sS'ASP-CYS'
p378
F2.9100000000000001
sS'PRO-LYS'
p379
F2.1059999999999999
sS'TYR-TYR'
p380
F1.1970000000000001
sS'ARG-LYS'
p381
F2.258
sS'ILE-ALA'
p382
F2.496
sS'ASP-SER'
p383
F2.0760000000000001
sS'CYS-LYS'
p384
F2.8940000000000001
sS'GLU-ALA'
p385
F2.3180000000000001
sS'PHE-GLU'
p386
F2.581
sS'GLU-LEU'
p387
F2.621
sS'PHE-GLY'
p388
F2.6629999999999998
sS'LYS-HIS'
p389
F2.2090000000000001
sS'HIS-PRO'
p390
F2.0750000000000002
sS'ILE-ILE'
p391
F1.496
sS'MET-HIS'
p392
F2.6379999999999999
sS'VAL-GLY'
p393
F2.2530000000000001
sS'THR-MET'
p394
F2.7160000000000002
sS'PHE-THR'
p395
F2.472
sS'VAL-TRP'
p396
F2.8109999999999999
sS'PHE-LYS'
p397
F2.7200000000000002
sS'GLY-PRO'
p398
F1.6379999999999999
sS'PHE-GLN'
p399
F2.5089999999999999
sS'LEU-PHE'
p400
F2.5379999999999998
s.