(dp1
S'MET-MET'
p2
F-3.9289999999999998
sS'PRO-ILE'
p3
F-1.95
sS'TYR-LYS'
p4
F-2.4100000000000001
sS'VAL-ASP'
p5
F-1.5129999999999999
sS'ASP-GLN'
p6
F-2.516
sS'HIS-TYR'
p7
F-2.5699999999999998
sS'ASP-GLU'
p8
F-2.347
sS'ALA-ASP'
p9
F-2.367
sS'ASP-GLY'
p10
F0
sS'LEU-VAL'
p11
F-1.9890000000000001
sS'TRP-TYR'
p12
F-2.169
sS'TYR-LEU'
p13
F-2.3410000000000002
sS'LYS-GLU'
p14
F-3.0819999999999999
sS'TRP-PHE'
p15
F-2.2509999999999999
sS'ARG-TYR'
p16
F-2.6800000000000002
sS'GLU-LYS'
p17
F-3.0710000000000002
sS'ILE-HIS'
p18
F-2.04
sS'GLY-GLY'
p19
F0
sS'LEU-MET'
p20
F-1.9399999999999999
sS'GLU-HIS'
p21
F-2.8100000000000001
sS'GLY-THR'
p22
F0
sS'ARG-GLU'
p23
F-3.1899999999999999
sS'PHE-ASN'
p24
F-2.0139999999999998
sS'ASN-MET'
p25
F-1.74
sS'PRO-THR'
p26
F-2.3250000000000002
sS'TYR-GLN'
p27
F-2.4620000000000002
sS'ARG-GLY'
p28
F0
sS'VAL-THR'
p29
F-1.8560000000000001
sS'ASP-ILE'
p30
F-1.5349999999999999
sS'GLY-ILE'
p31
F0
sS'TYR-GLU'
p32
F-2.556
sS'ARG-GLN'
p33
F-2.9300000000000002
sS'TYR-GLY'
p34
F0
sS'PHE-ASP'
p35
F-1.8799999999999999
sS'CYS-ARG'
p36
F-2.1579999999999999
sS'HIS-ARG'
p37
F-2.5659999999999998
sS'VAL-LYS'
p38
F-1.581
sS'LEU-ILE'
p39
F-2.089
sS'GLN-LEU'
p40
F-2.0419999999999998
sS'GLU-MET'
p41
F-1.7569999999999999
sS'ASP-THR'
p42
F-2.1949999999999998
sS'ASN-PHE'
p43
F-2.0950000000000002
sS'GLU-PRO'
p44
F-2.4660000000000002
sS'LYS-ARG'
p45
F-2.6200000000000001
sS'GLY-ASP'
p46
F0
sS'PRO-GLN'
p47
F-2.7090000000000001
sS'CYS-MET'
p48
F-1.6719999999999999
sS'GLU-THR'
p49
F-2.431
sS'ILE-THR'
p50
F-1.8540000000000001
sS'PHE-GLY'
p51
F0
sS'SER-PRO'
p52
F-2.4449999999999998
sS'GLY-CYS'
p53
F0
sS'ARG-LEU'
p54
F-2.319
sS'PRO-GLU'
p55
F-2.4089999999999998
sS'ASP-LEU'
p56
F-1.6659999999999999
sS'PHE-VAL'
p57
F-2.1469999999999998
sS'ASN-VAL'
p58
F-1.992
sS'PRO-VAL'
p59
F-1.8680000000000001
sS'ALA-MET'
p60
F-2.2080000000000002
sS'LEU-PRO'
p61
F-2.032
sS'LEU-SER'
p62
F-2.008
sS'ASN-ARG'
p63
F-2.927
sS'SER-THR'
p64
F-2.206
sS'LYS-VAL'
p65
F-1.7130000000000001
sS'LYS-PRO'
p66
F-2.3170000000000002
sS'GLN-VAL'
p67
F-1.921
sS'TYR-PHE'
p68
F-2.2610000000000001
sS'ASP-VAL'
p69
F-1.5549999999999999
sS'ASN-GLY'
p70
F0
sS'ARG-PHE'
p71
F-2.27
sS'HIS-TRP'
p72
F-1.9730000000000001
sS'LYS-GLN'
p73
F-2.6930000000000001
sS'ASN-GLU'
p74
F-2.6960000000000002
sS'CYS-GLN'
p75
F-1.8400000000000001
sS'TYR-PRO'
p76
F-2.819
sS'ARG-ILE'
p77
F-2.1669999999999998
sS'CYS-GLU'
p78
F-1.2470000000000001
sS'ASN-GLN'
p79
F-2.871
sS'CYS-GLY'
p80
F0
sS'GLN-SER'
p81
F-2.8130000000000002
sS'HIS-LYS'
p82
F-2.355
sS'LEU-LYS'
p83
F-1.6479999999999999
sS'LYS-GLY'
p84
F0
sS'VAL-MET'
p85
F-1.7330000000000001
sS'ALA-ALA'
p86
F-3.5539999999999998
sS'THR-SER'
p87
F-2.246
sS'PRO-PRO'
p88
F-3.6949999999999998
sS'ILE-PHE'
p89
F-2.3900000000000001
sS'PHE-LEU'
p90
F-2.3799999999999999
sS'GLU-GLU'
p91
F-3.6000000000000001
sS'TYR-ASP'
p92
F-2.4889999999999999
sS'GLY-ALA'
p93
F0
sS'TYR-ASN'
p94
F-2.6080000000000001
sS'GLU-GLN'
p95
F-2.532
sS'TRP-ARG'
p96
F-2.5310000000000001
sS'LEU-GLU'
p97
F-1.6850000000000001
sS'LEU-GLY'
p98
F0
sS'LYS-SER'
p99
F-2.625
sS'MET-VAL'
p100
F-1.742
sS'SER-ALA'
p101
F-2.4670000000000001
sS'PRO-HIS'
p102
F-2.5089999999999999
sS'MET-THR'
p103
F-1.992
sS'ALA-PHE'
p104
F-2.6949999999999998
sS'MET-PRO'
p105
F-1.879
sS'GLY-SER'
p106
F0
sS'LEU-GLN'
p107
F-2.0899999999999999
sS'VAL-LEU'
p108
F-2.048
sS'LEU-CYS'
p109
F-1.4890000000000001
sS'LYS-TYR'
p110
F-2.4279999999999999
sS'ASP-ALA'
p111
F-2.3170000000000002
sS'ILE-LEU'
p112
F-2.1589999999999998
sS'TRP-VAL'
p113
F-1.992
sS'PHE-PRO'
p114
F-2.4239999999999999
sS'GLU-GLY'
p115
F0
sS'ARG-TRP'
p116
F-2.6419999999999999
sS'MET-GLN'
p117
F-2.1819999999999999
sS'HIS-PHE'
p118
F-1.8999999999999999
sS'MET-ARG'
p119
F-2.1800000000000002
sS'TYR-THR'
p120
F-2.399
sS'SER-ARG'
p121
F-3
sS'THR-ARG'
p122
F-2.7480000000000002
sS'CYS-ILE'
p123
F-1.6339999999999999
sS'LEU-ASN'
p124
F-1.895
sS'LEU-ASP'
p125
F-1.629
sS'PHE-TRP'
p126
F-2.1930000000000001
sS'MET-GLY'
p127
F0
sS'THR-PHE'
p128
F-2.1989999999999998
sS'MET-GLU'
p129
F-1.708
sS'THR-TRP'
p130
F-2.1280000000000001
sS'THR-TYR'
p131
F-2.4449999999999998
sS'CYS-VAL'
p132
F-1.478
sS'ARG-ALA'
p133
F-2.9209999999999998
sS'ALA-TYR'
p134
F-2.8969999999999998
sS'ASP-PRO'
p135
F-2.2999999999999998
sS'ARG-CYS'
p136
F-2.153
sS'GLN-ARG'
p137
F-2.8559999999999999
sS'SER-HIS'
p138
F-2.5270000000000001
sS'PRO-SER'
p139
F-2.4500000000000002
sS'VAL-VAL'
p140
F-3.1110000000000002
sS'GLN-TRP'
p141
F-2.383
sS'GLY-LYS'
p142
F0
sS'CYS-ASN'
p143
F-1.9339999999999999
sS'GLY-TRP'
p144
F0
sS'THR-CYS'
p145
F-1.7949999999999999
sS'LYS-LYS'
p146
F-3.508
sS'CYS-ASP'
p147
F-1.3300000000000001
sS'VAL-PRO'
p148
F-1.9410000000000001
sS'THR-VAL'
p149
F-1.762
sS'ASP-TYR'
p150
F-2.5699999999999998
sS'PRO-CYS'
p151
F-1.843
sS'VAL-SER'
p152
F-1.8799999999999999
sS'ARG-HIS'
p153
F-2.7029999999999998
sS'CYS-PRO'
p154
F-1.909
sS'MET-LYS'
p155
F-1.9950000000000001
sS'ALA-SER'
p156
F-2.2589999999999999
sS'TYR-SER'
p157
F-2.7210000000000001
sS'GLY-ARG'
p158
F0
sS'GLN-ALA'
p159
F-2.6920000000000002
sS'MET-LEU'
p160
F-1.9870000000000001
sS'ASN-HIS'
p161
F-2.4540000000000002
sS'VAL-CYS'
p162
F-1.3260000000000001
sS'GLN-TYR'
p163
F-2.5920000000000001
sS'MET-SER'
p164
F-2.0219999999999998
sS'ALA-TRP'
p165
F-2.8029999999999999
sS'GLU-ASN'
p166
F-2.6549999999999998
sS'CYS-ALA'
p167
F-1.7190000000000001
sS'GLY-ASN'
p168
F0
sS'ASN-ASP'
p169
F-2.4649999999999999
sS'ASN-PRO'
p170
F-2.488
sS'PRO-ARG'
p171
F-2.867
sS'LYS-TRP'
p172
F-2.1509999999999998
sS'ASN-ASN'
p173
F-4.1630000000000003
sS'THR-ALA'
p174
F-2.4500000000000002
sS'LYS-ALA'
p175
F-2.4119999999999999
sS'SER-GLN'
p176
F-2.7370000000000001
sS'ILE-VAL'
p177
F-1.925
sS'ASP-ARG'
p178
F-3.2029999999999998
sS'ASP-MET'
p179
F-1.556
sS'CYS-TYR'
p180
F-1.6140000000000001
sS'PRO-TRP'
p181
F-2.524
sS'ILE-LYS'
p182
F-1.6020000000000001
sS'TRP-ALA'
p183
F-2.9420000000000002
sS'ILE-CYS'
p184
F-1.411
sS'LYS-ILE'
p185
F-1.7430000000000001
sS'GLN-CYS'
p186
F-1.49
sS'ARG-ASP'
p187
F-3.2490000000000001
sS'SER-GLU'
p188
F-2.6659999999999999
sS'TRP-HIS'
p189
F-2.2370000000000001
sS'ALA-ASN'
p190
F-2.609
sS'GLU-CYS'
p191
F-1.2150000000000001
sS'ALA-CYS'
p192
F-1.6579999999999999
sS'PRO-MET'
p193
F-1.802
sS'TYR-HIS'
p194
F-2.5550000000000002
sS'PHE-MET'
p195
F-2.246
sS'GLU-TYR'
p196
F-2.617
sS'SER-TRP'
p197
F-2.524
sS'PHE-ARG'
p198
F-2.1549999999999998
sS'THR-HIS'
p199
F-2.2970000000000002
sS'TYR-VAL'
p200
F-2.2269999999999999
sS'SER-ILE'
p201
F-1.8759999999999999
sS'GLN-PRO'
p202
F-2.6589999999999998
sS'ALA-VAL'
p203
F-2.2490000000000001
sS'HIS-HIS'
p204
F-4.4550000000000001
sS'THR-ASN'
p205
F-2.4769999999999999
sS'CYS-LEU'
p206
F-1.393
sS'LYS-MET'
p207
F-1.8080000000000001
sS'LYS-ASP'
p208
F-2.8610000000000002
sS'HIS-ASN'
p209
F-2.5449999999999999
sS'ILE-GLN'
p210
F-2.0179999999999998
sS'VAL-HIS'
p211
F-1.8109999999999999
sS'ALA-LEU'
p212
F-2.5600000000000001
sS'HIS-ASP'
p213
F-2.5659999999999998
sS'ILE-TYR'
p214
F-2.323
sS'ILE-GLU'
p215
F-1.728
sS'ASP-ASP'
p216
F-3.4670000000000001
sS'ILE-GLY'
p217
F0
sS'ASN-CYS'
p218
F-1.9319999999999999
sS'GLU-SER'
p219
F-2.677
sS'ILE-ASN'
p220
F-1.821
sS'HIS-CYS'
p221
F-1.7270000000000001
sS'HIS-MET'
p222
F-1.548
sS'ILE-PRO'
p223
F-2.0659999999999998
sS'LYS-PHE'
p224
F-1.8080000000000001
sS'GLY-PHE'
p225
F0
sS'ILE-ASP'
p226
F-1.5489999999999999
sS'PHE-HIS'
p227
F-1.841
sS'GLY-TYR'
p228
F0
sS'SER-GLY'
p229
F0
sS'CYS-TRP'
p230
F-1.111
sS'ASP-LYS'
p231
F-2.8479999999999999
sS'ASN-ILE'
p232
F-1.9350000000000001
sS'HIS-SER'
p233
F-2.5790000000000002
sS'LYS-CYS'
p234
F-1.3580000000000001
sS'TRP-PRO'
p235
F-2.3639999999999999
sS'ASN-THR'
p236
F-2.4689999999999999
sS'GLN-PHE'
p237
F-2.133
sS'VAL-ALA'
p238
F-2.222
sS'SER-LEU'
p239
F-2.0310000000000001
sS'TRP-LYS'
p240
F-2.1579999999999999
sS'VAL-TYR'
p241
F-2.1560000000000001
sS'VAL-PHE'
p242
F-2.0960000000000001
sS'ARG-THR'
p243
F-2.7000000000000002
sS'TYR-TRP'
p244
F-2.1720000000000002
sS'GLN-GLN'
p245
F-4.1550000000000002
sS'GLU-PHE'
p246
F-1.9159999999999999
sS'VAL-ILE'
p247
F-2.0609999999999999
sS'HIS-GLN'
p248
F-2.4089999999999998
sS'GLN-GLY'
p249
F0
sS'PHE-ALA'
p250
F-2.7130000000000001
sS'HIS-GLU'
p251
F-2.694
sS'ARG-PRO'
p252
F-2.79
sS'HIS-GLY'
p253
F0
sS'SER-ASN'
p254
F-2.7250000000000001
sS'ALA-THR'
p255
F-2.4630000000000001
sS'GLN-GLU'
p256
F-2.4540000000000002
sS'GLN-LYS'
p257
F-2.5950000000000002
sS'CYS-HIS'
p258
F-1.9930000000000001
sS'GLN-ASP'
p259
F-2.585
sS'LEU-HIS'
p260
F-2.0419999999999998
sS'SER-LYS'
p261
F-2.601
sS'TRP-LEU'
p262
F-2.448
sS'CYS-SER'
p263
F-2.0089999999999999
sS'LYS-THR'
p264
F-2.1520000000000001
sS'HIS-LEU'
p265
F-1.9419999999999999
sS'LEU-ARG'
p266
F-2.2589999999999999
sS'GLY-VAL'
p267
F0
sS'GLN-ASN'
p268
F-2.766
sS'TYR-ARG'
p269
F-2.585
sS'PRO-TYR'
p270
F-2.8809999999999998
sS'ASP-PHE'
p271
F-1.7789999999999999
sS'ARG-VAL'
p272
F-2.2189999999999999
sS'ASN-LEU'
p273
F-1.8680000000000001
sS'SER-MET'
p274
F-1.907
sS'HIS-ILE'
p275
F-1.9330000000000001
sS'GLY-LEU'
p276
F0
sS'SER-TYR'
p277
F-2.702
sS'MET-TYR'
p278
F-2.3929999999999998
sS'GLU-ILE'
p279
F-1.819
sS'PHE-CYS'
p280
F-2.1030000000000002
sS'PRO-LEU'
p281
F-2.0190000000000001
sS'GLY-MET'
p282
F0
sS'HIS-THR'
p283
F-2.266
sS'THR-GLN'
p284
F-2.6339999999999999
sS'TRP-THR'
p285
F-2.3100000000000001
sS'LYS-LEU'
p286
F-1.609
sS'THR-GLY'
p287
F0
sS'ALA-LYS'
p288
F-2.4329999999999998
sS'ASP-TRP'
p289
F-1.992
sS'TYR-MET'
p290
F-2.2839999999999998
sS'PHE-ILE'
p291
F-2.3479999999999999
sS'THR-GLU'
p292
F-2.4020000000000001
sS'MET-ASN'
p293
F-1.998
sS'LEU-TYR'
p294
F-2.286
sS'PHE-PHE'
p295
F-3.7890000000000001
sS'CYS-PHE'
p296
F-1.964
sS'TRP-ILE'
p297
F-2.169
sS'PRO-ASN'
p298
F-2.4649999999999999
sS'CYS-CYS'
p299
F-5.3920000000000003
sS'SER-ASP'
p300
F-2.573
sS'ARG-MET'
p301
F-2.262
sS'SER-PHE'
p302
F-2.21
sS'SER-SER'
p303
F-3.6080000000000001
sS'ASN-LYS'
p304
F-2.6680000000000001
sS'CYS-THR'
p305
F-1.5349999999999999
sS'ILE-TRP'
p306
F-2.077
sS'PRO-ASP'
p307
F-2.3359999999999999
sS'THR-ASP'
p308
F-2.141
sS'SER-CYS'
p309
F-1.319
sS'MET-ASP'
p310
F-1.5920000000000001
sS'GLN-MET'
p311
F-2.0670000000000002
sS'MET-TRP'
p312
F-2.0739999999999998
sS'TRP-CYS'
p313
F-1.296
sS'GLY-GLN'
p314
F0
sS'THR-LYS'
p315
F-2.1699999999999999
sS'TRP-MET'
p316
F-2.0230000000000001
sS'ARG-ARG'
p317
F-4.1790000000000003
sS'ALA-ARG'
p318
F-2.907
sS'PRO-PHE'
p319
F-2.383
sS'ASN-TRP'
p320
F-2.2280000000000002
sS'GLU-ARG'
p321
F-3.1680000000000001
sS'HIS-VAL'
p322
F-1.974
sS'VAL-ARG'
p323
F-2.1920000000000002
sS'TRP-GLU'
p324
F-2.1739999999999999
sS'PHE-TYR'
p325
F-2.3170000000000002
sS'VAL-GLN'
p326
F-2.0459999999999998
sS'TRP-ASN'
p327
F-2.5049999999999999
sS'TYR-ILE'
p328
F-2.3340000000000001
sS'TRP-GLY'
p329
F0
sS'GLY-GLU'
p330
F0
sS'GLY-HIS'
p331
F0
sS'PHE-SER'
p332
F-2.2669999999999999
sS'TRP-ASP'
p333
F-2.0830000000000002
sS'TRP-GLN'
p334
F-2.5070000000000001
sS'LEU-ALA'
p335
F-2.5190000000000001
sS'VAL-GLU'
p336
F-1.861
sS'ALA-HIS'
p337
F-2.8319999999999999
sS'TYR-ALA'
p338
F-2.8769999999999998
sS'LEU-THR'
p339
F-1.8540000000000001
sS'TYR-CYS'
p340
F-1.609
sS'THR-THR'
p341
F-3.5369999999999999
sS'THR-LEU'
p342
F-1.9379999999999999
sS'VAL-ASN'
p343
F-1.8819999999999999
sS'LEU-TRP'
p344
F-2.4209999999999998
sS'GLU-ASP'
p345
F-2.3540000000000001
sS'ILE-SER'
p346
F-1.9630000000000001
sS'ILE-ARG'
p347
F-2.2040000000000002
sS'ASN-SER'
p348
F-2.7850000000000001
sS'ILE-MET'
p349
F-1.758
sS'MET-PHE'
p350
F-2.2690000000000001
sS'PRO-ALA'
p351
F-2.7570000000000001
sS'PRO-GLY'
p352
F0
sS'GLN-THR'
p353
F-2.508
sS'MET-ALA'
p354
F-2.1160000000000001
sS'TRP-SER'
p355
F-2.4119999999999999
sS'ASP-HIS'
p356
F-2.528
sS'ARG-SER'
p357
F-3.0289999999999999
sS'GLN-HIS'
p358
F-2.5339999999999998
sS'LEU-LEU'
p359
F-3.3929999999999998
sS'ALA-GLN'
p360
F-2.7570000000000001
sS'ASP-ASN'
p361
F-2.4409999999999998
sS'SER-VAL'
p362
F-1.804
sS'MET-ILE'
p363
F-1.837
sS'ALA-PRO'
p364
F-2.54
sS'ALA-ILE'
p365
F-2.3460000000000001
sS'ALA-GLY'
p366
F0
sS'TRP-TRP'
p367
F-4.2290000000000001
sS'MET-CYS'
p368
F-1.2410000000000001
sS'ALA-GLU'
p369
F-2.5139999999999998
sS'THR-PRO'
p370
F-2.359
sS'HIS-ALA'
p371
F-2.4249999999999998
sS'GLN-ILE'
p372
F-2.0760000000000001
sS'GLU-VAL'
p373
F-1.8300000000000001
sS'LYS-ASN'
p374
F-2.5760000000000001
sS'ASN-ALA'
p375
F-2.653
sS'GLU-TRP'
p376
F-2.1930000000000001
sS'THR-ILE'
p377
F-1.9199999999999999
sS'ASP-CYS'
p378
F-1.194
sS'PRO-LYS'
p379
F-2.3290000000000002
sS'TYR-TYR'
p380
F-3.9119999999999999
sS'ARG-LYS'
p381
F-2.6349999999999998
sS'ILE-ALA'
p382
F-2.3340000000000001
sS'ASP-SER'
p383
F-2.5350000000000001
sS'CYS-LYS'
p384
F-1.542
sS'ARG-ASN'
p385
F-2.9790000000000001
sS'GLU-ALA'
p386
F-2.5299999999999998
sS'PHE-GLU'
p387
F-1.8839999999999999
sS'GLU-LEU'
p388
F-1.7789999999999999
sS'ASN-TYR'
p389
F-2.5609999999999999
sS'LYS-HIS'
p390
F-2.3929999999999998
sS'HIS-PRO'
p391
F-2.4279999999999999
sS'ILE-ILE'
p392
F-3.3580000000000001
sS'MET-HIS'
p393
F-1.831
sS'VAL-GLY'
p394
F0
sS'THR-MET'
p395
F-1.9830000000000001
sS'PHE-THR'
p396
F-2.2400000000000002
sS'VAL-TRP'
p397
F-2.161
sS'PHE-LYS'
p398
F-1.8089999999999999
sS'GLY-PRO'
p399
F0
sS'PHE-GLN'
p400
F-2.1429999999999998
sS'LEU-PHE'
p401
F-2.3759999999999999
s.