(dp1
S'MET-MET'
p2
F0.095000000000000001
sS'PRO-ILE'
p3
F2.0489999999999999
sS'TYR-LYS'
p4
F2.3330000000000002
sS'VAL-ASP'
p5
F2.4209999999999998
sS'ASP-GLN'
p6
F1.724
sS'HIS-TYR'
p7
F2.2549999999999999
sS'ASP-GLU'
p8
F1.853
sS'ALA-ASP'
p9
F1.319
sS'ASP-GLY'
p10
F0
sS'LEU-VAL'
p11
F1.984
sS'TRP-TYR'
p12
F3.0659999999999998
sS'TYR-LEU'
p13
F2.3450000000000002
sS'LYS-GLU'
p14
F1.27
sS'TRP-PHE'
p15
F2.9510000000000001
sS'ARG-TYR'
p16
F2.2730000000000001
sS'GLU-LYS'
p17
F1.2849999999999999
sS'ILE-HIS'
p18
F2.448
sS'GLY-GLY'
p19
F0
sS'LEU-MET'
p20
F2.1970000000000001
sS'GLU-HIS'
p21
F1.786
sS'GLY-THR'
p22
F0
sS'ARG-GLU'
p23
F1.4450000000000001
sS'PHE-ASN'
p24
F2.5289999999999999
sS'ASN-MET'
p25
F2.431
sS'PRO-THR'
p26
F1.3169999999999999
sS'TYR-GLN'
p27
F2.2810000000000001
sS'ARG-GLY'
p28
F0
sS'VAL-THR'
p29
F1.9399999999999999
sS'ASP-ILE'
p30
F2.5800000000000001
sS'GLY-ILE'
p31
F0
sS'TYR-GLU'
p32
F2.2349999999999999
sS'ARG-GLN'
p33
F1.7170000000000001
sS'TYR-GLY'
p34
F0
sS'PHE-ASP'
p35
F2.6699999999999999
sS'CYS-ARG'
p36
F2.1760000000000002
sS'HIS-ARG'
p37
F2.1909999999999998
sS'VAL-LYS'
p38
F2.536
sS'LEU-ILE'
p39
F2.0960000000000001
sS'GLN-LEU'
p40
F2.3119999999999998
sS'GLU-MET'
p41
F2.589
sS'ASP-THR'
p42
F1.728
sS'ASN-PHE'
p43
F2.456
sS'GLU-PRO'
p44
F1.661
sS'LYS-ARG'
p45
F2.0339999999999998
sS'GLY-ASP'
p46
F0
sS'PRO-GLN'
p47
F1.3779999999999999
sS'CYS-MET'
p48
F2.3359999999999999
sS'GLU-THR'
p49
F1.7050000000000001
sS'ILE-THR'
p50
F2.0489999999999999
sS'PHE-GLY'
p51
F0
sS'SER-PRO'
p52
F1.0549999999999999
sS'GLY-CYS'
p53
F0
sS'ARG-LEU'
p54
F2.2989999999999999
sS'PRO-GLU'
p55
F1.722
sS'ASP-LEU'
p56
F2.4660000000000002
sS'PHE-VAL'
p57
F2.3330000000000002
sS'ASN-VAL'
p58
F1.9430000000000001
sS'PRO-VAL'
p59
F1.788
sS'ALA-MET'
p60
F1.4990000000000001
sS'LEU-PRO'
p61
F1.8740000000000001
sS'LEU-SER'
p62
F1.823
sS'ASN-ARG'
p63
F1.6200000000000001
sS'SER-THR'
p64
F1.3440000000000001
sS'LYS-VAL'
p65
F2.4039999999999999
sS'LYS-PRO'
p66
F1.794
sS'GLN-VAL'
p67
F2.246
sS'TYR-PHE'
p68
F2.6989999999999998
sS'ASP-VAL'
p69
F2.3919999999999999
sS'ASN-GLY'
p70
F0
sS'ARG-PHE'
p71
F2.6030000000000002
sS'HIS-TRP'
p72
F3.0409999999999999
sS'LYS-GLN'
p73
F1.651
sS'ASN-GLU'
p74
F1.522
sS'CYS-GLN'
p75
F2.1400000000000001
sS'TYR-PRO'
p76
F1.78
sS'ARG-ILE'
p77
F2.4750000000000001
sS'CYS-GLU'
p78
F2.8330000000000002
sS'ASN-GLN'
p79
F1.373
sS'CYS-GLY'
p80
F0
sS'GLN-SER'
p81
F1.159
sS'HIS-LYS'
p82
F2.2679999999999998
sS'LEU-LYS'
p83
F2.6190000000000002
sS'LYS-GLY'
p84
F0
sS'VAL-MET'
p85
F2.3460000000000001
sS'ALA-ALA'
p86
F-1.131
sS'THR-SER'
p87
F1.2989999999999999
sS'PRO-PRO'
p88
F-0.014
sS'ILE-PHE'
p89
F2.2240000000000002
sS'PHE-LEU'
p90
F2.3100000000000001
sS'GLU-GLU'
p91
F0.79000000000000004
sS'TYR-ASP'
p92
F2.2080000000000002
sS'GLY-ALA'
p93
F0
sS'TYR-ASN'
p94
F2.024
sS'GLU-GLN'
p95
F1.9099999999999999
sS'TRP-ARG'
p96
F2.6179999999999999
sS'LEU-GLU'
p97
F2.5419999999999998
sS'LEU-GLY'
p98
F0
sS'LYS-SER'
p99
F1.359
sS'MET-VAL'
p100
F2.379
sS'SER-ALA'
p101
F0.57499999999999996
sS'PRO-HIS'
p102
F1.782
sS'MET-THR'
p103
F2.02
sS'ALA-PHE'
p104
F1.5269999999999999
sS'MET-PRO'
p105
F2.1139999999999999
sS'GLY-SER'
p106
F0
sS'LEU-GLN'
p107
F2.2669999999999999
sS'VAL-LEU'
p108
F1.9099999999999999
sS'LEU-CYS'
p109
F2.4769999999999999
sS'LYS-TYR'
p110
F2.294
sS'ASP-ALA'
p111
F1.3819999999999999
sS'ILE-LEU'
p112
F1.984
sS'TRP-VAL'
p113
F2.8220000000000001
sS'PHE-PRO'
p114
F2.0310000000000001
sS'GLU-GLY'
p115
F0
sS'ARG-TRP'
p116
F2.4990000000000001
sS'MET-GLN'
p117
F2.1259999999999999
sS'HIS-PHE'
p118
F2.8250000000000002
sS'MET-ARG'
p119
F2.5019999999999998
sS'TYR-THR'
p120
F2.214
sS'SER-ARG'
p121
F1.3400000000000001
sS'THR-ARG'
p122
F1.736
sS'CYS-ILE'
p123
F2.262
sS'LEU-ASN'
p124
F2.218
sS'LEU-ASP'
p125
F2.5110000000000001
sS'PHE-TRP'
p126
F3.0259999999999998
sS'MET-GLY'
p127
F0
sS'THR-PHE'
p128
F2.266
sS'MET-GLU'
p129
F2.6459999999999999
sS'THR-TRP'
p130
F2.738
sS'THR-TYR'
p131
F2.117
sS'CYS-VAL'
p132
F2.1339999999999999
sS'ARG-ALA'
p133
F1.3029999999999999
sS'ALA-TYR'
p134
F1.4059999999999999
sS'ASP-PRO'
p135
F1.5980000000000001
sS'ARG-CYS'
p136
F2.0710000000000002
sS'GLN-ARG'
p137
F1.835
sS'SER-HIS'
p138
F1.675
sS'PRO-SER'
p139
F1.085
sS'VAL-VAL'
p140
F0.61599999999999999
sS'GLN-TRP'
p141
F2.6230000000000002
sS'GLY-LYS'
p142
F0
sS'CYS-ASN'
p143
F1.8160000000000001
sS'GLY-TRP'
p144
F0
sS'THR-CYS'
p145
F1.8879999999999999
sS'LYS-LYS'
p146
F0.76000000000000001
sS'CYS-ASP'
p147
F2.641
sS'VAL-PRO'
p148
F1.841
sS'THR-VAL'
p149
F1.9299999999999999
sS'ASP-TYR'
p150
F2.1520000000000001
sS'PRO-CYS'
p151
F1.8360000000000001
sS'VAL-SER'
p152
F1.661
sS'ARG-HIS'
p153
F2.1429999999999998
sS'CYS-PRO'
p154
F1.609
sS'MET-LYS'
p155
F2.3889999999999998
sS'ALA-SER'
p156
F0.78500000000000003
sS'TYR-SER'
p157
F1.7450000000000001
sS'GLY-ARG'
p158
F0
sS'GLN-ALA'
p159
F1.1950000000000001
sS'MET-LEU'
p160
F2.1589999999999998
sS'ASN-HIS'
p161
F1.986
sS'VAL-CYS'
p162
F2.302
sS'GLN-TYR'
p163
F2.153
sS'MET-SER'
p164
F1.8380000000000001
sS'ALA-TRP'
p165
F1.6850000000000001
sS'GLU-ASN'
p166
F1.554
sS'CYS-ALA'
p167
F1.3120000000000001
sS'GLY-ASN'
p168
F0
sS'ASN-ASP'
p169
F1.5569999999999999
sS'ASN-PRO'
p170
F1.347
sS'PRO-ARG'
p171
F1.6399999999999999
sS'LYS-TRP'
p172
F2.8980000000000001
sS'ASN-ASN'
p173
F-0.13700000000000001
sS'THR-ALA'
p174
F0.96699999999999997
sS'LYS-ALA'
p175
F1.486
sS'SER-GLN'
p176
F1.2649999999999999
sS'ILE-VAL'
p177
F2.0350000000000001
sS'ASP-ARG'
p178
F1.3540000000000001
sS'ASP-MET'
p179
F2.5590000000000002
sS'CYS-TYR'
p180
F2.9780000000000002
sS'PRO-TRP'
p181
F2.2320000000000002
sS'ILE-LYS'
p182
F2.7789999999999999
sS'TRP-ALA'
p183
F1.52
sS'ILE-CYS'
p184
F2.4060000000000001
sS'LYS-ILE'
p185
F2.6699999999999999
sS'GLN-CYS'
p186
F2.5259999999999998
sS'ARG-ASP'
p187
F1.2709999999999999
sS'SER-GLU'
p188
F1.3280000000000001
sS'TRP-HIS'
p189
F2.7650000000000001
sS'ALA-ASN'
p190
F1.0649999999999999
sS'GLU-CYS'
p191
F2.8159999999999998
sS'ALA-CYS'
p192
F1.421
sS'PRO-MET'
p193
F2.1899999999999999
sS'TYR-HIS'
p194
F2.3180000000000001
sS'PHE-MET'
p195
F2.3290000000000002
sS'GLU-TYR'
p196
F2.1800000000000002
sS'SER-TRP'
p197
F2.2309999999999999
sS'PHE-ARG'
p198
F2.7519999999999998
sS'THR-HIS'
p199
F1.9790000000000001
sS'TYR-VAL'
p200
F2.383
sS'SER-ILE'
p201
F1.9239999999999999
sS'GLN-PRO'
p202
F1.415
sS'ALA-VAL'
p203
F1.1850000000000001
sS'HIS-HIS'
p204
F0.27200000000000002
sS'THR-ASN'
p205
F1.4490000000000001
sS'CYS-LEU'
p206
F2.4830000000000001
sS'LYS-MET'
p207
F2.5569999999999999
sS'LYS-ASP'
p208
F1.383
sS'HIS-ASN'
p209
F1.859
sS'ILE-GLN'
p210
F2.3069999999999999
sS'VAL-HIS'
p211
F2.4620000000000002
sS'ALA-LEU'
p212
F1.1619999999999999
sS'HIS-ASP'
p213
F1.8340000000000001
sS'ILE-TYR'
p214
F2.492
sS'ILE-GLU'
p215
F2.5150000000000001
sS'ASP-ASP'
p216
F0.57399999999999995
sS'ILE-GLY'
p217
F0
sS'ASN-CYS'
p218
F1.8089999999999999
sS'GLU-SER'
p219
F1.3140000000000001
sS'ILE-ASN'
p220
F2.339
sS'HIS-CYS'
p221
F2.4049999999999998
sS'HIS-MET'
p222
F3.024
sS'ILE-PRO'
p223
F1.9339999999999999
sS'LYS-PHE'
p224
F2.9060000000000001
sS'GLY-PHE'
p225
F0
sS'ILE-ASP'
p226
F2.4980000000000002
sS'PHE-HIS'
p227
F2.9340000000000002
sS'GLY-TYR'
p228
F0
sS'SER-GLY'
p229
F0
sS'CYS-TRP'
p230
F3.4710000000000001
sS'ASP-LYS'
p231
F1.3859999999999999
sS'ASN-ILE'
p232
F2.1840000000000002
sS'HIS-SER'
p233
F1.6000000000000001
sS'LYS-CYS'
p234
F2.6219999999999999
sS'TRP-PRO'
p235
F2.431
sS'ASN-THR'
p236
F1.4370000000000001
sS'GLN-PHE'
p237
F2.548
sS'VAL-ALA'
p238
F1.2250000000000001
sS'SER-LEU'
p239
F1.7989999999999999
sS'TRP-LYS'
p240
F2.9319999999999999
sS'VAL-TYR'
p241
F2.4649999999999999
sS'VAL-PHE'
p242
F2.3759999999999999
sS'ARG-THR'
p243
F1.7490000000000001
sS'TYR-TRP'
p244
F3.028
sS'GLN-GLN'
p245
F0.16
sS'GLU-PHE'
p246
F2.7170000000000001
sS'VAL-ILE'
p247
F2.0099999999999998
sS'HIS-GLN'
p248
F2.173
sS'GLN-GLY'
p249
F0
sS'PHE-ALA'
p250
F1.498
sS'HIS-GLU'
p251
F1.8460000000000001
sS'ARG-PRO'
p252
F1.6200000000000001
sS'HIS-GLY'
p253
F0
sS'SER-ASN'
p254
F1.087
sS'ALA-THR'
p255
F0.98799999999999999
sS'GLN-GLU'
p256
F1.8440000000000001
sS'GLN-LYS'
p257
F1.7729999999999999
sS'CYS-HIS'
p258
F2.2160000000000002
sS'GLN-ASP'
p259
F1.641
sS'LEU-HIS'
p260
F2.3620000000000001
sS'SER-LYS'
p261
F1.405
sS'TRP-LEU'
p262
F2.6509999999999998
sS'CYS-SER'
p263
F1.3620000000000001
sS'LYS-THR'
p264
F1.95
sS'HIS-LEU'
p265
F2.5529999999999999
sS'LEU-ARG'
p266
F2.4020000000000001
sS'GLY-VAL'
p267
F0
sS'GLN-ASN'
p268
F1.478
sS'TYR-ARG'
p269
F2.3290000000000002
sS'PRO-TYR'
p270
F1.7070000000000001
sS'ASP-PHE'
p271
F2.7690000000000001
sS'ARG-VAL'
p272
F2.206
sS'ASN-LEU'
p273
F2.2709999999999999
sS'SER-MET'
p274
F1.9630000000000001
sS'HIS-ILE'
p275
F2.6070000000000002
sS'GLY-LEU'
p276
F0
sS'SER-TYR'
p277
F1.71
sS'MET-TYR'
p278
F2.2919999999999998
sS'GLU-ILE'
p279
F2.456
sS'PHE-CYS'
p280
F2.3180000000000001
sS'PRO-LEU'
p281
F1.913
sS'GLY-MET'
p282
F0
sS'HIS-THR'
p283
F2.077
sS'THR-GLN'
p284
F1.5009999999999999
sS'TRP-THR'
p285
F2.48
sS'LYS-LEU'
p286
F2.6909999999999998
sS'THR-GLY'
p287
F0
sS'ALA-LYS'
p288
F1.4359999999999999
sS'ASP-TRP'
p289
F2.8780000000000001
sS'TYR-MET'
p290
F2.4180000000000001
sS'PHE-ILE'
p291
F2.3149999999999999
sS'THR-GLU'
p292
F1.7170000000000001
sS'MET-ASN'
p293
F2.1320000000000001
sS'LEU-TYR'
p294
F2.407
sS'PHE-PHE'
p295
F1.1279999999999999
sS'CYS-PHE'
p296
F2.4420000000000002
sS'TRP-ILE'
p297
F2.7810000000000001
sS'PRO-ASN'
p298
F1.448
sS'CYS-CYS'
p299
F-2.2719999999999998
sS'SER-ASP'
p300
F1.244
sS'ARG-MET'
p301
F2.3109999999999999
sS'SER-PHE'
p302
F2.1179999999999999
sS'SER-SER'
p303
F-0.443
sS'ASN-LYS'
p304
F1.4399999999999999
sS'CYS-THR'
p305
F2.2069999999999999
sS'ILE-TRP'
p306
F2.9870000000000001
sS'PRO-ASP'
p307
F1.581
sS'THR-ASP'
p308
F1.7549999999999999
sS'SER-CYS'
p309
F1.875
sS'MET-ASP'
p310
F2.6070000000000002
sS'GLN-MET'
p311
F2.3479999999999999
sS'MET-TRP'
p312
F2.9300000000000002
sS'TRP-CYS'
p313
F3.3279999999999998
sS'GLY-GLN'
p314
F0
sS'THR-LYS'
p315
F1.9670000000000001
sS'TRP-MET'
p316
F2.9980000000000002
sS'ARG-ARG'
p317
F0.58999999999999997
sS'ALA-ARG'
p318
F1.278
sS'PRO-PHE'
p319
F2.0800000000000001
sS'ASN-TRP'
p320
F2.7290000000000001
sS'GLU-ARG'
p321
F1.452
sS'HIS-VAL'
p322
F2.4980000000000002
sS'VAL-ARG'
p323
F2.2240000000000002
sS'TRP-GLU'
p324
F2.8159999999999998
sS'PHE-TYR'
p325
F2.6749999999999998
sS'VAL-GLN'
p326
F2.2130000000000001
sS'TRP-ASN'
p327
F2.4500000000000002
sS'TYR-ILE'
p328
F2.4580000000000002
sS'TRP-GLY'
p329
F0
sS'GLY-GLU'
p330
F0
sS'GLY-HIS'
p331
F0
sS'PHE-SER'
p332
F2.1190000000000002
sS'TRP-ASP'
p333
F2.649
sS'TRP-GLN'
p334
F2.4609999999999999
sS'LEU-ALA'
p335
F1.2010000000000001
sS'VAL-GLU'
p336
F2.2799999999999998
sS'ALA-HIS'
p337
F1.1850000000000001
sS'TYR-ALA'
p338
F1.492
sS'LEU-THR'
p339
F2.121
sS'TYR-CYS'
p340
F2.972
sS'THR-THR'
p341
F0.16600000000000001
sS'THR-LEU'
p342
F2.0630000000000002
sS'VAL-ASN'
p343
F2.008
sS'LEU-TRP'
p344
F2.5990000000000002
sS'GLU-ASP'
p345
F1.851
sS'ILE-SER'
p346
F1.841
sS'ILE-ARG'
p347
F2.427
sS'ASN-SER'
p348
F1.0109999999999999
sS'ILE-MET'
p349
F2.3679999999999999
sS'MET-PHE'
p350
F2.2890000000000001
sS'PRO-ALA'
p351
F0.64300000000000002
sS'PRO-GLY'
p352
F0
sS'GLN-THR'
p353
F1.6399999999999999
sS'MET-ALA'
p354
F1.619
sS'TRP-SER'
p355
F2.3170000000000002
sS'ASP-HIS'
p356
F1.8480000000000001
sS'ARG-SER'
p357
F1.3
sS'GLN-HIS'
p358
F2.0310000000000001
sS'LEU-LEU'
p359
F0.70999999999999996
sS'ALA-GLN'
p360
F1.1200000000000001
sS'ASP-ASN'
p361
F1.5589999999999999
sS'SER-VAL'
p362
F1.766
sS'MET-ILE'
p363
F2.4540000000000002
sS'ALA-PRO'
p364
F0.88400000000000001
sS'ALA-ILE'
p365
F1.353
sS'ALA-GLY'
p366
F0
sS'TRP-TRP'
p367
F1.3120000000000001
sS'MET-CYS'
p368
F2.5430000000000001
sS'ALA-GLU'
p369
F1.373
sS'THR-PRO'
p370
F1.286
sS'HIS-ALA'
p371
F1.6060000000000001
sS'GLN-ILE'
p372
F2.234
sS'GLU-VAL'
p373
F2.298
sS'LYS-ASN'
p374
F1.6919999999999999
sS'ASN-ALA'
p375
F1.0429999999999999
sS'GLU-TRP'
p376
F2.819
sS'THR-ILE'
p377
F1.998
sS'ASP-CYS'
p378
F2.613
sS'PRO-LYS'
p379
F1.8109999999999999
sS'TYR-TYR'
p380
F1.1850000000000001
sS'ARG-LYS'
p381
F2.032
sS'ILE-ALA'
p382
F1.375
sS'ASP-SER'
p383
F1.252
sS'CYS-LYS'
p384
F2.5720000000000001
sS'ARG-ASN'
p385
F1.5409999999999999
sS'GLU-ALA'
p386
F1.3520000000000001
sS'PHE-GLU'
p387
F2.7909999999999999
sS'GLU-LEU'
p388
F2.4710000000000001
sS'ASN-TYR'
p389
F2.0939999999999999
sS'LYS-HIS'
p390
F2.1339999999999999
sS'HIS-PRO'
p391
F1.847
sS'ILE-ILE'
p392
F0.71699999999999997
sS'MET-HIS'
p393
F2.802
sS'VAL-GLY'
p394
F0
sS'THR-MET'
p395
F2.0640000000000001
sS'PHE-THR'
p396
F2.29
sS'VAL-TRP'
p397
F2.5870000000000002
sS'PHE-LYS'
p398
F2.907
sS'GLY-PRO'
p399
F0
sS'PHE-GLN'
p400
F2.581
sS'LEU-PHE'
p401
F2.306
s.