(dp1
S'MET-MET'
p2
F-1.135
sS'PRO-ILE'
p3
F0.24299999999999999
sS'TYR-LYS'
p4
F-0.22900000000000001
sS'VAL-ASP'
p5
F0.69299999999999995
sS'ASP-GLN'
p6
F-0.32800000000000001
sS'HIS-TYR'
p7
F-0.59799999999999998
sS'ASP-GLU'
p8
F-0.13
sS'ALA-ASP'
p9
F0.57599999999999996
sS'ASP-GLY'
p10
F0
sS'LEU-VAL'
p11
F0.218
sS'TRP-TYR'
p12
F-0.14499999999999999
sS'TYR-LEU'
p13
F-0.11899999999999999
sS'LYS-GLU'
p14
F-0.98699999999999999
sS'TRP-PHE'
p15
F-0.27100000000000002
sS'ARG-TYR'
p16
F-0.72299999999999998
sS'GLU-LYS'
p17
F-0.97399999999999998
sS'ILE-HIS'
p18
F0.085999999999999993
sS'GLY-GLY'
p19
F0
sS'LEU-MET'
p20
F0.12
sS'GLU-HIS'
p21
F-0.80500000000000005
sS'GLY-THR'
p22
F0
sS'ARG-GLU'
p23
F-1.1539999999999999
sS'PHE-ASN'
p24
F0.10000000000000001
sS'ASN-MET'
p25
F0.379
sS'PRO-THR'
p26
F-0.159
sS'TYR-GLN'
p27
F-0.42599999999999999
sS'ARG-GLY'
p28
F0
sS'VAL-THR'
p29
F0.41699999999999998
sS'ASP-ILE'
p30
F0.66200000000000003
sS'GLY-ILE'
p31
F0
sS'TYR-GLU'
p32
F-0.38300000000000001
sS'ARG-GLN'
p33
F-0.76400000000000001
sS'TYR-GLY'
p34
F0
sS'PHE-ASP'
p35
F0.33700000000000002
sS'CYS-ARG'
p36
F0.42699999999999999
sS'HIS-ARG'
p37
F-0.48499999999999999
sS'VAL-LYS'
p38
F0.75900000000000001
sS'LEU-ILE'
p39
F0.016
sS'GLN-LEU'
p40
F0.079000000000000001
sS'GLU-MET'
p41
F0.375
sS'ASP-THR'
p42
F-0.0040000000000000001
sS'ASN-PHE'
p43
F0.111
sS'GLU-PRO'
p44
F-0.20599999999999999
sS'LYS-ARG'
p45
F-0.28499999999999998
sS'GLY-ASP'
p46
F0
sS'PRO-GLN'
p47
F-0.57599999999999996
sS'CYS-MET'
p48
F0.76300000000000001
sS'GLU-THR'
p49
F-0.19800000000000001
sS'ILE-THR'
p50
F0.33800000000000002
sS'PHE-GLY'
p51
F0
sS'SER-PRO'
p52
F-0.028000000000000001
sS'GLY-CYS'
p53
F0
sS'ARG-LEU'
p54
F-0.11799999999999999
sS'PRO-GLU'
p55
F-0.17299999999999999
sS'ASP-LEU'
p56
F0.45800000000000002
sS'PHE-VAL'
p57
F0.050999999999999997
sS'ASN-VAL'
p58
F0.26200000000000001
sS'PRO-VAL'
p59
F0.30299999999999999
sS'ALA-MET'
p60
F0.69399999999999995
sS'LEU-PRO'
p61
F0.16600000000000001
sS'LEU-SER'
p62
F0.43099999999999999
sS'ASN-ARG'
p63
F-0.69599999999999995
sS'SER-THR'
p64
F0.22800000000000001
sS'LYS-VAL'
p65
F0.59899999999999998
sS'LYS-PRO'
p66
F0.047
sS'GLN-VAL'
p67
F0.24099999999999999
sS'TYR-PHE'
p68
F-0.308
sS'ASP-VAL'
p69
F0.72199999999999998
sS'ASN-GLY'
p70
F0
sS'ARG-PHE'
p71
F-0.29999999999999999
sS'HIS-TRP'
p72
F0.029999999999999999
sS'LYS-GLN'
p73
F-0.47099999999999997
sS'ASN-GLU'
p74
F-0.55700000000000005
sS'CYS-GLN'
p75
F0.68799999999999994
sS'TYR-PRO'
p76
F-0.56999999999999995
sS'ARG-ILE'
p77
F0.073999999999999996
sS'CYS-GLU'
p78
F1.2430000000000001
sS'ASN-GLN'
p79
F-0.78200000000000003
sS'CYS-GLY'
p80
F0
sS'GLN-SER'
p81
F-0.35099999999999998
sS'HIS-LYS'
p82
F-0.14099999999999999
sS'LEU-LYS'
p83
F0.53000000000000003
sS'LYS-GLY'
p84
F0
sS'VAL-MET'
p85
F0.48099999999999998
sS'ALA-ALA'
p86
F-0.10299999999999999
sS'THR-SER'
p87
F0.18099999999999999
sS'PRO-PRO'
p88
F-0.749
sS'ILE-PHE'
p89
F-0.17100000000000001
sS'PHE-LEU'
p90
F-0.23000000000000001
sS'GLU-GLU'
p91
F-0.69399999999999995
sS'TYR-ASP'
p92
F-0.27400000000000002
sS'GLY-ALA'
p93
F0
sS'TYR-ASN'
p94
F-0.48999999999999999
sS'GLU-GLN'
p95
F-0.34599999999999997
sS'TRP-ARG'
p96
F-0.55800000000000005
sS'LEU-GLU'
p97
F0.40899999999999997
sS'LEU-GLY'
p98
F0
sS'LYS-SER'
p99
F-0.128
sS'MET-VAL'
p100
F0.58399999999999996
sS'SER-ALA'
p101
F0.35899999999999999
sS'PRO-HIS'
p102
F-0.27800000000000002
sS'MET-THR'
p103
F0.25800000000000001
sS'ALA-PHE'
p104
F0.311
sS'MET-PRO'
p105
F0.32300000000000001
sS'GLY-SER'
p106
F0
sS'LEU-GLN'
p107
F0.028000000000000001
sS'VAL-LEU'
p108
F0.156
sS'LEU-CYS'
p109
F0.95899999999999996
sS'LYS-TYR'
p110
F-0.376
sS'ASP-ALA'
p111
F0.63300000000000001
sS'ILE-LEU'
p112
F-0.025999999999999999
sS'TRP-VAL'
p113
F0.28599999999999998
sS'PHE-PRO'
p114
F-0.32400000000000001
sS'GLU-GLY'
p115
F0
sS'ARG-TRP'
p116
F-0.65700000000000003
sS'MET-GLN'
p117
F-0.032000000000000001
sS'HIS-PHE'
p118
F0.014
sS'MET-ARG'
p119
F0.17499999999999999
sS'TYR-THR'
p120
F-0.041000000000000002
sS'SER-ARG'
p121
F-0.39800000000000002
sS'THR-ARG'
p122
F-0.25700000000000001
sS'CYS-ILE'
p123
F0.81399999999999995
sS'LEU-ASN'
p124
F0.17199999999999999
sS'LEU-ASP'
p125
F0.45600000000000002
sS'PHE-TRP'
p126
F-0.161
sS'MET-GLY'
p127
F0
sS'THR-PHE'
p128
F0.0070000000000000001
sS'MET-GLU'
p129
F0.503
sS'THR-TRP'
p130
F0.23200000000000001
sS'THR-TYR'
p131
F-0.16800000000000001
sS'CYS-VAL'
p132
F1.0289999999999999
sS'ARG-ALA'
p133
F0.11700000000000001
sS'ALA-TYR'
p134
F0.078
sS'ASP-PRO'
p135
F-0.161
sS'ARG-CYS'
p136
F0.36399999999999999
sS'GLN-ARG'
p137
F-0.77100000000000002
sS'SER-HIS'
p138
F-0.075999999999999998
sS'PRO-SER'
p139
F-0.01
sS'VAL-VAL'
p140
F-0.13800000000000001
sS'GLN-TRP'
p141
F-0.193
sS'GLY-LYS'
p142
F0
sS'CYS-ASN'
p143
F0.52000000000000002
sS'GLY-TRP'
p144
F0
sS'THR-CYS'
p145
F0.70199999999999996
sS'LYS-LYS'
p146
F-0.52000000000000002
sS'CYS-ASP'
p147
F1.204
sS'VAL-PRO'
p148
F0.314
sS'THR-VAL'
p149
F0.35699999999999998
sS'ASP-TYR'
p150
F-0.41399999999999998
sS'PRO-CYS'
p151
F0.61199999999999999
sS'VAL-SER'
p152
F0.51900000000000002
sS'ARG-HIS'
p153
F-0.56200000000000006
sS'CYS-PRO'
p154
F0.435
sS'MET-LYS'
p155
F0.27500000000000002
sS'ALA-SER'
p156
F0.55700000000000005
sS'TYR-SER'
p157
F-0.107
sS'GLY-ARG'
p158
F0
sS'GLN-ALA'
p159
F0.28399999999999997
sS'MET-LEU'
p160
F0.042999999999999997
sS'ASN-HIS'
p161
F-0.311
sS'VAL-CYS'
p162
F1.1859999999999999
sS'GLN-TYR'
p163
F-0.56599999999999995
sS'MET-SER'
p164
F0.45700000000000002
sS'ALA-TRP'
p165
F0.109
sS'GLU-ASN'
p166
F-0.55400000000000005
sS'CYS-ALA'
p167
F1.175
sS'GLY-ASN'
p168
F0
sS'ASN-ASP'
p169
F-0.379
sS'ASN-PRO'
p170
F-0.216
sS'PRO-ARG'
p171
F-0.55600000000000005
sS'LYS-TRP'
p172
F0.035999999999999997
sS'ASN-ASN'
p173
F-1.361
sS'THR-ALA'
p174
F0.442
sS'LYS-ALA'
p175
F0.70799999999999996
sS'SER-GLN'
p176
F-0.23300000000000001
sS'ILE-VAL'
p177
F0.23899999999999999
sS'ASP-ARG'
p178
F-1.093
sS'ASP-MET'
p179
F0.63700000000000001
sS'CYS-TYR'
p180
F0.98899999999999999
sS'PRO-TRP'
p181
F-0.29299999999999998
sS'ILE-LYS'
p182
F0.58899999999999997
sS'TRP-ALA'
p183
F0.075999999999999998
sS'ILE-CYS'
p184
F0.996
sS'LYS-ILE'
p185
F0.53000000000000003
sS'GLN-CYS'
p186
F1.0860000000000001
sS'ARG-ASP'
p187
F-1.224
sS'SER-GLU'
p188
F-0.27500000000000002
sS'TRP-HIS'
p189
F-0.16500000000000001
sS'ALA-ASN'
p190
F0.315
sS'GLU-CYS'
p191
F1.218
sS'ALA-CYS'
p192
F1.222
sS'PRO-MET'
p193
F0.32700000000000001
sS'TYR-HIS'
p194
F-0.59099999999999997
sS'PHE-MET'
p195
F-0.16300000000000001
sS'GLU-TYR'
p196
F-0.48699999999999999
sS'SER-TRP'
p197
F0.067000000000000004
sS'PHE-ARG'
p198
F-0.19900000000000001
sS'THR-HIS'
p199
F-0.14099999999999999
sS'TYR-VAL'
p200
F0.049000000000000002
sS'SER-ILE'
p201
F0.60799999999999998
sS'GLN-PRO'
p202
F-0.48599999999999999
sS'ALA-VAL'
p203
F0.65300000000000002
sS'HIS-HIS'
p204
F-1.7609999999999999
sS'THR-ASN'
p205
F-0.20799999999999999
sS'CYS-LEU'
p206
F1.0049999999999999
sS'LYS-MET'
p207
F0.498
sS'LYS-ASP'
p208
F-0.81899999999999995
sS'HIS-ASN'
p209
F-0.40999999999999998
sS'ILE-GLN'
p210
F0.057000000000000002
sS'VAL-HIS'
p211
F0.36699999999999999
sS'ALA-LEU'
p212
F0.37
sS'HIS-ASP'
p213
F-0.50900000000000001
sS'ILE-TYR'
p214
F-0.11600000000000001
sS'ILE-GLU'
p215
F0.32000000000000001
sS'ASP-ASP'
p216
F-0.57899999999999996
sS'ILE-GLY'
p217
F0
sS'ASN-CYS'
p218
F0.55300000000000005
sS'GLU-SER'
p219
F-0.23100000000000001
sS'ILE-ASN'
p220
F0.34599999999999997
sS'HIS-CYS'
p221
F0.73499999999999999
sS'HIS-MET'
p222
F0.55800000000000005
sS'ILE-PRO'
p223
F0.121
sS'LYS-PHE'
p224
F0.38600000000000001
sS'GLY-PHE'
p225
F0
sS'ILE-ASP'
p226
F0.64200000000000002
sS'PHE-HIS'
p227
F0.17100000000000001
sS'GLY-TYR'
p228
F0
sS'SER-GLY'
p229
F0
sS'CYS-TRP'
p230
F1.363
sS'ASP-LYS'
p231
F-0.79000000000000004
sS'ASN-ILE'
p232
F0.20699999999999999
sS'HIS-SER'
p233
F-0.16200000000000001
sS'LYS-CYS'
p234
F1.167
sS'TRP-PRO'
p235
F-0.12
sS'ASN-THR'
p236
F-0.215
sS'GLN-PHE'
p237
F-0.069000000000000006
sS'VAL-ALA'
p238
F0.70499999999999996
sS'SER-LEU'
p239
F0.41399999999999998
sS'TRP-LYS'
p240
F0.105
sS'VAL-TYR'
p241
F0.10199999999999999
sS'VAL-PHE'
p242
F0.155
sS'ARG-THR'
p243
F-0.25700000000000001
sS'TYR-TRP'
p244
F-0.161
sS'GLN-GLN'
p245
F-1.3660000000000001
sS'GLU-PHE'
p246
F0.184
sS'VAL-ILE'
p247
F0.14899999999999999
sS'HIS-GLN'
p248
F-0.35599999999999998
sS'GLN-GLY'
p249
F0
sS'PHE-ALA'
p250
F0.23499999999999999
sS'HIS-GLU'
p251
F-0.70499999999999996
sS'ARG-PRO'
p252
F-0.54400000000000004
sS'HIS-GLY'
p253
F0
sS'SER-ASN'
p254
F-0.26700000000000002
sS'ALA-THR'
p255
F0.46000000000000002
sS'GLN-GLU'
p256
F-0.39400000000000002
sS'GLN-LYS'
p257
F-0.52100000000000002
sS'CYS-HIS'
p258
F0.495
sS'GLN-ASP'
p259
F-0.432
sS'LEU-HIS'
p260
F-0.042999999999999997
sS'SER-LYS'
p261
F-0.097000000000000003
sS'TRP-LEU'
p262
F-0.17000000000000001
sS'CYS-SER'
p263
F0.54300000000000004
sS'LYS-THR'
p264
F0.113
sS'HIS-LEU'
p265
F0.11
sS'LEU-ARG'
p266
F-0.042000000000000003
sS'GLY-VAL'
p267
F0
sS'GLN-ASN'
p268
F-0.69599999999999995
sS'TYR-ARG'
p269
F-0.65900000000000003
sS'PRO-TYR'
p270
F-0.67000000000000004
sS'ASP-PHE'
p271
F0.45500000000000002
sS'ARG-VAL'
p272
F0.10199999999999999
sS'ASN-LEU'
p273
F0.27000000000000002
sS'SER-MET'
p274
F0.54700000000000004
sS'HIS-ILE'
p275
F0.16800000000000001
sS'GLY-LEU'
p276
F0
sS'SER-TYR'
p277
F-0.189
sS'MET-TYR'
p278
F-0.27400000000000002
sS'GLU-ILE'
p279
F0.29899999999999999
sS'PHE-CYS'
p280
F0.41999999999999998
sS'PRO-LEU'
p281
F0.193
sS'GLY-MET'
p282
F0
sS'HIS-THR'
p283
F-0.048000000000000001
sS'THR-GLN'
p284
F-0.42999999999999999
sS'TRP-THR'
p285
F0.081000000000000003
sS'LYS-LEU'
p286
F0.56499999999999995
sS'THR-GLY'
p287
F0
sS'ALA-LYS'
p288
F0.59999999999999998
sS'ASP-TRP'
p289
F0.27300000000000002
sS'TYR-MET'
p290
F-0.052999999999999999
sS'PHE-ILE'
p291
F-0.192
sS'THR-GLU'
p292
F-0.219
sS'MET-ASN'
p293
F0.13300000000000001
sS'LEU-TYR'
p294
F-0.072999999999999995
sS'PHE-PHE'
p295
F-1.1000000000000001
sS'CYS-PHE'
p296
F0.57899999999999996
sS'TRP-ILE'
p297
F0.058000000000000003
sS'PRO-ASN'
p298
F-0.28999999999999998
sS'CYS-CYS'
p299
F-2.569
sS'SER-ASP'
p300
F-0.161
sS'ARG-MET'
p301
F-0.025000000000000001
sS'SER-PHE'
p302
F0.29599999999999999
sS'SER-SER'
p303
F-0.58899999999999997
sS'ASN-LYS'
p304
F-0.56399999999999995
sS'CYS-THR'
p305
F0.95399999999999996
sS'ILE-TRP'
p306
F0.222
sS'PRO-ASP'
p307
F-0.17999999999999999
sS'THR-ASP'
p308
F0.050000000000000003
sS'SER-CYS'
p309
F1.107
sS'MET-ASP'
p310
F0.63500000000000001
sS'GLN-MET'
p311
F0.109
sS'MET-TRP'
p312
F0.083000000000000004
sS'TRP-CYS'
p313
F1.198
sS'GLY-GLN'
p314
F0
sS'THR-LYS'
p315
F0.115
sS'TRP-MET'
p316
F0.115
sS'ARG-ARG'
p317
F-1.3440000000000001
sS'ALA-ARG'
p318
F0.20000000000000001
sS'PRO-PHE'
p319
F-0.26600000000000001
sS'ASN-TRP'
p320
F0.052999999999999999
sS'GLU-ARG'
p321
F-1.236
sS'HIS-VAL'
p322
F0.26900000000000002
sS'VAL-ARG'
p323
F0.121
sS'TRP-GLU'
p324
F-0.043999999999999997
sS'PHE-TYR'
p325
F-0.33300000000000002
sS'VAL-GLN'
p326
F0.19700000000000001
sS'TRP-ASN'
p327
F-0.27300000000000002
sS'TYR-ILE'
p328
F-0.21099999999999999
sS'TRP-GLY'
p329
F0
sS'GLY-GLU'
p330
F0
sS'GLY-HIS'
p331
F0
sS'PHE-SER'
p332
F0.27100000000000002
sS'TRP-ASP'
p333
F0.17299999999999999
sS'TRP-GLN'
p334
F-0.317
sS'LEU-ALA'
p335
F0.40799999999999997
sS'VAL-GLU'
p336
F0.45800000000000002
sS'ALA-HIS'
p337
F0.071999999999999995
sS'TYR-ALA'
p338
F0.16300000000000001
sS'LEU-THR'
p339
F0.36799999999999999
sS'TYR-CYS'
p340
F0.92200000000000004
sS'THR-THR'
p341
F-0.64200000000000002
sS'THR-LEU'
p342
F0.312
sS'VAL-ASN'
p343
F0.28100000000000003
sS'LEU-TRP'
p344
F-0.19500000000000001
sS'GLU-ASP'
p345
F-0.14399999999999999
sS'ILE-SER'
p346
F0.46400000000000002
sS'ILE-ARG'
p347
F0.049000000000000002
sS'ASN-SER'
p348
F-0.32600000000000001
sS'ILE-MET'
p349
F0.372
sS'MET-PHE'
p350
F-0.109
sS'PRO-ALA'
p351
F0.10299999999999999
sS'PRO-GLY'
p352
F0
sS'GLN-THR'
p353
F-0.33000000000000002
sS'MET-ALA'
p354
F0.79500000000000004
sS'TRP-SER'
p355
F0.23100000000000001
sS'ASP-HIS'
p356
F-0.59099999999999997
sS'ARG-SER'
p357
F-0.371
sS'GLN-HIS'
p358
F-0.48899999999999999
sS'LEU-LEU'
p359
F-0.47599999999999998
sS'ALA-GLN'
p360
F0.189
sS'ASP-ASN'
p361
F-0.35399999999999998
sS'SER-VAL'
p362
F0.60799999999999998
sS'MET-ILE'
p363
F0.35199999999999998
sS'ALA-PRO'
p364
F0.33200000000000002
sS'ALA-ILE'
p365
F0.54600000000000004
sS'ALA-GLY'
p366
F0
sS'TRP-TRP'
p367
F-1.2450000000000001
sS'MET-CYS'
p368
F1.0489999999999999
sS'ALA-GLU'
p369
F0.46400000000000002
sS'THR-PRO'
p370
F-0.191
sS'HIS-ALA'
p371
F0.45300000000000001
sS'GLN-ILE'
p372
F0.012999999999999999
sS'GLU-VAL'
p373
F0.44500000000000001
sS'LYS-ASN'
p374
F-0.36099999999999999
sS'ASN-ALA'
p375
F0.30399999999999999
sS'GLU-TRP'
p376
F-0.029999999999999999
sS'THR-ILE'
p377
F0.28100000000000003
sS'ASP-CYS'
p378
F1.252
sS'PRO-LYS'
p379
F0.112
sS'TYR-TYR'
p380
F-1.0569999999999999
sS'ARG-LYS'
p381
F-0.33400000000000002
sS'ILE-ALA'
p382
F0.65400000000000003
sS'ASP-SER'
p383
F-0.099000000000000005
sS'CYS-LYS'
p384
F1.0149999999999999
sS'ARG-ASN'
p385
F-0.78700000000000003
sS'GLU-ALA'
p386
F0.42399999999999999
sS'PHE-GLU'
p387
F0.21299999999999999
sS'GLU-LEU'
p388
F0.30199999999999999
sS'ASN-TYR'
p389
F-0.39400000000000002
sS'LYS-HIS'
p390
F-0.218
sS'HIS-PRO'
p391
F-0.27100000000000002
sS'ILE-ILE'
p392
F-0.59899999999999998
sS'MET-HIS'
p393
F0.371
sS'VAL-GLY'
p394
F0
sS'THR-MET'
p395
F0.223
sS'PHE-THR'
p396
F0.040000000000000001
sS'VAL-TRP'
p397
F0.21099999999999999
sS'PHE-LYS'
p398
F0.434
sS'GLY-PRO'
p399
F0
sS'PHE-GLN'
p400
F-0.014
sS'LEU-PHE'
p401
F-0.221
s.