(dp1
S'MET-MET'
p2
F-2.036
sS'PRO-ILE'
p3
F-0.59799999999999998
sS'TYR-LYS'
p4
F-1.1419999999999999
sS'VAL-ASP'
p5
F-0.13800000000000001
sS'ASP-GLN'
p6
F-1.2470000000000001
sS'HIS-TYR'
p7
F-1.4650000000000001
sS'ASP-GLU'
p8
F-1.0289999999999999
sS'ALA-ASP'
p9
F-0.39200000000000002
sS'ASP-GLY'
p10
F0
sS'LEU-VAL'
p11
F-0.65300000000000002
sS'TRP-TYR'
p12
F-1.0580000000000001
sS'TYR-LEU'
p13
F-1.113
sS'LYS-GLU'
p14
F-1.889
sS'TRP-PHE'
p15
F-1.159
sS'ARG-TYR'
p16
F-1.5800000000000001
sS'GLU-LYS'
p17
F-1.881
sS'ILE-HIS'
p18
F-0.77300000000000002
sS'GLY-GLY'
p19
F0
sS'LEU-MET'
p20
F-0.68700000000000006
sS'GLU-HIS'
p21
F-1.6919999999999999
sS'GLY-THR'
p22
F0
sS'ARG-GLU'
p23
F-2.073
sS'PHE-ASN'
p24
F-0.81200000000000006
sS'ASN-MET'
p25
F-0.499
sS'PRO-THR'
p26
F-0.97099999999999997
sS'TYR-GLN'
p27
F-1.2889999999999999
sS'ARG-GLY'
p28
F0
sS'VAL-THR'
p29
F-0.49299999999999999
sS'ASP-ILE'
p30
F-0.22700000000000001
sS'GLY-ILE'
p31
F0
sS'TYR-GLU'
p32
F-1.367
sS'ARG-GLN'
p33
F-1.7110000000000001
sS'TYR-GLY'
p34
F0
sS'PHE-ASP'
p35
F-0.56899999999999995
sS'CYS-ARG'
p36
F-0.57499999999999996
sS'HIS-ARG'
p37
F-1.3400000000000001
sS'VAL-LYS'
p38
F-0.125
sS'LEU-ILE'
p39
F-0.86099999999999999
sS'GLN-LEU'
p40
F-0.80700000000000005
sS'GLU-MET'
p41
F-0.47299999999999998
sS'ASP-THR'
p42
F-0.85099999999999998
sS'ASN-PHE'
p43
F-0.84499999999999997
sS'GLU-PRO'
p44
F-1.1060000000000001
sS'LYS-ARG'
p45
F-1.2050000000000001
sS'GLY-ASP'
p46
F0
sS'PRO-GLN'
p47
F-1.3879999999999999
sS'CYS-MET'
p48
F-0.153
sS'GLU-THR'
p49
F-1.095
sS'ILE-THR'
p50
F-0.48799999999999999
sS'PHE-GLY'
p51
F0
sS'SER-PRO'
p52
F-0.91300000000000003
sS'GLY-CYS'
p53
F0
sS'ARG-LEU'
p54
F-1.02
sS'PRO-GLU'
p55
F-1.034
sS'ASP-LEU'
p56
F-0.41899999999999998
sS'PHE-VAL'
p57
F-0.82599999999999996
sS'ASN-VAL'
p58
F-0.57999999999999996
sS'PRO-VAL'
p59
F-0.501
sS'ALA-MET'
p60
F-0.27600000000000002
sS'LEU-PRO'
p61
F-0.69999999999999996
sS'LEU-SER'
p62
F-0.46200000000000002
sS'ASN-ARG'
p63
F-1.651
sS'SER-THR'
p64
F-0.68300000000000005
sS'LYS-VAL'
p65
F-0.26200000000000001
sS'LYS-PRO'
p66
F-0.83799999999999997
sS'GLN-VAL'
p67
F-0.58699999999999997
sS'TYR-PHE'
p68
F-1.1539999999999999
sS'ASP-VAL'
p69
F-0.16600000000000001
sS'ASN-GLY'
p70
F0
sS'ARG-PHE'
p71
F-1.159
sS'HIS-TRP'
p72
F-0.86499999999999999
sS'LYS-GLN'
p73
F-1.403
sS'ASN-GLU'
p74
F-1.45
sS'CYS-GLN'
p75
F-0.186
sS'TYR-PRO'
p76
F-1.5289999999999999
sS'ARG-ILE'
p77
F-0.84799999999999998
sS'CYS-GLU'
p78
F0.35699999999999998
sS'ASN-GLN'
p79
F-1.667
sS'CYS-GLY'
p80
F0
sS'GLN-SER'
p81
F-1.2789999999999999
sS'HIS-LYS'
p82
F-1.0309999999999999
sS'LEU-LYS'
p83
F-0.32000000000000001
sS'LYS-GLY'
p84
F0
sS'VAL-MET'
p85
F-0.379
sS'ALA-ALA'
p86
F-0.98099999999999998
sS'THR-SER'
p87
F-0.72499999999999998
sS'PRO-PRO'
p88
F-1.681
sS'ILE-PHE'
p89
F-1.145
sS'PHE-LEU'
p90
F-1.145
sS'GLU-GLU'
p91
F-1.704
sS'TYR-ASP'
p92
F-1.222
sS'GLY-ALA'
p93
F0
sS'TYR-ASN'
p94
F-1.363
sS'GLU-GLN'
p95
F-1.3009999999999999
sS'TRP-ARG'
p96
F-1.4139999999999999
sS'LEU-GLU'
p97
F-0.42399999999999999
sS'LEU-GLY'
p98
F0
sS'LYS-SER'
p99
F-1.0289999999999999
sS'MET-VAL'
p100
F-0.38400000000000001
sS'SER-ALA'
p101
F-0.56399999999999995
sS'PRO-HIS'
p102
F-1.163
sS'MET-THR'
p103
F-0.60899999999999999
sS'ALA-PHE'
p104
F-0.77300000000000002
sS'MET-PRO'
p105
F-0.54200000000000004
sS'GLY-SER'
p106
F0
sS'LEU-GLN'
p107
F-0.84099999999999997
sS'VAL-LEU'
p108
F-0.70499999999999996
sS'LEU-CYS'
p109
F0.063
sS'LYS-TYR'
p110
F-1.1799999999999999
sS'ASP-ALA'
p111
F-0.35099999999999998
sS'ILE-LEU'
p112
F-0.91800000000000004
sS'TRP-VAL'
p113
F-0.63800000000000001
sS'PHE-PRO'
p114
F-1.1399999999999999
sS'GLU-GLY'
p115
F0
sS'ARG-TRP'
p116
F-1.528
sS'MET-GLN'
p117
F-0.85799999999999998
sS'HIS-PHE'
p118
F-0.77600000000000002
sS'MET-ARG'
p119
F-0.80200000000000005
sS'TYR-THR'
p120
F-1.008
sS'SER-ARG'
p121
F-1.4139999999999999
sS'THR-ARG'
p122
F-1.345
sS'CYS-ILE'
p123
F-0.052999999999999999
sS'LEU-ASN'
p124
F-0.65900000000000003
sS'LEU-ASP'
p125
F-0.36399999999999999
sS'PHE-TRP'
p126
F-1.083
sS'MET-GLY'
p127
F0
sS'THR-PHE'
p128
F-0.85099999999999998
sS'MET-GLU'
p129
F-0.40100000000000002
sS'THR-TRP'
p130
F-0.747
sS'THR-TYR'
p131
F-1.079
sS'CYS-VAL'
p132
F0.106
sS'ARG-ALA'
p133
F-0.93100000000000005
sS'ALA-TYR'
p134
F-0.96299999999999997
sS'ASP-PRO'
p135
F-0.94099999999999995
sS'ARG-CYS'
p136
F-0.53500000000000003
sS'GLN-ARG'
p137
F-1.6399999999999999
sS'SER-HIS'
p138
F-1.006
sS'PRO-SER'
p139
F-0.91300000000000003
sS'VAL-VAL'
p140
F-1.117
sS'GLN-TRP'
p141
F-1.173
sS'GLY-LYS'
p142
F0
sS'CYS-ASN'
p143
F-0.34599999999999997
sS'GLY-TRP'
p144
F0
sS'THR-CYS'
p145
F-0.192
sS'LYS-LYS'
p146
F-1.3959999999999999
sS'CYS-ASP'
p147
F0.26000000000000001
sS'VAL-PRO'
p148
F-0.56899999999999995
sS'THR-VAL'
p149
F-0.41299999999999998
sS'ASP-TYR'
p150
F-1.325
sS'PRO-CYS'
p151
F-0.32200000000000001
sS'VAL-SER'
p152
F-0.34699999999999998
sS'ARG-HIS'
p153
F-1.5069999999999999
sS'CYS-PRO'
p154
F-0.36599999999999999
sS'MET-LYS'
p155
F-0.64600000000000002
sS'ALA-SER'
p156
F-0.36099999999999999
sS'TYR-SER'
p157
F-1.157
sS'GLY-ARG'
p158
F0
sS'GLN-ALA'
p159
F-0.74199999999999999
sS'MET-LEU'
p160
F-0.749
sS'ASN-HIS'
p161
F-1.234
sS'VAL-CYS'
p162
F0.246
sS'GLN-TYR'
p163
F-1.4199999999999999
sS'MET-SER'
p164
F-0.41399999999999998
sS'ALA-TRP'
p165
F-0.877
sS'GLU-ASN'
p166
F-1.411
sS'CYS-ALA'
p167
F0.222
sS'GLY-ASN'
p168
F0
sS'ASN-ASP'
p169
F-1.2270000000000001
sS'ASN-PRO'
p170
F-1.1240000000000001
sS'PRO-ARG'
p171
F-1.462
sS'LYS-TRP'
p172
F-0.92300000000000004
sS'ASN-ASN'
p173
F-2.2959999999999998
sS'THR-ALA'
p174
F-0.52100000000000002
sS'LYS-ALA'
p175
F-0.39100000000000001
sS'SER-GLN'
p176
F-1.2070000000000001
sS'ILE-VAL'
p177
F-0.57599999999999996
sS'ASP-ARG'
p178
F-2.0299999999999998
sS'ASP-MET'
p179
F-0.245
sS'CYS-TYR'
p180
F-0.033000000000000002
sS'PRO-TRP'
p181
F-1.2230000000000001
sS'ILE-LYS'
p182
F-0.253
sS'TRP-ALA'
p183
F-1.0149999999999999
sS'ILE-CYS'
p184
F0.14099999999999999
sS'LYS-ILE'
p185
F-0.41499999999999998
sS'GLN-CYS'
p186
F0.17499999999999999
sS'ARG-ASP'
p187
F-2.073
sS'SER-GLU'
p188
F-1.1799999999999999
sS'TRP-HIS'
p189
F-1.0669999999999999
sS'ALA-ASN'
p190
F-0.65400000000000003
sS'GLU-CYS'
p191
F0.374
sS'ALA-CYS'
p192
F0.25
sS'PRO-MET'
p193
F-0.48499999999999999
sS'TYR-HIS'
p194
F-1.4690000000000001
sS'PHE-MET'
p195
F-1.0589999999999999
sS'GLU-TYR'
p196
F-1.4330000000000001
sS'SER-TRP'
p197
F-0.95599999999999996
sS'PHE-ARG'
p198
F-1.0389999999999999
sS'THR-HIS'
p199
F-0.96699999999999997
sS'TYR-VAL'
p200
F-0.88100000000000001
sS'SER-ILE'
p201
F-0.33400000000000002
sS'GLN-PRO'
p202
F-1.3029999999999999
sS'ALA-VAL'
p203
F-0.30599999999999999
sS'HIS-HIS'
p204
F-2.7519999999999998
sS'THR-ASN'
p205
F-1.127
sS'CYS-LEU'
p206
F0.16300000000000001
sS'LYS-MET'
p207
F-0.434
sS'LYS-ASP'
p208
F-1.6399999999999999
sS'HIS-ASN'
p209
F-1.3069999999999999
sS'ILE-GLN'
p210
F-0.78500000000000003
sS'VAL-HIS'
p211
F-0.48899999999999999
sS'ALA-LEU'
p212
F-0.622
sS'HIS-ASP'
p213
F-1.4079999999999999
sS'ILE-TYR'
p214
F-1.0860000000000001
sS'ILE-GLU'
p215
F-0.46000000000000002
sS'ASP-ASP'
p216
F-1.5249999999999999
sS'ILE-GLY'
p217
F0
sS'ASN-CYS'
p218
F-0.32300000000000001
sS'GLU-SER'
p219
F-1.1990000000000001
sS'ILE-ASN'
p220
F-0.53700000000000003
sS'HIS-CYS'
p221
F-0.23400000000000001
sS'HIS-MET'
p222
F-0.28799999999999998
sS'ILE-PRO'
p223
F-0.69699999999999995
sS'LYS-PHE'
p224
F-0.51400000000000001
sS'GLY-PHE'
p225
F0
sS'ILE-ASP'
p226
F-0.223
sS'PHE-HIS'
p227
F-0.72499999999999998
sS'GLY-TYR'
p228
F0
sS'SER-GLY'
p229
F0
sS'CYS-TRP'
p230
F0.41599999999999998
sS'ASP-LYS'
p231
F-1.6279999999999999
sS'ASN-ILE'
p232
F-0.65300000000000002
sS'HIS-SER'
p233
F-1.054
sS'LYS-CYS'
p234
F0.28699999999999998
sS'TRP-PRO'
p235
F-1.071
sS'ASN-THR'
p236
F-1.1180000000000001
sS'GLN-PHE'
p237
F-0.94399999999999995
sS'VAL-ALA'
p238
F-0.27000000000000002
sS'SER-LEU'
p239
F-0.48399999999999999
sS'TRP-LYS'
p240
F-0.89800000000000002
sS'VAL-TYR'
p241
F-0.80400000000000005
sS'VAL-PHE'
p242
F-0.77700000000000002
sS'ARG-THR'
p243
F-1.3089999999999999
sS'TYR-TRP'
p244
F-1.0660000000000001
sS'GLN-GLN'
p245
F-2.3420000000000001
sS'GLU-PHE'
p246
F-0.69899999999999995
sS'VAL-ILE'
p247
F-0.70899999999999996
sS'HIS-GLN'
p248
F-1.232
sS'GLN-GLY'
p249
F0
sS'PHE-ALA'
p250
F-0.79500000000000004
sS'HIS-GLU'
p251
F-1.573
sS'ARG-PRO'
p252
F-1.379
sS'HIS-GLY'
p253
F0
sS'SER-ASN'
p254
F-1.1870000000000001
sS'ALA-THR'
p255
F-0.51200000000000001
sS'GLN-GLU'
p256
F-1.244
sS'GLN-LYS'
p257
F-1.3280000000000001
sS'CYS-HIS'
p258
F-0.41299999999999998
sS'GLN-ASP'
p259
F-1.298
sS'LEU-HIS'
p260
F-0.81599999999999995
sS'SER-LYS'
p261
F-1.0189999999999999
sS'TRP-LEU'
p262
F-1.2050000000000001
sS'CYS-SER'
p263
F-0.40699999999999997
sS'LYS-THR'
p264
F-0.71999999999999997
sS'HIS-LEU'
p265
F-0.71699999999999997
sS'LEU-ARG'
p266
F-0.96699999999999997
sS'GLY-VAL'
p267
F0
sS'GLN-ASN'
p268
F-1.54
sS'TYR-ARG'
p269
F-1.4910000000000001
sS'PRO-TYR'
p270
F-1.5740000000000001
sS'ASP-PHE'
p271
F-0.46200000000000002
sS'ARG-VAL'
p272
F-0.80500000000000005
sS'ASN-LEU'
p273
F-0.64200000000000002
sS'SER-MET'
p274
F-0.312
sS'HIS-ILE'
p275
F-0.66300000000000003
sS'GLY-LEU'
p276
F0
sS'SER-TYR'
p277
F-1.1479999999999999
sS'MET-TYR'
p278
F-1.153
sS'GLU-ILE'
p279
F-0.53300000000000003
sS'PHE-CYS'
p280
F-0.54800000000000004
sS'PRO-LEU'
p281
F-0.67900000000000005
sS'GLY-MET'
p282
F0
sS'HIS-THR'
p283
F-0.94699999999999995
sS'THR-GLN'
p284
F-1.2989999999999999
sS'TRP-THR'
p285
F-0.90400000000000003
sS'LYS-LEU'
p286
F-0.28599999999999998
sS'THR-GLY'
p287
F0
sS'ALA-LYS'
p288
F-0.41099999999999998
sS'ASP-TRP'
p289
F-0.67800000000000005
sS'TYR-MET'
p290
F-1.0840000000000001
sS'PHE-ILE'
p291
F-1.111
sS'THR-GLU'
p292
F-1.0580000000000001
sS'MET-ASN'
p293
F-0.73499999999999999
sS'LEU-TYR'
p294
F-1.0629999999999999
sS'PHE-PHE'
p295
F-2.0840000000000001
sS'CYS-PHE'
p296
F-0.40899999999999997
sS'TRP-ILE'
p297
F-0.89900000000000002
sS'PRO-ASN'
p298
F-1.1060000000000001
sS'CYS-CYS'
p299
F-3.4220000000000002
sS'SER-ASP'
p300
F-1.071
sS'ARG-MET'
p301
F-0.93200000000000005
sS'SER-PHE'
p302
F-0.67500000000000004
sS'SER-SER'
p303
F-1.4690000000000001
sS'ASN-LYS'
p304
F-1.329
sS'CYS-THR'
p305
F0.051999999999999998
sS'ILE-TRP'
p306
F-0.82099999999999995
sS'PRO-ASP'
p307
F-0.97699999999999998
sS'THR-ASP'
p308
F-0.81200000000000006
sS'SER-CYS'
p309
F0.24299999999999999
sS'MET-ASP'
p310
F-0.30199999999999999
sS'GLN-MET'
p311
F-0.752
sS'MET-TRP'
p312
F-0.86499999999999999
sS'TRP-CYS'
p313
F0.30599999999999999
sS'GLY-GLN'
p314
F0
sS'THR-LYS'
p315
F-0.74399999999999999
sS'TRP-MET'
p316
F-0.80700000000000005
sS'ARG-ARG'
p317
F-2.3370000000000002
sS'ALA-ARG'
p318
F-0.91200000000000003
sS'PRO-PHE'
p319
F-1.0860000000000001
sS'ASN-TRP'
p320
F-0.96099999999999997
sS'GLU-ARG'
p321
F-2.0430000000000001
sS'HIS-VAL'
p322
F-0.624
sS'VAL-ARG'
p323
F-0.77700000000000002
sS'TRP-GLU'
p324
F-0.95699999999999996
sS'PHE-TYR'
p325
F-1.218
sS'VAL-GLN'
p326
F-0.68799999999999994
sS'TRP-ASN'
p327
F-1.2629999999999999
sS'TYR-ILE'
p328
F-1.1000000000000001
sS'TRP-GLY'
p329
F0
sS'GLY-GLU'
p330
F0
sS'GLY-HIS'
p331
F0
sS'PHE-SER'
p332
F-0.72499999999999998
sS'TRP-ASP'
p333
F-0.747
sS'TRP-GLN'
p334
F-1.3009999999999999
sS'LEU-ALA'
p335
F-0.58099999999999996
sS'VAL-GLU'
p336
F-0.47499999999999998
sS'ALA-HIS'
p337
F-0.90400000000000003
sS'TYR-ALA'
p338
F-0.92200000000000004
sS'LEU-THR'
p339
F-0.46600000000000003
sS'TYR-CYS'
p340
F-0.062
sS'THR-THR'
p341
F-1.571
sS'THR-LEU'
p342
F-0.55300000000000005
sS'VAL-ASN'
p343
F-0.5
sS'LEU-TRP'
p344
F-1.171
sS'GLU-ASP'
p345
F-1.0289999999999999
sS'ILE-SER'
p346
F-0.39200000000000002
sS'ILE-ARG'
p347
F-0.85899999999999999
sS'ASN-SER'
p348
F-1.2430000000000001
sS'ILE-MET'
p349
F-0.46899999999999997
sS'MET-PHE'
p350
F-1.05
sS'PRO-ALA'
p351
F-0.82299999999999995
sS'PRO-GLY'
p352
F0
sS'GLN-THR'
p353
F-1.1659999999999999
sS'MET-ALA'
p354
F-0.184
sS'TRP-SER'
p355
F-0.86699999999999999
sS'ASP-HIS'
p356
F-1.359
sS'ARG-SER'
p357
F-1.4490000000000001
sS'GLN-HIS'
p358
F-1.3320000000000001
sS'LEU-LEU'
p359
F-1.504
sS'ALA-GLN'
p360
F-0.81999999999999995
sS'ASP-ASN'
p361
F-1.2130000000000001
sS'SER-VAL'
p362
F-0.28000000000000003
sS'MET-ILE'
p363
F-0.53900000000000003
sS'ALA-PRO'
p364
F-0.60499999999999998
sS'ALA-ILE'
p365
F-0.40300000000000002
sS'ALA-GLY'
p366
F0
sS'TRP-TRP'
p367
F-2.5070000000000001
sS'MET-CYS'
p368
F0.24299999999999999
sS'ALA-GLU'
p369
F-0.55200000000000005
sS'THR-PRO'
p370
F-0.996
sS'HIS-ALA'
p371
F-0.51700000000000002
sS'GLN-ILE'
p372
F-0.82099999999999995
sS'GLU-VAL'
p373
F-0.46600000000000003
sS'LYS-ASN'
p374
F-1.254
sS'ASN-ALA'
p375
F-0.68400000000000005
sS'GLU-TRP'
p376
F-0.998
sS'THR-ILE'
p377
F-0.55100000000000005
sS'ASP-CYS'
p378
F0.432
sS'PRO-LYS'
p379
F-0.83999999999999997
sS'TYR-TYR'
p380
F-2.177
sS'ARG-LYS'
p381
F-1.2310000000000001
sS'ILE-ALA'
p382
F-0.38300000000000001
sS'ASP-SER'
p383
F-1.036
sS'CYS-LYS'
p384
F0.095000000000000001
sS'ARG-ASN'
p385
F-1.7130000000000001
sS'GLU-ALA'
p386
F-0.58599999999999997
sS'PHE-GLU'
p387
F-0.65100000000000002
sS'GLU-LEU'
p388
F-0.52700000000000002
sS'ASN-TYR'
p389
F-1.3100000000000001
sS'LYS-HIS'
p390
F-1.081
sS'HIS-PRO'
p391
F-1.0609999999999999
sS'ILE-ILE'
p392
F-1.4530000000000001
sS'MET-HIS'
p393
F-0.54700000000000004
sS'VAL-GLY'
p394
F0
sS'THR-MET'
p395
F-0.59999999999999998
sS'PHE-THR'
p396
F-0.88300000000000001
sS'VAL-TRP'
p397
F-0.77900000000000003
sS'PHE-LYS'
p398
F-0.51500000000000001
sS'GLY-PRO'
p399
F0
sS'PHE-GLN'
p400
F-0.94399999999999995
sS'LEU-PHE'
p401
F-1.1459999999999999
s.