(dp1
S'MET-MET'
p2
F0.16500000000000001
sS'PRO-ILE'
p3
F1.9950000000000001
sS'TYR-LYS'
p4
F2.3250000000000002
sS'VAL-ASP'
p5
F2.4340000000000002
sS'ASP-GLN'
p6
F1.7809999999999999
sS'HIS-TYR'
p7
F2.2970000000000002
sS'ASP-GLU'
p8
F1.923
sS'ALA-ASP'
p9
F1.4199999999999999
sS'ASP-GLY'
p10
F0
sS'LEU-VAL'
p11
F1.9850000000000001
sS'TRP-TYR'
p12
F2.992
sS'TYR-LEU'
p13
F2.4079999999999999
sS'LYS-GLU'
p14
F1.2989999999999999
sS'TRP-PHE'
p15
F2.8809999999999998
sS'ARG-TYR'
p16
F2.2280000000000002
sS'GLU-LYS'
p17
F1.3200000000000001
sS'ILE-HIS'
p18
F2.3660000000000001
sS'GLY-GLY'
p19
F0
sS'LEU-MET'
p20
F2.0609999999999999
sS'GLU-HIS'
p21
F1.7390000000000001
sS'GLY-THR'
p22
F0
sS'ARG-GLU'
p23
F1.4810000000000001
sS'PHE-ASN'
p24
F2.5880000000000001
sS'ASN-MET'
p25
F2.3650000000000002
sS'PRO-THR'
p26
F1.3460000000000001
sS'TYR-GLN'
p27
F2.2570000000000001
sS'ARG-GLY'
p28
F0
sS'VAL-THR'
p29
F1.9099999999999999
sS'ASP-ILE'
p30
F2.5499999999999998
sS'GLY-ILE'
p31
F0
sS'TYR-GLU'
p32
F2.2599999999999998
sS'ARG-GLN'
p33
F1.746
sS'TYR-GLY'
p34
F0
sS'PHE-ASP'
p35
F2.6440000000000001
sS'CYS-ARG'
p36
F2.1520000000000001
sS'HIS-ARG'
p37
F2.1400000000000001
sS'VAL-LYS'
p38
F2.52
sS'LEU-ILE'
p39
F1.994
sS'GLN-LEU'
p40
F2.2509999999999999
sS'GLU-MET'
p41
F2.492
sS'ASP-THR'
p42
F1.778
sS'ASN-PHE'
p43
F2.5339999999999998
sS'GLU-PRO'
p44
F1.708
sS'LYS-ARG'
p45
F1.952
sS'GLY-ASP'
p46
F0
sS'PRO-GLN'
p47
F1.3759999999999999
sS'CYS-MET'
p48
F2.177
sS'GLU-THR'
p49
F1.7430000000000001
sS'ILE-THR'
p50
F2.0640000000000001
sS'PHE-GLY'
p51
F0
sS'SER-PRO'
p52
F1.1870000000000001
sS'GLY-CYS'
p53
F0
sS'ARG-LEU'
p54
F2.2000000000000002
sS'PRO-GLU'
p55
F1.7250000000000001
sS'ASP-LEU'
p56
F2.4300000000000002
sS'PHE-VAL'
p57
F2.2810000000000001
sS'ASN-VAL'
p58
F1.946
sS'PRO-VAL'
p59
F1.806
sS'ALA-MET'
p60
F1.5149999999999999
sS'LEU-PRO'
p61
F1.9379999999999999
sS'LEU-SER'
p62
F1.849
sS'ASN-ARG'
p63
F1.641
sS'SER-THR'
p64
F1.45
sS'LYS-VAL'
p65
F2.3620000000000001
sS'LYS-PRO'
p66
F1.8069999999999999
sS'GLN-VAL'
p67
F2.1800000000000002
sS'TYR-PHE'
p68
F2.6429999999999998
sS'ASP-VAL'
p69
F2.4460000000000002
sS'ASN-GLY'
p70
F0
sS'ARG-PHE'
p71
F2.5640000000000001
sS'HIS-TRP'
p72
F3.0870000000000002
sS'LYS-GLN'
p73
F1.6990000000000001
sS'ASN-GLU'
p74
F1.597
sS'CYS-GLN'
p75
F2.0819999999999999
sS'TYR-PRO'
p76
F1.8029999999999999
sS'ARG-ILE'
p77
F2.3479999999999999
sS'CYS-GLU'
p78
F2.7559999999999998
sS'ASN-GLN'
p79
F1.409
sS'CYS-GLY'
p80
F0
sS'GLN-SER'
p81
F1.2490000000000001
sS'HIS-LYS'
p82
F2.1629999999999998
sS'LEU-LYS'
p83
F2.577
sS'LYS-GLY'
p84
F0
sS'VAL-MET'
p85
F2.2200000000000002
sS'ALA-ALA'
p86
F-1.0669999999999999
sS'THR-SER'
p87
F1.4039999999999999
sS'PRO-PRO'
p88
F0.105
sS'ILE-PHE'
p89
F2.2189999999999999
sS'PHE-LEU'
p90
F2.1859999999999999
sS'GLU-GLU'
p91
F0.88500000000000001
sS'TYR-ASP'
p92
F2.1739999999999999
sS'GLY-ALA'
p93
F0
sS'TYR-ASN'
p94
F2.016
sS'GLU-GLN'
p95
F1.8919999999999999
sS'TRP-ARG'
p96
F2.5630000000000002
sS'LEU-GLU'
p97
F2.5539999999999998
sS'LEU-GLY'
p98
F0
sS'LYS-SER'
p99
F1.355
sS'MET-VAL'
p100
F2.3149999999999999
sS'SER-ALA'
p101
F0.67400000000000004
sS'PRO-HIS'
p102
F1.8280000000000001
sS'MET-THR'
p103
F1.9510000000000001
sS'ALA-PHE'
p104
F1.639
sS'MET-PRO'
p105
F2.0859999999999999
sS'GLY-SER'
p106
F0
sS'LEU-GLN'
p107
F2.1760000000000002
sS'VAL-LEU'
p108
F1.911
sS'LEU-CYS'
p109
F2.3479999999999999
sS'LYS-TYR'
p110
F2.21
sS'ASP-ALA'
p111
F1.4790000000000001
sS'ILE-LEU'
p112
F1.9359999999999999
sS'TRP-VAL'
p113
F2.718
sS'PHE-PRO'
p114
F1.9730000000000001
sS'GLU-GLY'
p115
F0
sS'ARG-TRP'
p116
F2.444
sS'MET-GLN'
p117
F2.024
sS'HIS-PHE'
p118
F2.8039999999999998
sS'MET-ARG'
p119
F2.3889999999999998
sS'TYR-THR'
p120
F2.1659999999999999
sS'SER-ARG'
p121
F1.351
sS'THR-ARG'
p122
F1.8200000000000001
sS'CYS-ILE'
p123
F2.1699999999999999
sS'LEU-ASN'
p124
F2.1600000000000001
sS'LEU-ASP'
p125
F2.4129999999999998
sS'PHE-TRP'
p126
F2.9529999999999998
sS'MET-GLY'
p127
F0
sS'THR-PHE'
p128
F2.1800000000000002
sS'MET-GLU'
p129
F2.581
sS'THR-TRP'
p130
F2.5950000000000002
sS'THR-TYR'
p131
F2.073
sS'CYS-VAL'
p132
F2.1459999999999999
sS'ARG-ALA'
p133
F1.3
sS'ALA-TYR'
p134
F1.5069999999999999
sS'ASP-PRO'
p135
F1.5960000000000001
sS'ARG-CYS'
p136
F2.0150000000000001
sS'GLN-ARG'
p137
F1.75
sS'SER-HIS'
p138
F1.6919999999999999
sS'PRO-SER'
p139
F1.1990000000000001
sS'VAL-VAL'
p140
F0.72199999999999998
sS'GLN-TRP'
p141
F2.6280000000000001
sS'GLY-LYS'
p142
F0
sS'CYS-ASN'
p143
F1.865
sS'GLY-TRP'
p144
F0
sS'THR-CYS'
p145
F1.802
sS'LYS-LYS'
p146
F0.752
sS'CYS-ASP'
p147
F2.5840000000000001
sS'VAL-PRO'
p148
F1.8069999999999999
sS'THR-VAL'
p149
F1.8759999999999999
sS'ASP-TYR'
p150
F2.0649999999999999
sS'PRO-CYS'
p151
F1.823
sS'VAL-SER'
p152
F1.7250000000000001
sS'ARG-HIS'
p153
F2.1080000000000001
sS'CYS-PRO'
p154
F1.613
sS'MET-LYS'
p155
F2.2719999999999998
sS'ALA-SER'
p156
F0.88300000000000001
sS'TYR-SER'
p157
F1.8049999999999999
sS'GLY-ARG'
p158
F0
sS'GLN-ALA'
p159
F1.3169999999999999
sS'MET-LEU'
p160
F2.0110000000000001
sS'ASN-HIS'
p161
F2.0190000000000001
sS'VAL-CYS'
p162
F2.3250000000000002
sS'GLN-TYR'
p163
F2.1230000000000002
sS'MET-SER'
p164
F1.7749999999999999
sS'ALA-TRP'
p165
F1.6990000000000001
sS'GLU-ASN'
p166
F1.595
sS'CYS-ALA'
p167
F1.425
sS'GLY-ASN'
p168
F0
sS'ASN-ASP'
p169
F1.6040000000000001
sS'ASN-PRO'
p170
F1.5409999999999999
sS'PRO-ARG'
p171
F1.524
sS'LYS-TRP'
p172
F2.8570000000000002
sS'ASN-ASN'
p173
F-0.0030000000000000001
sS'THR-ALA'
p174
F1.071
sS'LYS-ALA'
p175
F1.597
sS'SER-GLN'
p176
F1.3700000000000001
sS'ILE-VAL'
p177
F1.9910000000000001
sS'ASP-ARG'
p178
F1.3839999999999999
sS'ASP-MET'
p179
F2.5259999999999998
sS'CYS-TYR'
p180
F2.8149999999999999
sS'PRO-TRP'
p181
F2.242
sS'ILE-LYS'
p182
F2.6030000000000002
sS'TRP-ALA'
p183
F1.653
sS'ILE-CYS'
p184
F2.419
sS'LYS-ILE'
p185
F2.573
sS'GLN-CYS'
p186
F2.4649999999999999
sS'ARG-ASP'
p187
F1.252
sS'SER-GLU'
p188
F1.395
sS'TRP-HIS'
p189
F2.806
sS'ALA-ASN'
p190
F1.175
sS'GLU-CYS'
p191
F2.7549999999999999
sS'ALA-CYS'
p192
F1.4990000000000001
sS'PRO-MET'
p193
F2.125
sS'TYR-HIS'
p194
F2.3149999999999999
sS'PHE-MET'
p195
F2.2890000000000001
sS'GLU-TYR'
p196
F2.1549999999999998
sS'SER-TRP'
p197
F2.1459999999999999
sS'PHE-ARG'
p198
F2.6600000000000001
sS'THR-HIS'
p199
F1.964
sS'TYR-VAL'
p200
F2.339
sS'SER-ILE'
p201
F2.0139999999999998
sS'GLN-PRO'
p202
F1.4319999999999999
sS'ALA-VAL'
p203
F1.2749999999999999
sS'HIS-HIS'
p204
F0.31
sS'THR-ASN'
p205
F1.5469999999999999
sS'CYS-LEU'
p206
F2.395
sS'LYS-MET'
p207
F2.472
sS'LYS-ASP'
p208
F1.351
sS'HIS-ASN'
p209
F1.899
sS'ILE-GLN'
p210
F2.2370000000000001
sS'VAL-HIS'
p211
F2.4910000000000001
sS'ALA-LEU'
p212
F1.242
sS'HIS-ASP'
p213
F1.8899999999999999
sS'ILE-TYR'
p214
F2.4100000000000001
sS'ILE-GLU'
p215
F2.4649999999999999
sS'ASP-ASP'
p216
F0.68300000000000005
sS'ILE-GLY'
p217
F0
sS'ASN-CYS'
p218
F1.8799999999999999
sS'GLU-SER'
p219
F1.4510000000000001
sS'ILE-ASN'
p220
F2.2850000000000001
sS'HIS-CYS'
p221
F2.5539999999999998
sS'HIS-MET'
p222
F2.855
sS'ILE-PRO'
p223
F1.849
sS'LYS-PHE'
p224
F2.8660000000000001
sS'GLY-PHE'
p225
F0
sS'ILE-ASP'
p226
F2.5049999999999999
sS'PHE-HIS'
p227
F2.972
sS'GLY-TYR'
p228
F0
sS'SER-GLY'
p229
F0
sS'CYS-TRP'
p230
F3.48
sS'ASP-LYS'
p231
F1.3819999999999999
sS'ASN-ILE'
p232
F2.1579999999999999
sS'HIS-SER'
p233
F1.621
sS'LYS-CYS'
p234
F2.552
sS'TRP-PRO'
p235
F2.4220000000000002
sS'ASN-THR'
p236
F1.5469999999999999
sS'GLN-PHE'
p237
F2.508
sS'VAL-ALA'
p238
F1.3109999999999999
sS'SER-LEU'
p239
F1.825
sS'TRP-LYS'
p240
F2.8799999999999999
sS'VAL-TYR'
p241
F2.3799999999999999
sS'VAL-PHE'
p242
F2.3820000000000001
sS'ARG-THR'
p243
F1.8240000000000001
sS'TYR-TRP'
p244
F3.0019999999999998
sS'GLN-GLN'
p245
F0.312
sS'GLU-PHE'
p246
F2.7360000000000002
sS'VAL-ILE'
p247
F1.8959999999999999
sS'HIS-GLN'
p248
F2.1309999999999998
sS'GLN-GLY'
p249
F0
sS'PHE-ALA'
p250
F1.571
sS'HIS-GLU'
p251
F1.8380000000000001
sS'ARG-PRO'
p252
F1.526
sS'HIS-GLY'
p253
F0
sS'SER-ASN'
p254
F1.171
sS'ALA-THR'
p255
F1.071
sS'GLN-GLU'
p256
F1.883
sS'GLN-LYS'
p257
F1.6859999999999999
sS'CYS-HIS'
p258
F2.1970000000000001
sS'GLN-ASP'
p259
F1.653
sS'LEU-HIS'
p260
F2.298
sS'SER-LYS'
p261
F1.399
sS'TRP-LEU'
p262
F2.4729999999999999
sS'CYS-SER'
p263
F1.319
sS'LYS-THR'
p264
F1.913
sS'HIS-LEU'
p265
F2.4500000000000002
sS'LEU-ARG'
p266
F2.2839999999999998
sS'GLY-VAL'
p267
F0
sS'GLN-ASN'
p268
F1.474
sS'TYR-ARG'
p269
F2.2989999999999999
sS'PRO-TYR'
p270
F1.6779999999999999
sS'ASP-PHE'
p271
F2.766
sS'ARG-VAL'
p272
F2.1579999999999999
sS'ASN-LEU'
p273
F2.2650000000000001
sS'SER-MET'
p274
F1.885
sS'HIS-ILE'
p275
F2.4510000000000001
sS'GLY-LEU'
p276
F0
sS'SER-TYR'
p277
F1.7350000000000001
sS'MET-TYR'
p278
F2.2480000000000002
sS'GLU-ILE'
p279
F2.4119999999999999
sS'PHE-CYS'
p280
F2.2250000000000001
sS'PRO-LEU'
p281
F1.958
sS'GLY-MET'
p282
F0
sS'HIS-THR'
p283
F2.0760000000000001
sS'THR-GLN'
p284
F1.5049999999999999
sS'TRP-THR'
p285
F2.399
sS'LYS-LEU'
p286
F2.6179999999999999
sS'THR-GLY'
p287
F0
sS'ALA-LYS'
p288
F1.492
sS'ASP-TRP'
p289
F2.8180000000000001
sS'TYR-MET'
p290
F2.5299999999999998
sS'PHE-ILE'
p291
F2.2109999999999999
sS'THR-GLU'
p292
F1.7150000000000001
sS'MET-ASN'
p293
F2.0800000000000001
sS'LEU-TYR'
p294
F2.4590000000000001
sS'PHE-PHE'
p295
F1.153
sS'CYS-PHE'
p296
F2.3940000000000001
sS'TRP-ILE'
p297
F2.6699999999999999
sS'PRO-ASN'
p298
F1.4690000000000001
sS'CYS-CYS'
p299
F-2.117
sS'SER-ASP'
p300
F1.3200000000000001
sS'ARG-MET'
p301
F2.2429999999999999
sS'SER-PHE'
p302
F2.1619999999999999
sS'SER-SER'
p303
F-0.32800000000000001
sS'ASN-LYS'
p304
F1.4650000000000001
sS'CYS-THR'
p305
F2.0790000000000002
sS'ILE-TRP'
p306
F2.859
sS'PRO-ASP'
p307
F1.5669999999999999
sS'THR-ASP'
p308
F1.8460000000000001
sS'SER-CYS'
p309
F1.919
sS'MET-ASP'
p310
F2.5369999999999999
sS'GLN-MET'
p311
F2.1949999999999998
sS'MET-TRP'
p312
F2.7949999999999999
sS'TRP-CYS'
p313
F3.2650000000000001
sS'GLY-GLN'
p314
F0
sS'THR-LYS'
p315
F1.9159999999999999
sS'TRP-MET'
p316
F2.8359999999999999
sS'ARG-ARG'
p317
F0.70299999999999996
sS'ALA-ARG'
p318
F1.393
sS'PRO-PHE'
p319
F2.0150000000000001
sS'ASN-TRP'
p320
F2.6749999999999998
sS'GLU-ARG'
p321
F1.393
sS'HIS-VAL'
p322
F2.3639999999999999
sS'VAL-ARG'
p323
F2.1819999999999999
sS'TRP-GLU'
p324
F2.7250000000000001
sS'PHE-TYR'
p325
F2.6269999999999998
sS'VAL-GLN'
p326
F2.1059999999999999
sS'TRP-ASN'
p327
F2.3900000000000001
sS'TYR-ILE'
p328
F2.3180000000000001
sS'TRP-GLY'
p329
F0
sS'GLY-GLU'
p330
F0
sS'GLY-HIS'
p331
F0
sS'PHE-SER'
p332
F2.129
sS'TRP-ASP'
p333
F2.6680000000000001
sS'TRP-GLN'
p334
F2.4889999999999999
sS'LEU-ALA'
p335
F1.284
sS'VAL-GLU'
p336
F2.3439999999999999
sS'ALA-HIS'
p337
F1.2869999999999999
sS'TYR-ALA'
p338
F1.552
sS'LEU-THR'
p339
F2.0539999999999998
sS'TYR-CYS'
p340
F2.7919999999999998
sS'THR-THR'
p341
F0.252
sS'THR-LEU'
p342
F2.0070000000000001
sS'VAL-ASN'
p343
F2.0110000000000001
sS'LEU-TRP'
p344
F2.4420000000000002
sS'GLU-ASP'
p345
F1.8939999999999999
sS'ILE-SER'
p346
F1.8400000000000001
sS'ILE-ARG'
p347
F2.2909999999999999
sS'ASN-SER'
p348
F1.107
sS'ILE-MET'
p349
F2.3079999999999998
sS'MET-PHE'
p350
F2.3210000000000002
sS'PRO-ALA'
p351
F0.74199999999999999
sS'PRO-GLY'
p352
F0
sS'GLN-THR'
p353
F1.6060000000000001
sS'MET-ALA'
p354
F1.635
sS'TRP-SER'
p355
F2.3420000000000001
sS'ASP-HIS'
p356
F1.7949999999999999
sS'ARG-SER'
p357
F1.389
sS'GLN-HIS'
p358
F1.988
sS'LEU-LEU'
p359
F0.83499999999999996
sS'ALA-GLN'
p360
F1.238
sS'ASP-ASN'
p361
F1.635
sS'SER-VAL'
p362
F1.8140000000000001
sS'MET-ILE'
p363
F2.2589999999999999
sS'ALA-PRO'
p364
F0.96899999999999997
sS'ALA-ILE'
p365
F1.381
sS'ALA-GLY'
p366
F0
sS'TRP-TRP'
p367
F1.4079999999999999
sS'MET-CYS'
p368
F2.508
sS'ALA-GLU'
p369
F1.492
sS'THR-PRO'
p370
F1.3069999999999999
sS'HIS-ALA'
p371
F1.6859999999999999
sS'GLN-ILE'
p372
F2.1669999999999998
sS'GLU-VAL'
p373
F2.351
sS'LYS-ASN'
p374
F1.6930000000000001
sS'ASN-ALA'
p375
F1.141
sS'GLU-TRP'
p376
F2.786
sS'THR-ILE'
p377
F2.008
sS'ASP-CYS'
p378
F2.6110000000000002
sS'PRO-LYS'
p379
F1.8480000000000001
sS'TYR-TYR'
p380
F1.3049999999999999
sS'ARG-LYS'
p381
F1.921
sS'ILE-ALA'
p382
F1.486
sS'ASP-SER'
p383
F1.389
sS'CYS-LYS'
p384
F2.4359999999999999
sS'ARG-ASN'
p385
F1.5529999999999999
sS'GLU-ALA'
p386
F1.472
sS'PHE-GLU'
p387
F2.734
sS'GLU-LEU'
p388
F2.4540000000000002
sS'ASN-TYR'
p389
F2.0990000000000002
sS'LYS-HIS'
p390
F2.0939999999999999
sS'HIS-PRO'
p391
F1.8400000000000001
sS'ILE-ILE'
p392
F0.69699999999999995
sS'MET-HIS'
p393
F2.6379999999999999
sS'VAL-GLY'
p394
F0
sS'THR-MET'
p395
F1.913
sS'PHE-THR'
p396
F2.2000000000000002
sS'VAL-TRP'
p397
F2.5920000000000001
sS'PHE-LYS'
p398
F2.895
sS'GLY-PRO'
p399
F0
sS'PHE-GLN'
p400
F2.556
sS'LEU-PHE'
p401
F2.2040000000000002
s.