(dp1
S'MET-MET'
p2
F-2.0819999999999999
sS'PRO-ILE'
p3
F-0.58199999999999996
sS'TYR-LYS'
p4
F-1.077
sS'VAL-ASP'
p5
F-0.14599999999999999
sS'ASP-GLN'
p6
F-1.1850000000000001
sS'HIS-TYR'
p7
F-1.417
sS'ASP-GLU'
p8
F-0.95799999999999996
sS'ALA-ASP'
p9
F-0.505
sS'ASP-GLY'
p10
F0
sS'LEU-VAL'
p11
F-0.70399999999999996
sS'TRP-TYR'
p12
F-0.95599999999999996
sS'TYR-LEU'
p13
F-1.133
sS'LYS-GLU'
p14
F-1.804
sS'TRP-PHE'
p15
F-1.0669999999999999
sS'ARG-TYR'
p16
F-1.504
sS'GLU-LYS'
p17
F-1.7989999999999999
sS'ILE-HIS'
p18
F-0.68700000000000006
sS'GLY-GLY'
p19
F0
sS'LEU-MET'
p20
F-0.60499999999999998
sS'GLU-HIS'
p21
F-1.5980000000000001
sS'GLY-THR'
p22
F0
sS'ARG-GLU'
p23
F-2.048
sS'PHE-ASN'
p24
F-0.81599999999999995
sS'ASN-MET'
p25
F-0.38900000000000001
sS'PRO-THR'
p26
F-0.995
sS'TYR-GLN'
p27
F-1.2649999999999999
sS'ARG-GLY'
p28
F0
sS'VAL-THR'
p29
F-0.41899999999999998
sS'ASP-ILE'
p30
F-0.081000000000000003
sS'GLY-ILE'
p31
F0
sS'TYR-GLU'
p32
F-1.3260000000000001
sS'ARG-GLN'
p33
F-1.653
sS'TYR-GLY'
p34
F0
sS'PHE-ASP'
p35
F-0.51900000000000002
sS'CYS-ARG'
p36
F-0.623
sS'HIS-ARG'
p37
F-1.236
sS'VAL-LYS'
p38
F-0.12
sS'LEU-ILE'
p39
F-0.77100000000000002
sS'GLN-LEU'
p40
F-0.72299999999999998
sS'GLU-MET'
p41
F-0.35299999999999998
sS'ASP-THR'
p42
F-0.84999999999999998
sS'ASN-PHE'
p43
F-0.81599999999999995
sS'GLU-PRO'
p44
F-1.115
sS'LYS-ARG'
p45
F-1.0329999999999999
sS'GLY-ASP'
p46
F0
sS'PRO-GLN'
p47
F-1.4239999999999999
sS'CYS-MET'
p48
F-0.037999999999999999
sS'GLU-THR'
p49
F-1.0900000000000001
sS'ILE-THR'
p50
F-0.52100000000000002
sS'PHE-GLY'
p51
F0
sS'SER-PRO'
p52
F-0.98799999999999999
sS'GLY-CYS'
p53
F0
sS'ARG-LEU'
p54
F-0.92500000000000004
sS'PRO-GLU'
p55
F-1.042
sS'ASP-LEU'
p56
F-0.33100000000000002
sS'PHE-VAL'
p57
F-0.88
sS'ASN-VAL'
p58
F-0.53400000000000003
sS'PRO-VAL'
p59
F-0.53500000000000003
sS'ALA-MET'
p60
F-0.36899999999999999
sS'LEU-PRO'
p61
F-0.755
sS'LEU-SER'
p62
F-0.53000000000000003
sS'ASN-ARG'
p63
F-1.5980000000000001
sS'SER-THR'
p64
F-0.73399999999999999
sS'LYS-VAL'
p65
F-0.249
sS'LYS-PRO'
p66
F-0.85499999999999998
sS'GLN-VAL'
p67
F-0.61899999999999999
sS'TYR-PHE'
p68
F-1.0449999999999999
sS'ASP-VAL'
p69
F-0.182
sS'ASN-GLY'
p70
F0
sS'ARG-PHE'
p71
F-1.0680000000000001
sS'HIS-TRP'
p72
F-0.82899999999999996
sS'LYS-GLN'
p73
F-1.2949999999999999
sS'ASN-GLU'
p74
F-1.417
sS'CYS-GLN'
p75
F-0.155
sS'TYR-PRO'
p76
F-1.5660000000000001
sS'ARG-ILE'
p77
F-0.74099999999999999
sS'CYS-GLU'
p78
F0.38700000000000001
sS'ASN-GLN'
p79
F-1.629
sS'CYS-GLY'
p80
F0
sS'GLN-SER'
p81
F-1.3180000000000001
sS'HIS-LYS'
p82
F-0.88
sS'LEU-LYS'
p83
F-0.32100000000000001
sS'LYS-GLY'
p84
F0
sS'VAL-MET'
p85
F-0.28399999999999997
sS'ALA-ALA'
p86
F-1.115
sS'THR-SER'
p87
F-0.77300000000000002
sS'PRO-PRO'
p88
F-1.726
sS'ILE-PHE'
p89
F-1.0649999999999999
sS'PHE-LEU'
p90
F-1.0649999999999999
sS'GLU-GLU'
p91
F-1.649
sS'TYR-ASP'
p92
F-1.1200000000000001
sS'GLY-ALA'
p93
F0
sS'TYR-ASN'
p94
F-1.3540000000000001
sS'GLU-GLN'
p95
F-1.143
sS'TRP-ARG'
p96
F-1.355
sS'LEU-GLU'
p97
F-0.42799999999999999
sS'LEU-GLY'
p98
F0
sS'LYS-SER'
p99
F-1.056
sS'MET-VAL'
p100
F-0.27200000000000002
sS'SER-ALA'
p101
F-0.70299999999999996
sS'PRO-HIS'
p102
F-1.1839999999999999
sS'MET-THR'
p103
F-0.57199999999999995
sS'ALA-PHE'
p104
F-0.88300000000000001
sS'MET-PRO'
p105
F-0.51700000000000002
sS'GLY-SER'
p106
F0
sS'LEU-GLN'
p107
F-0.76500000000000001
sS'VAL-LEU'
p108
F-0.75
sS'LEU-CYS'
p109
F0.075999999999999998
sS'LYS-TYR'
p110
F-1.1539999999999999
sS'ASP-ALA'
p111
F-0.45100000000000001
sS'ILE-LEU'
p112
F-0.83199999999999996
sS'TRP-VAL'
p113
F-0.63100000000000001
sS'PHE-PRO'
p114
F-1.2090000000000001
sS'GLU-GLY'
p115
F0
sS'ARG-TRP'
p116
F-1.476
sS'MET-GLN'
p117
F-0.72099999999999997
sS'HIS-PHE'
p118
F-0.751
sS'MET-ARG'
p119
F-0.64100000000000001
sS'TYR-THR'
p120
F-0.99199999999999999
sS'SER-ARG'
p121
F-1.427
sS'THR-ARG'
p122
F-1.3109999999999999
sS'CYS-ILE'
p123
F-0.052999999999999999
sS'LEU-ASN'
p124
F-0.58099999999999996
sS'LEU-ASP'
p125
F-0.26300000000000001
sS'PHE-TRP'
p126
F-0.996
sS'MET-GLY'
p127
F0
sS'THR-PHE'
p128
F-0.85899999999999999
sS'MET-GLU'
p129
F-0.26600000000000001
sS'THR-TRP'
p130
F-0.66600000000000004
sS'THR-TYR'
p131
F-1.079
sS'CYS-VAL'
p132
F0.089999999999999997
sS'ARG-ALA'
p133
F-1.0269999999999999
sS'ALA-TYR'
p134
F-1.0700000000000001
sS'ASP-PRO'
p135
F-0.95199999999999996
sS'ARG-CYS'
p136
F-0.56499999999999995
sS'GLN-ARG'
p137
F-1.5740000000000001
sS'SER-HIS'
p138
F-1.022
sS'PRO-SER'
p139
F-0.98799999999999999
sS'VAL-VAL'
p140
F-1.173
sS'GLN-TRP'
p141
F-1.1419999999999999
sS'GLY-LYS'
p142
F0
sS'CYS-ASN'
p143
F-0.34499999999999997
sS'GLY-TRP'
p144
F0
sS'THR-CYS'
p145
F-0.073999999999999996
sS'LYS-LYS'
p146
F-1.3320000000000001
sS'CYS-ASP'
p147
F0.42699999999999999
sS'VAL-PRO'
p148
F-0.47999999999999998
sS'THR-VAL'
p149
F-0.44500000000000001
sS'ASP-TYR'
p150
F-1.244
sS'PRO-CYS'
p151
F-0.222
sS'VAL-SER'
p152
F-0.42499999999999999
sS'ARG-HIS'
p153
F-1.3620000000000001
sS'CYS-PRO'
p154
F-0.41899999999999998
sS'MET-LYS'
p155
F-0.48899999999999999
sS'ALA-SER'
p156
F-0.48699999999999999
sS'TYR-SER'
p157
F-1.1850000000000001
sS'GLY-ARG'
p158
F0
sS'GLN-ALA'
p159
F-0.84899999999999998
sS'MET-LEU'
p160
F-0.66500000000000004
sS'ASN-HIS'
p161
F-1.1759999999999999
sS'VAL-CYS'
p162
F0.23200000000000001
sS'GLN-TYR'
p163
F-1.403
sS'MET-SER'
p164
F-0.433
sS'ALA-TRP'
p165
F-1.002
sS'GLU-ASN'
p166
F-1.3879999999999999
sS'CYS-ALA'
p167
F0.083000000000000004
sS'GLY-ASN'
p168
F0
sS'ASN-ASP'
p169
F-1.194
sS'ASN-PRO'
p170
F-1.175
sS'PRO-ARG'
p171
F-1.3959999999999999
sS'LYS-TRP'
p172
F-0.80900000000000005
sS'ASN-ASN'
p173
F-2.2930000000000001
sS'THR-ALA'
p174
F-0.64800000000000002
sS'LYS-ALA'
p175
F-0.55300000000000005
sS'SER-GLN'
p176
F-1.258
sS'ILE-VAL'
p177
F-0.625
sS'ASP-ARG'
p178
F-2.008
sS'ASP-MET'
p179
F-0.104
sS'CYS-TYR'
p180
F0.033000000000000002
sS'PRO-TRP'
p181
F-1.238
sS'ILE-LYS'
p182
F-0.058999999999999997
sS'TRP-ALA'
p183
F-1.1579999999999999
sS'ILE-CYS'
p184
F0.087999999999999995
sS'LYS-ILE'
p185
F-0.215
sS'GLN-CYS'
p186
F0.248
sS'ARG-ASP'
p187
F-2.0579999999999998
sS'SER-GLU'
p188
F-1.204
sS'TRP-HIS'
p189
F-1.0429999999999999
sS'ALA-ASN'
p190
F-0.77100000000000002
sS'GLU-CYS'
p191
F0.36399999999999999
sS'ALA-CYS'
p192
F0.17499999999999999
sS'PRO-MET'
p193
F-0.48699999999999999
sS'TYR-HIS'
p194
F-1.4339999999999999
sS'PHE-MET'
p195
F-1.0649999999999999
sS'GLU-TYR'
p196
F-1.4019999999999999
sS'SER-TRP'
p197
F-1.0009999999999999
sS'PHE-ARG'
p198
F-0.94999999999999996
sS'THR-HIS'
p199
F-1.0049999999999999
sS'TYR-VAL'
p200
F-0.90000000000000002
sS'SER-ILE'
p201
F-0.39800000000000002
sS'GLN-PRO'
p202
F-1.343
sS'ALA-VAL'
p203
F-0.432
sS'HIS-HIS'
p204
F-2.673
sS'THR-ASN'
p205
F-1.1220000000000001
sS'CYS-LEU'
p206
F0.11700000000000001
sS'LYS-MET'
p207
F-0.318
sS'LYS-ASP'
p208
F-1.6259999999999999
sS'HIS-ASN'
p209
F-1.2609999999999999
sS'ILE-GLN'
p210
F-0.72699999999999998
sS'VAL-HIS'
p211
F-0.52700000000000002
sS'ALA-LEU'
p212
F-0.74199999999999999
sS'HIS-ASP'
p213
F-1.3959999999999999
sS'ILE-TYR'
p214
F-1.0129999999999999
sS'ILE-GLU'
p215
F-0.45200000000000001
sS'ASP-ASP'
p216
F-1.494
sS'ILE-GLY'
p217
F0
sS'ASN-CYS'
p218
F-0.34599999999999997
sS'GLU-SER'
p219
F-1.23
sS'ILE-ASN'
p220
F-0.39800000000000002
sS'HIS-CYS'
p221
F-0.317
sS'HIS-MET'
p222
F-0.17599999999999999
sS'ILE-PRO'
p223
F-0.66500000000000004
sS'LYS-PHE'
p224
F-0.39800000000000002
sS'GLY-PHE'
p225
F0
sS'ILE-ASP'
p226
F-0.078
sS'PHE-HIS'
p227
F-0.67900000000000005
sS'GLY-TYR'
p228
F0
sS'SER-GLY'
p229
F0
sS'CYS-TRP'
p230
F0.38200000000000001
sS'ASP-LYS'
p231
F-1.609
sS'ASN-ILE'
p232
F-0.55400000000000005
sS'HIS-SER'
p233
F-1.099
sS'LYS-CYS'
p234
F0.27100000000000002
sS'TRP-PRO'
p235
F-1.0960000000000001
sS'ASN-THR'
p236
F-1.115
sS'GLN-PHE'
p237
F-0.88900000000000001
sS'VAL-ALA'
p238
F-0.40899999999999997
sS'SER-LEU'
p239
F-0.55100000000000005
sS'TRP-LYS'
p240
F-0.75700000000000001
sS'VAL-TYR'
p241
F-0.81299999999999994
sS'VAL-PHE'
p242
F-0.83299999999999996
sS'ARG-THR'
p243
F-1.302
sS'TYR-TRP'
p244
F-0.94699999999999995
sS'GLN-GLN'
p245
F-2.3239999999999998
sS'GLU-PHE'
p246
F-0.66400000000000003
sS'VAL-ILE'
p247
F-0.623
sS'HIS-GLN'
p248
F-1.111
sS'GLN-GLY'
p249
F0
sS'PHE-ALA'
p250
F-0.90100000000000002
sS'HIS-GLU'
p251
F-1.512
sS'ARG-PRO'
p252
F-1.3620000000000001
sS'HIS-GLY'
p253
F0
sS'SER-ASN'
p254
F-1.2390000000000001
sS'ALA-THR'
p255
F-0.64900000000000002
sS'GLN-GLU'
p256
F-1.2010000000000001
sS'GLN-LYS'
p257
F-1.2250000000000001
sS'CYS-HIS'
p258
F-0.36199999999999999
sS'GLN-ASP'
p259
F-1.2430000000000001
sS'LEU-HIS'
p260
F-0.83499999999999996
sS'SER-LYS'
p261
F-1.0589999999999999
sS'TRP-LEU'
p262
F-1.0509999999999999
sS'CYS-SER'
p263
F-0.34899999999999998
sS'LYS-THR'
p264
F-0.71899999999999997
sS'HIS-LEU'
p265
F-0.63200000000000001
sS'LEU-ARG'
p266
F-0.876
sS'GLY-VAL'
p267
F0
sS'GLN-ASN'
p268
F-1.46
sS'TYR-ARG'
p269
F-1.4570000000000001
sS'PRO-TYR'
p270
F-1.617
sS'ASP-PHE'
p271
F-0.41899999999999998
sS'ARG-VAL'
p272
F-0.80800000000000005
sS'ASN-LEU'
p273
F-0.55400000000000005
sS'SER-MET'
p274
F-0.32500000000000001
sS'HIS-ILE'
p275
F-0.57999999999999996
sS'GLY-LEU'
p276
F0
sS'SER-TYR'
p277
F-1.179
sS'MET-TYR'
p278
F-1.123
sS'GLU-ILE'
p279
F-0.48599999999999999
sS'PHE-CYS'
p280
F-0.53600000000000003
sS'PRO-LEU'
p281
F-0.72099999999999997
sS'GLY-MET'
p282
F0
sS'HIS-THR'
p283
F-0.97199999999999998
sS'THR-GLN'
p284
F-1.3069999999999999
sS'TRP-THR'
p285
F-0.78400000000000003
sS'LYS-LEU'
p286
F-0.26400000000000001
sS'THR-GLY'
p287
F0
sS'ALA-LYS'
p288
F-0.57699999999999996
sS'ASP-TRP'
p289
F-0.60399999999999998
sS'TYR-MET'
p290
F-1.0900000000000001
sS'PHE-ILE'
p291
F-1.0229999999999999
sS'THR-GLU'
p292
F-1.05
sS'MET-ASN'
p293
F-0.65000000000000002
sS'LEU-TYR'
p294
F-1.0760000000000001
sS'PHE-PHE'
p295
F-2.0550000000000002
sS'CYS-PHE'
p296
F-0.47299999999999998
sS'TRP-ILE'
p297
F-0.79100000000000004
sS'PRO-ASN'
p298
F-1.109
sS'CYS-CYS'
p299
F-3.375
sS'SER-ASP'
p300
F-1.083
sS'ARG-MET'
p301
F-0.81599999999999995
sS'SER-PHE'
p302
F-0.748
sS'SER-SER'
p303
F-1.5289999999999999
sS'ASN-LYS'
p304
F-1.327
sS'CYS-THR'
p305
F0.193
sS'ILE-TRP'
p306
F-0.68500000000000005
sS'PRO-ASP'
p307
F-0.97599999999999998
sS'THR-ASP'
p308
F-0.80900000000000005
sS'SER-CYS'
p309
F0.189
sS'MET-ASP'
p310
F-0.13200000000000001
sS'GLN-MET'
p311
F-0.54400000000000004
sS'MET-TRP'
p312
F-0.78500000000000003
sS'TRP-CYS'
p313
F0.25
sS'GLY-GLN'
p314
F0
sS'THR-LYS'
p315
F-0.72999999999999998
sS'TRP-MET'
p316
F-0.749
sS'ARG-ARG'
p317
F-2.3039999999999998
sS'ALA-ARG'
p318
F-1.0169999999999999
sS'PRO-PHE'
p319
F-1.133
sS'ASN-TRP'
p320
F-0.89300000000000002
sS'GLU-ARG'
p321
F-2.0070000000000001
sS'HIS-VAL'
p322
F-0.55100000000000005
sS'VAL-ARG'
p323
F-0.80200000000000005
sS'TRP-GLU'
p324
F-0.89600000000000002
sS'PHE-TYR'
p325
F-1.111
sS'VAL-GLN'
p326
F-0.627
sS'TRP-ASN'
p327
F-1.216
sS'TYR-ILE'
p328
F-1.032
sS'TRP-GLY'
p329
F0
sS'GLY-GLU'
p330
F0
sS'GLY-HIS'
p331
F0
sS'PHE-SER'
p332
F-0.79900000000000004
sS'TRP-ASP'
p333
F-0.53600000000000003
sS'TRP-GLN'
p334
F-1.2589999999999999
sS'LEU-ALA'
p335
F-0.70299999999999996
sS'VAL-GLU'
p336
F-0.47899999999999998
sS'ALA-HIS'
p337
F-1.0209999999999999
sS'TYR-ALA'
p338
F-1.0249999999999999
sS'LEU-THR'
p339
F-0.46800000000000003
sS'TYR-CYS'
p340
F-0.017999999999999999
sS'THR-THR'
p341
F-1.6180000000000001
sS'THR-LEU'
p342
F-0.52200000000000002
sS'VAL-ASN'
p343
F-0.52400000000000002
sS'LEU-TRP'
p344
F-1.0760000000000001
sS'GLU-ASP'
p345
F-0.93899999999999995
sS'ILE-SER'
p346
F-0.44700000000000001
sS'ILE-ARG'
p347
F-0.74099999999999999
sS'ASN-SER'
p348
F-1.3029999999999999
sS'ILE-MET'
p349
F-0.36599999999999999
sS'MET-PHE'
p350
F-1.0700000000000001
sS'PRO-ALA'
p351
F-0.96799999999999997
sS'PRO-GLY'
p352
F0
sS'GLN-THR'
p353
F-1.167
sS'MET-ALA'
p354
F-0.312
sS'TRP-SER'
p355
F-0.88500000000000001
sS'ASP-HIS'
p356
F-1.383
sS'ARG-SER'
p357
F-1.4490000000000001
sS'GLN-HIS'
p358
F-1.232
sS'LEU-LEU'
p359
F-1.5369999999999999
sS'ALA-GLN'
p360
F-0.94299999999999995
sS'ASP-ASN'
p361
F-1.169
sS'SER-VAL'
p362
F-0.34499999999999997
sS'MET-ILE'
p363
F-0.32100000000000001
sS'ALA-PRO'
p364
F-0.745
sS'ALA-ILE'
p365
F-0.52600000000000002
sS'ALA-GLY'
p366
F0
sS'TRP-TRP'
p367
F-2.4529999999999998
sS'MET-CYS'
p368
F0.23400000000000001
sS'ALA-GLU'
p369
F-0.66600000000000004
sS'THR-PRO'
p370
F-1.01
sS'HIS-ALA'
p371
F-0.61399999999999999
sS'GLN-ILE'
p372
F-0.76100000000000001
sS'GLU-VAL'
p373
F-0.48699999999999999
sS'LYS-ASN'
p374
F-1.1890000000000001
sS'ASN-ALA'
p375
F-0.80000000000000004
sS'GLU-TRP'
p376
F-0.93500000000000005
sS'THR-ILE'
p377
F-0.57299999999999995
sS'ASP-CYS'
p378
F0.40600000000000003
sS'PRO-LYS'
p379
F-0.81100000000000005
sS'TYR-TYR'
p380
F-2.1440000000000001
sS'ARG-LYS'
p381
F-1.054
sS'ILE-ALA'
p382
F-0.51500000000000001
sS'ASP-SER'
p383
F-1.0509999999999999
sS'CYS-LYS'
p384
F0.16800000000000001
sS'ARG-ASN'
p385
F-1.6599999999999999
sS'GLU-ALA'
p386
F-0.70899999999999996
sS'PHE-GLU'
p387
F-0.57499999999999996
sS'GLU-LEU'
p388
F-0.52600000000000002
sS'ASN-TYR'
p389
F-1.29
sS'LYS-HIS'
p390
F-0.94399999999999995
sS'HIS-PRO'
p391
F-1.0680000000000001
sS'ILE-ILE'
p392
F-1.5049999999999999
sS'MET-HIS'
p393
F-0.38800000000000001
sS'VAL-GLY'
p394
F0
sS'THR-MET'
p395
F-0.502
sS'PHE-THR'
p396
F-0.83999999999999997
sS'VAL-TRP'
p397
F-0.79000000000000004
sS'PHE-LYS'
p398
F-0.40500000000000003
sS'GLY-PRO'
p399
F0
sS'PHE-GLN'
p400
F-0.88700000000000001
sS'LEU-PHE'
p401
F-1.0669999999999999
s.