(dp1
S'MET-MET'
p2
F-3.8490000000000002
sS'PRO-ILE'
p3
F-1.7769999999999999
sS'TYR-LYS'
p4
F-2.302
sS'VAL-ASP'
p5
F-1.401
sS'ASP-GLN'
p6
F-2.4049999999999998
sS'HIS-TYR'
p7
F-2.4660000000000002
sS'ASP-GLU'
p8
F-2.2570000000000001
sS'ALA-ASP'
p9
F-2.2549999999999999
sS'ASP-GLY'
p10
F0
sS'LEU-VAL'
p11
F-1.863
sS'TRP-TYR'
p12
F-2.0569999999999999
sS'TYR-LEU'
p13
F-2.2280000000000002
sS'LYS-GLU'
p14
F-2.9329999999999998
sS'TRP-PHE'
p15
F-2.1080000000000001
sS'ARG-TYR'
p16
F-2.5529999999999999
sS'GLU-LYS'
p17
F-2.9239999999999999
sS'ILE-HIS'
p18
F-1.855
sS'GLY-GLY'
p19
F0
sS'LEU-MET'
p20
F-1.736
sS'GLU-HIS'
p21
F-2.6469999999999998
sS'GLY-THR'
p22
F0
sS'ARG-GLU'
p23
F-3.0950000000000002
sS'PHE-ASN'
p24
F-1.917
sS'ASN-MET'
p25
F-1.534
sS'PRO-THR'
p26
F-2.2149999999999999
sS'TYR-GLN'
p27
F-2.3679999999999999
sS'ARG-GLY'
p28
F0
sS'VAL-THR'
p29
F-1.635
sS'ASP-ILE'
p30
F-1.3400000000000001
sS'GLY-ILE'
p31
F0
sS'TYR-GLU'
p32
F-2.4529999999999998
sS'ARG-GLN'
p33
F-2.8199999999999998
sS'TYR-GLY'
p34
F0
sS'PHE-ASP'
p35
F-1.7769999999999999
sS'CYS-ARG'
p36
F-2.0710000000000002
sS'HIS-ARG'
p37
F-2.4529999999999998
sS'VAL-LYS'
p38
F-1.48
sS'LEU-ILE'
p39
F-1.873
sS'GLN-LEU'
p40
F-1.8380000000000001
sS'GLU-MET'
p41
F-1.542
sS'ASP-THR'
p42
F-2.0899999999999999
sS'ASN-PHE'
p43
F-1.9830000000000001
sS'GLU-PRO'
p44
F-2.359
sS'LYS-ARG'
p45
F-2.4510000000000001
sS'GLY-ASP'
p46
F0
sS'PRO-GLN'
p47
F-2.6110000000000002
sS'CYS-MET'
p48
F-1.363
sS'GLU-THR'
p49
F-2.3250000000000002
sS'ILE-THR'
p50
F-1.7450000000000001
sS'PHE-GLY'
p51
F0
sS'SER-PRO'
p52
F-2.335
sS'GLY-CYS'
p53
F0
sS'ARG-LEU'
p54
F-2.1200000000000001
sS'PRO-GLU'
p55
F-2.3140000000000001
sS'ASP-LEU'
p56
F-1.4770000000000001
sS'PHE-VAL'
p57
F-2.0289999999999999
sS'ASN-VAL'
p58
F-1.857
sS'PRO-VAL'
p59
F-1.7470000000000001
sS'ALA-MET'
p60
F-2.0720000000000001
sS'LEU-PRO'
p61
F-1.9159999999999999
sS'LEU-SER'
p62
F-1.889
sS'ASN-ARG'
p63
F-2.8010000000000002
sS'SER-THR'
p64
F-2.0950000000000002
sS'LYS-VAL'
p65
F-1.6100000000000001
sS'LYS-PRO'
p66
F-2.2250000000000001
sS'GLN-VAL'
p67
F-1.7989999999999999
sS'TYR-PHE'
p68
F-2.1059999999999999
sS'ASP-VAL'
p69
F-1.444
sS'ASN-GLY'
p70
F0
sS'ARG-PHE'
p71
F-2.1179999999999999
sS'HIS-TRP'
p72
F-1.8999999999999999
sS'LYS-GLN'
p73
F-2.552
sS'ASN-GLU'
p74
F-2.5979999999999999
sS'CYS-GLN'
p75
F-1.714
sS'TYR-PRO'
p76
F-2.7160000000000002
sS'ARG-ILE'
p77
F-1.974
sS'CYS-GLU'
p78
F-1.117
sS'ASN-GLN'
p79
F-2.7530000000000001
sS'CYS-GLY'
p80
F0
sS'GLN-SER'
p81
F-2.7149999999999999
sS'HIS-LYS'
p82
F-2.1579999999999999
sS'LEU-LYS'
p83
F-1.5389999999999999
sS'LYS-GLY'
p84
F0
sS'VAL-MET'
p85
F-1.4750000000000001
sS'ALA-ALA'
p86
F-3.4180000000000001
sS'THR-SER'
p87
F-2.1299999999999999
sS'PRO-PRO'
p88
F-3.573
sS'ILE-PHE'
p89
F-2.214
sS'PHE-LEU'
p90
F-2.1720000000000002
sS'GLU-GLU'
p91
F-3.4990000000000001
sS'TYR-ASP'
p92
F-2.3330000000000002
sS'GLY-ALA'
p93
F0
sS'TYR-ASN'
p94
F-2.5190000000000001
sS'GLU-GLN'
p95
F-2.3570000000000002
sS'TRP-ARG'
p96
F-2.4329999999999998
sS'LEU-GLU'
p97
F-1.5800000000000001
sS'LEU-GLY'
p98
F0
sS'LYS-SER'
p99
F-2.5230000000000001
sS'MET-VAL'
p100
F-1.462
sS'SER-ALA'
p101
F-2.3650000000000002
sS'PRO-HIS'
p102
F-2.4089999999999998
sS'MET-THR'
p103
F-1.821
sS'ALA-PHE'
p104
F-2.5800000000000001
sS'MET-PRO'
p105
F-1.71
sS'GLY-SER'
p106
F0
sS'LEU-GLN'
p107
F-1.8879999999999999
sS'VAL-LEU'
p108
F-1.9199999999999999
sS'LEU-CYS'
p109
F-1.28
sS'LYS-TYR'
p110
F-2.343
sS'ASP-ALA'
p111
F-2.2080000000000002
sS'ILE-LEU'
p112
F-1.95
sS'TRP-VAL'
p113
F-1.869
sS'PHE-PRO'
p114
F-2.3210000000000002
sS'GLU-GLY'
p115
F0
sS'ARG-TRP'
p116
F-2.5609999999999999
sS'MET-GLN'
p117
F-1.98
sS'HIS-PHE'
p118
F-1.8080000000000001
sS'MET-ARG'
p119
F-1.986
sS'TYR-THR'
p120
F-2.2799999999999998
sS'SER-ARG'
p121
F-2.8919999999999999
sS'THR-ARG'
p122
F-2.6219999999999999
sS'CYS-ILE'
p123
F-1.452
sS'LEU-ASN'
p124
F-1.696
sS'LEU-ASP'
p125
F-1.431
sS'PHE-TRP'
p126
F-2.0779999999999998
sS'MET-GLY'
p127
F0
sS'THR-PHE'
p128
F-2.0680000000000001
sS'MET-GLU'
p129
F-1.508
sS'THR-TRP'
p130
F-1.9419999999999999
sS'THR-TYR'
p131
F-2.335
sS'CYS-VAL'
p132
F-1.319
sS'ARG-ALA'
p133
F-2.8159999999999998
sS'ALA-TYR'
p134
F-2.7850000000000001
sS'ASP-PRO'
p135
F-2.1970000000000001
sS'ARG-CYS'
p136
F-2.048
sS'GLN-ARG'
p137
F-2.7389999999999999
sS'SER-HIS'
p138
F-2.415
sS'PRO-SER'
p139
F-2.343
sS'VAL-VAL'
p140
F-2.9780000000000002
sS'GLN-TRP'
p141
F-2.2890000000000001
sS'GLY-LYS'
p142
F0
sS'CYS-ASN'
p143
F-1.8140000000000001
sS'GLY-TRP'
p144
F0
sS'THR-CYS'
p145
F-1.5389999999999999
sS'LYS-LYS'
p146
F-3.431
sS'CYS-ASP'
p147
F-1.0329999999999999
sS'VAL-PRO'
p148
F-1.7030000000000001
sS'THR-VAL'
p149
F-1.6419999999999999
sS'ASP-TYR'
p150
F-2.4169999999999998
sS'PRO-CYS'
p151
F-1.5469999999999999
sS'VAL-SER'
p152
F-1.7749999999999999
sS'ARG-HIS'
p153
F-2.5259999999999998
sS'CYS-PRO'
p154
F-1.7749999999999999
sS'MET-LYS'
p155
F-1.7390000000000001
sS'ALA-SER'
p156
F-2.1509999999999998
sS'TYR-SER'
p157
F-2.6059999999999999
sS'GLY-ARG'
p158
F0
sS'GLN-ALA'
p159
F-2.5950000000000002
sS'MET-LEU'
p160
F-1.7689999999999999
sS'ASN-HIS'
p161
F-2.3119999999999998
sS'VAL-CYS'
p162
F-1.1759999999999999
sS'GLN-TYR'
p163
F-2.496
sS'MET-SER'
p164
F-1.8799999999999999
sS'ALA-TRP'
p165
F-2.71
sS'GLU-ASN'
p166
F-2.5630000000000002
sS'CYS-ALA'
p167
F-1.607
sS'GLY-ASN'
p168
F0
sS'ASN-ASP'
p169
F-2.359
sS'ASN-PRO'
p170
F-2.4199999999999999
sS'PRO-ARG'
p171
F-2.7010000000000001
sS'LYS-TRP'
p172
F-1.9930000000000001
sS'ASN-ASN'
p173
F-4.0730000000000004
sS'THR-ALA'
p174
F-2.3450000000000002
sS'LYS-ALA'
p175
F-2.3090000000000002
sS'SER-GLN'
p176
F-2.6480000000000001
sS'ILE-VAL'
p177
F-1.8100000000000001
sS'ASP-ARG'
p178
F-3.1019999999999999
sS'ASP-MET'
p179
F-1.377
sS'CYS-TYR'
p180
F-1.373
sS'PRO-TRP'
p181
F-2.4249999999999998
sS'ILE-LYS'
p182
F-1.3100000000000001
sS'TRP-ALA'
p183
F-2.871
sS'ILE-CYS'
p184
F-1.2909999999999999
sS'LYS-ILE'
p185
F-1.446
sS'GLN-CYS'
p186
F-1.333
sS'ARG-ASP'
p187
F-3.1579999999999999
sS'SER-GLU'
p188
F-2.573
sS'TRP-HIS'
p189
F-2.1859999999999999
sS'ALA-ASN'
p190
F-2.5019999999999998
sS'GLU-CYS'
p191
F-1.0780000000000001
sS'ALA-CYS'
p192
F-1.51
sS'PRO-MET'
p193
F-1.6339999999999999
sS'TYR-HIS'
p194
F-2.4529999999999998
sS'PHE-MET'
p195
F-2.1299999999999999
sS'GLU-TYR'
p196
F-2.5219999999999998
sS'SER-TRP'
p197
F-2.403
sS'PHE-ARG'
p198
F-1.9990000000000001
sS'THR-HIS'
p199
F-2.21
sS'TYR-VAL'
p200
F-2.1000000000000001
sS'SER-ILE'
p201
F-1.7729999999999999
sS'GLN-PRO'
p202
F-2.5739999999999998
sS'ALA-VAL'
p203
F-2.1219999999999999
sS'HIS-HIS'
p204
F-4.3099999999999996
sS'THR-ASN'
p205
F-2.3679999999999999
sS'CYS-LEU'
p206
F-1.2470000000000001
sS'LYS-MET'
p207
F-1.6080000000000001
sS'LYS-ASP'
p208
F-2.7639999999999998
sS'HIS-ASN'
p209
F-2.4390000000000001
sS'ILE-GLN'
p210
F-1.8360000000000001
sS'VAL-HIS'
p211
F-1.6819999999999999
sS'ALA-LEU'
p212
F-2.4340000000000002
sS'HIS-ASP'
p213
F-2.4580000000000002
sS'ILE-TYR'
p214
F-2.1400000000000001
sS'ILE-GLU'
p215
F-1.603
sS'ASP-ASP'
p216
F-3.375
sS'ILE-GLY'
p217
F0
sS'ASN-CYS'
p218
F-1.8129999999999999
sS'GLU-SER'
p219
F-2.5819999999999999
sS'ILE-ASN'
p220
F-1.605
sS'HIS-CYS'
p221
F-1.641
sS'HIS-MET'
p222
F-1.329
sS'ILE-PRO'
p223
F-1.8919999999999999
sS'LYS-PHE'
p224
F-1.629
sS'GLY-PHE'
p225
F0
sS'ILE-ASP'
p226
F-1.3580000000000001
sS'PHE-HIS'
p227
F-1.7310000000000001
sS'GLY-TYR'
p228
F0
sS'SER-GLY'
p229
F0
sS'CYS-TRP'
p230
F-1.0189999999999999
sS'ASP-LYS'
p231
F-2.7450000000000001
sS'ASN-ILE'
p232
F-1.7470000000000001
sS'HIS-SER'
p233
F-2.476
sS'LYS-CYS'
p234
F-1.284
sS'TRP-PRO'
p235
F-2.2759999999999998
sS'ASN-THR'
p236
F-2.3580000000000001
sS'GLN-PHE'
p237
F-2.0209999999999999
sS'VAL-ALA'
p238
F-2.1030000000000002
sS'SER-LEU'
p239
F-1.909
sS'TRP-LYS'
p240
F-1.9810000000000001
sS'VAL-TYR'
p241
F-2.0310000000000001
sS'VAL-PHE'
p242
F-1.978
sS'ARG-THR'
p243
F-2.597
sS'TYR-TRP'
p244
F-2.0430000000000001
sS'GLN-GLN'
p245
F-4.0599999999999996
sS'GLU-PHE'
p246
F-1.8149999999999999
sS'VAL-ILE'
p247
F-1.8160000000000001
sS'HIS-GLN'
p248
F-2.246
sS'GLN-GLY'
p249
F0
sS'PHE-ALA'
p250
F-2.5979999999999999
sS'HIS-GLU'
p251
F-2.5600000000000001
sS'ARG-PRO'
p252
F-2.6819999999999999
sS'HIS-GLY'
p253
F0
sS'SER-ASN'
p254
F-2.6200000000000001
sS'ALA-THR'
p255
F-2.3540000000000001
sS'GLN-GLU'
p256
F-2.3660000000000001
sS'GLN-LYS'
p257
F-2.4470000000000001
sS'CYS-HIS'
p258
F-1.77
sS'GLN-ASP'
p259
F-2.4870000000000001
sS'LEU-HIS'
p260
F-1.9430000000000001
sS'SER-LYS'
p261
F-2.4969999999999999
sS'TRP-LEU'
p262
F-2.181
sS'CYS-SER'
p263
F-1.76
sS'LYS-THR'
p264
F-2.044
sS'HIS-LEU'
p265
F-1.738
sS'LEU-ARG'
p266
F-2.0630000000000002
sS'GLY-VAL'
p267
F0
sS'GLN-ASN'
p268
F-2.6080000000000001
sS'TYR-ARG'
p269
F-2.4950000000000001
sS'PRO-TYR'
p270
F-2.7829999999999999
sS'ASP-PHE'
p271
F-1.6799999999999999
sS'ARG-VAL'
p272
F-2.1120000000000001
sS'ASN-LEU'
p273
F-1.661
sS'SER-MET'
p274
F-1.7749999999999999
sS'HIS-ILE'
p275
F-1.748
sS'GLY-LEU'
p276
F0
sS'SER-TYR'
p277
F-2.5960000000000001
sS'MET-TYR'
p278
F-2.2719999999999998
sS'GLU-ILE'
p279
F-1.6879999999999999
sS'PHE-CYS'
p280
F-1.929
sS'PRO-LEU'
p281
F-1.8959999999999999
sS'GLY-MET'
p282
F0
sS'HIS-THR'
p283
F-2.145
sS'THR-GLN'
p284
F-2.528
sS'TRP-THR'
p285
F-2.1139999999999999
sS'LYS-LEU'
p286
F-1.4650000000000001
sS'THR-GLY'
p287
F0
sS'ALA-LYS'
p288
F-2.3319999999999999
sS'ASP-TRP'
p289
F-1.8879999999999999
sS'TYR-MET'
p290
F-2.1789999999999998
sS'PHE-ILE'
p291
F-2.1480000000000001
sS'THR-GLU'
p292
F-2.2959999999999998
sS'MET-ASN'
p293
F-1.806
sS'LEU-TYR'
p294
F-2.1720000000000002
sS'PHE-PHE'
p295
F-3.6859999999999999
sS'CYS-PHE'
p296
F-1.857
sS'TRP-ILE'
p297
F-1.972
sS'PRO-ASN'
p298
F-2.351
sS'CYS-CYS'
p299
F-5.2809999999999997
sS'SER-ASP'
p300
F-2.468
sS'ARG-MET'
p301
F-2.089
sS'SER-PHE'
p302
F-2.1030000000000002
sS'SER-SER'
p303
F-3.4980000000000002
sS'ASN-LYS'
p304
F-2.6110000000000002
sS'CYS-THR'
p305
F-1.216
sS'ILE-TRP'
p306
F-1.8580000000000001
sS'PRO-ASP'
p307
F-2.2229999999999999
sS'THR-ASP'
p308
F-2.0339999999999998
sS'SER-CYS'
p309
F-1.202
sS'MET-ASP'
p310
F-1.3660000000000001
sS'GLN-MET'
p311
F-1.786
sS'MET-TRP'
p312
F-1.883
sS'TRP-CYS'
p313
F-1.23
sS'GLY-GLN'
p314
F0
sS'THR-LYS'
p315
F-2.0510000000000002
sS'TRP-MET'
p316
F-1.8360000000000001
sS'ARG-ARG'
p317
F-4.117
sS'ALA-ARG'
p318
F-2.8050000000000002
sS'PRO-PHE'
p319
F-2.2679999999999998
sS'ASN-TRP'
p320
F-2.1070000000000002
sS'GLU-ARG'
p321
F-3.0640000000000001
sS'HIS-VAL'
p322
F-1.7370000000000001
sS'VAL-ARG'
p323
F-2.101
sS'TRP-GLU'
p324
F-2.0790000000000002
sS'PHE-TYR'
p325
F-2.1579999999999999
sS'VAL-GLN'
p326
F-1.845
sS'TRP-ASN'
p327
F-2.3919999999999999
sS'TYR-ILE'
p328
F-2.153
sS'TRP-GLY'
p329
F0
sS'GLY-GLU'
p330
F0
sS'GLY-HIS'
p331
F0
sS'PHE-SER'
p332
F-2.1600000000000001
sS'TRP-ASP'
p333
F-1.8540000000000001
sS'TRP-GLN'
p334
F-2.415
sS'LEU-ALA'
p335
F-2.3900000000000001
sS'VAL-GLU'
p336
F-1.75
sS'ALA-HIS'
p337
F-2.738
sS'TYR-ALA'
p338
F-2.7669999999999999
sS'LEU-THR'
p339
F-1.722
sS'TYR-CYS'
p340
F-1.3979999999999999
sS'THR-THR'
p341
F-3.423
sS'THR-LEU'
p342
F-1.768
sS'VAL-ASN'
p343
F-1.788
sS'LEU-TRP'
p344
F-2.2170000000000001
sS'GLU-ASP'
p345
F-2.246
sS'ILE-SER'
p346
F-1.8580000000000001
sS'ILE-ARG'
p347
F-2.0169999999999999
sS'ASN-SER'
p348
F-2.698
sS'ILE-MET'
p349
F-1.554
sS'MET-PHE'
p350
F-2.1579999999999999
sS'PRO-ALA'
p351
F-2.6379999999999999
sS'PRO-GLY'
p352
F0
sS'GLN-THR'
p353
F-2.3959999999999999
sS'MET-ALA'
p354
F-2.0019999999999998
sS'TRP-SER'
p355
F-2.2869999999999999
sS'ASP-HIS'
p356
F-2.4420000000000002
sS'ARG-SER'
p357
F-2.9159999999999999
sS'GLN-HIS'
p358
F-2.3940000000000001
sS'LEU-LEU'
p359
F-3.2650000000000001
sS'ALA-GLN'
p360
F-2.673
sS'ASP-ASN'
p361
F-2.3319999999999999
sS'SER-VAL'
p362
F-1.6870000000000001
sS'MET-ILE'
p363
F-1.5309999999999999
sS'ALA-PRO'
p364
F-2.4180000000000001
sS'ALA-ILE'
p365
F-2.2240000000000002
sS'ALA-GLY'
p366
F0
sS'TRP-TRP'
p367
F-4.1589999999999998
sS'MET-CYS'
p368
F-1.0649999999999999
sS'ALA-GLU'
p369
F-2.407
sS'THR-PRO'
p370
F-2.246
sS'HIS-ALA'
p371
F-2.3170000000000002
sS'GLN-ILE'
p372
F-1.903
sS'GLU-VAL'
p373
F-1.728
sS'LYS-ASN'
p374
F-2.448
sS'ASN-ALA'
p375
F-2.5449999999999999
sS'GLU-TRP'
p376
F-2.085
sS'THR-ILE'
p377
F-1.8140000000000001
sS'ASP-CYS'
p378
F-1.0720000000000001
sS'PRO-LYS'
p379
F-2.21
sS'TYR-TYR'
p380
F-3.8210000000000002
sS'ARG-LYS'
p381
F-2.4609999999999999
sS'ILE-ALA'
p382
F-2.2200000000000002
sS'ASP-SER'
p383
F-2.4329999999999998
sS'CYS-LYS'
p384
F-1.3360000000000001
sS'ARG-ASN'
p385
F-2.8570000000000002
sS'GLU-ALA'
p386
F-2.4380000000000002
sS'PHE-GLU'
p387
F-1.7549999999999999
sS'GLU-LEU'
p388
F-1.6619999999999999
sS'ASN-TYR'
p389
F-2.4689999999999999
sS'LYS-HIS'
p390
F-2.2149999999999999
sS'HIS-PRO'
p391
F-2.3220000000000001
sS'ILE-ILE'
p392
F-3.2570000000000001
sS'MET-HIS'
p393
F-1.579
sS'VAL-GLY'
p394
F0
sS'THR-MET'
p395
F-1.75
sS'PHE-THR'
p396
F-2.0619999999999998
sS'VAL-TRP'
p397
F-2.052
sS'PHE-LYS'
p398
F-1.643
sS'GLY-PRO'
p399
F0
sS'PHE-GLN'
p400
F-2.0289999999999999
sS'LEU-PHE'
p401
F-2.1659999999999999
s.