(dp1
S'MET-MET'
p2
F0.69399999999999995
sS'PRO-ILE'
p3
F2.036
sS'TYR-LYS'
p4
F1.889
sS'VAL-ASP'
p5
F2.1589999999999998
sS'ASP-GLN'
p6
F1.802
sS'HIS-TYR'
p7
F2.0179999999999998
sS'ASP-GLU'
p8
F1.78
sS'ALA-ASP'
p9
F1.8919999999999999
sS'ASP-GLY'
p10
F1.673
sS'LEU-VAL'
p11
F2.2370000000000001
sS'TRP-TYR'
p12
F2.5619999999999998
sS'GLN-TRP'
p13
F2.3439999999999999
sS'TRP-PHE'
p14
F2.6560000000000001
sS'ARG-TYR'
p15
F1.9650000000000001
sS'GLU-LYS'
p16
F1.631
sS'ILE-HIS'
p17
F2.2730000000000001
sS'LEU-MET'
p18
F2.2850000000000001
sS'GLU-HIS'
p19
F1.8500000000000001
sS'GLY-THR'
p20
F1.5249999999999999
sS'ARG-GLU'
p21
F1.653
sS'PHE-ASN'
p22
F2.238
sS'ASN-MET'
p23
F2.1909999999999998
sS'PRO-THR'
p24
F1.633
sS'TYR-GLN'
p25
F1.9650000000000001
sS'ARG-GLY'
p26
F1.339
sS'VAL-THR'
p27
F2.1179999999999999
sS'ASP-ILE'
p28
F2.2440000000000002
sS'THR-HIS'
p29
F1.958
sS'TYR-GLU'
p30
F1.9690000000000001
sS'ARG-GLN'
p31
F1.649
sS'TYR-GLY'
p32
F1.6499999999999999
sS'PHE-ASP'
p33
F2.2389999999999999
sS'CYS-ARG'
p34
F2.1960000000000002
sS'GLY-ASN'
p35
F1.3899999999999999
sS'VAL-LYS'
p36
F2.246
sS'LEU-ILE'
p37
F2.2170000000000001
sS'GLN-LEU'
p38
F1.9750000000000001
sS'GLU-MET'
p39
F2.3330000000000002
sS'ASP-THR'
p40
F1.8420000000000001
sS'ASN-PHE'
p41
F2.1880000000000002
sS'GLU-PRO'
p42
F1.6850000000000001
sS'TYR-LEU'
p43
F2.2450000000000001
sS'LYS-ARG'
p44
F1.867
sS'GLY-ASP'
p45
F1.6020000000000001
sS'PRO-GLN'
p46
F1.659
sS'CYS-MET'
p47
F2.5
sS'HIS-ARG'
p48
F1.8919999999999999
sS'GLU-THR'
p49
F1.879
sS'ILE-THR'
p50
F2.1459999999999999
sS'SER-PRO'
p51
F1.659
sS'GLY-CYS'
p52
F1.6220000000000001
sS'ARG-LEU'
p53
F1.98
sS'PRO-GLU'
p54
F1.71
sS'ASP-LEU'
p55
F2.2000000000000002
sS'PHE-VAL'
p56
F2.4129999999999998
sS'ASN-VAL'
p57
F2.0329999999999999
sS'ALA-MET'
p58
F2.0630000000000002
sS'LEU-PRO'
p59
F2.016
sS'LEU-SER'
p60
F1.9990000000000001
sS'ASN-ARG'
p61
F1.671
sS'SER-THR'
p62
F1.845
sS'LYS-VAL'
p63
F2.2160000000000002
sS'LYS-GLN'
p64
F1.7070000000000001
sS'GLN-VAL'
p65
F2.1019999999999999
sS'TYR-PHE'
p66
F2.3210000000000002
sS'ASP-VAL'
p67
F2.1840000000000002
sS'ASN-GLY'
p68
F1.4750000000000001
sS'ARG-PHE'
p69
F2.194
sS'SER-HIS'
p70
F1.9079999999999999
sS'ALA-ILE'
p71
F2.0129999999999999
sS'ASN-GLU'
p72
F1.6799999999999999
sS'CYS-GLN'
p73
F2.2170000000000001
sS'TYR-PRO'
p74
F1.9550000000000001
sS'LYS-GLU'
p75
F1.645
sS'CYS-GLU'
p76
F2.3180000000000001
sS'ASN-GLN'
p77
F1.6399999999999999
sS'CYS-GLY'
p78
F1.8740000000000001
sS'GLN-SER'
p79
F1.5900000000000001
sS'HIS-LYS'
p80
F1.895
sS'LYS-GLY'
p81
F1.5609999999999999
sS'VAL-MET'
p82
F2.3929999999999998
sS'GLU-GLY'
p83
F1.5740000000000001
sS'THR-SER'
p84
F1.835
sS'TYR-THR'
p85
F2.024
sS'PRO-PRO'
p86
F0.627
sS'ILE-PHE'
p87
F2.2669999999999999
sS'PHE-LEU'
p88
F2.1600000000000001
sS'GLU-GLU'
p89
F1
sS'SER-ARG'
p90
F1.6060000000000001
sS'GLY-ALA'
p91
F1.526
sS'TYR-ASN'
p92
F1.8660000000000001
sS'GLU-GLN'
p93
F1.8160000000000001
sS'TRP-ARG'
p94
F2.2599999999999998
sS'LEU-GLU'
p95
F2.234
sS'LEU-GLY'
p96
F1.792
sS'LYS-SER'
p97
F1.7110000000000001
sS'MET-VAL'
p98
F2.3580000000000001
sS'SER-ALA'
p99
F1.756
sS'PRO-HIS'
p100
F1.823
sS'MET-THR'
p101
F2.2789999999999999
sS'ALA-PHE'
p102
F2.0899999999999999
sS'MET-PRO'
p103
F2.2679999999999998
sS'GLY-SER'
p104
F1.4219999999999999
sS'LEU-GLN'
p105
F1.891
sS'VAL-LEU'
p106
F2.169
sS'LEU-CYS'
p107
F2.4529999999999998
sS'LYS-TYR'
p108
F1.9690000000000001
sS'ASP-ALA'
p109
F1.946
sS'ILE-LEU'
p110
F2.181
sS'TRP-VAL'
p111
F2.488
sS'PHE-PRO'
p112
F2.0990000000000002
sS'ALA-ALA'
p113
F0.82999999999999996
sS'ARG-TRP'
p114
F2.1699999999999999
sS'MET-GLN'
p115
F2.1389999999999998
sS'ILE-LYS'
p116
F2.2850000000000001
sS'MET-ARG'
p117
F2.2610000000000001
sS'ALA-CYS'
p118
F2.2709999999999999
sS'THR-ARG'
p119
F2.0449999999999999
sS'CYS-ILE'
p120
F2.4169999999999998
sS'LEU-ASN'
p121
F1.9890000000000001
sS'LEU-ASP'
p122
F2.1349999999999998
sS'PHE-TRP'
p123
F2.6120000000000001
sS'MET-GLY'
p124
F2.0089999999999999
sS'THR-PHE'
p125
F2.2269999999999999
sS'MET-GLU'
p126
F2.4340000000000002
sS'THR-TRP'
p127
F2.4990000000000001
sS'THR-TYR'
p128
F1.9690000000000001
sS'CYS-VAL'
p129
F2.3610000000000002
sS'ARG-ALA'
p130
F1.7310000000000001
sS'ALA-TYR'
p131
F1.95
sS'ASP-PRO'
p132
F1.6850000000000001
sS'ARG-CYS'
p133
F2.085
sS'GLN-ARG'
p134
F1.6659999999999999
sS'HIS-TRP'
p135
F2.512
sS'PRO-SER'
p136
F1.657
sS'VAL-VAL'
p137
F1.238
sS'LEU-LYS'
p138
F2.1309999999999998
sS'GLY-LYS'
p139
F1.546
sS'CYS-ASN'
p140
F2.008
sS'GLY-TRP'
p141
F2.0990000000000002
sS'THR-CYS'
p142
F2.2389999999999999
sS'LYS-LYS'
p143
F0.85299999999999998
sS'CYS-ASP'
p144
F2.258
sS'TYR-ASP'
p145
F1.9370000000000001
sS'VAL-PRO'
p146
F2.1030000000000002
sS'THR-VAL'
p147
F2.1219999999999999
sS'ASP-TYR'
p148
F1.966
sS'PRO-CYS'
p149
F2.0699999999999998
sS'VAL-SER'
p150
F2.0699999999999998
sS'ARG-HIS'
p151
F1.762
sS'CYS-PRO'
p152
F1.946
sS'MET-LYS'
p153
F2.1549999999999998
sS'ALA-SER'
p154
F1.7689999999999999
sS'TYR-SER'
p155
F1.873
sS'GLY-ARG'
p156
F1.4019999999999999
sS'GLN-ALA'
p157
F1.746
sS'MET-LEU'
p158
F2.1869999999999998
sS'ASN-HIS'
p159
F1.8999999999999999
sS'VAL-CYS'
p160
F2.4929999999999999
sS'GLN-TYR'
p161
F1.9330000000000001
sS'GLN-PHE'
p162
F2.2010000000000001
sS'ILE-ASN'
p163
F2.0840000000000001
sS'GLU-ASN'
p164
F1.6499999999999999
sS'CYS-ALA'
p165
F2.2200000000000002
sS'ASN-ASP'
p166
F1.7390000000000001
sS'ASN-PRO'
p167
F1.5189999999999999
sS'PRO-ARG'
p168
F1.663
sS'LYS-TRP'
p169
F2.4369999999999998
sS'ASN-ASN'
p170
F0.42899999999999999
sS'ASN-THR'
p171
F1.732
sS'THR-ALA'
p172
F1.9379999999999999
sS'LYS-ALA'
p173
F1.95
sS'LYS-PRO'
p174
F1.7410000000000001
sS'SER-GLN'
p175
F1.5860000000000001
sS'ILE-VAL'
p176
F2.3460000000000001
sS'ASP-ARG'
p177
F1.5880000000000001
sS'ASP-MET'
p178
F2.3130000000000002
sS'CYS-TYR'
p179
F1.913
sS'PRO-TRP'
p180
F2.4079999999999999
sS'THR-GLU'
p181
F1.905
sS'TRP-ALA'
p182
F2.1230000000000002
sS'ILE-CYS'
p183
F2.4700000000000002
sS'LYS-ILE'
p184
F2.2709999999999999
sS'GLN-CYS'
p185
F2.2599999999999998
sS'TYR-ALA'
p186
F1.9790000000000001
sS'ARG-ASP'
p187
F1.4910000000000001
sS'SER-GLU'
p188
F1.6859999999999999
sS'TRP-HIS'
p189
F2.4060000000000001
sS'ALA-ASN'
p190
F1.7290000000000001
sS'GLU-CYS'
p191
F2.4089999999999998
sS'PRO-MET'
p192
F2.234
sS'TYR-HIS'
p193
F2.0310000000000001
sS'PHE-MET'
p194
F2.202
sS'GLU-TYR'
p195
F2.0430000000000001
sS'SER-TRP'
p196
F2.2509999999999999
sS'PHE-ARG'
p197
F2.2149999999999999
sS'GLY-ILE'
p198
F1.9530000000000001
sS'TYR-VAL'
p199
F2.3660000000000001
sS'ASN-TYR'
p200
F1.9279999999999999
sS'SER-ILE'
p201
F2.032
sS'GLN-PRO'
p202
F1.667
sS'PHE-TYR'
p203
F2.2599999999999998
sS'ALA-VAL'
p204
F2.0430000000000001
sS'HIS-HIS'
p205
F0.32200000000000001
sS'THR-ASN'
p206
F1.7030000000000001
sS'CYS-LEU'
p207
F2.5459999999999998
sS'LYS-MET'
p208
F2.2719999999999998
sS'LYS-ASP'
p209
F1.718
sS'HIS-ASN'
p210
F1.7929999999999999
sS'ILE-GLN'
p211
F2.2149999999999999
sS'VAL-HIS'
p212
F2.2530000000000001
sS'ALA-LEU'
p213
F1.881
sS'HIS-ASP'
p214
F1.881
sS'ILE-TYR'
p215
F2.2349999999999999
sS'ILE-GLU'
p216
F2.3029999999999999
sS'ASN-TRP'
p217
F2.411
sS'ILE-GLY'
p218
F1.9990000000000001
sS'ASN-CYS'
p219
F1.9419999999999999
sS'GLU-SER'
p220
F1.8240000000000001
sS'ALA-TRP'
p221
F2.1299999999999999
sS'HIS-CYS'
p222
F2.5590000000000002
sS'HIS-MET'
p223
F2.367
sS'ILE-PRO'
p224
F2.0600000000000001
sS'LYS-PHE'
p225
F2.2589999999999999
sS'TRP-PRO'
p226
F2.4049999999999998
sS'GLU-TRP'
p227
F2.3919999999999999
sS'PHE-HIS'
p228
F2.383
sS'GLY-TYR'
p229
F1.6459999999999999
sS'SER-GLY'
p230
F1.3759999999999999
sS'CYS-TRP'
p231
F3.169
sS'ASP-LYS'
p232
F1.744
sS'ASN-ILE'
p233
F2.0619999999999998
sS'HIS-SER'
p234
F1.8109999999999999
sS'LYS-CYS'
p235
F2.3740000000000001
sS'GLY-PHE'
p236
F2.0419999999999998
sS'GLY-LEU'
p237
F1.7829999999999999
sS'MET-SER'
p238
F2.145
sS'VAL-ALA'
p239
F2.081
sS'SER-LEU'
p240
F1.984
sS'TRP-LYS'
p241
F2.4300000000000002
sS'VAL-TYR'
p242
F2.3959999999999999
sS'VAL-PHE'
p243
F2.3969999999999998
sS'ARG-THR'
p244
F1.9910000000000001
sS'TYR-TRP'
p245
F2.5139999999999998
sS'GLN-GLN'
p246
F0.52500000000000002
sS'GLU-PHE'
p247
F2.2480000000000002
sS'VAL-ILE'
p248
F2.286
sS'HIS-GLN'
p249
F1.982
sS'GLN-GLY'
p250
F1.4710000000000001
sS'PHE-ALA'
p251
F2.1240000000000001
sS'HIS-GLU'
p252
F1.8380000000000001
sS'ARG-PRO'
p253
F1.6060000000000001
sS'HIS-GLY'
p254
F1.776
sS'SER-ASN'
p255
F1.5940000000000001
sS'ALA-THR'
p256
F1.9570000000000001
sS'GLN-GLU'
p257
F1.72
sS'GLN-LYS'
p258
F1.728
sS'CYS-HIS'
p259
F2.2989999999999999
sS'GLN-ASP'
p260
F1.7270000000000001
sS'LEU-HIS'
p261
F2.0390000000000001
sS'SER-LYS'
p262
F1.792
sS'TRP-LEU'
p263
F2.3809999999999998
sS'CYS-SER'
p264
F2.0619999999999998
sS'LYS-THR'
p265
F2.0369999999999999
sS'HIS-LEU'
p266
F2.137
sS'LEU-ARG'
p267
F1.9970000000000001
sS'GLY-VAL'
p268
F1.855
sS'GLN-ASN'
p269
F1.651
sS'TYR-ARG'
p270
F1.9410000000000001
sS'PRO-TYR'
p271
F1.909
sS'ASP-PHE'
p272
F2.3399999999999999
sS'TRP-CYS'
p273
F3.2130000000000001
sS'ASN-LEU'
p274
F2.0219999999999998
sS'SER-MET'
p275
F2.1909999999999998
sS'HIS-ILE'
p276
F2.355
sS'SER-TYR'
p277
F1.8819999999999999
sS'MET-TYR'
p278
F2.2410000000000001
sS'GLU-ILE'
p279
F2.286
sS'PHE-CYS'
p280
F2.4340000000000002
sS'PRO-LEU'
p281
F1.931
sS'GLY-MET'
p282
F1.98
sS'ARG-ILE'
p283
F2.117
sS'HIS-THR'
p284
F1.9179999999999999
sS'THR-GLN'
p285
F1.7150000000000001
sS'TRP-THR'
p286
F2.347
sS'LYS-LEU'
p287
F2.1970000000000001
sS'THR-GLY'
p288
F1.5369999999999999
sS'ASP-TRP'
p289
F2.3919999999999999
sS'TYR-MET'
p290
F2.2999999999999998
sS'PHE-ILE'
p291
F2.2970000000000002
sS'PRO-VAL'
p292
F2.109
sS'MET-ASN'
p293
F2.0289999999999999
sS'LEU-TYR'
p294
F2.27
sS'PHE-PHE'
p295
F1.2589999999999999
sS'CYS-PHE'
p296
F2.5390000000000001
sS'TRP-ILE'
p297
F2.6850000000000001
sS'PRO-ASN'
p298
F1.653
sS'CYS-CYS'
p299
F-0.34899999999999998
sS'SER-ASP'
p300
F1.784
sS'ARG-MET'
p301
F2.2570000000000001
sS'SER-PHE'
p302
F2.129
sS'SER-SER'
p303
F0.64000000000000001
sS'ASN-LYS'
p304
F1.7809999999999999
sS'CYS-THR'
p305
F2.3079999999999998
sS'ILE-TRP'
p306
F2.605
sS'PRO-ASP'
p307
F1.798
sS'THR-ASP'
p308
F1.865
sS'SER-CYS'
p309
F2.1539999999999999
sS'MET-ASP'
p310
F2.2719999999999998
sS'GLN-MET'
p311
F2.2069999999999999
sS'MET-TRP'
p312
F2.7549999999999999
sS'ARG-VAL'
p313
F1.9530000000000001
sS'GLY-GLN'
p314
F1.464
sS'THR-LYS'
p315
F2.0049999999999999
sS'TRP-MET'
p316
F2.71
sS'ARG-ARG'
p317
F0.61699999999999999
sS'ILE-ASP'
p318
F2.1880000000000002
sS'GLY-GLY'
p319
F0.29999999999999999
sS'GLY-GLU'
p320
F1.7330000000000001
sS'ALA-ARG'
p321
F1.6020000000000001
sS'GLU-ARG'
p322
F1.6279999999999999
sS'HIS-VAL'
p323
F2.3140000000000001
sS'VAL-ARG'
p324
F2.048
sS'ASN-SER'
p325
F1.629
sS'ALA-LYS'
p326
F1.9650000000000001
sS'VAL-GLN'
p327
F2.0830000000000002
sS'TRP-ASN'
p328
F2.2719999999999998
sS'TYR-ILE'
p329
F2.2850000000000001
sS'TRP-GLY'
p330
F2.0609999999999999
sS'PRO-PHE'
p331
F2.0819999999999999
sS'GLY-HIS'
p332
F1.6319999999999999
sS'PHE-SER'
p333
F2.0289999999999999
sS'TRP-ASP'
p334
F2.2850000000000001
sS'TRP-GLN'
p335
F2.2109999999999999
sS'LEU-ALA'
p336
F2.0009999999999999
sS'VAL-GLU'
p337
F2.1880000000000002
sS'ALA-HIS'
p338
F1.903
sS'ARG-ASN'
p339
F1.5469999999999999
sS'LEU-THR'
p340
F2.0800000000000001
sS'TYR-CYS'
p341
F2.0430000000000001
sS'THR-THR'
p342
F0.84399999999999997
sS'THR-LEU'
p343
F2.1019999999999999
sS'VAL-ASN'
p344
F2.0569999999999999
sS'LEU-TRP'
p345
F2.3999999999999999
sS'GLU-ASP'
p346
F1.8080000000000001
sS'ILE-SER'
p347
F2.0579999999999998
sS'ILE-ARG'
p348
F2.077
sS'TRP-GLU'
p349
F2.4089999999999998
sS'ILE-MET'
p350
F2.4020000000000001
sS'MET-PHE'
p351
F2.2799999999999998
sS'PRO-ALA'
p352
F1.6759999999999999
sS'PRO-GLY'
p353
F1.5940000000000001
sS'GLN-THR'
p354
F1.8
sS'MET-ALA'
p355
F2.222
sS'TRP-SER'
p356
F2.411
sS'ASP-HIS'
p357
F1.879
sS'ARG-SER'
p358
F1.615
sS'GLN-HIS'
p359
F1.782
sS'HIS-PHE'
p360
F2.3700000000000001
sS'LEU-LEU'
p361
F1.29
sS'ALA-GLN'
p362
F1.7050000000000001
sS'ASP-ASN'
p363
F1.7150000000000001
sS'SER-VAL'
p364
F2.044
sS'MET-ILE'
p365
F2.4399999999999999
sS'ALA-PRO'
p366
F1.907
sS'ASP-ASP'
p367
F0.92000000000000004
sS'ALA-GLY'
p368
F1.609
sS'TRP-TRP'
p369
F1.143
sS'MET-CYS'
p370
F2.8220000000000001
sS'ALA-GLU'
p371
F1.931
sS'THR-PRO'
p372
F1.7250000000000001
sS'HIS-ALA'
p373
F2.036
sS'GLN-ILE'
p374
F2.0800000000000001
sS'GLU-VAL'
p375
F2.2010000000000001
sS'LYS-ASN'
p376
F1.8600000000000001
sS'ASN-ALA'
p377
F1.831
sS'THR-ILE'
p378
F2.0289999999999999
sS'ASP-CYS'
p379
F2.4100000000000001
sS'PRO-LYS'
p380
F1.7889999999999999
sS'TYR-TYR'
p381
F1.107
sS'ARG-LYS'
p382
F1.7889999999999999
sS'ILE-ALA'
p383
F2.0179999999999998
sS'ASP-SER'
p384
F1.764
sS'CYS-LYS'
p385
F2.4750000000000001
sS'GLU-ALA'
p386
F1.9119999999999999
sS'PHE-GLU'
p387
F2.21
sS'GLU-LEU'
p388
F2.198
sS'PHE-GLY'
p389
F1.984
sS'LYS-HIS'
p390
F1.8839999999999999
sS'HIS-PRO'
p391
F1.855
sS'ILE-ILE'
p392
F1.2230000000000001
sS'MET-HIS'
p393
F2.2669999999999999
sS'VAL-GLY'
p394
F1.8979999999999999
sS'THR-MET'
p395
F2.2480000000000002
sS'PHE-THR'
p396
F2.2109999999999999
sS'VAL-TRP'
p397
F2.4969999999999999
sS'PHE-LYS'
p398
F2.21
sS'GLY-PRO'
p399
F1.492
sS'PHE-GLN'
p400
F2.1880000000000002
sS'LEU-PHE'
p401
F2.1739999999999999
s.