(dp1
S'MET-MET'
p2
F1.552
sS'PRO-ILE'
p3
F2.952
sS'TYR-LYS'
p4
F2.8780000000000001
sS'VAL-ASP'
p5
F3.048
sS'ASP-GLN'
p6
F2.661
sS'HIS-TYR'
p7
F2.9239999999999999
sS'ASP-GLU'
p8
F2.6890000000000001
sS'ALA-ASP'
p9
F2.6909999999999998
sS'ASP-GLY'
p10
F2.363
sS'LEU-VAL'
p11
F2.98
sS'TRP-TYR'
p12
F3.5270000000000001
sS'GLN-TRP'
p13
F3.181
sS'TRP-PHE'
p14
F3.5760000000000001
sS'ARG-TYR'
p15
F2.827
sS'GLU-LYS'
p16
F2.4900000000000002
sS'ILE-HIS'
p17
F3.133
sS'LEU-MET'
p18
F3.1930000000000001
sS'GLU-HIS'
p19
F2.7519999999999998
sS'GLY-THR'
p20
F2.2519999999999998
sS'ARG-GLU'
p21
F2.476
sS'PHE-ASN'
p22
F3.0710000000000002
sS'ASN-MET'
p23
F3.093
sS'PRO-THR'
p24
F2.5670000000000002
sS'TYR-GLN'
p25
F2.871
sS'ARG-GLY'
p26
F2.181
sS'VAL-THR'
p27
F2.9020000000000001
sS'ASP-ILE'
p28
F3.121
sS'THR-HIS'
p29
F2.8460000000000001
sS'TYR-GLU'
p30
F2.9129999999999998
sS'ARG-GLN'
p31
F2.5550000000000002
sS'TYR-GLY'
p32
F2.4649999999999999
sS'PHE-ASP'
p33
F3.1339999999999999
sS'CYS-ARG'
p34
F2.9969999999999999
sS'GLY-ASN'
p35
F2.1150000000000002
sS'VAL-LYS'
p36
F3.0819999999999999
sS'LEU-ILE'
p37
F3.0659999999999998
sS'GLN-LEU'
p38
F2.8839999999999999
sS'GLU-MET'
p39
F3.2549999999999999
sS'ASP-THR'
p40
F2.6930000000000001
sS'ASN-PHE'
p41
F3.1059999999999999
sS'GLU-PRO'
p42
F2.5819999999999999
sS'TYR-LEU'
p43
F3.0640000000000001
sS'LYS-ARG'
p44
F2.8100000000000001
sS'GLY-ASP'
p45
F2.2949999999999999
sS'PRO-GLN'
p46
F2.504
sS'CYS-MET'
p47
F3.3799999999999999
sS'HIS-ARG'
p48
F2.847
sS'GLU-THR'
p49
F2.6899999999999999
sS'ILE-THR'
p50
F2.9529999999999998
sS'SER-PRO'
p51
F2.4710000000000001
sS'GLY-CYS'
p52
F2.3380000000000001
sS'ARG-LEU'
p53
F2.8490000000000002
sS'PRO-GLU'
p54
F2.6459999999999999
sS'ASP-LEU'
p55
F3.0449999999999999
sS'PHE-VAL'
p56
F3.1970000000000001
sS'ASN-VAL'
p57
F2.8370000000000002
sS'ALA-MET'
p58
F2.9809999999999999
sS'LEU-PRO'
p59
F2.8140000000000001
sS'LEU-SER'
p60
F2.7719999999999998
sS'ASN-ARG'
p61
F2.5510000000000002
sS'SER-THR'
p62
F2.5539999999999998
sS'LYS-VAL'
p63
F3.0310000000000001
sS'LYS-GLN'
p64
F2.6000000000000001
sS'GLN-VAL'
p65
F2.883
sS'TYR-PHE'
p66
F3.2490000000000001
sS'ASP-VAL'
p67
F3.012
sS'ASN-GLY'
p68
F2.169
sS'ARG-PHE'
p69
F3.0379999999999998
sS'SER-HIS'
p70
F2.694
sS'ALA-ILE'
p71
F2.8340000000000001
sS'ASN-GLU'
p72
F2.5470000000000002
sS'CYS-GLN'
p73
F3.1059999999999999
sS'TYR-PRO'
p74
F2.7989999999999999
sS'LYS-GLU'
p75
F2.476
sS'CYS-GLU'
p76
F3.2799999999999998
sS'ASN-GLN'
p77
F2.492
sS'CYS-GLY'
p78
F2.5750000000000002
sS'GLN-SER'
p79
F2.4470000000000001
sS'HIS-LYS'
p80
F2.831
sS'LYS-GLY'
p81
F2.3109999999999999
sS'VAL-MET'
p82
F3.298
sS'GLU-GLY'
p83
F2.3170000000000002
sS'THR-SER'
p84
F2.516
sS'TYR-THR'
p85
F2.9329999999999998
sS'PRO-PRO'
p86
F1.425
sS'ILE-PHE'
p87
F3.1190000000000002
sS'PHE-LEU'
p88
F3.0979999999999999
sS'GLU-GLU'
p89
F1.7030000000000001
sS'SER-ARG'
p90
F2.4630000000000001
sS'GLY-ALA'
p91
F2.206
sS'TYR-ASN'
p92
F2.7429999999999999
sS'GLU-GLN'
p93
F2.6749999999999998
sS'TRP-ARG'
p94
F3.129
sS'LEU-GLU'
p95
F3.02
sS'LEU-GLY'
p96
F2.5550000000000002
sS'LYS-SER'
p97
F2.5910000000000002
sS'MET-VAL'
p98
F3.27
sS'SER-ALA'
p99
F2.4390000000000001
sS'PRO-HIS'
p100
F2.7210000000000001
sS'MET-THR'
p101
F3.0590000000000002
sS'ALA-PHE'
p102
F2.9350000000000001
sS'MET-PRO'
p103
F3.1850000000000001
sS'GLY-SER'
p104
F2.137
sS'LEU-GLN'
p105
F2.8290000000000002
sS'VAL-LEU'
p106
F2.9470000000000001
sS'LEU-CYS'
p107
F3.2050000000000001
sS'LYS-TYR'
p108
F2.9089999999999998
sS'ASP-ALA'
p109
F2.7269999999999999
sS'ILE-LEU'
p110
F3.0110000000000001
sS'TRP-VAL'
p111
F3.4380000000000002
sS'PHE-PRO'
p112
F2.9329999999999998
sS'ALA-ALA'
p113
F1.4630000000000001
sS'ARG-TRP'
p114
F3.044
sS'MET-GLN'
p115
F3.028
sS'ILE-LYS'
p116
F3.2229999999999999
sS'MET-ARG'
p117
F3.153
sS'ALA-CYS'
p118
F3.0899999999999999
sS'THR-ARG'
p119
F2.6379999999999999
sS'CYS-ILE'
p120
F3.3180000000000001
sS'LEU-ASN'
p121
F2.8700000000000001
sS'LEU-ASP'
p122
F3.0329999999999999
sS'PHE-TRP'
p123
F3.5249999999999999
sS'MET-GLY'
p124
F2.7189999999999999
sS'THR-PHE'
p125
F3.0259999999999998
sS'MET-GLU'
p126
F3.258
sS'THR-TRP'
p127
F3.294
sS'THR-TYR'
p128
F2.8959999999999999
sS'CYS-VAL'
p129
F3.2709999999999999
sS'ARG-ALA'
p130
F2.5350000000000001
sS'ALA-TYR'
p131
F2.7589999999999999
sS'ASP-PRO'
p132
F2.5800000000000001
sS'ARG-CYS'
p133
F2.9249999999999998
sS'GLN-ARG'
p134
F2.5739999999999998
sS'HIS-TRP'
p135
F3.4100000000000001
sS'PRO-SER'
p136
F2.4830000000000001
sS'VAL-VAL'
p137
F1.9810000000000001
sS'LEU-LYS'
p138
F3.0449999999999999
sS'GLY-LYS'
p139
F2.286
sS'CYS-ASN'
p140
F2.9630000000000001
sS'GLY-TRP'
p141
F2.8679999999999999
sS'THR-CYS'
p142
F3.016
sS'LYS-LYS'
p143
F1.752
sS'CYS-ASP'
p144
F3.1429999999999998
sS'TYR-ASP'
p145
F2.8759999999999999
sS'VAL-PRO'
p146
F2.8959999999999999
sS'THR-VAL'
p147
F2.8879999999999999
sS'ASP-TYR'
p148
F2.8849999999999998
sS'PRO-CYS'
p149
F2.9390000000000001
sS'VAL-SER'
p150
F2.8100000000000001
sS'ARG-HIS'
p151
F2.7189999999999999
sS'CYS-PRO'
p152
F2.9350000000000001
sS'MET-LYS'
p153
F3.1469999999999998
sS'ALA-SER'
p154
F2.4359999999999999
sS'TYR-SER'
p155
F2.726
sS'GLY-ARG'
p156
F2.1880000000000002
sS'GLN-ALA'
p157
F2.556
sS'MET-LEU'
p158
F3.1269999999999998
sS'ASN-HIS'
p159
F2.7869999999999999
sS'VAL-CYS'
p160
F3.3969999999999998
sS'GLN-TYR'
p161
F2.8100000000000001
sS'GLN-PHE'
p162
F3.0670000000000002
sS'ILE-ASN'
p163
F2.9049999999999998
sS'GLU-ASN'
p164
F2.5299999999999998
sS'CYS-ALA'
p165
F3.048
sS'ASN-ASP'
p166
F2.609
sS'ASN-PRO'
p167
F2.4180000000000001
sS'PRO-ARG'
p168
F2.6019999999999999
sS'LYS-TRP'
p169
F3.3410000000000002
sS'ASN-ASN'
p170
F1.2210000000000001
sS'ASN-THR'
p171
F2.581
sS'THR-ALA'
p172
F2.5499999999999998
sS'LYS-ALA'
p173
F2.7770000000000001
sS'LYS-PRO'
p174
F2.6549999999999998
sS'SER-GLN'
p175
F2.4700000000000002
sS'ILE-VAL'
p176
F3.1190000000000002
sS'ASP-ARG'
p177
F2.4660000000000002
sS'ASP-MET'
p178
F3.149
sS'CYS-TYR'
p179
F2.9129999999999998
sS'PRO-TRP'
p180
F3.1960000000000002
sS'THR-GLU'
p181
F2.7200000000000002
sS'TRP-ALA'
p182
F3.0649999999999999
sS'ILE-CYS'
p183
F3.3029999999999999
sS'LYS-ILE'
p184
F3.2010000000000001
sS'GLN-CYS'
p185
F3.1669999999999998
sS'TYR-ALA'
p186
F2.8079999999999998
sS'ARG-ASP'
p187
F2.3959999999999999
sS'SER-GLU'
p188
F2.5070000000000001
sS'TRP-HIS'
p189
F3.3109999999999999
sS'ALA-ASN'
p190
F2.5859999999999999
sS'GLU-CYS'
p191
F3.3039999999999998
sS'PRO-MET'
p192
F3.198
sS'TYR-HIS'
p193
F2.9390000000000001
sS'PHE-MET'
p194
F3.21
sS'GLU-TYR'
p195
F2.8919999999999999
sS'SER-TRP'
p196
F3.0950000000000002
sS'PHE-ARG'
p197
F3.1080000000000001
sS'GLY-ILE'
p198
F2.6579999999999999
sS'TYR-VAL'
p199
F3.1019999999999999
sS'ASN-TYR'
p200
F2.7759999999999998
sS'SER-ILE'
p201
F2.8450000000000002
sS'GLN-PRO'
p202
F2.528
sS'PHE-TYR'
p203
F3.1720000000000002
sS'ALA-VAL'
p204
F2.782
sS'HIS-HIS'
p205
F1.2230000000000001
sS'THR-ASN'
p206
F2.5760000000000001
sS'CYS-LEU'
p207
F3.286
sS'LYS-MET'
p208
F3.2789999999999999
sS'LYS-ASP'
p209
F2.5350000000000001
sS'HIS-ASN'
p210
F2.6669999999999998
sS'ILE-GLN'
p211
F2.9900000000000002
sS'VAL-HIS'
p212
F3.085
sS'ALA-LEU'
p213
F2.6960000000000002
sS'HIS-ASP'
p214
F2.766
sS'ILE-TYR'
p215
F3.0899999999999999
sS'ILE-GLU'
p216
F3.1179999999999999
sS'ASN-TRP'
p217
F3.2959999999999998
sS'ILE-GLY'
p218
F2.7170000000000001
sS'ASN-CYS'
p219
F2.8980000000000001
sS'GLU-SER'
p220
F2.5150000000000001
sS'ALA-TRP'
p221
F3.0840000000000001
sS'HIS-CYS'
p222
F3.4670000000000001
sS'HIS-MET'
p223
F3.2810000000000001
sS'ILE-PRO'
p224
F2.903
sS'LYS-PHE'
p225
F3.2349999999999999
sS'TRP-PRO'
p226
F3.2959999999999998
sS'GLU-TRP'
p227
F3.3199999999999998
sS'PHE-HIS'
p228
F3.2530000000000001
sS'GLY-TYR'
p229
F2.4319999999999999
sS'SER-GLY'
p230
F2.1000000000000001
sS'CYS-TRP'
p231
F3.9209999999999998
sS'ASP-LYS'
p232
F2.5569999999999999
sS'ASN-ILE'
p233
F2.8799999999999999
sS'HIS-SER'
p234
F2.6499999999999999
sS'LYS-CYS'
p235
F3.3570000000000002
sS'GLY-PHE'
p236
F2.7149999999999999
sS'GLY-LEU'
p237
F2.5299999999999998
sS'MET-SER'
p238
F2.9470000000000001
sS'VAL-ALA'
p239
F2.8159999999999998
sS'SER-LEU'
p240
F2.7789999999999999
sS'TRP-LYS'
p241
F3.331
sS'VAL-TYR'
p242
F3.1720000000000002
sS'VAL-PHE'
p243
F3.2189999999999999
sS'ARG-THR'
p244
F2.625
sS'TYR-TRP'
p245
F3.5369999999999999
sS'GLN-GLN'
p246
F1.325
sS'GLU-PHE'
p247
F3.181
sS'VAL-ILE'
p248
F3.1019999999999999
sS'HIS-GLN'
p249
F2.9220000000000002
sS'GLN-GLY'
p250
F2.2450000000000001
sS'PHE-ALA'
p251
F2.9620000000000002
sS'HIS-GLU'
p252
F2.7610000000000001
sS'ARG-PRO'
p253
F2.5619999999999998
sS'HIS-GLY'
p254
F2.5150000000000001
sS'SER-ASN'
p255
F2.3959999999999999
sS'ALA-THR'
p256
F2.593
sS'GLN-GLU'
p257
F2.6640000000000001
sS'GLN-LYS'
p258
F2.6400000000000001
sS'CYS-HIS'
p259
F3.2770000000000001
sS'GLN-ASP'
p260
F2.593
sS'LEU-HIS'
p261
F3.02
sS'SER-LYS'
p262
F2.617
sS'TRP-LEU'
p263
F3.347
sS'CYS-SER'
p264
F2.8149999999999999
sS'LYS-THR'
p265
F2.855
sS'HIS-LEU'
p266
F3.0750000000000002
sS'LEU-ARG'
p267
F2.899
sS'GLY-VAL'
p268
F2.492
sS'GLN-ASN'
p269
F2.5169999999999999
sS'TYR-ARG'
p270
F2.8849999999999998
sS'PRO-TYR'
p271
F2.754
sS'ASP-PHE'
p272
F3.2050000000000001
sS'TRP-CYS'
p273
F3.9670000000000001
sS'ASN-LEU'
p274
F2.8679999999999999
sS'SER-MET'
p275
F3.0059999999999998
sS'HIS-ILE'
p276
F3.2090000000000001
sS'SER-TYR'
p277
F2.6749999999999998
sS'MET-TYR'
p278
F3.1669999999999998
sS'GLU-ILE'
p279
F3.0870000000000002
sS'PHE-CYS'
p280
F3.3210000000000002
sS'PRO-LEU'
p281
F2.827
sS'GLY-MET'
p282
F2.7050000000000001
sS'ARG-ILE'
p283
F2.9689999999999999
sS'HIS-THR'
p284
F2.8260000000000001
sS'THR-GLN'
p285
F2.552
sS'TRP-THR'
p286
F3.3159999999999998
sS'LYS-LEU'
p287
F3.0739999999999998
sS'THR-GLY'
p288
F2.2450000000000001
sS'ASP-TRP'
p289
F3.2679999999999998
sS'TYR-MET'
p290
F3.2589999999999999
sS'PHE-ILE'
p291
F3.1349999999999998
sS'PRO-VAL'
p292
F2.8999999999999999
sS'MET-ASN'
p293
F2.9649999999999999
sS'LEU-TYR'
p294
F3.097
sS'PHE-PHE'
p295
F2.1120000000000001
sS'CYS-PHE'
p296
F3.387
sS'TRP-ILE'
p297
F3.5489999999999999
sS'PRO-ASN'
p298
F2.4590000000000001
sS'CYS-CYS'
p299
F0.35299999999999998
sS'SER-ASP'
p300
F2.5129999999999999
sS'ARG-MET'
p301
F3.0489999999999999
sS'SER-PHE'
p302
F2.9380000000000002
sS'SER-SER'
p303
F1.3140000000000001
sS'ASN-LYS'
p304
F2.536
sS'CYS-THR'
p305
F3.073
sS'ILE-TRP'
p306
F3.6120000000000001
sS'PRO-ASP'
p307
F2.6000000000000001
sS'THR-ASP'
p308
F2.7040000000000002
sS'SER-CYS'
p309
F2.927
sS'MET-ASP'
p310
F3.1800000000000002
sS'GLN-MET'
p311
F3.1709999999999998
sS'MET-TRP'
p312
F3.7010000000000001
sS'ARG-VAL'
p313
F2.8500000000000001
sS'GLY-GLN'
p314
F2.2610000000000001
sS'THR-LYS'
p315
F2.823
sS'TRP-MET'
p316
F3.6520000000000001
sS'ARG-ARG'
p317
F1.508
sS'ILE-ASP'
p318
F3.0899999999999999
sS'GLY-GLY'
p319
F0.86799999999999999
sS'GLY-GLU'
p320
F2.399
sS'ALA-ARG'
p321
F2.496
sS'GLU-ARG'
p322
F2.5
sS'HIS-VAL'
p323
F3.129
sS'VAL-ARG'
p324
F2.907
sS'ASN-SER'
p325
F2.375
sS'ALA-LYS'
p326
F2.7480000000000002
sS'VAL-GLN'
p327
F2.96
sS'TRP-ASN'
p328
F3.161
sS'TYR-ILE'
p329
F3.1299999999999999
sS'TRP-GLY'
p330
F2.8260000000000001
sS'PRO-PHE'
p331
F2.956
sS'GLY-HIS'
p332
F2.4409999999999998
sS'PHE-SER'
p333
F2.903
sS'TRP-ASP'
p334
F3.3330000000000002
sS'TRP-GLN'
p335
F3.0760000000000001
sS'LEU-ALA'
p336
F2.7509999999999999
sS'VAL-GLU'
p337
F2.9790000000000001
sS'ALA-HIS'
p338
F2.6499999999999999
sS'ARG-ASN'
p339
F2.4820000000000002
sS'LEU-THR'
p340
F2.9020000000000001
sS'TYR-CYS'
p341
F3.1070000000000002
sS'THR-THR'
p342
F1.5669999999999999
sS'THR-LEU'
p343
F2.9060000000000001
sS'VAL-ASN'
p344
F2.871
sS'LEU-TRP'
p345
F3.3090000000000002
sS'GLU-ASP'
p346
F2.6920000000000002
sS'ILE-SER'
p347
F2.8399999999999999
sS'ILE-ARG'
p348
F2.9670000000000001
sS'TRP-GLU'
p349
F3.3460000000000001
sS'ILE-MET'
p350
F3.2730000000000001
sS'MET-PHE'
p351
F3.2749999999999999
sS'PRO-ALA'
p352
F2.4889999999999999
sS'PRO-GLY'
p353
F2.29
sS'GLN-THR'
p354
F2.6240000000000001
sS'MET-ALA'
p355
F3.036
sS'TRP-SER'
p356
F3.2000000000000002
sS'ASP-HIS'
p357
F2.8010000000000002
sS'ARG-SER'
p358
F2.4340000000000002
sS'GLN-HIS'
p359
F2.7690000000000001
sS'HIS-PHE'
p360
F3.2919999999999998
sS'LEU-LEU'
p361
F1.976
sS'ALA-GLN'
p362
F2.5419999999999998
sS'ASP-ASN'
p363
F2.585
sS'SER-VAL'
p364
F2.806
sS'MET-ILE'
p365
F3.2509999999999999
sS'ALA-PRO'
p366
F2.5720000000000001
sS'ASP-ASP'
p367
F1.728
sS'ALA-GLY'
p368
F2.2879999999999998
sS'TRP-TRP'
p369
F1.8999999999999999
sS'MET-CYS'
p370
F3.6230000000000002
sS'ALA-GLU'
p371
F2.71
sS'THR-PRO'
p372
F2.6000000000000001
sS'HIS-ALA'
p373
F2.8100000000000001
sS'GLN-ILE'
p374
F2.9540000000000002
sS'GLU-VAL'
p375
F3.0230000000000001
sS'LYS-ASN'
p376
F2.5859999999999999
sS'ASN-ALA'
p377
F2.6179999999999999
sS'THR-ILE'
p378
F2.8860000000000001
sS'ASP-CYS'
p379
F3.2360000000000002
sS'PRO-LYS'
p380
F2.6859999999999999
sS'TYR-TYR'
p381
F1.917
sS'ARG-LYS'
p382
F2.7349999999999999
sS'ILE-ALA'
p383
F2.839
sS'ASP-SER'
p384
F2.5059999999999998
sS'CYS-LYS'
p385
F3.282
sS'GLU-ALA'
p386
F2.6800000000000002
sS'PHE-GLU'
p387
F3.181
sS'GLU-LEU'
p388
F3.0049999999999999
sS'PHE-GLY'
p389
F2.681
sS'LYS-HIS'
p390
F2.8460000000000001
sS'HIS-PRO'
p391
F2.7570000000000001
sS'ILE-ILE'
p392
F2.0049999999999999
sS'MET-HIS'
p393
F3.1859999999999999
sS'VAL-GLY'
p394
F2.5760000000000001
sS'THR-MET'
p395
F3.0419999999999998
sS'PHE-THR'
p396
F3.0219999999999998
sS'VAL-TRP'
p397
F3.456
sS'PHE-LYS'
p398
F3.1680000000000001
sS'GLY-PRO'
p399
F2.202
sS'PHE-GLN'
p400
F3.1269999999999998
sS'LEU-PHE'
p401
F3.1200000000000001
s.