(dp1
S'MET-MET'
p2
F-2.056
sS'PRO-ILE'
p3
F-0.56399999999999995
sS'TYR-LYS'
p4
F-1.25
sS'VAL-ASP'
p5
F-0.46200000000000002
sS'ASP-GLN'
p6
F-1.083
sS'HIS-TYR'
p7
F-1.296
sS'ASP-GLU'
p8
F-1.034
sS'ALA-ASP'
p9
F-0.46999999999999997
sS'ASP-GLY'
p10
F-0.59199999999999997
sS'LEU-VAL'
p11
F-0.53300000000000003
sS'TRP-TYR'
p12
F-1.0489999999999999
sS'GLN-TRP'
p13
F-1.093
sS'TRP-PHE'
p14
F-0.88800000000000001
sS'ARG-TYR'
p15
F-1.504
sS'GLU-LYS'
p16
F-1.355
sS'ILE-HIS'
p17
F-0.751
sS'LEU-MET'
p18
F-0.44600000000000001
sS'GLU-HIS'
p19
F-1.2110000000000001
sS'GLY-THR'
p20
F-0.57499999999999996
sS'ARG-GLU'
p21
F-1.5580000000000001
sS'PHE-ASN'
p22
F-0.88400000000000001
sS'ASN-MET'
p23
F-0.52700000000000002
sS'PRO-THR'
p24
F-0.78700000000000003
sS'TYR-GLN'
p25
F-1.2549999999999999
sS'ARG-GLY'
p26
F-1.0820000000000001
sS'VAL-THR'
p27
F-0.47399999999999998
sS'ASP-ILE'
p28
F-0.5
sS'THR-HIS'
p29
F-0.90400000000000003
sS'TYR-GLU'
p30
F-1.23
sS'ARG-GLN'
p31
F-1.4610000000000001
sS'TYR-GLY'
p32
F-0.88800000000000001
sS'PHE-ASP'
p33
F-0.80600000000000005
sS'CYS-ARG'
p34
F-0.69999999999999996
sS'GLY-ASN'
p35
F-0.82199999999999995
sS'VAL-LYS'
p36
F-0.53400000000000003
sS'LEU-ILE'
p37
F-0.59599999999999997
sS'GLN-LEU'
p38
F-0.873
sS'GLU-MET'
p39
F-0.49299999999999999
sS'ASP-THR'
p40
F-0.80200000000000005
sS'ASN-PHE'
p41
F-0.85799999999999998
sS'GLU-PRO'
p42
F-1.03
sS'TYR-LEU'
p43
F-0.98299999999999998
sS'LYS-ARG'
p44
F-1.254
sS'GLY-ASP'
p45
F-0.66200000000000003
sS'PRO-GLN'
p46
F-1.093
sS'CYS-MET'
p47
F0.021000000000000001
sS'HIS-ARG'
p48
F-1.3120000000000001
sS'GLU-THR'
p49
F-0.91900000000000004
sS'ILE-THR'
p50
F-0.55500000000000005
sS'SER-PRO'
p51
F-0.74099999999999999
sS'GLY-CYS'
p52
F-0.28000000000000003
sS'ARG-LEU'
p53
F-1.105
sS'PRO-GLU'
p54
F-0.96499999999999997
sS'ASP-LEU'
p55
F-0.58299999999999996
sS'PHE-VAL'
p56
F-0.63600000000000001
sS'ASN-VAL'
p57
F-0.66400000000000003
sS'ALA-MET'
p58
F-0.21299999999999999
sS'LEU-PRO'
p59
F-0.68000000000000005
sS'LEU-SER'
p60
F-0.59199999999999997
sS'ASN-ARG'
p61
F-1.3819999999999999
sS'SER-THR'
p62
F-0.68700000000000006
sS'LYS-VAL'
p63
F-0.58499999999999996
sS'LYS-GLN'
p64
F-1.212
sS'GLN-VAL'
p65
F-0.753
sS'TYR-PHE'
p66
F-1.1060000000000001
sS'ASP-VAL'
p67
F-0.49399999999999999
sS'ASN-GLY'
p68
F-0.78700000000000003
sS'ARG-PHE'
p69
F-1.2010000000000001
sS'SER-HIS'
p70
F-0.89700000000000002
sS'ALA-ILE'
p71
F-0.35499999999999998
sS'ASN-GLU'
p72
F-1.1899999999999999
sS'CYS-GLN'
p73
F-0.36699999999999999
sS'TYR-PRO'
p74
F-1.123
sS'LYS-GLU'
p75
F-1.373
sS'CYS-GLU'
p76
F-0.188
sS'ASN-GLN'
p77
F-1.232
sS'CYS-GLY'
p78
F-0.108
sS'GLN-SER'
p79
F-1.0089999999999999
sS'HIS-LYS'
p80
F-1.1160000000000001
sS'LYS-GLY'
p81
F-0.75600000000000001
sS'VAL-MET'
p82
F-0.23599999999999999
sS'GLU-GLY'
p83
F-0.73399999999999999
sS'THR-SER'
p84
F-0.71799999999999997
sS'TYR-THR'
p85
F-1
sS'PRO-PRO'
p86
F-1.9419999999999999
sS'ILE-PHE'
p87
F-0.82599999999999996
sS'PHE-LEU'
p88
F-0.86299999999999999
sS'GLU-GLU'
p89
F-2.1499999999999999
sS'SER-ARG'
p90
F-1.2010000000000001
sS'GLY-ALA'
p91
F-0.30499999999999999
sS'TYR-ASN'
p92
F-1.264
sS'GLU-GLN'
p93
F-1.181
sS'TRP-ARG'
p94
F-1.3480000000000001
sS'LEU-GLU'
p95
F-0.73399999999999999
sS'LEU-GLY'
p96
F-0.41299999999999998
sS'LYS-SER'
p97
F-0.88300000000000001
sS'MET-VAL'
p98
F-0.26100000000000001
sS'SER-ALA'
p99
F-0.45900000000000002
sS'PRO-HIS'
p100
F-0.99299999999999999
sS'MET-THR'
p101
F-0.48499999999999999
sS'ALA-PHE'
p102
F-0.57599999999999996
sS'MET-PRO'
p103
F-0.34599999999999997
sS'GLY-SER'
p104
F-0.55200000000000005
sS'LEU-GLN'
p105
F-0.90200000000000002
sS'VAL-LEU'
p106
F-0.55700000000000005
sS'LEU-CYS'
p107
F-0.16300000000000001
sS'LYS-TYR'
p108
F-1.224
sS'ASP-ALA'
p109
F-0.44700000000000001
sS'ILE-LEU'
p110
F-0.64300000000000002
sS'TRP-VAL'
p111
F-0.57799999999999996
sS'PHE-PRO'
p112
F-0.89800000000000002
sS'ALA-ALA'
p113
F-1.2969999999999999
sS'ARG-TRP'
p114
F-1.4159999999999999
sS'MET-GLN'
p115
F-0.68600000000000005
sS'ILE-LYS'
p116
F-0.54700000000000004
sS'MET-ARG'
p117
F-0.82099999999999995
sS'ALA-CYS'
p118
F0.157
sS'THR-ARG'
p119
F-1.1779999999999999
sS'CYS-ILE'
p120
F-0.021999999999999999
sS'LEU-ASN'
p121
F-0.76500000000000001
sS'LEU-ASP'
p122
F-0.59699999999999998
sS'PHE-TRP'
p123
F-0.97299999999999998
sS'MET-GLY'
p124
F-0.25700000000000001
sS'THR-PHE'
p125
F-0.79700000000000004
sS'MET-GLU'
p126
F-0.51200000000000001
sS'THR-TRP'
p127
F-0.78900000000000003
sS'THR-TYR'
p128
F-1.016
sS'CYS-VAL'
p129
F0.023
sS'ARG-ALA'
p130
F-0.95399999999999996
sS'ALA-TYR'
p131
F-0.81200000000000006
sS'ASP-PRO'
p132
F-0.91800000000000004
sS'ARG-CYS'
p133
F-0.68000000000000005
sS'GLN-ARG'
p134
F-1.454
sS'HIS-TRP'
p135
F-0.97899999999999998
sS'PRO-SER'
p136
F-0.73699999999999999
sS'VAL-VAL'
p137
F-1.415
sS'LEU-LYS'
p138
F-0.70099999999999996
sS'GLY-LYS'
p139
F-0.77800000000000002
sS'CYS-ASN'
p140
F-0.45100000000000001
sS'GLY-TRP'
p141
F-0.623
sS'THR-CYS'
p142
F-0.20799999999999999
sS'LYS-LYS'
p143
F-2.1059999999999999
sS'CYS-ASP'
p144
F-0.254
sS'TYR-ASP'
p145
F-1.151
sS'VAL-PRO'
p146
F-0.48599999999999999
sS'THR-VAL'
p147
F-0.49099999999999999
sS'ASP-TYR'
p148
F-1.1359999999999999
sS'PRO-CYS'
p149
F-0.25700000000000001
sS'VAL-SER'
p150
F-0.42699999999999999
sS'ARG-HIS'
p151
F-1.427
sS'CYS-PRO'
p152
F-0.25900000000000001
sS'MET-LYS'
p153
F-0.57999999999999996
sS'ALA-SER'
p154
F-0.46600000000000003
sS'TYR-SER'
p155
F-1.0489999999999999
sS'GLY-ARG'
p156
F-1.079
sS'GLN-ALA'
p157
F-0.74399999999999999
sS'MET-LEU'
p158
F-0.499
sS'ASN-HIS'
p159
F-1.0880000000000001
sS'VAL-CYS'
p160
F0.14999999999999999
sS'GLN-TYR'
p161
F-1.3100000000000001
sS'GLN-PHE'
p162
F-1.01
sS'ILE-ASN'
p163
F-0.754
sS'GLU-ASN'
p164
F-1.198
sS'CYS-ALA'
p165
F0.13800000000000001
sS'ASN-ASP'
p166
F-1.016
sS'ASN-PRO'
p167
F-1.0649999999999999
sS'PRO-ARG'
p168
F-1.212
sS'LYS-TRP'
p169
F-0.879
sS'ASN-ASN'
p170
F-2.3809999999999998
sS'ASN-THR'
p171
F-0.91200000000000003
sS'THR-ALA'
p172
F-0.48899999999999999
sS'LYS-ALA'
p173
F-0.52300000000000002
sS'LYS-PRO'
p174
F-0.94999999999999996
sS'SER-GLN'
p175
F-0.99199999999999999
sS'ILE-VAL'
p176
F-0.40400000000000003
sS'ASP-ARG'
p177
F-1.474
sS'ASP-MET'
p178
F-0.51000000000000001
sS'CYS-TYR'
p179
F-0.72799999999999998
sS'PRO-TRP'
p180
F-0.86599999999999999
sS'THR-GLU'
p181
F-0.89400000000000002
sS'TRP-ALA'
p182
F-0.61499999999999999
sS'ILE-CYS'
p183
F-0.039
sS'LYS-ILE'
p184
F-0.58599999999999997
sS'GLN-CYS'
p185
F-0.29499999999999998
sS'TYR-ALA'
p186
F-0.79000000000000004
sS'ARG-ASP'
p187
F-1.528
sS'SER-GLU'
p188
F-0.95299999999999996
sS'TRP-HIS'
p189
F-1.018
sS'ALA-ASN'
p190
F-0.58699999999999997
sS'GLU-CYS'
p191
F-0.17999999999999999
sS'PRO-MET'
p192
F-0.31
sS'TYR-HIS'
p193
F-1.26
sS'PHE-MET'
p194
F-0.72399999999999998
sS'GLU-TYR'
p195
F-1.2529999999999999
sS'SER-TRP'
p196
F-0.83099999999999996
sS'PHE-ARG'
p197
F-1.1459999999999999
sS'GLY-ILE'
p198
F-0.29299999999999998
sS'TYR-VAL'
p199
F-0.82099999999999995
sS'ASN-TYR'
p200
F-1.2330000000000001
sS'SER-ILE'
p201
F-0.51800000000000002
sS'GLN-PRO'
p202
F-1.077
sS'PHE-TYR'
p203
F-1.1850000000000001
sS'ALA-VAL'
p204
F-0.28599999999999998
sS'HIS-HIS'
p205
F-2.782
sS'THR-ASN'
p206
F-0.92300000000000004
sS'CYS-LEU'
p207
F-0.106
sS'LYS-MET'
p208
F-0.45600000000000002
sS'LYS-ASP'
p209
F-1.2
sS'HIS-ASN'
p210
F-1.1910000000000001
sS'ILE-GLN'
p211
F-0.75600000000000001
sS'VAL-HIS'
p212
F-0.623
sS'ALA-LEU'
p213
F-0.48599999999999999
sS'HIS-ASP'
p214
F-1.0700000000000001
sS'ILE-TYR'
p215
F-0.95299999999999996
sS'ILE-GLU'
p216
F-0.63100000000000001
sS'ASN-TRP'
p217
F-0.90600000000000003
sS'ILE-GLY'
p218
F-0.23599999999999999
sS'ASN-CYS'
p219
F-0.51200000000000001
sS'GLU-SER'
p220
F-0.94799999999999995
sS'ALA-TRP'
p221
F-0.60599999999999998
sS'HIS-CYS'
p222
F-0.11600000000000001
sS'HIS-MET'
p223
F-0.60499999999999998
sS'ILE-PRO'
p224
F-0.60699999999999998
sS'LYS-PHE'
p225
F-0.79600000000000004
sS'TRP-PRO'
p226
F-0.78200000000000003
sS'GLU-TRP'
p227
F-0.97499999999999998
sS'PHE-HIS'
p228
F-0.91200000000000003
sS'GLY-TYR'
p229
F-0.90800000000000003
sS'SER-GLY'
p230
F-0.57699999999999996
sS'CYS-TRP'
p231
F-0.068000000000000005
sS'ASP-LYS'
p232
F-1.177
sS'ASN-ILE'
p233
F-0.77400000000000002
sS'HIS-SER'
p234
F-0.92600000000000005
sS'LYS-CYS'
p235
F-0.113
sS'GLY-PHE'
p236
F-0.57099999999999995
sS'GLY-LEU'
p237
F-0.438
sS'MET-SER'
p238
F-0.41299999999999998
sS'VAL-ALA'
p239
F-0.26100000000000001
sS'SER-LEU'
p240
F-0.59699999999999998
sS'TRP-LYS'
p241
F-0.91500000000000004
sS'VAL-TYR'
p242
F-0.748
sS'VAL-PHE'
p243
F-0.61299999999999999
sS'ARG-THR'
p244
F-1.175
sS'TYR-TRP'
p245
F-1.034
sS'GLN-GLN'
p246
F-2.5219999999999998
sS'GLU-PHE'
p247
F-0.879
sS'VAL-ILE'
p248
F-0.41699999999999998
sS'HIS-GLN'
p249
F-1.0529999999999999
sS'GLN-GLY'
p250
F-0.81499999999999995
sS'PHE-ALA'
p251
F-0.53700000000000003
sS'HIS-GLU'
p252
F-1.1850000000000001
sS'ARG-PRO'
p253
F-1.25
sS'HIS-GLY'
p254
F-0.66500000000000004
sS'SER-ASN'
p255
F-0.96599999999999997
sS'ALA-THR'
p256
F-0.44700000000000001
sS'GLN-GLU'
p257
F-1.1850000000000001
sS'GLN-LYS'
p258
F-1.1890000000000001
sS'CYS-HIS'
p259
F-0.30399999999999999
sS'GLN-ASP'
p260
F-1.137
sS'LEU-HIS'
p261
F-0.81200000000000006
sS'SER-LYS'
p262
F-0.873
sS'TRP-LEU'
p263
F-0.79300000000000004
sS'CYS-SER'
p264
F-0.30499999999999999
sS'LYS-THR'
p265
F-0.78800000000000003
sS'HIS-LEU'
p266
F-0.77800000000000002
sS'LEU-ARG'
p267
F-1.052
sS'GLY-VAL'
p268
F-0.32900000000000001
sS'GLN-ASN'
p269
F-1.222
sS'TYR-ARG'
p270
F-1.4510000000000001
sS'PRO-TYR'
p271
F-1.1599999999999999
sS'ASP-PHE'
p272
F-0.753
sS'TRP-CYS'
p273
F-0.027
sS'ASN-LEU'
p274
F-0.77900000000000003
sS'SER-MET'
p275
F-0.35399999999999998
sS'HIS-ILE'
p276
F-0.65900000000000003
sS'SER-TYR'
p277
F-1.0760000000000001
sS'MET-TYR'
p278
F-0.85499999999999998
sS'GLU-ILE'
p279
F-0.65600000000000003
sS'PHE-CYS'
p280
F-0.33300000000000002
sS'PRO-LEU'
p281
F-0.67000000000000004
sS'GLY-MET'
p282
F-0.255
sS'ARG-ILE'
p283
F-0.97399999999999998
sS'HIS-THR'
p284
F-0.93799999999999994
sS'THR-GLN'
p285
F-1.0620000000000001
sS'TRP-THR'
p286
F-0.751
sS'LYS-LEU'
p287
F-0.68300000000000005
sS'THR-GLY'
p288
F-0.58199999999999996
sS'ASP-TRP'
p289
F-0.86399999999999999
sS'TYR-MET'
p290
F-0.79400000000000004
sS'PHE-ILE'
p291
F-0.81899999999999995
sS'PRO-VAL'
p292
F-0.48499999999999999
sS'MET-ASN'
p293
F-0.63100000000000001
sS'LEU-TYR'
p294
F-0.95699999999999996
sS'PHE-PHE'
p295
F-2.1699999999999999
sS'CYS-PHE'
p296
F-0.318
sS'TRP-ILE'
p297
F-0.64100000000000001
sS'PRO-ASN'
p298
F-1.0409999999999999
sS'CYS-CYS'
p299
F-2.5960000000000001
sS'SER-ASP'
p300
F-0.84399999999999997
sS'ARG-MET'
p301
F-0.86199999999999999
sS'SER-PHE'
p302
F-0.75800000000000001
sS'SER-SER'
p303
F-1.7789999999999999
sS'ASN-LYS'
p304
F-1.2030000000000001
sS'CYS-THR'
p305
F-0.20799999999999999
sS'ILE-TRP'
p306
F-0.57099999999999995
sS'PRO-ASP'
p307
F-0.89800000000000002
sS'THR-ASP'
p308
F-0.78700000000000003
sS'SER-CYS'
p309
F-0.20999999999999999
sS'MET-ASP'
p310
F-0.44800000000000001
sS'GLN-MET'
p311
F-0.57099999999999995
sS'MET-TRP'
p312
F-0.46400000000000002
sS'ARG-VAL'
p313
F-0.97299999999999998
sS'GLY-GLN'
p314
F-0.80600000000000005
sS'THR-LYS'
p315
F-0.80800000000000005
sS'TRP-MET'
p316
F-0.51000000000000001
sS'ARG-ARG'
p317
F-2.6920000000000002
sS'ILE-ASP'
p318
F-0.52800000000000002
sS'GLY-GLY'
p319
F-1.401
sS'GLY-GLU'
p320
F-0.66500000000000004
sS'ALA-ARG'
p321
F-0.98199999999999998
sS'GLU-ARG'
p322
F-1.54
sS'HIS-VAL'
p323
F-0.61799999999999999
sS'VAL-ARG'
p324
F-0.89800000000000002
sS'ASN-SER'
p325
F-0.97499999999999998
sS'ALA-LYS'
p326
F-0.54200000000000004
sS'VAL-GLN'
p327
F-0.67600000000000005
sS'TRP-ASN'
p328
F-1.0409999999999999
sS'TYR-ILE'
p329
F-0.90900000000000003
sS'TRP-GLY'
p330
F-0.65700000000000003
sS'PRO-PHE'
p331
F-0.875
sS'GLY-HIS'
p332
F-0.72799999999999998
sS'PHE-SER'
p333
F-0.77700000000000002
sS'TRP-ASP'
p334
F-0.80300000000000005
sS'TRP-GLN'
p335
F-1.1899999999999999
sS'LEU-ALA'
p336
F-0.438
sS'VAL-GLU'
p337
F-0.63100000000000001
sS'ALA-HIS'
p338
F-0.71799999999999997
sS'ARG-ASN'
p339
F-1.4430000000000001
sS'LEU-THR'
p340
F-0.61299999999999999
sS'TYR-CYS'
p341
F-0.63400000000000001
sS'THR-THR'
p342
F-1.802
sS'THR-LEU'
p343
F-0.60799999999999998
sS'VAL-ASN'
p344
F-0.63100000000000001
sS'LEU-TRP'
p345
F-0.83999999999999997
sS'GLU-ASP'
p346
F-1.022
sS'ILE-SER'
p347
F-0.52800000000000002
sS'ILE-ARG'
p348
F-0.97399999999999998
sS'TRP-GLU'
p349
F-0.92800000000000005
sS'ILE-MET'
p350
F-0.38600000000000001
sS'MET-PHE'
p351
F-0.66900000000000004
sS'PRO-ALA'
p352
F-0.53900000000000003
sS'PRO-GLY'
p353
F-0.53900000000000003
sS'GLN-THR'
p354
F-0.98899999999999999
sS'MET-ALA'
p355
F-0.183
sS'TRP-SER'
p356
F-0.745
sS'ASP-HIS'
p357
F-1.05
sS'ARG-SER'
p358
F-1.218
sS'GLN-HIS'
p359
F-1.1719999999999999
sS'HIS-PHE'
p360
F-0.88900000000000001
sS'LEU-LEU'
p361
F-1.6859999999999999
sS'ALA-GLN'
p362
F-0.73099999999999998
sS'ASP-ASN'
p363
F-1.0349999999999999
sS'SER-VAL'
p364
F-0.443
sS'MET-ILE'
p365
F-0.41599999999999998
sS'ALA-PRO'
p366
F-0.47299999999999998
sS'ASP-ASP'
p367
F-1.907
sS'ALA-GLY'
p368
F-0.22800000000000001
sS'TRP-TRP'
p369
F-2.8239999999999998
sS'MET-CYS'
p370
F0.21199999999999999
sS'ALA-GLU'
p371
F-0.56899999999999995
sS'THR-PRO'
p372
F-0.76600000000000001
sS'HIS-ALA'
p373
F-0.60799999999999998
sS'GLN-ILE'
p374
F-0.79900000000000004
sS'GLU-VAL'
p375
F-0.59899999999999998
sS'LYS-ASN'
p376
F-1.143
sS'ASN-ALA'
p377
F-0.57399999999999995
sS'THR-ILE'
p378
F-0.61299999999999999
sS'ASP-CYS'
p379
F-0.182
sS'PRO-LYS'
p380
F-0.92500000000000004
sS'TYR-TYR'
p381
F-2.4849999999999999
sS'ARG-LYS'
p382
F-1.3149999999999999
sS'ILE-ALA'
p383
F-0.35199999999999998
sS'ASP-SER'
p384
F-0.84199999999999997
sS'CYS-LYS'
p385
F-0.189
sS'GLU-ALA'
p386
F-0.59399999999999997
sS'PHE-GLU'
p387
F-0.88200000000000001
sS'GLU-LEU'
p388
F-0.74399999999999999
sS'PHE-GLY'
p389
F-0.58899999999999997
sS'LYS-HIS'
p390
F-1.0860000000000001
sS'HIS-PRO'
p391
F-0.95099999999999996
sS'ILE-ILE'
p392
F-1.6499999999999999
sS'MET-HIS'
p393
F-0.69599999999999995
sS'VAL-GLY'
p394
F-0.25800000000000001
sS'THR-MET'
p395
F-0.47399999999999998
sS'PHE-THR'
p396
F-0.80700000000000005
sS'VAL-TRP'
p397
F-0.60099999999999998
sS'PHE-LYS'
p398
F-0.83899999999999997
sS'GLY-PRO'
p399
F-0.61299999999999999
sS'PHE-GLN'
p400
F-0.97399999999999998
sS'LEU-PHE'
p401
F-0.83899999999999997
s.