(dp1
S'MET-MET'
p2
F-0.79400000000000004
sS'PRO-ILE'
p3
F0.246
sS'TYR-LYS'
p4
F-0.221
sS'VAL-ASP'
p5
F0.502
sS'ASP-GLN'
p6
F-0.17699999999999999
sS'HIS-TYR'
p7
F-0.432
sS'ASP-GLU'
p8
F-0.002
sS'ALA-ASP'
p9
F0.39000000000000001
sS'ASP-GLY'
p10
F0.217
sS'LEU-VAL'
p11
F0.499
sS'TRP-TYR'
p12
F-0.029000000000000001
sS'GLN-TRP'
p13
F-0.014999999999999999
sS'TRP-PHE'
p14
F-0.0089999999999999993
sS'ARG-TYR'
p15
F-0.48599999999999999
sS'GLU-LYS'
p16
F-0.44900000000000001
sS'ILE-HIS'
p17
F0.27300000000000002
sS'LEU-MET'
p18
F0.46400000000000002
sS'GLU-HIS'
p19
F-0.40300000000000002
sS'GLY-THR'
p20
F0.099000000000000005
sS'ARG-GLU'
p21
F-0.747
sS'PHE-ASN'
p22
F0.092999999999999999
sS'ASN-MET'
p23
F0.372
sS'PRO-THR'
p24
F-0.189
sS'TYR-GLN'
p25
F-0.26700000000000002
sS'ARG-GLY'
p26
F-0.41999999999999998
sS'VAL-THR'
p27
F0.48199999999999998
sS'ASP-ILE'
p28
F0.55000000000000004
sS'THR-HIS'
p29
F-0.029999999999999999
sS'TYR-GLU'
p30
F-0.27900000000000003
sS'ARG-GLN'
p31
F-0.53500000000000003
sS'TYR-GLY'
p32
F-0.081000000000000003
sS'PHE-ASP'
p33
F0.31
sS'CYS-ARG'
p34
F0.32600000000000001
sS'GLY-ASN'
p35
F-0.20000000000000001
sS'VAL-LYS'
p36
F0.57799999999999996
sS'LEU-ILE'
p37
F0.36199999999999999
sS'GLN-LEU'
p38
F0.13300000000000001
sS'GLU-MET'
p39
F0.44
sS'ASP-THR'
p40
F0.034000000000000002
sS'ASN-PHE'
p41
F0.025000000000000001
sS'GLU-PRO'
p42
F-0.223
sS'TYR-LEU'
p43
F0.050000000000000003
sS'LYS-ARG'
p44
F-0.058000000000000003
sS'GLY-ASP'
p45
F0.13500000000000001
sS'PRO-GLN'
p46
F-0.317
sS'CYS-MET'
p47
F0.98199999999999998
sS'HIS-ARG'
p48
F-0.372
sS'GLU-THR'
p49
F-0.019
sS'ILE-THR'
p50
F0.443
sS'SER-PRO'
p51
F-0.068000000000000005
sS'GLY-CYS'
p52
F0.38500000000000001
sS'ARG-LEU'
p53
F0.0040000000000000001
sS'PRO-GLU'
p54
F-0.16800000000000001
sS'ASP-LEU'
p55
F0.52400000000000002
sS'PHE-VAL'
p56
F0.30599999999999999
sS'ASN-VAL'
p57
F0.315
sS'ALA-MET'
p58
F0.64800000000000002
sS'LEU-PRO'
p59
F0.247
sS'LEU-SER'
p60
F0.41099999999999998
sS'ASN-ARG'
p61
F-0.48399999999999999
sS'SER-THR'
p62
F0.192
sS'LYS-VAL'
p63
F0.52700000000000002
sS'LYS-GLN'
p64
F-0.19800000000000001
sS'GLN-VAL'
p65
F0.32200000000000001
sS'TYR-PHE'
p66
F-0.115
sS'ASP-VAL'
p67
F0.54600000000000004
sS'ASN-GLY'
p68
F-0.126
sS'ARG-PHE'
p69
F-0.14599999999999999
sS'SER-HIS'
p70
F-0.033000000000000002
sS'ALA-ILE'
p71
F0.51600000000000001
sS'ASN-GLU'
p72
F-0.32500000000000001
sS'CYS-GLN'
p73
F0.58799999999999997
sS'TYR-PRO'
p74
F-0.39800000000000002
sS'LYS-GLU'
p75
F-0.42699999999999999
sS'CYS-GLU'
p76
F0.89400000000000002
sS'ASN-GLN'
p77
F-0.45400000000000001
sS'CYS-GLY'
p78
F0.60499999999999998
sS'GLN-SER'
p79
F-0.246
sS'HIS-LYS'
p80
F-0.025000000000000001
sS'LYS-GLY'
p81
F0.073999999999999996
sS'VAL-MET'
p82
F0.67200000000000004
sS'GLU-GLY'
p83
F0.083000000000000004
sS'THR-SER'
p84
F0.21199999999999999
sS'TYR-THR'
p85
F-0.02
sS'PRO-PRO'
p86
F-0.67500000000000004
sS'ILE-PHE'
p87
F0.188
sS'PHE-LEU'
p88
F0.050999999999999997
sS'GLU-GLU'
p89
F-0.34599999999999997
sS'SER-ARG'
p90
F-0.30199999999999999
sS'GLY-ALA'
p91
F0.30099999999999999
sS'TYR-ASN'
p92
F-0.32500000000000001
sS'GLU-GLN'
p93
F-0.16
sS'TRP-ARG'
p94
F-0.29299999999999998
sS'LEU-GLU'
p95
F0.48299999999999998
sS'LEU-GLY'
p96
F0.45200000000000001
sS'LYS-SER'
p97
F-0.017999999999999999
sS'MET-VAL'
p98
F0.65700000000000003
sS'SER-ALA'
p99
F0.30199999999999999
sS'PRO-HIS'
p100
F-0.29199999999999998
sS'MET-THR'
p101
F0.496
sS'ALA-PHE'
p102
F0.214
sS'MET-PRO'
p103
F0.39900000000000002
sS'GLY-SER'
p104
F0.049000000000000002
sS'LEU-GLN'
p105
F0.104
sS'VAL-LEU'
p106
F0.40799999999999997
sS'LEU-CYS'
p107
F0.97999999999999998
sS'LYS-TYR'
p108
F-0.17699999999999999
sS'ASP-ALA'
p109
F0.46200000000000002
sS'ILE-LEU'
p110
F0.34599999999999997
sS'TRP-VAL'
p111
F0.317
sS'PHE-PRO'
p112
F-0.11700000000000001
sS'ALA-ALA'
p113
F0.023
sS'ARG-TRP'
p114
F-0.38500000000000001
sS'MET-GLN'
p115
F0.20799999999999999
sS'ILE-LYS'
p116
F0.60599999999999998
sS'MET-ARG'
p117
F0.29999999999999999
sS'ALA-CYS'
p118
F0.88900000000000001
sS'THR-ARG'
p119
F0.084000000000000005
sS'CYS-ILE'
p120
F0.88200000000000001
sS'LEU-ASN'
p121
F0.21099999999999999
sS'LEU-ASP'
p122
F0.48999999999999999
sS'PHE-TRP'
p123
F0.032000000000000001
sS'MET-GLY'
p124
F0.63700000000000001
sS'THR-PHE'
p125
F0.20499999999999999
sS'MET-GLU'
p126
F0.56799999999999995
sS'THR-TRP'
p127
F0.372
sS'THR-TYR'
p128
F-0.092999999999999999
sS'CYS-VAL'
p129
F0.86399999999999999
sS'ARG-ALA'
p130
F0.032000000000000001
sS'ALA-TYR'
p131
F0.062
sS'ASP-PRO'
p132
F-0.14499999999999999
sS'ARG-CYS'
p133
F0.379
sS'GLN-ARG'
p134
F-0.53500000000000003
sS'HIS-TRP'
p135
F0.073999999999999996
sS'PRO-SER'
p136
F-0.056000000000000001
sS'VAL-VAL'
p137
F0.019
sS'LEU-LYS'
p138
F0.46899999999999997
sS'GLY-LYS'
p139
F0.0040000000000000001
sS'CYS-ASN'
p140
F0.42099999999999999
sS'GLY-TRP'
p141
F0.20300000000000001
sS'THR-CYS'
p142
F0.85999999999999999
sS'LYS-LYS'
p143
F-0.23799999999999999
sS'CYS-ASP'
p144
F0.80900000000000005
sS'TYR-ASP'
p145
F-0.159
sS'VAL-PRO'
p146
F0.39700000000000002
sS'THR-VAL'
p147
F0.432
sS'ASP-TYR'
p148
F-0.186
sS'PRO-CYS'
p149
F0.41799999999999998
sS'VAL-SER'
p150
F0.46600000000000003
sS'ARG-HIS'
p151
F-0.47799999999999998
sS'CYS-PRO'
p152
F0.26900000000000002
sS'MET-LYS'
p153
F0.34699999999999998
sS'ALA-SER'
p154
F0.35199999999999998
sS'TYR-SER'
p155
F-0.087999999999999995
sS'GLY-ARG'
p156
F-0.316
sS'GLN-ALA'
p157
F0.153
sS'MET-LEU'
p158
F0.379
sS'ASN-HIS'
p159
F-0.24099999999999999
sS'VAL-CYS'
p160
F0.995
sS'GLN-TYR'
p161
F-0.307
sS'GLN-PHE'
p162
F0.041000000000000002
sS'ILE-ASN'
p163
F0.32700000000000001
sS'GLU-ASN'
p164
F-0.34200000000000003
sS'CYS-ALA'
p165
F0.90100000000000002
sS'ASN-ASP'
p166
F-0.17999999999999999
sS'ASN-PRO'
p167
F-0.32400000000000001
sS'PRO-ARG'
p168
F-0.40999999999999998
sS'LYS-TRP'
p169
F0.16700000000000001
sS'ASN-ASN'
p170
F-1.016
sS'ASN-THR'
p171
F-0.14299999999999999
sS'THR-ALA'
p172
F0.48599999999999999
sS'LYS-ALA'
p173
F0.45100000000000001
sS'LYS-PRO'
p174
F-0.031
sS'SER-GLN'
p175
F-0.23599999999999999
sS'ILE-VAL'
p176
F0.56000000000000005
sS'ASP-ARG'
p177
F-0.752
sS'ASP-MET'
p178
F0.60899999999999999
sS'CYS-TYR'
p179
F0.28599999999999998
sS'PRO-TRP'
p180
F-0.055
sS'THR-GLU'
p181
F-0.014999999999999999
sS'TRP-ALA'
p182
F0.075999999999999998
sS'ILE-CYS'
p183
F0.92300000000000004
sS'LYS-ILE'
p184
F0.54500000000000004
sS'GLN-CYS'
p185
F0.64600000000000002
sS'TYR-ALA'
p186
F0.085999999999999993
sS'ARG-ASP'
p187
F-0.84899999999999998
sS'SER-GLU'
p188
F-0.152
sS'TRP-HIS'
p189
F-0.014999999999999999
sS'ALA-ASN'
p190
F0.157
sS'GLU-CYS'
p191
F0.92900000000000005
sS'PRO-MET'
p192
F0.39100000000000001
sS'TYR-HIS'
p193
F-0.432
sS'PHE-MET'
p194
F0.040000000000000001
sS'GLU-TYR'
p195
F-0.218
sS'SER-TRP'
p196
F0.161
sS'PHE-ARG'
p197
F-0.084000000000000005
sS'GLY-ILE'
p198
F0.55700000000000005
sS'TYR-VAL'
p199
F0.33700000000000002
sS'ASN-TYR'
p200
F-0.26300000000000001
sS'SER-ILE'
p201
F0.41999999999999998
sS'GLN-PRO'
p202
F-0.311
sS'PHE-TYR'
p203
F-0.187
sS'ALA-VAL'
p204
F0.58899999999999997
sS'HIS-HIS'
p205
F-1.5620000000000001
sS'THR-ASN'
p206
F-0.108
sS'CYS-LEU'
p207
F1.0349999999999999
sS'LYS-MET'
p208
F0.41999999999999998
sS'LYS-ASP'
p209
F-0.35199999999999998
sS'HIS-ASN'
p210
F-0.32300000000000001
sS'ILE-GLN'
p211
F0.32200000000000001
sS'VAL-HIS'
p212
F0.38800000000000001
sS'ALA-LEU'
p213
F0.34000000000000002
sS'HIS-ASP'
p214
F-0.29499999999999998
sS'ILE-TYR'
p215
F0.056000000000000001
sS'ILE-GLU'
p216
F0.51200000000000001
sS'ASN-TRP'
p217
F0.080000000000000002
sS'ILE-GLY'
p218
F0.63400000000000001
sS'ASN-CYS'
p219
F0.34799999999999998
sS'GLU-SER'
p220
F-0.025999999999999999
sS'ALA-TRP'
p221
F0.153
sS'HIS-CYS'
p222
F0.66000000000000003
sS'HIS-MET'
p223
F0.39100000000000001
sS'ILE-PRO'
p224
F0.25900000000000001
sS'LYS-PHE'
p225
F0.26800000000000002
sS'TRP-PRO'
p226
F-0.039
sS'GLU-TRP'
p227
F0.064000000000000001
sS'PHE-HIS'
p228
F0.112
sS'GLY-TYR'
p229
F-0.11899999999999999
sS'SER-GLY'
p230
F0.0080000000000000002
sS'CYS-TRP'
p231
F1.1619999999999999
sS'ASP-LYS'
p232
F-0.316
sS'ASN-ILE'
p233
F0.28299999999999997
sS'HIS-SER'
p234
F-0.124
sS'LYS-CYS'
p235
F0.79200000000000004
sS'GLY-PHE'
p236
F0.38300000000000001
sS'GLY-LEU'
p237
F0.39500000000000002
sS'MET-SER'
p238
F0.48499999999999999
sS'VAL-ALA'
p239
F0.63500000000000001
sS'SER-LEU'
p240
F0.379
sS'TRP-LYS'
p241
F0.158
sS'VAL-TYR'
p242
F0.34200000000000003
sS'VAL-PHE'
p243
F0.32600000000000001
sS'ARG-THR'
p244
F0.01
sS'TYR-TRP'
p245
F-0.071999999999999995
sS'GLN-GLN'
p246
F-1.0680000000000001
sS'GLU-PHE'
p247
F0.16600000000000001
sS'VAL-ILE'
p248
F0.51400000000000001
sS'HIS-GLN'
p249
F-0.21099999999999999
sS'GLN-GLY'
p250
F-0.17399999999999999
sS'PHE-ALA'
p251
F0.249
sS'HIS-GLU'
p252
F-0.41099999999999998
sS'ARG-PRO'
p253
F-0.45100000000000001
sS'HIS-GLY'
p254
F0.056000000000000001
sS'SER-ASN'
p255
F-0.16800000000000001
sS'ALA-THR'
p256
F0.497
sS'GLN-GLU'
p257
F-0.26600000000000001
sS'GLN-LYS'
p258
F-0.192
sS'CYS-HIS'
p259
F0.60499999999999998
sS'GLN-ASP'
p260
F-0.20200000000000001
sS'LEU-HIS'
p261
F0.087999999999999995
sS'SER-LYS'
p262
F0.058999999999999997
sS'TRP-LEU'
p263
F0.058999999999999997
sS'CYS-SER'
p264
F0.64500000000000002
sS'LYS-THR'
p265
F0.28299999999999997
sS'HIS-LEU'
p266
F0.20599999999999999
sS'LEU-ARG'
p267
F0.048000000000000001
sS'GLY-VAL'
p268
F0.45300000000000001
sS'GLN-ASN'
p269
F-0.39700000000000002
sS'TYR-ARG'
p270
F-0.498
sS'PRO-TYR'
p271
F-0.42099999999999999
sS'ASP-PHE'
p272
F0.41499999999999998
sS'TRP-CYS'
p273
F1.1519999999999999
sS'ASN-LEU'
p274
F0.23699999999999999
sS'SER-MET'
p275
F0.56999999999999995
sS'HIS-ILE'
p276
F0.35299999999999998
sS'SER-TYR'
p277
F-0.094
sS'MET-TYR'
p278
F-0.040000000000000001
sS'GLU-ILE'
p279
F0.45500000000000002
sS'PHE-CYS'
p280
F0.47099999999999997
sS'PRO-LEU'
p281
F0.17399999999999999
sS'GLY-MET'
p282
F0.55600000000000005
sS'ARG-ILE'
p283
F0.20999999999999999
sS'HIS-THR'
p284
F-0.076999999999999999
sS'THR-GLN'
p285
F-0.23200000000000001
sS'TRP-THR'
p286
F0.16500000000000001
sS'LYS-LEU'
p287
F0.502
sS'THR-GLY'
p288
F0.115
sS'ASP-TRP'
p289
F0.34200000000000003
sS'TYR-MET'
p290
F0.042999999999999997
sS'PHE-ILE'
p291
F0.19700000000000001
sS'PRO-VAL'
p292
F0.38900000000000001
sS'MET-ASN'
p293
F0.26400000000000001
sS'LEU-TYR'
p294
F0.072999999999999995
sS'PHE-PHE'
p295
F-0.79100000000000004
sS'CYS-PHE'
p296
F0.57299999999999995
sS'TRP-ILE'
p297
F0.36699999999999999
sS'PRO-ASN'
p298
F-0.20699999999999999
sS'CYS-CYS'
p299
F-1.837
sS'SER-ASP'
p300
F0.033000000000000002
sS'ARG-MET'
p301
F0.28599999999999998
sS'SER-PHE'
p302
F0.22700000000000001
sS'SER-SER'
p303
F-0.45300000000000001
sS'ASN-LYS'
p304
F-0.14399999999999999
sS'CYS-THR'
p305
F0.88400000000000001
sS'ILE-TRP'
p306
F0.255
sS'PRO-ASP'
p307
F-0.050000000000000003
sS'THR-ASP'
p308
F0.048000000000000001
sS'SER-CYS'
p309
F0.68300000000000005
sS'MET-ASP'
p310
F0.57199999999999995
sS'GLN-MET'
p311
F0.29199999999999998
sS'MET-TRP'
p312
F0.33000000000000002
sS'ARG-VAL'
p313
F0.113
sS'GLY-GLN'
p314
F-0.161
sS'THR-LYS'
p315
F0.27800000000000002
sS'TRP-MET'
p316
F0.32100000000000001
sS'ARG-ARG'
p317
F-1.0840000000000001
sS'ILE-ASP'
p318
F0.51700000000000002
sS'GLY-GLY'
p319
F-0.27600000000000002
sS'GLY-GLU'
p320
F0.20999999999999999
sS'ALA-ARG'
p321
F-0.079000000000000001
sS'GLU-ARG'
p322
F-0.749
sS'HIS-VAL'
p323
F0.41499999999999998
sS'VAL-ARG'
p324
F0.19
sS'ASN-SER'
p325
F-0.189
sS'ALA-LYS'
p326
F0.45800000000000002
sS'VAL-GLN'
p327
F0.27100000000000002
sS'TRP-ASN'
p328
F-0.11899999999999999
sS'TYR-ILE'
p329
F0.071999999999999995
sS'TRP-GLY'
p330
F0.10299999999999999
sS'PRO-PHE'
p331
F-0.10100000000000001
sS'GLY-HIS'
p332
F-0.075999999999999998
sS'PHE-SER'
p333
F0.156
sS'TRP-ASP'
p334
F0.22800000000000001
sS'TRP-GLN'
p335
F-0.14199999999999999
sS'LEU-ALA'
p336
F0.46200000000000002
sS'VAL-GLU'
p337
F0.438
sS'ALA-HIS'
p338
F0.127
sS'ARG-ASN'
p339
F-0.57699999999999996
sS'LEU-THR'
p340
F0.41099999999999998
sS'TYR-CYS'
p341
F0.43099999999999999
sS'THR-THR'
p342
F-0.39300000000000002
sS'THR-LEU'
p343
F0.42999999999999999
sS'VAL-ASN'
p344
F0.32900000000000001
sS'LEU-TRP'
p345
F0.089999999999999997
sS'GLU-ASP'
p346
F0.025000000000000001
sS'ILE-SER'
p347
F0.442
sS'ILE-ARG'
p348
F0.21099999999999999
sS'TRP-GLU'
p349
F0.074999999999999997
sS'ILE-MET'
p350
F0.60499999999999998
sS'MET-PHE'
p351
F0.064000000000000001
sS'PRO-ALA'
p352
F0.044999999999999998
sS'PRO-GLY'
p353
F0.067000000000000004
sS'GLN-THR'
p354
F-0.098000000000000004
sS'MET-ALA'
p355
F0.71299999999999997
sS'TRP-SER'
p356
F0.215
sS'ASP-HIS'
p357
F-0.29199999999999998
sS'ARG-SER'
p358
F-0.30399999999999999
sS'GLN-HIS'
p359
F-0.41599999999999998
sS'HIS-PHE'
p360
F0.059999999999999998
sS'LEU-LEU'
p361
F-0.059999999999999998
sS'ALA-GLN'
p362
F0.066000000000000003
sS'ASP-ASN'
p363
F-0.193
sS'SER-VAL'
p364
F0.442
sS'MET-ILE'
p365
F0.69099999999999995
sS'ALA-PRO'
p366
F0.312
sS'ASP-ASP'
p367
F-0.307
sS'ALA-GLY'
p368
F0.39200000000000002
sS'TRP-TRP'
p369
F-1.1850000000000001
sS'MET-CYS'
p370
F1.1419999999999999
sS'ALA-GLU'
p371
F0.36299999999999999
sS'THR-PRO'
p372
F-0.11600000000000001
sS'HIS-ALA'
p373
F0.29499999999999998
sS'GLN-ILE'
p374
F0.157
sS'GLU-VAL'
p375
F0.42999999999999999
sS'LYS-ASN'
p376
F-0.044999999999999998
sS'ASN-ALA'
p377
F0.22
sS'THR-ILE'
p378
F0.33800000000000002
sS'ASP-CYS'
p379
F0.92700000000000005
sS'PRO-LYS'
p380
F0.0060000000000000001
sS'TYR-TYR'
p381
F-0.92500000000000004
sS'ARG-LYS'
p382
F-0.14499999999999999
sS'ILE-ALA'
p383
F0.55500000000000005
sS'ASP-SER'
p384
F0.024
sS'CYS-LYS'
p385
F0.91300000000000003
sS'GLU-ALA'
p386
F0.33700000000000002
sS'PHE-GLU'
p387
F0.157
sS'GLU-LEU'
p388
F0.41899999999999998
sS'PHE-GLY'
p389
F0.32300000000000001
sS'LYS-HIS'
p390
F-0.066000000000000003
sS'HIS-PRO'
p391
F-0.248
sS'ILE-ILE'
p392
F-0.157
sS'MET-HIS'
p393
F0.35099999999999998
sS'VAL-GLY'
p394
F0.51900000000000002
sS'THR-MET'
p395
F0.51600000000000001
sS'PHE-THR'
p396
F0.24099999999999999
sS'VAL-TRP'
p397
F0.29499999999999998
sS'PHE-LYS'
p398
F0.253
sS'GLY-PRO'
p399
F-0.02
sS'PHE-GLN'
p400
F0.01
sS'LEU-PHE'
p401
F0.049000000000000002
s.