(dp1
S'MET-MET'
p2
F-2.8900000000000001
sS'PRO-ILE'
p3
F-1.552
sS'TYR-LYS'
p4
F-2.2010000000000001
sS'VAL-ASP'
p5
F-1.379
sS'ASP-GLN'
p6
F-1.964
sS'HIS-TYR'
p7
F-2.218
sS'ASP-GLU'
p8
F-1.9890000000000001
sS'ALA-ASP'
p9
F-1.373
sS'ASP-GLY'
p10
F-1.4359999999999999
sS'LEU-VAL'
p11
F-1.3420000000000001
sS'TRP-TYR'
p12
F-2.0099999999999998
sS'GLN-TRP'
p13
F-1.968
sS'TRP-PHE'
p14
F-1.776
sS'ARG-TYR'
p15
F-2.3940000000000001
sS'GLU-LYS'
p16
F-2.25
sS'ILE-HIS'
p17
F-1.605
sS'LEU-MET'
p18
F-1.379
sS'GLU-HIS'
p19
F-2.1589999999999998
sS'GLY-THR'
p20
F-1.4239999999999999
sS'ARG-GLU'
p21
F-2.3959999999999999
sS'PHE-ASN'
p22
F-1.7330000000000001
sS'ASN-MET'
p23
F-1.4730000000000001
sS'PRO-THR'
p24
F-1.7130000000000001
sS'TYR-GLN'
p25
F-2.1349999999999998
sS'ARG-GLY'
p26
F-1.9730000000000001
sS'VAL-THR'
p27
F-1.3420000000000001
sS'ASP-ILE'
p28
F-1.407
sS'THR-HIS'
p29
F-1.798
sS'TYR-GLU'
p30
F-2.113
sS'ARG-GLN'
p31
F-2.371
sS'TYR-GLY'
p32
F-1.8400000000000001
sS'PHE-ASP'
p33
F-1.756
sS'CYS-ARG'
p34
F-1.546
sS'GLY-ASN'
p35
F-1.681
sS'VAL-LYS'
p36
F-1.4099999999999999
sS'LEU-ILE'
p37
F-1.4370000000000001
sS'GLN-LEU'
p38
F-1.8069999999999999
sS'GLU-MET'
p39
F-1.387
sS'ASP-THR'
p40
F-1.6659999999999999
sS'ASN-PHE'
p41
F-1.77
sS'GLU-PRO'
p42
F-1.9550000000000001
sS'TYR-LEU'
p43
F-1.8240000000000001
sS'LYS-ARG'
p44
F-2.1760000000000002
sS'GLY-ASP'
p45
F-1.5049999999999999
sS'PRO-GLN'
p46
F-2.0219999999999998
sS'CYS-MET'
p47
F-1.02
sS'HIS-ARG'
p48
F-2.2080000000000002
sS'GLU-THR'
p49
F-1.788
sS'ILE-THR'
p50
F-1.4650000000000001
sS'SER-PRO'
p51
F-1.671
sS'GLY-CYS'
p52
F-1.256
sS'ARG-LEU'
p53
F-1.992
sS'PRO-GLU'
p54
F-1.9379999999999999
sS'ASP-LEU'
p55
F-1.486
sS'PHE-VAL'
p56
F-1.452
sS'ASN-VAL'
p57
F-1.5249999999999999
sS'ALA-MET'
p58
F-1.2010000000000001
sS'LEU-PRO'
p59
F-1.583
sS'LEU-SER'
p60
F-1.409
sS'ASN-ARG'
p61
F-2.238
sS'SER-THR'
p62
F-1.482
sS'LYS-VAL'
p63
F-1.421
sS'LYS-GLN'
p64
F-2.1230000000000002
sS'GLN-VAL'
p65
F-1.552
sS'TYR-PHE'
p66
F-1.972
sS'ASP-VAL'
p67
F-1.3560000000000001
sS'ASN-GLY'
p68
F-1.627
sS'ARG-PHE'
p69
F-2.0270000000000001
sS'SER-HIS'
p70
F-1.762
sS'ALA-ILE'
p71
F-1.2549999999999999
sS'ASN-GLU'
p72
F-2.0390000000000001
sS'CYS-GLN'
p73
F-1.329
sS'TYR-PRO'
p74
F-1.9850000000000001
sS'LYS-GLU'
p75
F-2.23
sS'CYS-GLU'
p76
F-1.1930000000000001
sS'ASN-GLN'
p77
F-2.0939999999999999
sS'CYS-GLY'
p78
F-0.94399999999999995
sS'GLN-SER'
p79
F-1.9019999999999999
sS'HIS-LYS'
p80
F-2.0699999999999998
sS'LYS-GLY'
p81
F-1.6830000000000001
sS'VAL-MET'
p82
F-1.2130000000000001
sS'GLU-GLY'
p83
F-1.6220000000000001
sS'THR-SER'
p84
F-1.5209999999999999
sS'TYR-THR'
p85
F-1.9319999999999999
sS'PRO-PRO'
p86
F-2.8340000000000001
sS'ILE-PHE'
p87
F-1.76
sS'PHE-LEU'
p88
F-1.7989999999999999
sS'GLU-GLU'
p89
F-2.9340000000000002
sS'SER-ARG'
p90
F-2.0920000000000001
sS'GLY-ALA'
p91
F-1.1359999999999999
sS'TYR-ASN'
p92
F-2.1600000000000001
sS'GLU-GLN'
p93
F-2.056
sS'TRP-ARG'
p94
F-2.2290000000000001
sS'LEU-GLU'
p95
F-1.536
sS'LEU-GLY'
p96
F-1.258
sS'LYS-SER'
p97
F-1.798
sS'MET-VAL'
p98
F-1.1839999999999999
sS'SER-ALA'
p99
F-1.2250000000000001
sS'PRO-HIS'
p100
F-1.9139999999999999
sS'MET-THR'
p101
F-1.363
sS'ALA-PHE'
p102
F-1.474
sS'MET-PRO'
p103
F-1.2929999999999999
sS'GLY-SER'
p104
F-1.3899999999999999
sS'LEU-GLN'
p105
F-1.8240000000000001
sS'VAL-LEU'
p106
F-1.4199999999999999
sS'LEU-CYS'
p107
F-1.042
sS'LYS-TYR'
p108
F-2.181
sS'ASP-ALA'
p109
F-1.3460000000000001
sS'ILE-LEU'
p110
F-1.5860000000000001
sS'TRP-VAL'
p111
F-1.5820000000000001
sS'PHE-PRO'
p112
F-1.8149999999999999
sS'ALA-ALA'
p113
F-2.0539999999999998
sS'ARG-TRP'
p114
F-2.3119999999999998
sS'MET-GLN'
p115
F-1.534
sS'ILE-LYS'
p116
F-1.534
sS'MET-ARG'
p117
F-1.72
sS'ALA-CYS'
p118
F-0.746
sS'THR-ARG'
p119
F-1.9379999999999999
sS'CYS-ILE'
p120
F-1.0229999999999999
sS'LEU-ASN'
p121
F-1.659
sS'LEU-ASP'
p122
F-1.5
sS'PHE-TRP'
p123
F-1.8540000000000001
sS'MET-GLY'
p124
F-1.1830000000000001
sS'THR-PHE'
p125
F-1.7549999999999999
sS'MET-GLU'
p126
F-1.3839999999999999
sS'THR-TRP'
p127
F-1.643
sS'THR-TYR'
p128
F-1.982
sS'CYS-VAL'
p129
F-0.94399999999999995
sS'ARG-ALA'
p130
F-1.8480000000000001
sS'ALA-TYR'
p131
F-1.7589999999999999
sS'ASP-PRO'
p132
F-1.837
sS'ARG-CYS'
p133
F-1.5900000000000001
sS'GLN-ARG'
p134
F-2.3780000000000001
sS'HIS-TRP'
p135
F-1.8500000000000001
sS'PRO-SER'
p136
F-1.609
sS'VAL-VAL'
p137
F-2.2210000000000001
sS'LEU-LYS'
p138
F-1.631
sS'GLY-LYS'
p139
F-1.637
sS'CYS-ASN'
p140
F-1.421
sS'GLY-TRP'
p141
F-1.5009999999999999
sS'THR-CYS'
p142
F-1.113
sS'LYS-LYS'
p143
F-2.9359999999999999
sS'CYS-ASP'
p144
F-1.1970000000000001
sS'TYR-ASP'
p145
F-2.089
sS'VAL-PRO'
p146
F-1.399
sS'THR-VAL'
p147
F-1.353
sS'ASP-TYR'
p148
F-2.0800000000000001
sS'PRO-CYS'
p149
F-1.2150000000000001
sS'VAL-SER'
p150
F-1.2370000000000001
sS'ARG-HIS'
p151
F-2.355
sS'CYS-PRO'
p152
F-1.3049999999999999
sS'MET-LYS'
p153
F-1.6020000000000001
sS'ALA-SER'
p154
F-1.2290000000000001
sS'TYR-SER'
p155
F-1.9259999999999999
sS'GLY-ARG'
p156
F-1.917
sS'GLN-ALA'
p157
F-1.663
sS'MET-LEU'
p158
F-1.4399999999999999
sS'ASN-HIS'
p159
F-1.974
sS'VAL-CYS'
p160
F-0.876
sS'GLN-TYR'
p161
F-2.1949999999999998
sS'GLN-PHE'
p162
F-1.891
sS'ILE-ASN'
p163
F-1.5880000000000001
sS'GLU-ASN'
p164
F-2.0880000000000001
sS'CYS-ALA'
p165
F-0.82099999999999995
sS'ASN-ASP'
p166
F-1.8720000000000001
sS'ASN-PRO'
p167
F-2.028
sS'PRO-ARG'
p168
F-2.1389999999999998
sS'LYS-TRP'
p169
F-1.8180000000000001
sS'ASN-ASN'
p170
F-3.1880000000000002
sS'ASN-THR'
p171
F-1.776
sS'THR-ALA'
p172
F-1.3029999999999999
sS'LYS-ALA'
p173
F-1.399
sS'LYS-PRO'
p174
F-1.8779999999999999
sS'SER-GLN'
p175
F-1.8779999999999999
sS'ILE-VAL'
p176
F-1.2589999999999999
sS'ASP-ARG'
p177
F-2.3679999999999999
sS'ASP-MET'
p178
F-1.4359999999999999
sS'CYS-TYR'
p179
F-1.8160000000000001
sS'PRO-TRP'
p180
F-1.677
sS'THR-GLU'
p181
F-1.7569999999999999
sS'TRP-ALA'
p182
F-1.597
sS'ILE-CYS'
p183
F-0.98199999999999998
sS'LYS-ILE'
p184
F-1.476
sS'GLN-CYS'
p185
F-1.2490000000000001
sS'TYR-ALA'
p186
F-1.623
sS'ARG-ASP'
p187
F-2.4289999999999998
sS'SER-GLU'
p188
F-1.831
sS'TRP-HIS'
p189
F-1.9239999999999999
sS'ALA-ASN'
p190
F-1.4950000000000001
sS'GLU-CYS'
p191
F-1.135
sS'PRO-MET'
p192
F-1.2829999999999999
sS'TYR-HIS'
p193
F-2.1709999999999998
sS'PHE-MET'
p194
F-1.6779999999999999
sS'GLU-TYR'
p195
F-2.1360000000000001
sS'SER-TRP'
p196
F-1.718
sS'PHE-ARG'
p197
F-2.0289999999999999
sS'GLY-ILE'
p198
F-1.1339999999999999
sS'TYR-VAL'
p199
F-1.601
sS'ASN-TYR'
p200
F-2.0880000000000001
sS'SER-ILE'
p201
F-1.363
sS'GLN-PRO'
p202
F-2.052
sS'PHE-TYR'
p203
F-2.0259999999999998
sS'ALA-VAL'
p204
F-1.145
sS'HIS-HIS'
p205
F-3.7330000000000001
sS'THR-ASN'
p206
F-1.8220000000000001
sS'CYS-LEU'
p207
F-0.90100000000000002
sS'LYS-MET'
p208
F-1.4199999999999999
sS'LYS-ASP'
p209
F-2.0569999999999999
sS'HIS-ASN'
p210
F-2.097
sS'ILE-GLN'
p211
F-1.6100000000000001
sS'VAL-HIS'
p212
F-1.5800000000000001
sS'ALA-LEU'
p213
F-1.3899999999999999
sS'HIS-ASP'
p214
F-1.9770000000000001
sS'ILE-TYR'
p215
F-1.8400000000000001
sS'ILE-GLU'
p216
F-1.526
sS'ASN-TRP'
p217
F-1.7969999999999999
sS'ILE-GLY'
p218
F-1.091
sS'ASN-CYS'
p219
F-1.5349999999999999
sS'GLU-SER'
p220
F-1.7669999999999999
sS'ALA-TRP'
p221
F-1.623
sS'HIS-CYS'
p222
F-1.0960000000000001
sS'HIS-MET'
p223
F-1.516
sS'ILE-PRO'
p224
F-1.5549999999999999
sS'LYS-PHE'
p225
F-1.7230000000000001
sS'TRP-PRO'
p226
F-1.6910000000000001
sS'GLU-TRP'
p227
F-1.883
sS'PHE-HIS'
p228
F-1.8280000000000001
sS'GLY-TYR'
p229
F-1.8280000000000001
sS'SER-GLY'
p230
F-1.425
sS'CYS-TRP'
p231
F-0.88900000000000001
sS'ASP-LYS'
p232
F-2.0350000000000001
sS'ASN-ILE'
p233
F-1.661
sS'HIS-SER'
p234
F-1.8700000000000001
sS'LYS-CYS'
p235
F-1.0780000000000001
sS'GLY-PHE'
p236
F-1.325
sS'GLY-LEU'
p237
F-1.28
sS'MET-SER'
p238
F-1.288
sS'VAL-ALA'
p239
F-1.1140000000000001
sS'SER-LEU'
p240
F-1.4650000000000001
sS'TRP-LYS'
p241
F-1.8
sS'VAL-TYR'
p242
F-1.5289999999999999
sS'VAL-PHE'
p243
F-1.5229999999999999
sS'ARG-THR'
p244
F-1.9670000000000001
sS'TYR-TRP'
p245
F-2.0059999999999998
sS'GLN-GLN'
p246
F-3.3479999999999999
sS'GLU-PHE'
p247
F-1.8049999999999999
sS'VAL-ILE'
p248
F-1.3089999999999999
sS'HIS-GLN'
p249
F-1.9570000000000001
sS'GLN-GLY'
p250
F-1.71
sS'PHE-ALA'
p251
F-1.4350000000000001
sS'HIS-GLU'
p252
F-2.1360000000000001
sS'ARG-PRO'
p253
F-2.2490000000000001
sS'HIS-GLY'
p254
F-1.5600000000000001
sS'SER-ASN'
p255
F-1.8109999999999999
sS'ALA-THR'
p256
F-1.264
sS'GLN-GLU'
p257
F-2.1110000000000002
sS'GLN-LYS'
p258
F-2.1240000000000001
sS'CYS-HIS'
p259
F-1.2769999999999999
sS'GLN-ASP'
p260
F-1.9970000000000001
sS'LEU-HIS'
p261
F-1.774
sS'SER-LYS'
p262
F-1.7869999999999999
sS'TRP-LEU'
p263
F-1.7150000000000001
sS'CYS-SER'
p264
F-1.179
sS'LYS-THR'
p265
F-1.6319999999999999
sS'HIS-LEU'
p266
F-1.6779999999999999
sS'LEU-ARG'
p267
F-1.974
sS'GLY-VAL'
p268
F-1.139
sS'GLN-ASN'
p269
F-2.0710000000000002
sS'TYR-ARG'
p270
F-2.3370000000000002
sS'PRO-TYR'
p271
F-2.0329999999999999
sS'ASP-PHE'
p272
F-1.677
sS'TRP-CYS'
p273
F-0.85499999999999998
sS'ASN-LEU'
p274
F-1.6220000000000001
sS'SER-MET'
p275
F-1.2350000000000001
sS'HIS-ILE'
p276
F-1.599
sS'SER-TYR'
p277
F-1.929
sS'MET-TYR'
p278
F-1.7869999999999999
sS'GLU-ILE'
p279
F-1.51
sS'PHE-CYS'
p280
F-1.3149999999999999
sS'PRO-LEU'
p281
F-1.587
sS'GLY-MET'
p282
F-1.204
sS'ARG-ILE'
p283
F-1.859
sS'HIS-THR'
p284
F-1.8340000000000001
sS'THR-GLN'
p285
F-1.946
sS'TRP-THR'
p286
F-1.734
sS'LYS-LEU'
p287
F-1.5189999999999999
sS'THR-GLY'
p288
F-1.4530000000000001
sS'ASP-TRP'
p289
F-1.7789999999999999
sS'TYR-MET'
p290
F-1.6839999999999999
sS'PHE-ILE'
p291
F-1.7170000000000001
sS'PRO-VAL'
p292
F-1.3440000000000001
sS'MET-ASN'
p293
F-1.659
sS'LEU-TYR'
p294
F-1.796
sS'PHE-PHE'
p295
F-2.9980000000000002
sS'CYS-PHE'
p296
F-1.2509999999999999
sS'TRP-ILE'
p297
F-1.5820000000000001
sS'PRO-ASN'
p298
F-1.9590000000000001
sS'CYS-CYS'
p299
F-3.5270000000000001
sS'SER-ASP'
p300
F-1.6579999999999999
sS'ARG-MET'
p301
F-1.7210000000000001
sS'SER-PHE'
p302
F-1.6539999999999999
sS'SER-SER'
p303
F-2.536
sS'ASN-LYS'
p304
F-1.9690000000000001
sS'CYS-THR'
p305
F-1.0860000000000001
sS'ILE-TRP'
p306
F-1.609
sS'PRO-ASP'
p307
F-1.8220000000000001
sS'THR-ASP'
p308
F-1.653
sS'SER-CYS'
p309
F-1.1200000000000001
sS'MET-ASP'
p310
F-1.448
sS'GLN-MET'
p311
F-1.5629999999999999
sS'MET-TRP'
p312
F-1.395
sS'ARG-VAL'
p313
F-1.919
sS'GLY-GLN'
p314
F-1.726
sS'THR-LYS'
p315
F-1.6779999999999999
sS'TRP-MET'
p316
F-1.4590000000000001
sS'ARG-ARG'
p317
F-3.5760000000000001
sS'ILE-ASP'
p318
F-1.4350000000000001
sS'GLY-GLY'
p319
F-2.194
sS'GLY-GLU'
p320
F-1.466
sS'ALA-ARG'
p321
F-1.883
sS'GLU-ARG'
p322
F-2.403
sS'HIS-VAL'
p323
F-1.508
sS'VAL-ARG'
p324
F-1.825
sS'ASN-SER'
p325
F-1.7929999999999999
sS'ALA-LYS'
p326
F-1.3759999999999999
sS'VAL-GLN'
p327
F-1.593
sS'TRP-ASN'
p328
F-1.9470000000000001
sS'TYR-ILE'
p329
F-1.819
sS'TRP-GLY'
p330
F-1.593
sS'PRO-PHE'
p331
F-1.7949999999999999
sS'GLY-HIS'
p332
F-1.641
sS'PHE-SER'
p333
F-1.6619999999999999
sS'TRP-ASP'
p334
F-1.8460000000000001
sS'TRP-GLN'
p335
F-2.0840000000000001
sS'LEU-ALA'
p336
F-1.335
sS'VAL-GLU'
p337
F-1.444
sS'ALA-HIS'
p338
F-1.6020000000000001
sS'ARG-ASN'
p339
F-2.3439999999999999
sS'LEU-THR'
p340
F-1.415
sS'TYR-CYS'
p341
F-1.6850000000000001
sS'THR-THR'
p342
F-2.5760000000000001
sS'THR-LEU'
p343
F-1.5489999999999999
sS'VAL-ASN'
p344
F-1.4890000000000001
sS'LEU-TRP'
p345
F-1.742
sS'GLU-ASP'
p346
F-1.96
sS'ILE-SER'
p347
F-1.3700000000000001
sS'ILE-ARG'
p348
F-1.9159999999999999
sS'TRP-GLU'
p349
F-1.845
sS'ILE-MET'
p350
F-1.272
sS'MET-PHE'
p351
F-1.569
sS'PRO-ALA'
p352
F-1.4610000000000001
sS'PRO-GLY'
p353
F-1.4450000000000001
sS'GLN-THR'
p354
F-1.903
sS'MET-ALA'
p355
F-1.0569999999999999
sS'TRP-SER'
p356
F-1.6140000000000001
sS'ASP-HIS'
p357
F-1.9990000000000001
sS'ARG-SER'
p358
F-2.1000000000000001
sS'GLN-HIS'
p359
F-2.0950000000000002
sS'HIS-PHE'
p360
F-1.7849999999999999
sS'LEU-LEU'
p361
F-2.4449999999999998
sS'ALA-GLN'
p362
F-1.6639999999999999
sS'ASP-ASN'
p363
F-1.889
sS'SER-VAL'
p364
F-1.2450000000000001
sS'MET-ILE'
p365
F-1.286
sS'ALA-PRO'
p366
F-1.2290000000000001
sS'ASP-ASP'
p367
F-2.7749999999999999
sS'ALA-GLY'
p368
F-1.052
sS'TRP-TRP'
p369
F-3.6419999999999999
sS'MET-CYS'
p370
F-0.66600000000000004
sS'ALA-GLU'
p371
F-1.4099999999999999
sS'THR-PRO'
p372
F-1.6919999999999999
sS'HIS-ALA'
p373
F-1.494
sS'GLN-ILE'
p374
F-1.7470000000000001
sS'GLU-VAL'
p375
F-1.4610000000000001
sS'LYS-ASN'
p376
F-1.911
sS'ASN-ALA'
p377
F-1.468
sS'THR-ILE'
p378
F-1.5309999999999999
sS'ASP-CYS'
p379
F-1.02
sS'PRO-LYS'
p380
F-1.9079999999999999
sS'TYR-TYR'
p381
F-3.3010000000000002
sS'ARG-LYS'
p382
F-2.2730000000000001
sS'ILE-ALA'
p383
F-1.2
sS'ASP-SER'
p384
F-1.7230000000000001
sS'CYS-LYS'
p385
F-1.0980000000000001
sS'GLU-ALA'
p386
F-1.484
sS'PHE-GLU'
p387
F-1.7709999999999999
sS'GLU-LEU'
p388
F-1.587
sS'PHE-GLY'
p389
F-1.4159999999999999
sS'LYS-HIS'
p390
F-2.0800000000000001
sS'HIS-PRO'
p391
F-1.913
sS'ILE-ILE'
p392
F-2.4220000000000002
sS'MET-HIS'
p393
F-1.619
sS'VAL-GLY'
p394
F-1.0629999999999999
sS'THR-MET'
p395
F-1.3859999999999999
sS'PHE-THR'
p396
F-1.774
sS'VAL-TRP'
p397
F-1.5
sS'PHE-LYS'
p398
F-1.7769999999999999
sS'GLY-PRO'
p399
F-1.427
sS'PHE-GLN'
p400
F-1.8360000000000001
sS'LEU-PHE'
p401
F-1.7829999999999999
s.