(dp1
S'MET-MET'
p2
F-3.3130000000000002
sS'PRO-ILE'
p3
F-1.843
sS'TYR-LYS'
p4
F-2.3399999999999999
sS'VAL-ASP'
p5
F-1.649
sS'ASP-GLN'
p6
F-2.1200000000000001
sS'HIS-TYR'
p7
F-2.5760000000000001
sS'ASP-GLU'
p8
F-2.0529999999999999
sS'ALA-ASP'
p9
F-1.8200000000000001
sS'ASP-GLY'
p10
F-2.1800000000000002
sS'LEU-VAL'
p11
F-1.6639999999999999
sS'TRP-TYR'
p12
F-2.2130000000000001
sS'GLN-TRP'
p13
F-2.25
sS'TRP-PHE'
p14
F-1.9690000000000001
sS'ARG-TYR'
p15
F-2.6230000000000002
sS'GLU-LYS'
p16
F-2.1920000000000002
sS'ILE-HIS'
p17
F-1.873
sS'LEU-MET'
p18
F-1.365
sS'GLU-HIS'
p19
F-2.2320000000000002
sS'GLY-THR'
p20
F-2.0630000000000002
sS'ARG-GLU'
p21
F-2.5350000000000001
sS'PHE-ASN'
p22
F-2.2440000000000002
sS'ASN-MET'
p23
F-1.7050000000000001
sS'PRO-THR'
p24
F-2.1200000000000001
sS'TYR-GLN'
p25
F-2.4500000000000002
sS'ARG-GLY'
p26
F-2.6160000000000001
sS'VAL-THR'
p27
F-1.651
sS'ASP-ILE'
p28
F-1.712
sS'THR-HIS'
p29
F-2.2149999999999999
sS'TYR-GLU'
p30
F-2.3759999999999999
sS'ARG-GLN'
p31
F-2.3849999999999998
sS'TYR-GLY'
p32
F-2.5489999999999999
sS'PHE-ASP'
p33
F-2.097
sS'CYS-ARG'
p34
F-2.113
sS'GLY-ASN'
p35
F-2.3690000000000002
sS'VAL-LYS'
p36
F-1.7649999999999999
sS'LEU-ILE'
p37
F-1.611
sS'GLN-LEU'
p38
F-1.909
sS'GLU-MET'
p39
F-1.617
sS'ASP-THR'
p40
F-2.0670000000000002
sS'ASN-PHE'
p41
F-2.2269999999999999
sS'GLU-PRO'
p42
F-2.363
sS'TYR-LEU'
p43
F-2.286
sS'LYS-ARG'
p44
F-1.98
sS'GLY-ASP'
p45
F-2.2349999999999999
sS'PRO-GLN'
p46
F-2.3690000000000002
sS'CYS-MET'
p47
F-1.0669999999999999
sS'HIS-ARG'
p48
F-2.262
sS'GLU-THR'
p49
F-2.1309999999999998
sS'ILE-THR'
p50
F-1.7230000000000001
sS'SER-PRO'
p51
F-2.1000000000000001
sS'GLY-CYS'
p52
F-1.6799999999999999
sS'ARG-LEU'
p53
F-2.194
sS'PRO-GLU'
p54
F-2.2749999999999999
sS'ASP-LEU'
p55
F-1.7
sS'PHE-VAL'
p56
F-1.9890000000000001
sS'ASN-VAL'
p57
F-1.829
sS'ALA-MET'
p58
F-1.3799999999999999
sS'LEU-PRO'
p59
F-1.9630000000000001
sS'LEU-SER'
p60
F-1.8879999999999999
sS'ASN-ARG'
p61
F-2.4260000000000002
sS'SER-THR'
p62
F-1.9399999999999999
sS'LYS-VAL'
p63
F-1.74
sS'LYS-GLN'
p64
F-2.1019999999999999
sS'GLN-VAL'
p65
F-1.927
sS'TYR-PHE'
p66
F-2.214
sS'ASP-VAL'
p67
F-1.645
sS'ASN-GLY'
p68
F-2.3180000000000001
sS'ARG-PHE'
p69
F-2.274
sS'SER-HIS'
p70
F-2.3220000000000001
sS'ALA-ILE'
p71
F-1.7689999999999999
sS'ASN-GLU'
p72
F-2.2490000000000001
sS'CYS-GLN'
p73
F-1.6799999999999999
sS'TYR-PRO'
p74
F-2.6949999999999998
sS'LYS-GLU'
p75
F-2.1829999999999998
sS'CYS-GLU'
p76
F-1.375
sS'ASN-GLN'
p77
F-2.4409999999999998
sS'CYS-GLY'
p78
F-1.4079999999999999
sS'GLN-SER'
p79
F-2.302
sS'HIS-LYS'
p80
F-2.0840000000000001
sS'LYS-GLY'
p81
F-2.2000000000000002
sS'VAL-MET'
p82
F-1.3200000000000001
sS'GLU-GLY'
p83
F-2.3100000000000001
sS'THR-SER'
p84
F-1.9550000000000001
sS'TYR-THR'
p85
F-2.4039999999999999
sS'PRO-PRO'
p86
F-3.4929999999999999
sS'ILE-PHE'
p87
F-1.925
sS'PHE-LEU'
p88
F-1.9359999999999999
sS'GLU-GLU'
p89
F-3.2770000000000001
sS'SER-ARG'
p90
F-2.4430000000000001
sS'GLY-ALA'
p91
F-1.635
sS'TYR-ASN'
p92
F-2.6179999999999999
sS'GLU-GLN'
p93
F-2.0790000000000002
sS'TRP-ARG'
p94
F-2.2490000000000001
sS'LEU-GLU'
p95
F-1.863
sS'LEU-GLY'
p96
F-1.9610000000000001
sS'LYS-SER'
p97
F-2.0409999999999999
sS'MET-VAL'
p98
F-1.371
sS'SER-ALA'
p99
F-1.74
sS'PRO-HIS'
p100
F-2.5350000000000001
sS'MET-THR'
p101
F-1.6439999999999999
sS'ALA-PHE'
p102
F-2.1619999999999999
sS'MET-PRO'
p103
F-1.7010000000000001
sS'GLY-SER'
p104
F-2.056
sS'LEU-GLN'
p105
F-1.968
sS'VAL-LEU'
p106
F-1.7330000000000001
sS'LEU-CYS'
p107
F-1.395
sS'LYS-TYR'
p108
F-2.3780000000000001
sS'ASP-ALA'
p109
F-1.7849999999999999
sS'ILE-LEU'
p110
F-1.645
sS'TRP-VAL'
p111
F-2.085
sS'PHE-PRO'
p112
F-2.4420000000000002
sS'ALA-ALA'
p113
F-2.5670000000000002
sS'ARG-TRP'
p114
F-2.4159999999999999
sS'MET-GLN'
p115
F-1.6879999999999999
sS'ILE-LYS'
p116
F-1.5369999999999999
sS'MET-ARG'
p117
F-1.8100000000000001
sS'ALA-CYS'
p118
F-1.038
sS'THR-ARG'
p119
F-2.3079999999999998
sS'CYS-ILE'
p120
F-1.218
sS'LEU-ASN'
p121
F-1.899
sS'LEU-ASP'
p122
F-1.724
sS'PHE-TRP'
p123
F-1.8839999999999999
sS'MET-GLY'
p124
F-1.6479999999999999
sS'THR-PHE'
p125
F-2.206
sS'MET-GLU'
p126
F-1.5529999999999999
sS'THR-TRP'
p127
F-2.1859999999999999
sS'THR-TYR'
p128
F-2.3769999999999998
sS'CYS-VAL'
p129
F-1.1379999999999999
sS'ARG-ALA'
p130
F-2.2610000000000001
sS'ALA-TYR'
p131
F-2.3559999999999999
sS'ASP-PRO'
p132
F-2.286
sS'ARG-CYS'
p133
F-2.0619999999999998
sS'GLN-ARG'
p134
F-2.4390000000000001
sS'HIS-TRP'
p135
F-2.1629999999999998
sS'PRO-SER'
p136
F-2.0659999999999998
sS'VAL-VAL'
p137
F-2.9470000000000001
sS'LEU-LYS'
p138
F-1.7749999999999999
sS'GLY-LYS'
p139
F-2.2200000000000002
sS'CYS-ASN'
p140
F-1.5780000000000001
sS'GLY-TRP'
p141
F-2.472
sS'THR-CYS'
p142
F-1.268
sS'LYS-LYS'
p143
F-3
sS'CYS-ASP'
p144
F-1.5740000000000001
sS'TYR-ASP'
p145
F-2.3410000000000002
sS'VAL-PRO'
p146
F-1.718
sS'THR-VAL'
p147
F-1.6859999999999999
sS'ASP-TYR'
p148
F-2.3929999999999998
sS'PRO-CYS'
p149
F-1.6439999999999999
sS'VAL-SER'
p150
F-1.76
sS'ARG-HIS'
p151
F-2.3940000000000001
sS'CYS-PRO'
p152
F-1.6879999999999999
sS'MET-LYS'
p153
F-1.631
sS'ALA-SER'
p154
F-1.758
sS'TYR-SER'
p155
F-2.5249999999999999
sS'GLY-ARG'
p156
F-2.621
sS'GLN-ALA'
p157
F-2.1230000000000002
sS'MET-LEU'
p158
F-1.4830000000000001
sS'ASN-HIS'
p159
F-2.3370000000000002
sS'VAL-CYS'
p160
F-1.02
sS'GLN-TYR'
p161
F-2.4820000000000002
sS'GLN-PHE'
p162
F-2.2549999999999999
sS'ILE-ASN'
p163
F-1.895
sS'GLU-ASN'
p164
F-2.3119999999999998
sS'CYS-ALA'
p165
F-1.016
sS'ASN-ASP'
p166
F-2.137
sS'ASN-PRO'
p167
F-2.395
sS'PRO-ARG'
p168
F-2.4729999999999999
sS'LYS-TRP'
p169
F-1.8660000000000001
sS'ASN-ASN'
p170
F-3.633
sS'ASN-THR'
p171
F-2.1150000000000002
sS'THR-ALA'
p172
F-1.8260000000000001
sS'LYS-ALA'
p173
F-1.7789999999999999
sS'LYS-PRO'
p174
F-2.1659999999999999
sS'SER-GLN'
p175
F-2.274
sS'ILE-VAL'
p176
F-1.5309999999999999
sS'ASP-ARG'
p177
F-2.5230000000000001
sS'ASP-MET'
p178
F-1.6000000000000001
sS'CYS-TYR'
p179
F-1.8049999999999999
sS'PRO-TRP'
p180
F-2.5299999999999998
sS'THR-GLU'
p181
F-2.1230000000000002
sS'TRP-ALA'
p182
F-2.46
sS'ILE-CYS'
p183
F-1.335
sS'LYS-ILE'
p184
F-1.611
sS'GLN-CYS'
p185
F-1.673
sS'TYR-ALA'
p186
F-2.2850000000000001
sS'ARG-ASP'
p187
F-2.649
sS'SER-GLU'
p188
F-2.3340000000000001
sS'TRP-HIS'
p189
F-2.2610000000000001
sS'ALA-ASN'
p190
F-1.9350000000000001
sS'GLU-CYS'
p191
F-1.373
sS'PRO-MET'
p192
F-1.609
sS'TYR-HIS'
p193
F-2.5499999999999998
sS'PHE-MET'
p194
F-1.877
sS'GLU-TYR'
p195
F-2.407
sS'SER-TRP'
p196
F-2.3530000000000002
sS'PHE-ARG'
p197
F-2.2000000000000002
sS'GLY-ILE'
p198
F-1.843
sS'TYR-VAL'
p199
F-2.0129999999999999
sS'ASN-TYR'
p200
F-2.6000000000000001
sS'SER-ILE'
p201
F-1.76
sS'GLN-PRO'
p202
F-2.448
sS'PHE-TYR'
p203
F-2.448
sS'ALA-VAL'
p204
F-1.5980000000000001
sS'HIS-HIS'
p205
F-4.1609999999999996
sS'THR-ASN'
p206
F-2.0600000000000001
sS'CYS-LEU'
p207
F-1.236
sS'LYS-MET'
p208
F-1.5429999999999999
sS'LYS-ASP'
p209
F-2.1240000000000001
sS'HIS-ASN'
p210
F-2.4740000000000002
sS'ILE-GLN'
p211
F-1.96
sS'VAL-HIS'
p212
F-1.9830000000000001
sS'ALA-LEU'
p213
F-1.853
sS'HIS-ASP'
p214
F-2.226
sS'ILE-TYR'
p215
F-2.347
sS'ILE-GLU'
p216
F-1.79
sS'ASN-TRP'
p217
F-2.306
sS'ILE-GLY'
p218
F-1.798
sS'ASN-CYS'
p219
F-1.647
sS'GLU-SER'
p220
F-2.3410000000000002
sS'ALA-TRP'
p221
F-2.181
sS'HIS-CYS'
p222
F-1.629
sS'HIS-MET'
p223
F-1.9950000000000001
sS'ILE-PRO'
p224
F-1.9079999999999999
sS'LYS-PHE'
p225
F-1.968
sS'TRP-PRO'
p226
F-2.5339999999999998
sS'GLU-TRP'
p227
F-2.0499999999999998
sS'PHE-HIS'
p228
F-2.153
sS'GLY-TYR'
p229
F-2.5899999999999999
sS'SER-GLY'
p230
F-2.0419999999999998
sS'CYS-TRP'
p231
F-1.3089999999999999
sS'ASP-LYS'
p232
F-2.1200000000000001
sS'ASN-ILE'
p233
F-1.9079999999999999
sS'HIS-SER'
p234
F-2.4460000000000002
sS'LYS-CYS'
p235
F-1.3009999999999999
sS'GLY-PHE'
p236
F-2.3239999999999998
sS'GLY-LEU'
p237
F-1.9950000000000001
sS'MET-SER'
p238
F-1.722
sS'VAL-ALA'
p239
F-1.5429999999999999
sS'SER-LEU'
p240
F-1.8720000000000001
sS'TRP-LYS'
p241
F-2.0870000000000002
sS'VAL-TYR'
p242
F-1.9930000000000001
sS'VAL-PHE'
p243
F-1.921
sS'ARG-THR'
p244
F-2.2850000000000001
sS'TYR-TRP'
p245
F-2.234
sS'GLN-GLN'
p246
F-3.6589999999999998
sS'GLU-PHE'
p247
F-2.1160000000000001
sS'VAL-ILE'
p248
F-1.5389999999999999
sS'HIS-GLN'
p249
F-2.157
sS'GLN-GLY'
p250
F-2.2719999999999998
sS'PHE-ALA'
p251
F-2.121
sS'HIS-GLU'
p252
F-2.2690000000000001
sS'ARG-PRO'
p253
F-2.5750000000000002
sS'HIS-GLY'
p254
F-2.4900000000000002
sS'SER-ASN'
p255
F-2.226
sS'ALA-THR'
p256
F-1.76
sS'GLN-GLU'
p257
F-2.1000000000000001
sS'GLN-LYS'
p258
F-2.0510000000000002
sS'CYS-HIS'
p259
F-1.6679999999999999
sS'GLN-ASP'
p260
F-2.1829999999999998
sS'LEU-HIS'
p261
F-1.998
sS'SER-LYS'
p262
F-2.0339999999999998
sS'TRP-LEU'
p263
F-2.1360000000000001
sS'CYS-SER'
p264
F-1.4970000000000001
sS'LYS-THR'
p265
F-1.885
sS'HIS-LEU'
p266
F-2.0289999999999999
sS'LEU-ARG'
p267
F-2.1640000000000001
sS'GLY-VAL'
p268
F-1.8380000000000001
sS'GLN-ASN'
p269
F-2.3330000000000002
sS'TYR-ARG'
p270
F-2.4409999999999998
sS'PRO-TYR'
p271
F-2.7050000000000001
sS'ASP-PHE'
p272
F-2.0059999999999998
sS'TRP-CYS'
p273
F-1.6699999999999999
sS'ASN-LEU'
p274
F-1.903
sS'SER-MET'
p275
F-1.621
sS'HIS-ILE'
p276
F-1.802
sS'SER-TYR'
p277
F-2.5680000000000001
sS'MET-TYR'
p278
F-2.3050000000000002
sS'GLU-ILE'
p279
F-1.7929999999999999
sS'PHE-CYS'
p280
F-1.782
sS'PRO-LEU'
p281
F-1.921
sS'GLY-MET'
p282
F-1.75
sS'ARG-ILE'
p283
F-1.9850000000000001
sS'HIS-THR'
p284
F-2.2839999999999998
sS'THR-GLN'
p285
F-2.2869999999999999
sS'TRP-THR'
p286
F-2.2080000000000002
sS'LYS-LEU'
p287
F-1.782
sS'THR-GLY'
p288
F-2.0529999999999999
sS'ASP-TRP'
p289
F-2.1829999999999998
sS'TYR-MET'
p290
F-2.1019999999999999
sS'PHE-ILE'
p291
F-1.901
sS'PRO-VAL'
p292
F-1.71
sS'MET-ASN'
p293
F-1.7410000000000001
sS'LEU-TYR'
p294
F-2.2730000000000001
sS'PHE-PHE'
p295
F-3.5619999999999998
sS'CYS-PHE'
p296
F-1.7310000000000001
sS'TRP-ILE'
p297
F-1.9610000000000001
sS'PRO-ASN'
p298
F-2.363
sS'CYS-CYS'
p299
F-4.1200000000000001
sS'SER-ASP'
p300
F-2.1309999999999998
sS'ARG-MET'
p301
F-1.8300000000000001
sS'SER-PHE'
p302
F-2.2999999999999998
sS'SER-SER'
p303
F-3.077
sS'ASN-LYS'
p304
F-2.1389999999999998
sS'CYS-THR'
p305
F-1.286
sS'ILE-TRP'
p306
F-2.0790000000000002
sS'PRO-ASP'
p307
F-2.2370000000000001
sS'THR-ASP'
p308
F-2.0089999999999999
sS'SER-CYS'
p309
F-1.363
sS'MET-ASP'
p310
F-1.4570000000000001
sS'GLN-MET'
p311
F-1.6060000000000001
sS'MET-TRP'
p312
F-1.8340000000000001
sS'ARG-VAL'
p313
F-2.117
sS'GLY-GLN'
p314
F-2.2959999999999998
sS'THR-LYS'
p315
F-1.778
sS'TRP-MET'
p316
F-1.71
sS'ARG-ARG'
p317
F-3.746
sS'ILE-ASP'
p318
F-1.6619999999999999
sS'GLY-GLY'
p319
F-2.6960000000000002
sS'GLY-GLU'
p320
F-2.3069999999999999
sS'ALA-ARG'
p321
F-2.347
sS'GLU-ARG'
p322
F-2.5299999999999998
sS'HIS-VAL'
p323
F-1.976
sS'VAL-ARG'
p324
F-2.081
sS'ASN-SER'
p325
F-2.3029999999999999
sS'ALA-LYS'
p326
F-1.851
sS'VAL-GLN'
p327
F-1.7629999999999999
sS'TRP-ASN'
p328
F-2.5489999999999999
sS'TYR-ILE'
p329
F-2.274
sS'TRP-GLY'
p330
F-2.5339999999999998
sS'PRO-PHE'
p331
F-2.391
sS'GLY-HIS'
p332
F-2.5190000000000001
sS'PHE-SER'
p333
F-2.2959999999999998
sS'TRP-ASP'
p334
F-2.3180000000000001
sS'TRP-GLN'
p335
F-2.524
sS'LEU-ALA'
p336
F-1.796
sS'VAL-GLU'
p337
F-1.8580000000000001
sS'ALA-HIS'
p338
F-2.2229999999999999
sS'ARG-ASN'
p339
F-2.5249999999999999
sS'LEU-THR'
p340
F-1.7929999999999999
sS'TYR-CYS'
p341
F-1.641
sS'THR-THR'
p342
F-3.1070000000000002
sS'THR-LEU'
p343
F-1.7649999999999999
sS'VAL-ASN'
p344
F-1.843
sS'LEU-TRP'
p345
F-2.048
sS'GLU-ASP'
p346
F-2.036
sS'ILE-SER'
p347
F-1.8560000000000001
sS'ILE-ARG'
p348
F-1.9139999999999999
sS'TRP-GLU'
p349
F-2.1859999999999999
sS'ILE-MET'
p350
F-1.3440000000000001
sS'MET-PHE'
p351
F-1.903
sS'PRO-ALA'
p352
F-1.9810000000000001
sS'PRO-GLY'
p353
F-2.0609999999999999
sS'GLN-THR'
p354
F-2.1890000000000001
sS'MET-ALA'
p355
F-1.371
sS'TRP-SER'
p356
F-2.3879999999999999
sS'ASP-HIS'
p357
F-2.21
sS'ARG-SER'
p358
F-2.4990000000000001
sS'GLN-HIS'
p359
F-2.2519999999999998
sS'HIS-PHE'
p360
F-2.1389999999999998
sS'LEU-LEU'
p361
F-2.831
sS'ALA-GLN'
p362
F-2.129
sS'ASP-ASN'
p363
F-2.1619999999999999
sS'SER-VAL'
p364
F-1.774
sS'MET-ILE'
p365
F-1.3620000000000001
sS'ALA-PRO'
p366
F-1.9019999999999999
sS'ASP-ASP'
p367
F-3.081
sS'ALA-GLY'
p368
F-1.536
sS'TRP-TRP'
p369
F-4.6349999999999998
sS'MET-CYS'
p370
F-0.871
sS'ALA-GLU'
p371
F-2.0129999999999999
sS'THR-PRO'
p372
F-2.0750000000000002
sS'HIS-ALA'
p373
F-2.0960000000000001
sS'GLN-ILE'
p374
F-1.9399999999999999
sS'GLU-VAL'
p375
F-1.837
sS'LYS-ASN'
p376
F-2.0979999999999999
sS'ASN-ALA'
p377
F-1.929
sS'THR-ILE'
p378
F-1.7490000000000001
sS'ASP-CYS'
p379
F-1.4350000000000001
sS'PRO-LYS'
p380
F-2.0720000000000001
sS'TYR-TYR'
p381
F-3.9380000000000002
sS'ARG-LYS'
p382
F-2.0960000000000001
sS'ILE-ALA'
p383
F-1.7450000000000001
sS'ASP-SER'
p384
F-2.1520000000000001
sS'CYS-LYS'
p385
F-1.319
sS'GLU-ALA'
p386
F-2.0329999999999999
sS'PHE-GLU'
p387
F-2.1200000000000001
sS'GLU-LEU'
p388
F-1.944
sS'PHE-GLY'
p389
F-2.3220000000000001
sS'LYS-HIS'
p390
F-2.0110000000000001
sS'HIS-PRO'
p391
F-2.589
sS'ILE-ILE'
p392
F-2.9180000000000001
sS'MET-HIS'
p393
F-2.0009999999999999
sS'VAL-GLY'
p394
F-1.744
sS'THR-MET'
p395
F-1.6459999999999999
sS'PHE-THR'
p396
F-2.1909999999999998
sS'VAL-TRP'
p397
F-2.1619999999999999
sS'PHE-LYS'
p398
F-2.1699999999999999
sS'GLY-PRO'
p399
F-2.1389999999999998
sS'PHE-GLN'
p400
F-2.1560000000000001
sS'LEU-PHE'
p401
F-2.0030000000000001
s.