(dp1
S'MET-MET'
p2
F-0.79900000000000004
sS'PRO-ILE'
p3
F0.20899999999999999
sS'TYR-LYS'
p4
F0.16300000000000001
sS'VAL-ASP'
p5
F0.40500000000000003
sS'ASP-GLN'
p6
F0.069000000000000006
sS'HIS-TYR'
p7
F-0.13500000000000001
sS'ASP-GLU'
p8
F0.251
sS'ALA-ASP'
p9
F0.19500000000000001
sS'ASP-GLY'
p10
F-0.193
sS'LEU-VAL'
p11
F0.47099999999999997
sS'TRP-TYR'
p12
F0.17699999999999999
sS'GLN-TRP'
p13
F0.375
sS'TRP-PHE'
p14
F0.80100000000000005
sS'ARG-TYR'
p15
F-0.13100000000000001
sS'GLU-LYS'
p16
F0.12
sS'ILE-HIS'
p17
F0.46200000000000002
sS'LEU-MET'
p18
F0.77800000000000002
sS'GLU-HIS'
p19
F-0.0060000000000000001
sS'GLY-THR'
p20
F-0.23799999999999999
sS'ARG-GLU'
p21
F-0.034000000000000002
sS'PHE-ASN'
p22
F0.182
sS'ASN-MET'
p23
F0.26400000000000001
sS'PRO-THR'
p24
F-0.41599999999999998
sS'TYR-GLN'
p25
F0.17100000000000001
sS'ARG-GLY'
p26
F-0.379
sS'VAL-THR'
p27
F0.26300000000000001
sS'ASP-ILE'
p28
F0.28199999999999997
sS'THR-HIS'
p29
F0.193
sS'TYR-GLU'
p30
F0.215
sS'ARG-GLN'
p31
F-0.035999999999999997
sS'TYR-GLY'
p32
F-0.10299999999999999
sS'PHE-ASP'
p33
F0.33200000000000002
sS'CYS-ARG'
p34
F0.504
sS'GLY-ASN'
p35
F-0.52400000000000002
sS'VAL-LYS'
p36
F0.46500000000000002
sS'LEU-ILE'
p37
F0.56200000000000006
sS'GLN-LEU'
p38
F0.42299999999999999
sS'GLU-MET'
p39
F0.40799999999999997
sS'ASP-THR'
p40
F-0.086999999999999994
sS'ASN-PHE'
p41
F0.19700000000000001
sS'GLU-PRO'
p42
F-0.16300000000000001
sS'TYR-LEU'
p43
F0.38200000000000001
sS'LYS-ARG'
p44
F0.48999999999999999
sS'GLY-ASP'
p45
F-0.27200000000000002
sS'PRO-GLN'
p46
F-0.315
sS'CYS-MET'
p47
F1.145
sS'HIS-ARG'
p48
F0.307
sS'GLU-THR'
p49
F0.014
sS'ILE-THR'
p50
F0.32400000000000001
sS'SER-PRO'
p51
F-0.42599999999999999
sS'GLY-CYS'
p52
F-0.092999999999999999
sS'ARG-LEU'
p53
F0.34899999999999998
sS'PRO-GLU'
p54
F-0.23300000000000001
sS'ASP-LEU'
p55
F0.38
sS'PHE-VAL'
p56
F0.41799999999999998
sS'ASN-VAL'
p57
F0.26900000000000002
sS'ALA-MET'
p58
F0.73299999999999998
sS'LEU-PRO'
p59
F-0.021999999999999999
sS'LEU-SER'
p60
F0.219
sS'ASN-ARG'
p61
F-0.065000000000000002
sS'SER-THR'
p62
F-0.11899999999999999
sS'LYS-VAL'
p63
F0.41499999999999998
sS'LYS-GLN'
p64
F0.069000000000000006
sS'GLN-VAL'
p65
F0.34200000000000003
sS'TYR-PHE'
p66
F0.27400000000000002
sS'ASP-VAL'
p67
F0.45700000000000002
sS'ASN-GLY'
p68
F-0.43099999999999999
sS'ARG-PHE'
p69
F0.223
sS'SER-HIS'
p70
F-0.154
sS'ALA-ILE'
p71
F0.29299999999999998
sS'ASN-GLU'
p72
F-0.039
sS'CYS-GLN'
p73
F0.46600000000000003
sS'TYR-PRO'
p74
F-0.26600000000000001
sS'LYS-GLU'
p75
F0.11600000000000001
sS'CYS-GLU'
p76
F0.871
sS'ASN-GLN'
p77
F-0.29799999999999999
sS'CYS-GLY'
p78
F0.26000000000000001
sS'GLN-SER'
p79
F-0.31900000000000001
sS'HIS-LYS'
p80
F0.20699999999999999
sS'LYS-GLY'
p81
F-0.10100000000000001
sS'VAL-MET'
p82
F0.75800000000000001
sS'GLU-GLY'
p83
F-0.086999999999999994
sS'THR-SER'
p84
F-0.050999999999999997
sS'TYR-THR'
p85
F0.23899999999999999
sS'PRO-PRO'
p86
F-1.111
sS'ILE-PHE'
p87
F0.59299999999999997
sS'PHE-LEU'
p88
F0.497
sS'GLU-GLU'
p89
F-0.374
sS'SER-ARG'
p90
F-0.028000000000000001
sS'GLY-ALA'
p91
F-0.17699999999999999
sS'TYR-ASN'
p92
F-0.27100000000000002
sS'GLU-GLN'
p93
F0.17599999999999999
sS'TRP-ARG'
p94
F0.30199999999999999
sS'LEU-GLU'
p95
F0.46500000000000002
sS'LEU-GLY'
p96
F0.11
sS'LYS-SER'
p97
F0.20200000000000001
sS'MET-VAL'
p98
F0.80000000000000004
sS'SER-ALA'
p99
F-0.114
sS'PRO-HIS'
p100
F-0.436
sS'MET-THR'
p101
F0.27500000000000002
sS'ALA-PHE'
p102
F0.16300000000000001
sS'MET-PRO'
p103
F0.10000000000000001
sS'GLY-SER'
p104
F-0.43099999999999999
sS'LEU-GLN'
p105
F0.379
sS'VAL-LEU'
p106
F0.39000000000000001
sS'LEU-CYS'
p107
F0.89000000000000001
sS'LYS-TYR'
p108
F0.20200000000000001
sS'ASP-ALA'
p109
F0.161
sS'ILE-LEU'
p110
F0.59499999999999997
sS'TRP-VAL'
p111
F0.57499999999999996
sS'PHE-PRO'
p112
F-0.012
sS'ALA-ALA'
p113
F-0.435
sS'ARG-TRP'
p114
F0.31
sS'MET-GLN'
p115
F0.20899999999999999
sS'ILE-LYS'
p116
F0.749
sS'MET-ARG'
p117
F0.48399999999999999
sS'ALA-CYS'
p118
F0.56299999999999994
sS'THR-ARG'
p119
F0.159
sS'CYS-ILE'
p120
F0.82499999999999996
sS'LEU-ASN'
p121
F0.17899999999999999
sS'LEU-ASP'
p122
F0.438
sS'PHE-TRP'
p123
F0.90500000000000003
sS'MET-GLY'
p124
F0.37
sS'THR-PHE'
p125
F0.28100000000000003
sS'MET-GLU'
p126
F0.622
sS'THR-TRP'
p127
F0.26100000000000001
sS'THR-TYR'
p128
F0.21199999999999999
sS'CYS-VAL'
p129
F0.61599999999999999
sS'ARG-ALA'
p130
F0.091999999999999998
sS'ALA-TYR'
p131
F0.151
sS'ASP-PRO'
p132
F-0.33800000000000002
sS'ARG-CYS'
p133
F0.51400000000000001
sS'GLN-ARG'
p134
F-0.0060000000000000001
sS'HIS-TRP'
p135
F0.41499999999999998
sS'PRO-SER'
p136
F-0.29699999999999999
sS'VAL-VAL'
p137
F-0.36199999999999999
sS'LEU-LYS'
p138
F0.58699999999999997
sS'GLY-LYS'
p139
F-0.16500000000000001
sS'CYS-ASN'
p140
F0.60699999999999998
sS'GLY-TRP'
p141
F0.002
sS'THR-CYS'
p142
F0.69099999999999995
sS'LYS-LYS'
p143
F-0.051999999999999998
sS'CYS-ASP'
p144
F0.498
sS'TYR-ASP'
p145
F0.027
sS'VAL-PRO'
p146
F0.107
sS'THR-VAL'
p147
F0.23899999999999999
sS'ASP-TYR'
p148
F0.0050000000000000001
sS'PRO-CYS'
p149
F0.074999999999999997
sS'VAL-SER'
p150
F0.155
sS'ARG-HIS'
p151
F0.081000000000000003
sS'CYS-PRO'
p152
F-0.066000000000000003
sS'MET-LYS'
p153
F0.57799999999999996
sS'ALA-SER'
p154
F-0.10299999999999999
sS'TYR-SER'
p155
F-0.124
sS'GLY-ARG'
p156
F-0.29899999999999999
sS'GLN-ALA'
p157
F0.032000000000000001
sS'MET-LEU'
p158
F0.54400000000000004
sS'ASN-HIS'
p159
F-0.066000000000000003
sS'VAL-CYS'
p160
F0.747
sS'GLN-TYR'
p161
F0.11700000000000001
sS'GLN-PHE'
p162
F0.193
sS'ILE-ASN'
p163
F0.17100000000000001
sS'GLU-ASN'
p164
F-0.043999999999999997
sS'CYS-ALA'
p165
F0.57899999999999996
sS'ASN-ASP'
p166
F-0.082000000000000003
sS'ASN-PRO'
p167
F-0.47499999999999998
sS'PRO-ARG'
p168
F-0.11
sS'LYS-TRP'
p169
F0.71999999999999997
sS'ASN-ASN'
p170
F-0.97199999999999998
sS'ASN-THR'
p171
F-0.17399999999999999
sS'THR-ALA'
p172
F0.105
sS'LYS-ALA'
p173
F0.42299999999999999
sS'LYS-PRO'
p174
F-0.088999999999999996
sS'SER-GLN'
p175
F-0.159
sS'ILE-VAL'
p176
F0.59499999999999997
sS'ASP-ARG'
p177
F-0.079000000000000001
sS'ASP-MET'
p178
F0.499
sS'CYS-TYR'
p179
F0.71199999999999997
sS'PRO-TRP'
p180
F0.13100000000000001
sS'THR-GLU'
p181
F0.014
sS'TRP-ALA'
p182
F0.065000000000000002
sS'ILE-CYS'
p183
F0.73799999999999999
sS'LYS-ILE'
p184
F0.64900000000000002
sS'GLN-CYS'
p185
F0.48599999999999999
sS'TYR-ALA'
p186
F0.28399999999999997
sS'ARG-ASP'
p187
F-0.21199999999999999
sS'SER-GLU'
p188
F-0.17399999999999999
sS'TRP-HIS'
p189
F0.253
sS'ALA-ASN'
p190
F0.0060000000000000001
sS'GLU-CYS'
p191
F0.94199999999999995
sS'PRO-MET'
p192
F0.24099999999999999
sS'TYR-HIS'
p193
F0.096000000000000002
sS'PHE-MET'
p194
F0.42499999999999999
sS'GLU-TYR'
p195
F0.151
sS'SER-TRP'
p196
F0.17000000000000001
sS'PHE-ARG'
p197
F0.39000000000000001
sS'GLY-ILE'
p198
F0.13
sS'TYR-VAL'
p199
F0.57099999999999995
sS'ASN-TYR'
p200
F-0.218
sS'SER-ILE'
p201
F0.23300000000000001
sS'GLN-PRO'
p202
F-0.38200000000000001
sS'PHE-TYR'
p203
F0.072999999999999995
sS'ALA-VAL'
p204
F0.32300000000000001
sS'HIS-HIS'
p205
F-1.486
sS'THR-ASN'
p206
F0.019
sS'CYS-LEU'
p207
F0.94999999999999996
sS'LYS-MET'
p208
F0.51200000000000001
sS'LYS-ASP'
p209
F0.017999999999999999
sS'HIS-ASN'
p210
F-0.14399999999999999
sS'ILE-GLN'
p211
F0.29999999999999999
sS'VAL-HIS'
p212
F0.46700000000000003
sS'ALA-LEU'
p213
F0.19400000000000001
sS'HIS-ASP'
p214
F-0.042999999999999997
sS'ILE-TYR'
p215
F0.16
sS'ILE-GLU'
p216
F0.52300000000000002
sS'ASN-TRP'
p217
F0.27000000000000002
sS'ILE-GLY'
p218
F0.246
sS'ASN-CYS'
p219
F0.52100000000000002
sS'GLU-SER'
p220
F-0.184
sS'ALA-TRP'
p221
F0.29499999999999998
sS'HIS-CYS'
p222
F0.60799999999999998
sS'HIS-MET'
p223
F0.16700000000000001
sS'ILE-PRO'
p224
F0.050000000000000003
sS'LYS-PHE'
p225
F0.40200000000000002
sS'TRP-PRO'
p226
F0.071999999999999995
sS'GLU-TRP'
p227
F0.68200000000000005
sS'PHE-HIS'
p228
F0.378
sS'GLY-TYR'
p229
F-0.189
sS'SER-GLY'
p230
F-0.432
sS'CYS-TRP'
p231
F1.3009999999999999
sS'ASP-LYS'
p232
F0.17599999999999999
sS'ASN-ILE'
p233
F0.185
sS'HIS-SER'
p234
F-0.20499999999999999
sS'LYS-CYS'
p235
F0.65000000000000002
sS'GLY-PHE'
p236
F0.088999999999999996
sS'GLY-LEU'
p237
F0.021000000000000001
sS'MET-SER'
p238
F0.30099999999999999
sS'VAL-ALA'
p239
F0.36399999999999999
sS'SER-LEU'
p240
F0.26900000000000002
sS'TRP-LYS'
p241
F0.57599999999999996
sS'VAL-TYR'
p242
F0.53200000000000003
sS'VAL-PHE'
p243
F0.53500000000000003
sS'ARG-THR'
p244
F0.23999999999999999
sS'TYR-TRP'
p245
F0.124
sS'GLN-GLN'
p246
F-0.83599999999999997
sS'GLU-PHE'
p247
F0.47199999999999998
sS'VAL-ILE'
p248
F0.59799999999999998
sS'HIS-GLN'
p249
F0.17999999999999999
sS'GLN-GLY'
p250
F-0.317
sS'PHE-ALA'
p251
F0.23400000000000001
sS'HIS-GLU'
p252
F0.0070000000000000001
sS'ARG-PRO'
p253
F-0.252
sS'HIS-GLY'
p254
F-0.33300000000000002
sS'SER-ASN'
p255
F-0.23599999999999999
sS'ALA-THR'
p256
F0.155
sS'GLN-GLU'
p257
F0.099000000000000005
sS'GLN-LYS'
p258
F0.081000000000000003
sS'CYS-HIS'
p259
F0.60499999999999998
sS'GLN-ASP'
p260
F0.017000000000000001
sS'LEU-HIS'
p261
F0.42999999999999999
sS'SER-LYS'
p262
F0.129
sS'TRP-LEU'
p263
F0.47399999999999998
sS'CYS-SER'
p264
F0.39200000000000002
sS'LYS-THR'
p265
F0.31900000000000001
sS'HIS-LEU'
p266
F0.39800000000000002
sS'LEU-ARG'
p267
F0.33600000000000002
sS'GLY-VAL'
p268
F-0.031
sS'GLN-ASN'
p269
F-0.122
sS'TYR-ARG'
p270
F0.126
sS'PRO-TYR'
p271
F-0.28299999999999997
sS'ASP-PHE'
p272
F0.41299999999999998
sS'TRP-CYS'
p273
F1.0489999999999999
sS'ASN-LEU'
p274
F0.14999999999999999
sS'SER-MET'
p275
F0.39100000000000001
sS'HIS-ILE'
p276
F0.51000000000000001
sS'SER-TYR'
p277
F-0.252
sS'MET-TYR'
p278
F0.40400000000000003
sS'GLU-ILE'
p279
F0.48899999999999999
sS'PHE-CYS'
p280
F0.38900000000000001
sS'PRO-LEU'
p281
F0.029000000000000001
sS'GLY-MET'
p282
F0.20599999999999999
sS'ARG-ILE'
p283
F0.436
sS'HIS-THR'
p284
F0.02
sS'THR-GLN'
p285
F-0.081000000000000003
sS'TRP-THR'
p286
F0.20599999999999999
sS'LYS-LEU'
p287
F0.60799999999999998
sS'THR-GLY'
p288
F-0.20000000000000001
sS'ASP-TRP'
p289
F0.84099999999999997
sS'TYR-MET'
p290
F0.60899999999999999
sS'PHE-ILE'
p291
F0.66300000000000003
sS'PRO-VAL'
p292
F0.16300000000000001
sS'MET-ASN'
p293
F0.16700000000000001
sS'LEU-TYR'
p294
F0.39100000000000001
sS'PHE-PHE'
p295
F-0.61399999999999999
sS'CYS-PHE'
p296
F0.54000000000000004
sS'TRP-ILE'
p297
F0.76600000000000001
sS'PRO-ASN'
p298
F-0.31
sS'CYS-CYS'
p299
F-2.0510000000000002
sS'SER-ASP'
p300
F-0.124
sS'ARG-MET'
p301
F0.36299999999999999
sS'SER-PHE'
p302
F0.10199999999999999
sS'SER-SER'
p303
F-0.78100000000000003
sS'ASN-LYS'
p304
F0.097000000000000003
sS'CYS-THR'
p305
F0.74199999999999999
sS'ILE-TRP'
p306
F0.73999999999999999
sS'PRO-ASP'
p307
F-0.34699999999999998
sS'THR-ASP'
p308
F-0.010999999999999999
sS'SER-CYS'
p309
F0.42399999999999999
sS'MET-ASP'
p310
F0.55800000000000005
sS'GLN-MET'
p311
F0.34799999999999998
sS'MET-TRP'
p312
F0.89300000000000002
sS'ARG-VAL'
p313
F0.39600000000000002
sS'GLY-GLN'
p314
F-0.28100000000000003
sS'THR-LYS'
p315
F0.501
sS'TRP-MET'
p316
F1.024
sS'ARG-ARG'
p317
F-0.79100000000000004
sS'ILE-ASP'
p318
F0.36199999999999999
sS'GLY-GLY'
p319
F-0.875
sS'GLY-GLU'
p320
F-0.084000000000000005
sS'ALA-ARG'
p321
F0.058000000000000003
sS'GLU-ARG'
p322
F-0.017999999999999999
sS'HIS-VAL'
p323
F0.48699999999999999
sS'VAL-ARG'
p324
F0.42299999999999999
sS'ASN-SER'
p325
F-0.35599999999999998
sS'ALA-LYS'
p326
F0.26800000000000002
sS'VAL-GLN'
p327
F0.5
sS'TRP-ASN'
p328
F0.071999999999999995
sS'TYR-ILE'
p329
F0.29999999999999999
sS'TRP-GLY'
p330
F-0.186
sS'PRO-PHE'
p331
F0.064000000000000001
sS'GLY-HIS'
p332
F-0.30399999999999999
sS'PHE-SER'
p333
F0.035999999999999997
sS'TRP-ASP'
p334
F0.70099999999999996
sS'TRP-GLN'
p335
F-0.0089999999999999993
sS'LEU-ALA'
p336
F0.189
sS'VAL-GLU'
p337
F0.35999999999999999
sS'ALA-HIS'
p338
F0.001
sS'ARG-ASN'
p339
F-0.080000000000000002
sS'LEU-THR'
p340
F0.27800000000000002
sS'TYR-CYS'
p341
F0.82999999999999996
sS'THR-THR'
p342
F-0.60299999999999998
sS'THR-LEU'
p343
F0.309
sS'VAL-ASN'
p344
F0.246
sS'LEU-TRP'
p345
F0.629
sS'GLU-ASP'
p346
F0.16900000000000001
sS'ILE-SER'
p347
F0.247
sS'ILE-ARG'
p348
F0.55800000000000005
sS'TRP-GLU'
p349
F0.27400000000000002
sS'ILE-MET'
p350
F0.75800000000000001
sS'MET-PHE'
p351
F0.44
sS'PRO-ALA'
p352
F-0.29499999999999998
sS'PRO-GLY'
p353
F-0.38700000000000001
sS'GLN-THR'
p354
F0.091999999999999998
sS'MET-ALA'
p355
F0.52600000000000002
sS'TRP-SER'
p356
F0.098000000000000004
sS'ASP-HIS'
p357
F0.13700000000000001
sS'ARG-SER'
p358
F0.02
sS'GLN-HIS'
p359
F0.044999999999999998
sS'HIS-PHE'
p360
F0.32700000000000001
sS'LEU-LEU'
p361
F-0.048000000000000001
sS'ALA-GLN'
p362
F0.024
sS'ASP-ASN'
p363
F-0.16200000000000001
sS'SER-VAL'
p364
F0.112
sS'MET-ILE'
p365
F0.64900000000000002
sS'ALA-PRO'
p366
F-0.16400000000000001
sS'ASP-ASP'
p367
F-0.29299999999999998
sS'ALA-GLY'
p368
F-0.067000000000000004
sS'TRP-TRP'
p369
F-1.4870000000000001
sS'MET-CYS'
p370
F1.2230000000000001
sS'ALA-GLU'
p371
F0.13800000000000001
sS'THR-PRO'
p372
F-0.40500000000000003
sS'HIS-ALA'
p373
F0.051999999999999998
sS'GLN-ILE'
p374
F0.214
sS'GLU-VAL'
p375
F0.377
sS'LYS-ASN'
p376
F0.158
sS'ASN-ALA'
p377
F0.064000000000000001
sS'THR-ILE'
p378
F0.33600000000000002
sS'ASP-CYS'
p379
F0.60599999999999998
sS'PRO-LYS'
p380
F-0.014999999999999999
sS'TYR-TYR'
p381
F-0.88900000000000001
sS'ARG-LYS'
p382
F0.41899999999999998
sS'ILE-ALA'
p383
F0.34599999999999997
sS'ASP-SER'
p384
F-0.17699999999999999
sS'CYS-LYS'
p385
F0.93500000000000005
sS'GLU-ALA'
p386
F0.097000000000000003
sS'PHE-GLU'
p387
F0.48099999999999998
sS'GLU-LEU'
p388
F0.36899999999999999
sS'PHE-GLY'
p389
F0.036999999999999998
sS'LYS-HIS'
p390
F0.38600000000000001
sS'HIS-PRO'
p391
F-0.40300000000000002
sS'ILE-ILE'
p392
F-0.23200000000000001
sS'MET-HIS'
p393
F0.20699999999999999
sS'VAL-GLY'
p394
F0.068000000000000005
sS'THR-MET'
p395
F0.27400000000000002
sS'PHE-THR'
p396
F0.30099999999999999
sS'VAL-TRP'
p397
F0.66000000000000003
sS'PHE-LYS'
p398
F0.27000000000000002
sS'GLY-PRO'
p399
F-0.42999999999999999
sS'PHE-GLN'
p400
F0.28100000000000003
sS'LEU-PHE'
p401
F0.502
s.