(dp1
S'MET-MET'
p2
F-1.526
sS'PRO-ILE'
p3
F-0.56299999999999994
sS'TYR-LYS'
p4
F-0.70099999999999996
sS'VAL-ASP'
p5
F-0.41799999999999998
sS'ASP-GLN'
p6
F-0.76600000000000001
sS'HIS-TYR'
p7
F-0.84899999999999998
sS'ASP-GLU'
p8
F-0.61199999999999999
sS'ALA-ASP'
p9
F-0.61899999999999999
sS'ASP-GLY'
p10
F-1.03
sS'LEU-VAL'
p11
F-0.39300000000000002
sS'TRP-TYR'
p12
F-0.437
sS'GLN-TRP'
p13
F-0.439
sS'TRP-PHE'
p14
F-0.17899999999999999
sS'ARG-TYR'
p15
F-0.95499999999999996
sS'GLU-LYS'
p16
F-0.75900000000000001
sS'ILE-HIS'
p17
F-0.39500000000000002
sS'LEU-MET'
p18
F-0.057000000000000002
sS'GLU-HIS'
p19
F-0.71699999999999997
sS'GLY-THR'
p20
F-1.0660000000000001
sS'ARG-GLU'
p21
F-0.96399999999999997
sS'PHE-ASN'
p22
F-0.74399999999999999
sS'ASN-MET'
p23
F-0.40600000000000003
sS'PRO-THR'
p24
F-1.004
sS'TYR-GLN'
p25
F-0.75700000000000001
sS'ARG-GLY'
p26
F-1.1799999999999999
sS'VAL-THR'
p27
F-0.501
sS'ASP-ILE'
p28
F-0.39300000000000002
sS'THR-HIS'
p29
F-0.747
sS'TYR-GLU'
p30
F-0.70099999999999996
sS'ARG-GLN'
p31
F-0.81799999999999995
sS'TYR-GLY'
p32
F-1.012
sS'PHE-ASP'
p33
F-0.53500000000000003
sS'CYS-ARG'
p34
F-0.59399999999999997
sS'GLY-ASN'
p35
F-1.278
sS'VAL-LYS'
p36
F-0.42699999999999999
sS'LEU-ILE'
p37
F-0.29299999999999998
sS'GLN-LEU'
p38
F-0.47899999999999998
sS'GLU-MET'
p39
F-0.25
sS'ASP-THR'
p40
F-0.80900000000000005
sS'ASN-PHE'
p41
F-0.72399999999999998
sS'GLU-PRO'
p42
F-1.0309999999999999
sS'TYR-LEU'
p43
F-0.61899999999999999
sS'LYS-ARG'
p44
F-0.38100000000000001
sS'GLY-ASP'
p45
F-1.109
sS'PRO-GLN'
p46
F-1.0089999999999999
sS'CYS-MET'
p47
F0.19800000000000001
sS'HIS-ARG'
p48
F-0.64800000000000002
sS'GLU-THR'
p49
F-0.80000000000000004
sS'ILE-THR'
p50
F-0.45800000000000002
sS'SER-PRO'
p51
F-1.032
sS'GLY-CYS'
p52
F-0.79000000000000004
sS'ARG-LEU'
p53
F-0.63
sS'PRO-GLU'
p54
F-0.93300000000000005
sS'ASP-LEU'
p55
F-0.35599999999999998
sS'PHE-VAL'
p56
F-0.47299999999999998
sS'ASN-VAL'
p57
F-0.59399999999999997
sS'ALA-MET'
p58
F-0.13200000000000001
sS'LEU-PRO'
p59
F-0.69499999999999995
sS'LEU-SER'
p60
F-0.65900000000000003
sS'ASN-ARG'
p61
F-0.85999999999999999
sS'SER-THR'
p62
F-0.874
sS'LYS-VAL'
p63
F-0.41699999999999998
sS'LYS-GLN'
p64
F-0.64700000000000002
sS'GLN-VAL'
p65
F-0.57499999999999996
sS'TYR-PHE'
p66
F-0.55100000000000005
sS'ASP-VAL'
p67
F-0.40400000000000003
sS'ASN-GLY'
p68
F-1.2250000000000001
sS'ARG-PHE'
p69
F-0.65100000000000002
sS'SER-HIS'
p70
F-0.93300000000000005
sS'ALA-ILE'
p71
F-0.57299999999999995
sS'ASN-GLU'
p72
F-0.88500000000000001
sS'CYS-GLN'
p73
F-0.35899999999999999
sS'TYR-PRO'
p74
F-1.091
sS'LYS-GLU'
p75
F-0.75700000000000001
sS'CYS-GLU'
p76
F0.028000000000000001
sS'ASN-GLN'
p77
F-1.0669999999999999
sS'CYS-GLY'
p78
F-0.55200000000000005
sS'GLN-SER'
p79
F-1.02
sS'HIS-LYS'
p80
F-0.53500000000000003
sS'LYS-GLY'
p81
F-0.93200000000000005
sS'VAL-MET'
p82
F-0.041000000000000002
sS'GLU-GLY'
p83
F-1.048
sS'THR-SER'
p84
F-0.85799999999999998
sS'TYR-THR'
p85
F-0.75900000000000001
sS'PRO-PRO'
p86
F-1.776
sS'ILE-PHE'
p87
F-0.33800000000000002
sS'PHE-LEU'
p88
F-0.371
sS'GLU-GLU'
p89
F-1.2290000000000001
sS'SER-ARG'
p90
F-0.95699999999999996
sS'GLY-ALA'
p91
F-0.92900000000000005
sS'TYR-ASN'
p92
F-0.98699999999999999
sS'GLU-GLN'
p93
F-0.61699999999999999
sS'TRP-ARG'
p94
F-0.46000000000000002
sS'LEU-GLU'
p95
F-0.42699999999999999
sS'LEU-GLY'
p96
F-0.79600000000000004
sS'LYS-SER'
p97
F-0.72399999999999998
sS'MET-VAL'
p98
F-0.121
sS'SER-ALA'
p99
F-0.83399999999999996
sS'PRO-HIS'
p100
F-1.1240000000000001
sS'MET-THR'
p101
F-0.39800000000000002
sS'ALA-PHE'
p102
F-0.68100000000000005
sS'MET-PRO'
p103
F-0.443
sS'GLY-SER'
p104
F-1.179
sS'LEU-GLN'
p105
F-0.53600000000000003
sS'VAL-LEU'
p106
F-0.45500000000000002
sS'LEU-CYS'
p107
F-0.121
sS'LYS-TYR'
p108
F-0.74299999999999999
sS'ASP-ALA'
p109
F-0.58499999999999996
sS'ILE-LEU'
p110
F-0.315
sS'TRP-VAL'
p111
F-0.36199999999999999
sS'PHE-PRO'
p112
F-0.94399999999999995
sS'ALA-ALA'
p113
F-1.2050000000000001
sS'ARG-TRP'
p114
F-0.59899999999999998
sS'MET-GLN'
p115
F-0.375
sS'ILE-LYS'
p116
F-0.114
sS'MET-ARG'
p117
F-0.30099999999999999
sS'ALA-CYS'
p118
F-0.11
sS'THR-ARG'
p119
F-0.78200000000000003
sS'CYS-ILE'
p120
F0.019
sS'LEU-ASN'
p121
F-0.59199999999999997
sS'LEU-ASP'
p122
F-0.374
sS'PHE-TRP'
p123
F-0.071999999999999995
sS'MET-GLY'
p124
F-0.50800000000000001
sS'THR-PHE'
p125
F-0.64900000000000002
sS'MET-GLU'
p126
F-0.16600000000000001
sS'THR-TRP'
p127
F-0.44700000000000001
sS'THR-TYR'
p128
F-0.755
sS'CYS-VAL'
p129
F-0.056000000000000001
sS'ARG-ALA'
p130
F-0.76000000000000001
sS'ALA-TYR'
p131
F-0.79900000000000004
sS'ASP-PRO'
p132
F-1.044
sS'ARG-CYS'
p133
F-0.504
sS'GLN-ARG'
p134
F-0.86199999999999999
sS'HIS-TRP'
p135
F-0.32300000000000001
sS'PRO-SER'
p136
F-1.0029999999999999
sS'VAL-VAL'
p137
F-1.2370000000000001
sS'LEU-LYS'
p138
F-0.315
sS'GLY-LYS'
p139
F-0.97499999999999998
sS'CYS-ASN'
p140
F-0.33000000000000002
sS'GLY-TRP'
p141
F-0.79100000000000004
sS'THR-CYS'
p142
F-0.083000000000000004
sS'LYS-LYS'
p143
F-0.93799999999999994
sS'CYS-ASP'
p144
F-0.30099999999999999
sS'TYR-ASP'
p145
F-0.748
sS'VAL-PRO'
p146
F-0.59599999999999997
sS'THR-VAL'
p147
F-0.54200000000000004
sS'ASP-TYR'
p148
F-0.77600000000000002
sS'PRO-CYS'
p149
F-0.57999999999999996
sS'VAL-SER'
p150
F-0.65900000000000003
sS'ARG-HIS'
p151
F-0.77800000000000002
sS'CYS-PRO'
p152
F-0.628
sS'MET-LYS'
p153
F-0.248
sS'ALA-SER'
p154
F-0.83399999999999996
sS'TYR-SER'
p155
F-0.96499999999999997
sS'GLY-ARG'
p156
F-1.1639999999999999
sS'GLN-ALA'
p157
F-0.82499999999999996
sS'MET-LEU'
p158
F-0.16800000000000001
sS'ASN-HIS'
p159
F-0.90900000000000003
sS'VAL-CYS'
p160
F0.067000000000000004
sS'GLN-TYR'
p161
F-0.82599999999999996
sS'GLN-PHE'
p162
F-0.66100000000000003
sS'ILE-ASN'
p163
F-0.59699999999999998
sS'GLU-ASN'
p164
F-0.93799999999999994
sS'CYS-ALA'
p165
F-0.073999999999999996
sS'ASN-ASP'
p166
F-0.82999999999999996
sS'ASN-PRO'
p167
F-1.141
sS'PRO-ARG'
p168
F-0.97599999999999998
sS'LYS-TRP'
p169
F-0.059999999999999998
sS'ASN-ASN'
p170
F-1.776
sS'ASN-THR'
p171
F-0.89200000000000002
sS'THR-ALA'
p172
F-0.76800000000000002
sS'LYS-ALA'
p173
F-0.47199999999999998
sS'LYS-PRO'
p174
F-0.82199999999999995
sS'SER-GLN'
p175
F-0.97899999999999998
sS'ILE-VAL'
p176
F-0.27300000000000002
sS'ASP-ARG'
p177
F-0.97999999999999998
sS'ASP-MET'
p178
F-0.29399999999999998
sS'CYS-TYR'
p179
F-0.155
sS'PRO-TRP'
p180
F-0.84299999999999997
sS'THR-GLU'
p181
F-0.79300000000000004
sS'TRP-ALA'
p182
F-0.75900000000000001
sS'ILE-CYS'
p183
F-0.073999999999999996
sS'LYS-ILE'
p184
F-0.20899999999999999
sS'GLN-CYS'
p185
F-0.34599999999999997
sS'TYR-ALA'
p186
F-0.71799999999999997
sS'ARG-ASP'
p187
F-1.101
sS'SER-GLU'
p188
F-0.999
sS'TRP-HIS'
p189
F-0.40400000000000003
sS'ALA-ASN'
p190
F-0.76500000000000001
sS'GLU-CYS'
p191
F-0.017000000000000001
sS'PRO-MET'
p192
F-0.36099999999999999
sS'TYR-HIS'
p193
F-0.84199999999999997
sS'PHE-MET'
p194
F-0.28899999999999998
sS'GLU-TYR'
p195
F-0.71899999999999997
sS'SER-TRP'
p196
F-0.59899999999999998
sS'PHE-ARG'
p197
F-0.53000000000000003
sS'GLY-ILE'
p198
F-0.69899999999999995
sS'TYR-VAL'
p199
F-0.38600000000000001
sS'ASN-TYR'
p200
F-0.98499999999999999
sS'SER-ILE'
p201
F-0.56000000000000005
sS'GLN-PRO'
p202
F-1.091
sS'PHE-TYR'
p203
F-0.74099999999999999
sS'ALA-VAL'
p204
F-0.55500000000000005
sS'HIS-HIS'
p205
F-2.089
sS'THR-ASN'
p206
F-0.80000000000000004
sS'CYS-LEU'
p207
F0.0050000000000000001
sS'LYS-MET'
p208
F-0.14999999999999999
sS'LYS-ASP'
p209
F-0.73699999999999999
sS'HIS-ASN'
p210
F-1.0469999999999999
sS'ILE-GLN'
p211
F-0.56699999999999995
sS'VAL-HIS'
p212
F-0.48899999999999999
sS'ALA-LEU'
p213
F-0.67000000000000004
sS'HIS-ASP'
p214
F-0.749
sS'ILE-TYR'
p215
F-0.75600000000000001
sS'ILE-GLU'
p216
F-0.36899999999999999
sS'ASN-TRP'
p217
F-0.58599999999999997
sS'ILE-GLY'
p218
F-0.65400000000000003
sS'ASN-CYS'
p219
F-0.39400000000000002
sS'GLU-SER'
p220
F-1.01
sS'ALA-TRP'
p221
F-0.5
sS'HIS-CYS'
p222
F-0.22
sS'HIS-MET'
p223
F-0.496
sS'ILE-PRO'
p224
F-0.64000000000000001
sS'LYS-PHE'
p225
F-0.40300000000000002
sS'TRP-PRO'
p226
F-0.79100000000000004
sS'GLU-TRP'
p227
F-0.245
sS'PHE-HIS'
p228
F-0.54700000000000004
sS'GLY-TYR'
p229
F-1.04
sS'SER-GLY'
p230
F-1.1819999999999999
sS'CYS-TRP'
p231
F0.436
sS'ASP-LYS'
p232
F-0.70899999999999996
sS'ASN-ILE'
p233
F-0.59099999999999997
sS'HIS-SER'
p234
F-1.038
sS'LYS-CYS'
p235
F0.057000000000000002
sS'GLY-PHE'
p236
F-0.84899999999999998
sS'GLY-LEU'
p237
F-0.84799999999999998
sS'MET-SER'
p238
F-0.52000000000000002
sS'VAL-ALA'
p239
F-0.50700000000000001
sS'SER-LEU'
p240
F-0.64900000000000002
sS'TRP-LYS'
p241
F-0.27800000000000002
sS'VAL-TYR'
p242
F-0.39400000000000002
sS'VAL-PHE'
p243
F-0.38800000000000001
sS'ARG-THR'
p244
F-0.77700000000000002
sS'TYR-TRP'
p245
F-0.40999999999999998
sS'GLN-GLN'
p246
F-1.6699999999999999
sS'GLU-PHE'
p247
F-0.497
sS'VAL-ILE'
p248
F-0.27200000000000002
sS'HIS-GLN'
p249
F-0.66200000000000003
sS'GLN-GLY'
p250
F-1.048
sS'PHE-ALA'
p251
F-0.62
sS'HIS-GLU'
p252
F-0.72899999999999998
sS'ARG-PRO'
p253
F-1.081
sS'HIS-GLY'
p254
F-1.163
sS'SER-ASN'
p255
F-1.0129999999999999
sS'ALA-THR'
p256
F-0.71199999999999997
sS'GLN-GLU'
p257
F-0.64700000000000002
sS'GLN-LYS'
p258
F-0.60399999999999998
sS'CYS-HIS'
p259
F-0.26700000000000002
sS'GLN-ASP'
p260
F-0.81499999999999995
sS'LEU-HIS'
p261
F-0.48799999999999999
sS'SER-LYS'
p262
F-0.72499999999999998
sS'TRP-LEU'
p263
F-0.34899999999999998
sS'CYS-SER'
p264
F-0.47299999999999998
sS'LYS-THR'
p265
F-0.51700000000000002
sS'HIS-LEU'
p266
F-0.51300000000000001
sS'LEU-ARG'
p267
F-0.63
sS'GLY-VAL'
p268
F-0.82899999999999996
sS'GLN-ASN'
p269
F-0.94999999999999996
sS'TYR-ARG'
p270
F-0.76000000000000001
sS'PRO-TYR'
p271
F-1.1100000000000001
sS'ASP-PHE'
p272
F-0.45900000000000002
sS'TRP-CYS'
p273
F0.035999999999999997
sS'ASN-LEU'
p274
F-0.61099999999999999
sS'SER-MET'
p275
F-0.41399999999999998
sS'HIS-ILE'
p276
F-0.32300000000000001
sS'SER-TYR'
p277
F-1.0009999999999999
sS'MET-TYR'
p278
F-0.65300000000000002
sS'GLU-ILE'
p279
F-0.376
sS'PHE-CYS'
p280
F-0.33700000000000002
sS'PRO-LEU'
p281
F-0.63700000000000001
sS'GLY-MET'
p282
F-0.61099999999999999
sS'ARG-ILE'
p283
F-0.436
sS'HIS-THR'
p284
F-0.81000000000000005
sS'THR-GLN'
p285
F-0.93700000000000006
sS'TRP-THR'
p286
F-0.502
sS'LYS-LEU'
p287
F-0.32500000000000001
sS'THR-GLY'
p288
F-1.048
sS'ASP-TRP'
p289
F-0.32100000000000001
sS'TYR-MET'
p290
F-0.45500000000000002
sS'PHE-ILE'
p291
F-0.32600000000000001
sS'PRO-VAL'
p292
F-0.56999999999999995
sS'MET-ASN'
p293
F-0.47899999999999998
sS'LEU-TYR'
p294
F-0.63400000000000001
sS'PHE-PHE'
p295
F-1.411
sS'CYS-PHE'
p296
F-0.253
sS'TRP-ILE'
p297
F-0.19600000000000001
sS'PRO-ASN'
p298
F-1.117
sS'CYS-CYS'
p299
F-2.73
sS'SER-ASP'
p300
F-0.92600000000000005
sS'ARG-MET'
p301
F-0.30199999999999999
sS'SER-PHE'
p302
F-0.81799999999999995
sS'SER-SER'
p303
F-1.528
sS'ASN-LYS'
p304
F-0.77800000000000002
sS'CYS-THR'
p305
F-0.128
sS'ILE-TRP'
p306
F-0.307
sS'PRO-ASP'
p307
F-0.99099999999999999
sS'THR-ASP'
p308
F-0.78700000000000003
sS'SER-CYS'
p309
F-0.36699999999999999
sS'MET-ASP'
p310
F-0.18099999999999999
sS'GLN-MET'
p311
F-0.246
sS'MET-TRP'
p312
F0
sS'ARG-VAL'
p313
F-0.57399999999999995
sS'GLY-GLN'
p314
F-1.0629999999999999
sS'THR-LYS'
p315
F-0.433
sS'TRP-MET'
p316
F0.108
sS'ARG-ARG'
p317
F-1.528
sS'ILE-ASP'
p318
F-0.34699999999999998
sS'GLY-GLY'
p319
F-1.5680000000000001
sS'GLY-GLU'
p320
F-1.046
sS'ALA-ARG'
p321
F-0.86199999999999999
sS'GLU-ARG'
p322
F-0.95599999999999996
sS'HIS-VAL'
p323
F-0.503
sS'VAL-ARG'
p324
F-0.54500000000000004
sS'ASN-SER'
p325
F-1.1220000000000001
sS'ALA-LYS'
p326
F-0.55500000000000005
sS'VAL-GLN'
p327
F-0.40699999999999997
sS'TRP-ASN'
p328
F-0.81699999999999995
sS'TYR-ILE'
p329
F-0.67300000000000004
sS'TRP-GLY'
p330
F-0.86399999999999999
sS'PRO-PHE'
p331
F-0.876
sS'GLY-HIS'
p332
F-1.1919999999999999
sS'PHE-SER'
p333
F-0.79700000000000004
sS'TRP-ASP'
p334
F-0.47599999999999998
sS'TRP-GLN'
p335
F-0.754
sS'LEU-ALA'
p336
F-0.62
sS'VAL-GLU'
p337
F-0.502
sS'ALA-HIS'
p338
F-0.873
sS'ARG-ASN'
p339
F-0.94499999999999995
sS'LEU-THR'
p340
F-0.53700000000000003
sS'TYR-CYS'
p341
F-0.058000000000000003
sS'THR-THR'
p342
F-1.3819999999999999
sS'THR-LEU'
p343
F-0.48999999999999999
sS'VAL-ASN'
p344
F-0.59099999999999997
sS'LEU-TRP'
p345
F-0.27500000000000002
sS'GLU-ASP'
p346
F-0.61599999999999999
sS'ILE-SER'
p347
F-0.63
sS'ILE-ARG'
p348
F-0.36299999999999999
sS'TRP-GLU'
p349
F-0.39400000000000002
sS'ILE-MET'
p350
F0.017999999999999999
sS'MET-PHE'
p351
F-0.32100000000000001
sS'PRO-ALA'
p352
F-0.97399999999999998
sS'PRO-GLY'
p353
F-1.081
sS'GLN-THR'
p354
F-0.81499999999999995
sS'MET-ALA'
p355
F-0.16400000000000001
sS'TRP-SER'
p356
F-0.64200000000000002
sS'ASP-HIS'
p357
F-0.69599999999999995
sS'ARG-SER'
p358
F-1.0049999999999999
sS'GLN-HIS'
p359
F-0.77000000000000002
sS'HIS-PHE'
p360
F-0.499
sS'LEU-LEU'
p361
F-0.91700000000000004
sS'ALA-GLN'
p362
F-0.82599999999999996
sS'ASP-ASN'
p363
F-0.84699999999999998
sS'SER-VAL'
p364
F-0.68000000000000005
sS'MET-ILE'
p365
F-0.017999999999999999
sS'ALA-PRO'
p366
F-0.88700000000000001
sS'ASP-ASP'
p367
F-1.147
sS'ALA-GLY'
p368
F-0.82999999999999996
sS'TRP-TRP'
p369
F-2.2810000000000001
sS'MET-CYS'
p370
F0.30199999999999999
sS'ALA-GLU'
p371
F-0.70599999999999996
sS'THR-PRO'
p372
F-0.96399999999999997
sS'HIS-ALA'
p373
F-0.74399999999999999
sS'GLN-ILE'
p374
F-0.58999999999999997
sS'GLU-VAL'
p375
F-0.498
sS'LYS-ASN'
p376
F-0.73199999999999998
sS'ASN-ALA'
p377
F-0.76800000000000002
sS'THR-ILE'
p378
F-0.47599999999999998
sS'ASP-CYS'
p379
F-0.187
sS'PRO-LYS'
p380
F-0.749
sS'TYR-TYR'
p381
F-1.6850000000000001
sS'ARG-LYS'
p382
F-0.504
sS'ILE-ALA'
p383
F-0.53300000000000003
sS'ASP-SER'
p384
F-0.94399999999999995
sS'CYS-LYS'
p385
F0.035999999999999997
sS'GLU-ALA'
p386
F-0.73199999999999998
sS'PHE-GLU'
p387
F-0.497
sS'GLU-LEU'
p388
F-0.504
sS'PHE-GLY'
p389
F-0.84099999999999997
sS'LYS-HIS'
p390
F-0.434
sS'HIS-PRO'
p391
F-1.1060000000000001
sS'ILE-ILE'
p392
F-1.0369999999999999
sS'MET-HIS'
p393
F-0.51000000000000001
sS'VAL-GLY'
p394
F-0.72799999999999998
sS'THR-MET'
p395
F-0.34399999999999997
sS'PHE-THR'
p396
F-0.64200000000000002
sS'VAL-TRP'
p397
F-0.42799999999999999
sS'PHE-LYS'
p398
F-0.54400000000000004
sS'GLY-PRO'
p399
F-1.147
sS'PHE-GLN'
p400
F-0.58599999999999997
sS'LEU-PHE'
p401
F-0.43099999999999999
s.