(dp1
S'MET-MET'
p2
F-4.2229999999999999
sS'PRO-ILE'
p3
F-2.899
sS'TYR-LYS'
p4
F-3.3140000000000001
sS'VAL-ASP'
p5
F-2.5609999999999999
sS'ASP-GLN'
p6
F-3.0899999999999999
sS'HIS-TYR'
p7
F-3.714
sS'ASP-GLU'
p8
F-3.0209999999999999
sS'ALA-ASP'
p9
F-2.694
sS'ASP-GLY'
p10
F-3.1120000000000001
sS'LEU-VAL'
p11
F-2.5249999999999999
sS'TRP-TYR'
p12
F-3.3980000000000001
sS'GLN-TRP'
p13
F-3.371
sS'TRP-PHE'
p14
F-2.8690000000000002
sS'ARG-TYR'
p15
F-3.6970000000000001
sS'GLU-LYS'
p16
F-3.0489999999999999
sS'ILE-HIS'
p17
F-2.8159999999999998
sS'LEU-MET'
p18
F-2.218
sS'GLU-HIS'
p19
F-3.3860000000000001
sS'GLY-THR'
p20
F-2.9039999999999999
sS'ARG-GLU'
p21
F-3.3969999999999998
sS'PHE-ASN'
p22
F-3.1000000000000001
sS'ASN-MET'
p23
F-2.8599999999999999
sS'PRO-THR'
p24
F-3.3010000000000002
sS'TYR-GLN'
p25
F-3.4830000000000001
sS'ARG-GLY'
p26
F-3.5350000000000001
sS'VAL-THR'
p27
F-2.4929999999999999
sS'ASP-ILE'
p28
F-2.7690000000000001
sS'THR-HIS'
p29
F-3.0630000000000002
sS'TYR-GLU'
p30
F-3.3279999999999998
sS'ARG-GLN'
p31
F-3.3959999999999999
sS'TYR-GLY'
p32
F-3.3879999999999999
sS'PHE-ASP'
p33
F-3.0840000000000001
sS'CYS-ARG'
p34
F-2.9100000000000001
sS'GLY-ASN'
p35
F-3.2429999999999999
sS'VAL-LYS'
p36
F-2.5910000000000002
sS'LEU-ILE'
p37
F-2.4729999999999999
sS'GLN-LEU'
p38
F-2.7730000000000001
sS'GLU-MET'
p39
F-2.6909999999999998
sS'ASP-THR'
p40
F-3.1219999999999999
sS'ASN-PHE'
p41
F-3.0649999999999999
sS'GLU-PRO'
p42
F-3.2519999999999998
sS'TYR-LEU'
p43
F-3.1640000000000001
sS'LYS-ARG'
p44
F-2.9249999999999998
sS'GLY-ASP'
p45
F-3.1669999999999998
sS'PRO-GLN'
p46
F-3.4260000000000002
sS'CYS-MET'
p47
F-2.1309999999999998
sS'HIS-ARG'
p48
F-3.1110000000000002
sS'GLU-THR'
p49
F-3.0070000000000001
sS'ILE-THR'
p50
F-2.6480000000000001
sS'SER-PRO'
p51
F-3.1709999999999998
sS'GLY-CYS'
p52
F-2.52
sS'ARG-LEU'
p53
F-3.0830000000000002
sS'PRO-GLU'
p54
F-3.343
sS'ASP-LEU'
p55
F-2.7669999999999999
sS'PHE-VAL'
p56
F-2.9049999999999998
sS'ASN-VAL'
p57
F-2.6560000000000001
sS'ALA-MET'
p58
F-2.4399999999999999
sS'LEU-PRO'
p59
F-3.0049999999999999
sS'LEU-SER'
p60
F-2.7469999999999999
sS'ASN-ARG'
p61
F-3.391
sS'SER-THR'
p62
F-2.8679999999999999
sS'LYS-VAL'
p63
F-2.5750000000000002
sS'LYS-GLN'
p64
F-3.1640000000000001
sS'GLN-VAL'
p65
F-2.7839999999999998
sS'TYR-PHE'
p66
F-3.2170000000000001
sS'ASP-VAL'
p67
F-2.4980000000000002
sS'ASN-GLY'
p68
F-3.1629999999999998
sS'ARG-PHE'
p69
F-3.1280000000000001
sS'SER-HIS'
p70
F-3.2869999999999999
sS'ALA-ILE'
p71
F-2.6339999999999999
sS'ASN-GLU'
p72
F-3.101
sS'CYS-GLN'
p73
F-2.7719999999999998
sS'TYR-PRO'
p74
F-3.6579999999999999
sS'LYS-GLU'
p75
F-3.056
sS'CYS-GLU'
p76
F-2.419
sS'ASN-GLN'
p77
F-3.4710000000000001
sS'CYS-GLY'
p78
F-2.2240000000000002
sS'GLN-SER'
p79
F-3.2639999999999998
sS'HIS-LYS'
p80
F-3.2370000000000001
sS'LYS-GLY'
p81
F-3.0470000000000002
sS'VAL-MET'
p82
F-2.3479999999999999
sS'GLU-GLY'
p83
F-3.1749999999999998
sS'THR-SER'
p84
F-2.8010000000000002
sS'TYR-THR'
p85
F-3.2829999999999999
sS'PRO-PRO'
p86
F-4.4749999999999996
sS'ILE-PHE'
p87
F-2.7730000000000001
sS'PHE-LEU'
p88
F-2.8929999999999998
sS'GLU-GLU'
p89
F-4.1790000000000003
sS'SER-ARG'
p90
F-3.306
sS'GLY-ALA'
p91
F-2.4750000000000001
sS'TYR-ASN'
p92
F-3.7639999999999998
sS'GLU-GLN'
p93
F-3.0619999999999998
sS'TRP-ARG'
p94
F-3.306
sS'LEU-GLU'
p95
F-2.7360000000000002
sS'LEU-GLY'
p96
F-2.8029999999999999
sS'LYS-SER'
p97
F-2.891
sS'MET-VAL'
p98
F-2.2130000000000001
sS'SER-ALA'
p99
F-2.5920000000000001
sS'PRO-HIS'
p100
F-3.6520000000000001
sS'MET-THR'
p101
F-2.5619999999999998
sS'ALA-PHE'
p102
F-3.0070000000000001
sS'MET-PRO'
p103
F-2.8500000000000001
sS'GLY-SER'
p104
F-2.8929999999999998
sS'LEU-GLN'
p105
F-2.8399999999999999
sS'VAL-LEU'
p106
F-2.609
sS'LEU-CYS'
p107
F-2.2549999999999999
sS'LYS-TYR'
p108
F-3.2349999999999999
sS'ASP-ALA'
p109
F-2.831
sS'ILE-LEU'
p110
F-2.52
sS'TRP-VAL'
p111
F-2.9430000000000001
sS'PHE-PRO'
p112
F-3.3029999999999999
sS'ALA-ALA'
p113
F-3.4409999999999998
sS'ARG-TRP'
p114
F-3.407
sS'MET-GLN'
p115
F-2.855
sS'ILE-LYS'
p116
F-2.484
sS'MET-ARG'
p117
F-2.855
sS'ALA-CYS'
p118
F-2.036
sS'THR-ARG'
p119
F-3.1669999999999998
sS'CYS-ILE'
p120
F-2.198
sS'LEU-ASN'
p121
F-2.8570000000000002
sS'LEU-ASP'
p122
F-2.6909999999999998
sS'PHE-TRP'
p123
F-2.8889999999999998
sS'MET-GLY'
p124
F-2.4900000000000002
sS'THR-PHE'
p125
F-3.0369999999999999
sS'MET-GLU'
p126
F-2.5179999999999998
sS'THR-TRP'
p127
F-3.2389999999999999
sS'THR-TYR'
p128
F-3.246
sS'CYS-VAL'
p129
F-2.218
sS'ARG-ALA'
p130
F-3.1269999999999998
sS'ALA-TYR'
p131
F-3.2250000000000001
sS'ASP-PRO'
p132
F-3.3210000000000002
sS'ARG-CYS'
p133
F-2.9990000000000001
sS'GLN-ARG'
p134
F-3.343
sS'HIS-TRP'
p135
F-3.282
sS'PRO-SER'
p136
F-3.125
sS'VAL-VAL'
p137
F-3.7999999999999998
sS'LEU-LYS'
p138
F-2.7280000000000002
sS'GLY-LYS'
p139
F-3.0720000000000001
sS'CYS-ASN'
p140
F-2.544
sS'GLY-TRP'
p141
F-3.3359999999999999
sS'THR-CYS'
p142
F-2.194
sS'LYS-LYS'
p143
F-3.8450000000000002
sS'CYS-ASP'
p144
F-2.6619999999999999
sS'TYR-ASP'
p145
F-3.399
sS'VAL-PRO'
p146
F-2.766
sS'THR-VAL'
p147
F-2.5219999999999998
sS'ASP-TYR'
p148
F-3.3570000000000002
sS'PRO-CYS'
p149
F-2.738
sS'VAL-SER'
p150
F-2.613
sS'ARG-HIS'
p151
F-3.327
sS'CYS-PRO'
p152
F-2.798
sS'MET-LYS'
p153
F-2.5899999999999999
sS'ALA-SER'
p154
F-2.6219999999999999
sS'TYR-SER'
p155
F-3.4590000000000001
sS'GLY-ARG'
p156
F-3.5329999999999999
sS'GLN-ALA'
p157
F-3.0760000000000001
sS'MET-LEU'
p158
F-2.5510000000000002
sS'ASN-HIS'
p159
F-3.2410000000000001
sS'VAL-CYS'
p160
F-2.1080000000000001
sS'GLN-TYR'
p161
F-3.4169999999999998
sS'GLN-PHE'
p162
F-3.2970000000000002
sS'ILE-ASN'
p163
F-2.9209999999999998
sS'GLU-ASN'
p164
F-3.2320000000000002
sS'CYS-ALA'
p165
F-2.0329999999999999
sS'ASN-ASP'
p166
F-3.2090000000000001
sS'ASN-PRO'
p167
F-3.4540000000000002
sS'PRO-ARG'
p168
F-3.4340000000000002
sS'LYS-TRP'
p169
F-2.9049999999999998
sS'ASN-ASN'
p170
F-4.5250000000000004
sS'ASN-THR'
p171
F-3.081
sS'THR-ALA'
p172
F-2.6840000000000002
sS'LYS-ALA'
p173
F-2.6339999999999999
sS'LYS-PRO'
p174
F-3.1349999999999998
sS'SER-GLN'
p175
F-3.226
sS'ILE-VAL'
p176
F-2.3410000000000002
sS'ASP-ARG'
p177
F-3.4009999999999998
sS'ASP-MET'
p178
F-2.6219999999999999
sS'CYS-TYR'
p179
F-2.827
sS'PRO-TRP'
p180
F-3.5539999999999998
sS'THR-GLU'
p181
F-3.0059999999999998
sS'TRP-ALA'
p182
F-3.456
sS'ILE-CYS'
p183
F-2.3090000000000002
sS'LYS-ILE'
p184
F-2.5379999999999998
sS'GLN-CYS'
p185
F-2.7109999999999999
sS'TYR-ALA'
p186
F-3.1219999999999999
sS'ARG-ASP'
p187
F-3.532
sS'SER-GLU'
p188
F-3.2890000000000001
sS'TRP-HIS'
p189
F-3.4079999999999999
sS'ALA-ASN'
p190
F-2.9009999999999998
sS'GLU-CYS'
p191
F-2.2229999999999999
sS'PRO-MET'
p192
F-2.7989999999999999
sS'TYR-HIS'
p193
F-3.4809999999999999
sS'PHE-MET'
p194
F-2.9329999999999998
sS'GLU-TYR'
p195
F-3.415
sS'SER-TRP'
p196
F-3.4009999999999998
sS'PHE-ARG'
p197
F-3.1429999999999998
sS'GLY-ILE'
p198
F-2.6779999999999999
sS'TYR-VAL'
p199
F-2.8479999999999999
sS'ASN-TYR'
p200
F-3.6629999999999998
sS'SER-ILE'
p201
F-2.6850000000000001
sS'GLN-PRO'
p202
F-3.5049999999999999
sS'PHE-TYR'
p203
F-3.4820000000000002
sS'ALA-VAL'
p204
F-2.4590000000000001
sS'HIS-HIS'
p205
F-5.1600000000000001
sS'THR-ASN'
p206
F-3.016
sS'CYS-LEU'
p207
F-2.0840000000000001
sS'LYS-MET'
p208
F-2.5870000000000002
sS'LYS-ASP'
p209
F-3.137
sS'HIS-ASN'
p210
F-3.3700000000000001
sS'ILE-GLN'
p211
F-2.98
sS'VAL-HIS'
p212
F-2.8340000000000001
sS'ALA-LEU'
p213
F-2.7269999999999999
sS'HIS-ASP'
p214
F-3.2959999999999998
sS'ILE-TYR'
p215
F-3.1890000000000001
sS'ILE-GLU'
p216
F-2.6379999999999999
sS'ASN-TRP'
p217
F-3.3730000000000002
sS'ILE-GLY'
p218
F-2.6459999999999999
sS'ASN-CYS'
p219
F-2.6869999999999998
sS'GLU-SER'
p220
F-3.302
sS'ALA-TRP'
p221
F-3.1499999999999999
sS'HIS-CYS'
p222
F-2.6400000000000001
sS'HIS-MET'
p223
F-3.1499999999999999
sS'ILE-PRO'
p224
F-3.052
sS'LYS-PHE'
p225
F-2.9750000000000001
sS'TRP-PRO'
p226
F-3.5790000000000002
sS'GLU-TRP'
p227
F-2.992
sS'PHE-HIS'
p228
F-3.093
sS'GLY-TYR'
p229
F-3.4329999999999998
sS'SER-GLY'
p230
F-2.8849999999999998
sS'CYS-TRP'
p231
F-2.3330000000000002
sS'ASP-LYS'
p232
F-3.0670000000000002
sS'ASN-ILE'
p233
F-2.9359999999999999
sS'HIS-SER'
p234
F-3.4129999999999998
sS'LYS-CYS'
p235
F-2.3660000000000001
sS'GLY-PHE'
p236
F-3.1669999999999998
sS'GLY-LEU'
p237
F-2.8450000000000002
sS'MET-SER'
p238
F-2.5750000000000002
sS'VAL-ALA'
p239
F-2.4089999999999998
sS'SER-LEU'
p240
F-2.7189999999999999
sS'TRP-LYS'
p241
F-3.1469999999999998
sS'VAL-TYR'
p242
F-2.819
sS'VAL-PHE'
p243
F-2.7469999999999999
sS'ARG-THR'
p244
F-3.145
sS'TYR-TRP'
p245
F-3.4239999999999999
sS'GLN-GLN'
p246
F-4.5389999999999997
sS'GLU-PHE'
p247
F-2.9390000000000001
sS'VAL-ILE'
p248
F-2.359
sS'HIS-GLN'
p249
F-3.1659999999999999
sS'GLN-GLY'
p250
F-3.2320000000000002
sS'PHE-ALA'
p251
F-2.9740000000000002
sS'HIS-GLU'
p252
F-3.4089999999999998
sS'ARG-PRO'
p253
F-3.548
sS'HIS-GLY'
p254
F-3.4289999999999998
sS'SER-ASN'
p255
F-3.1739999999999999
sS'ALA-THR'
p256
F-2.6200000000000001
sS'GLN-GLU'
p257
F-3.181
sS'GLN-LYS'
p258
F-3.0790000000000002
sS'CYS-HIS'
p259
F-2.762
sS'GLN-ASP'
p260
F-3.1429999999999998
sS'LEU-HIS'
p261
F-2.9870000000000001
sS'SER-LYS'
p262
F-2.9630000000000001
sS'TRP-LEU'
p263
F-3.177
sS'CYS-SER'
p264
F-2.3149999999999999
sS'LYS-THR'
p265
F-2.7440000000000002
sS'HIS-LEU'
p266
F-2.9740000000000002
sS'LEU-ARG'
p267
F-3.0329999999999999
sS'GLY-VAL'
p268
F-2.6760000000000002
sS'GLN-ASN'
p269
F-3.2749999999999999
sS'TYR-ARG'
p270
F-3.3599999999999999
sS'PRO-TYR'
p271
F-3.7610000000000001
sS'ASP-PHE'
p272
F-2.984
sS'TRP-CYS'
p273
F-2.673
sS'ASN-LEU'
p274
F-2.964
sS'SER-MET'
p275
F-2.4670000000000001
sS'HIS-ILE'
p276
F-2.7400000000000002
sS'SER-TYR'
p277
F-3.609
sS'MET-TYR'
p278
F-3.1520000000000001
sS'GLU-ILE'
p279
F-2.645
sS'PHE-CYS'
p280
F-2.823
sS'PRO-LEU'
p281
F-2.948
sS'GLY-MET'
p282
F-2.694
sS'ARG-ILE'
p283
F-2.9300000000000002
sS'HIS-THR'
p284
F-3.2629999999999999
sS'THR-GLN'
p285
F-3.1589999999999998
sS'TRP-THR'
p286
F-3.2429999999999999
sS'LYS-LEU'
p287
F-2.7410000000000001
sS'THR-GLY'
p288
F-2.907
sS'ASP-TRP'
p289
F-3.0259999999999998
sS'TYR-MET'
p290
F-2.9580000000000002
sS'PHE-ILE'
p291
F-2.7450000000000001
sS'PRO-VAL'
p292
F-2.7450000000000001
sS'MET-ASN'
p293
F-2.8039999999999998
sS'LEU-TYR'
p294
F-3.1539999999999999
sS'PHE-PHE'
p295
F-4.4320000000000004
sS'CYS-PHE'
p296
F-2.7370000000000001
sS'TRP-ILE'
p297
F-2.8050000000000002
sS'PRO-ASN'
p298
F-3.3889999999999998
sS'CYS-CYS'
p299
F-4.9710000000000001
sS'SER-ASP'
p300
F-3.085
sS'ARG-MET'
p301
F-2.9580000000000002
sS'SER-PHE'
p302
F-3.1320000000000001
sS'SER-SER'
p303
F-3.9390000000000001
sS'ASN-LYS'
p304
F-3.04
sS'CYS-THR'
p305
F-2.1309999999999998
sS'ILE-TRP'
p306
F-2.9359999999999999
sS'PRO-ASP'
p307
F-3.395
sS'THR-ASP'
p308
F-2.899
sS'SER-CYS'
p309
F-2.2679999999999998
sS'MET-ASP'
p310
F-2.5379999999999998
sS'GLN-MET'
p311
F-2.6309999999999998
sS'MET-TRP'
p312
F-2.8620000000000001
sS'ARG-VAL'
p313
F-2.976
sS'GLY-GLN'
p314
F-3.2290000000000001
sS'THR-LYS'
p315
F-2.6200000000000001
sS'TRP-MET'
p316
F-2.7469999999999999
sS'ARG-ARG'
p317
F-4.694
sS'ILE-ASP'
p318
F-2.7149999999999999
sS'GLY-GLY'
p319
F-3.5569999999999999
sS'GLY-GLU'
p320
F-3.1640000000000001
sS'ALA-ARG'
p321
F-3.2200000000000002
sS'GLU-ARG'
p322
F-3.3740000000000001
sS'HIS-VAL'
p323
F-2.8140000000000001
sS'VAL-ARG'
p324
F-2.9390000000000001
sS'ASN-SER'
p325
F-3.1619999999999999
sS'ALA-LYS'
p326
F-2.7480000000000002
sS'VAL-GLN'
p327
F-2.6219999999999999
sS'TRP-ASN'
p328
F-3.589
sS'TYR-ILE'
p329
F-3.1179999999999999
sS'TRP-GLY'
p330
F-3.4910000000000001
sS'PRO-PHE'
p331
F-3.2509999999999999
sS'GLY-HIS'
p332
F-3.3570000000000002
sS'PHE-SER'
p333
F-3.238
sS'TRP-ASP'
p334
F-3.157
sS'TRP-GLN'
p335
F-3.5990000000000002
sS'LEU-ALA'
p336
F-2.6739999999999999
sS'VAL-GLU'
p337
F-2.7029999999999998
sS'ALA-HIS'
p338
F-3.1709999999999998
sS'ARG-ASN'
p339
F-3.4900000000000002
sS'LEU-THR'
p340
F-2.6619999999999999
sS'TYR-CYS'
p341
F-2.6269999999999998
sS'THR-THR'
p342
F-3.9780000000000002
sS'THR-LEU'
p343
F-2.6749999999999998
sS'VAL-ASN'
p344
F-2.7320000000000002
sS'LEU-TRP'
p345
F-3.0049999999999999
sS'GLU-ASP'
p346
F-3.0150000000000001
sS'ILE-SER'
p347
F-2.694
sS'ILE-ARG'
p348
F-2.7610000000000001
sS'TRP-GLU'
p349
F-3.2989999999999999
sS'ILE-MET'
p350
F-2.4689999999999999
sS'MET-PHE'
p351
F-2.9500000000000002
sS'PRO-ALA'
p352
F-2.9409999999999998
sS'PRO-GLY'
p353
F-2.9860000000000002
sS'GLN-THR'
p354
F-3.032
sS'MET-ALA'
p355
F-2.4430000000000001
sS'TRP-SER'
p356
F-3.4239999999999999
sS'ASP-HIS'
p357
F-3.3050000000000002
sS'ARG-SER'
p358
F-3.3740000000000001
sS'GLN-HIS'
p359
F-3.1110000000000002
sS'HIS-PHE'
p360
F-3.073
sS'LEU-LEU'
p361
F-3.7250000000000001
sS'ALA-GLN'
p362
F-3.1099999999999999
sS'ASP-ASN'
p363
F-3.226
sS'SER-VAL'
p364
F-2.6560000000000001
sS'MET-ILE'
p365
F-2.4830000000000001
sS'ALA-PRO'
p366
F-2.8660000000000001
sS'ASP-ASP'
p367
F-4.0609999999999999
sS'ALA-GLY'
p368
F-2.3690000000000002
sS'TRP-TRP'
p369
F-5.5389999999999997
sS'MET-CYS'
p370
F-1.9279999999999999
sS'ALA-GLU'
p371
F-2.8999999999999999
sS'THR-PRO'
p372
F-3.1419999999999999
sS'HIS-ALA'
p373
F-3.1349999999999998
sS'GLN-ILE'
p374
F-2.8799999999999999
sS'GLU-VAL'
p375
F-2.6779999999999999
sS'LYS-ASN'
p376
F-3.0249999999999999
sS'ASN-ALA'
p377
F-2.7989999999999999
sS'THR-ILE'
p378
F-2.6850000000000001
sS'ASP-CYS'
p379
F-2.4660000000000002
sS'PRO-LYS'
p380
F-3.1389999999999998
sS'TYR-TYR'
p381
F-4.875
sS'ARG-LYS'
p382
F-3.0329999999999999
sS'ILE-ALA'
p383
F-2.6059999999999999
sS'ASP-SER'
p384
F-3.141
sS'CYS-LYS'
p385
F-2.1840000000000002
sS'GLU-ALA'
p386
F-3.0019999999999998
sS'PHE-GLU'
p387
F-2.9700000000000002
sS'GLU-LEU'
p388
F-2.8290000000000002
sS'PHE-GLY'
p389
F-3.1779999999999999
sS'LYS-HIS'
p390
F-2.9369999999999998
sS'HIS-PRO'
p391
F-3.7229999999999999
sS'ILE-ILE'
p392
F-3.7810000000000001
sS'MET-HIS'
p393
F-3.113
sS'VAL-GLY'
p394
F-2.5779999999999998
sS'THR-MET'
p395
F-2.7010000000000001
sS'PHE-THR'
p396
F-3.0190000000000001
sS'VAL-TRP'
p397
F-2.9769999999999999
sS'PHE-LYS'
p398
F-3.2109999999999999
sS'GLY-PRO'
p399
F-3.0369999999999999
sS'PHE-GLN'
p400
F-3.1589999999999998
sS'LEU-PHE'
p401
F-2.8530000000000002
s.