(dp1
S'MET-MET'
p2
F-0.28299999999999997
sS'PRO-ILE'
p3
F1.04
sS'TYR-LYS'
p4
F1.0289999999999999
sS'VAL-ASP'
p5
F1.3320000000000001
sS'ASP-GLN'
p6
F0.95599999999999996
sS'HIS-TYR'
p7
F0.69699999999999995
sS'ASP-GLU'
p8
F0.98599999999999999
sS'ALA-ASP'
p9
F1.1299999999999999
sS'ASP-GLY'
p10
F0.80900000000000005
sS'LEU-VAL'
p11
F1.3160000000000001
sS'TRP-TYR'
p12
F1.1870000000000001
sS'GLN-TRP'
p13
F1.1259999999999999
sS'TRP-PHE'
p14
F1.7390000000000001
sS'ARG-TYR'
p15
F0.77300000000000002
sS'GLU-LYS'
p16
F0.95499999999999996
sS'ILE-HIS'
p17
F1.351
sS'LEU-MET'
p18
F1.671
sS'GLU-HIS'
p19
F0.80600000000000005
sS'GLY-THR'
p20
F0.83399999999999996
sS'ARG-GLU'
p21
F0.879
sS'PHE-ASN'
p22
F1.1319999999999999
sS'ASN-MET'
p23
F1.119
sS'PRO-THR'
p24
F0.51200000000000001
sS'TYR-GLN'
p25
F0.91900000000000004
sS'ARG-GLY'
p26
F0.69799999999999995
sS'VAL-THR'
p27
F1.2050000000000001
sS'ASP-ILE'
p28
F1.127
sS'THR-HIS'
p29
F1.0529999999999999
sS'TYR-GLU'
p30
F1.022
sS'ARG-GLN'
p31
F0.86399999999999999
sS'TYR-GLY'
p32
F0.91400000000000003
sS'PHE-ASP'
p33
F1.179
sS'CYS-ARG'
p34
F1.417
sS'GLY-ASN'
p35
F0.57299999999999995
sS'VAL-LYS'
p36
F1.395
sS'LEU-ILE'
p37
F1.3899999999999999
sS'GLN-LEU'
p38
F1.228
sS'GLU-MET'
p39
F1.2829999999999999
sS'ASP-THR'
p40
F0.82499999999999996
sS'ASN-PHE'
p41
F1.159
sS'GLU-PRO'
p42
F0.75
sS'TYR-LEU'
p43
F1.1870000000000001
sS'LYS-ARG'
p44
F1.343
sS'GLY-ASP'
p45
F0.76100000000000001
sS'PRO-GLN'
p46
F0.54000000000000004
sS'CYS-MET'
p47
F1.8979999999999999
sS'HIS-ARG'
p48
F1.202
sS'GLU-THR'
p49
F0.94499999999999995
sS'ILE-THR'
p50
F1.242
sS'SER-PRO'
p51
F0.57099999999999995
sS'GLY-CYS'
p52
F0.93999999999999995
sS'ARG-LEU'
p53
F1.1519999999999999
sS'PRO-GLU'
p54
F0.65200000000000002
sS'ASP-LEU'
p55
F1.157
sS'PHE-VAL'
p56
F1.3779999999999999
sS'ASN-VAL'
p57
F1.232
sS'ALA-MET'
p58
F1.5580000000000001
sS'LEU-PRO'
p59
F0.84499999999999997
sS'LEU-SER'
p60
F1.1379999999999999
sS'ASN-ARG'
p61
F0.79900000000000004
sS'SER-THR'
p62
F0.89700000000000002
sS'LYS-VAL'
p63
F1.399
sS'LYS-GLN'
p64
F0.90900000000000003
sS'GLN-VAL'
p65
F1.2090000000000001
sS'TYR-PHE'
p66
F1.242
sS'ASP-VAL'
p67
F1.389
sS'ASN-GLY'
p68
F0.67900000000000005
sS'ARG-PHE'
p69
F1.1160000000000001
sS'SER-HIS'
p70
F0.83299999999999996
sS'ALA-ILE'
p71
F1.208
sS'ASN-GLU'
p72
F0.88800000000000001
sS'CYS-GLN'
p73
F1.306
sS'TYR-PRO'
p74
F0.54300000000000004
sS'LYS-GLU'
p75
F0.97399999999999998
sS'CYS-GLU'
p76
F1.5620000000000001
sS'ASN-GLN'
p77
F0.59699999999999998
sS'CYS-GLY'
p78
F1.3380000000000001
sS'GLN-SER'
p79
F0.67000000000000004
sS'HIS-LYS'
p80
F0.94599999999999995
sS'LYS-GLY'
p81
F0.91800000000000004
sS'VAL-MET'
p82
F1.619
sS'GLU-GLY'
p83
F0.88100000000000001
sS'THR-SER'
p84
F0.90800000000000003
sS'TYR-THR'
p85
F1.0629999999999999
sS'PRO-PRO'
p86
F-0.72499999999999998
sS'ILE-PHE'
p87
F1.4279999999999999
sS'PHE-LEU'
p88
F1.3640000000000001
sS'GLU-GLU'
p89
F-0.105
sS'SER-ARG'
p90
F0.92200000000000004
sS'GLY-ALA'
p91
F0.91800000000000004
sS'TYR-ASN'
p92
F0.54300000000000004
sS'GLU-GLN'
p93
F0.97299999999999998
sS'TRP-ARG'
p94
F1.224
sS'LEU-GLU'
p95
F1.258
sS'LEU-GLY'
p96
F1.0589999999999999
sS'LYS-SER'
p97
F1.127
sS'MET-VAL'
p98
F1.681
sS'SER-ALA'
p99
F0.93200000000000005
sS'PRO-HIS'
p100
F0.46700000000000003
sS'MET-THR'
p101
F1.2889999999999999
sS'ALA-PHE'
p102
F1.119
sS'MET-PRO'
p103
F0.94599999999999995
sS'GLY-SER'
p104
F0.63300000000000001
sS'LEU-GLN'
p105
F1.1379999999999999
sS'VAL-LEU'
p106
F1.2230000000000001
sS'LEU-CYS'
p107
F1.637
sS'LYS-TYR'
p108
F1.0740000000000001
sS'ASP-ALA'
p109
F1.0569999999999999
sS'ILE-LEU'
p110
F1.4019999999999999
sS'TRP-VAL'
p111
F1.5720000000000001
sS'PHE-PRO'
p112
F0.92600000000000005
sS'ALA-ALA'
p113
F0.042999999999999997
sS'ARG-TRP'
p114
F1.1839999999999999
sS'MET-GLN'
p115
F1.194
sS'ILE-LYS'
p116
F1.552
sS'MET-ARG'
p117
F1.462
sS'ALA-CYS'
p118
F1.5489999999999999
sS'THR-ARG'
p119
F1.069
sS'CYS-ILE'
p120
F1.6890000000000001
sS'LEU-ASN'
p121
F1.034
sS'LEU-ASP'
p122
F1.1990000000000001
sS'PHE-TRP'
p123
F1.8140000000000001
sS'MET-GLY'
p124
F1.393
sS'THR-PHE'
p125
F1.1950000000000001
sS'MET-GLU'
p126
F1.5249999999999999
sS'THR-TRP'
p127
F1.1639999999999999
sS'THR-TYR'
p128
F1.0389999999999999
sS'CYS-VAL'
p129
F1.6399999999999999
sS'ARG-ALA'
p130
F1.0029999999999999
sS'ALA-TYR'
p131
F1.089
sS'ASP-PRO'
p132
F0.54300000000000004
sS'ARG-CYS'
p133
F1.296
sS'GLN-ARG'
p134
F0.85899999999999999
sS'HIS-TRP'
p135
F1.1279999999999999
sS'PRO-SER'
p136
F0.68999999999999995
sS'VAL-VAL'
p137
F0.047
sS'LEU-LYS'
p138
F1.3400000000000001
sS'GLY-LYS'
p139
F0.90500000000000003
sS'CYS-ASN'
p140
F1.456
sS'GLY-TRP'
p141
F1.073
sS'THR-CYS'
p142
F1.5229999999999999
sS'LYS-LYS'
p143
F0.216
sS'CYS-ASP'
p144
F1.3700000000000001
sS'TYR-ASP'
p145
F0.93899999999999995
sS'VAL-PRO'
p146
F1.026
sS'THR-VAL'
p147
F1.198
sS'ASP-TYR'
p148
F0.873
sS'PRO-CYS'
p149
F1.093
sS'VAL-SER'
p150
F1.1160000000000001
sS'ARG-HIS'
p151
F0.98899999999999999
sS'CYS-PRO'
p152
F0.90300000000000002
sS'MET-LYS'
p153
F1.5089999999999999
sS'ALA-SER'
p154
F0.90300000000000002
sS'TYR-SER'
p155
F0.84799999999999998
sS'GLY-ARG'
p156
F0.745
sS'GLN-ALA'
p157
F0.90100000000000002
sS'MET-LEU'
p158
F1.397
sS'ASN-HIS'
p159
F0.86099999999999999
sS'VAL-CYS'
p160
F1.742
sS'GLN-TYR'
p161
F0.96499999999999997
sS'GLN-PHE'
p162
F1.0309999999999999
sS'ILE-ASN'
p163
F1.054
sS'GLU-ASN'
p164
F0.84999999999999998
sS'CYS-ALA'
p165
F1.5109999999999999
sS'ASN-ASP'
p166
F0.745
sS'ASN-PRO'
p167
F0.40899999999999997
sS'PRO-ARG'
p168
F0.82599999999999996
sS'LYS-TRP'
p169
F1.5349999999999999
sS'ASN-ASN'
p170
F-0.59599999999999997
sS'ASN-THR'
p171
F0.78600000000000003
sS'THR-ALA'
p172
F1.056
sS'LYS-ALA'
p173
F1.349
sS'LYS-PRO'
p174
F0.82999999999999996
sS'SER-GLN'
p175
F0.78300000000000003
sS'ILE-VAL'
p176
F1.5589999999999999
sS'ASP-ARG'
p177
F0.80100000000000005
sS'ASP-MET'
p178
F1.3580000000000001
sS'CYS-TYR'
p179
F1.4670000000000001
sS'PRO-TRP'
p180
F1.0509999999999999
sS'THR-GLU'
p181
F0.93799999999999994
sS'TRP-ALA'
p182
F1.0229999999999999
sS'ILE-CYS'
p183
F1.573
sS'LYS-ILE'
p184
F1.51
sS'GLN-CYS'
p185
F1.363
sS'TYR-ALA'
p186
F1.228
sS'ARG-ASP'
p187
F0.67500000000000004
sS'SER-GLU'
p188
F0.72199999999999998
sS'TRP-HIS'
p189
F0.98799999999999999
sS'ALA-ASN'
p190
F0.94899999999999995
sS'GLU-CYS'
p191
F1.7629999999999999
sS'PRO-MET'
p192
F1.1080000000000001
sS'TYR-HIS'
p193
F0.91400000000000003
sS'PHE-MET'
p194
F1.1990000000000001
sS'GLU-TYR'
p195
F0.95899999999999996
sS'SER-TRP'
p196
F1.1080000000000001
sS'PHE-ARG'
p197
F1.1890000000000001
sS'GLY-ILE'
p198
F1.157
sS'TYR-VAL'
p199
F1.4350000000000001
sS'ASN-TYR'
p200
F0.66700000000000004
sS'SER-ILE'
p201
F1.226
sS'GLN-PRO'
p202
F0.499
sS'PHE-TYR'
p203
F0.96899999999999997
sS'ALA-VAL'
p204
F1.2909999999999999
sS'HIS-HIS'
p205
F-1.0029999999999999
sS'THR-ASN'
p206
F0.90200000000000002
sS'CYS-LEU'
p207
F1.8280000000000001
sS'LYS-MET'
p208
F1.4450000000000001
sS'LYS-ASP'
p209
F0.89200000000000002
sS'HIS-ASN'
p210
F0.78600000000000003
sS'ILE-GLN'
p211
F1.1439999999999999
sS'VAL-HIS'
p212
F1.2909999999999999
sS'ALA-LEU'
p213
F1.1100000000000001
sS'HIS-ASP'
p214
F0.85199999999999998
sS'ILE-TYR'
p215
F1.109
sS'ILE-GLU'
p216
F1.371
sS'ASN-TRP'
p217
F1.196
sS'ILE-GLY'
p218
F1.24
sS'ASN-CYS'
p219
F1.3420000000000001
sS'GLU-SER'
p220
F0.72299999999999998
sS'ALA-TRP'
p221
F1.298
sS'HIS-CYS'
p222
F1.512
sS'HIS-MET'
p223
F1.014
sS'ILE-PRO'
p224
F0.92500000000000004
sS'LYS-PHE'
p225
F1.3149999999999999
sS'TRP-PRO'
p226
F0.88900000000000001
sS'GLU-TRP'
p227
F1.4990000000000001
sS'PHE-HIS'
p228
F1.2390000000000001
sS'GLY-TYR'
p229
F0.82799999999999996
sS'SER-GLY'
p230
F0.64200000000000002
sS'CYS-TRP'
p231
F2.2429999999999999
sS'ASP-LYS'
p232
F0.98099999999999998
sS'ASN-ILE'
p233
F1.034
sS'HIS-SER'
p234
F0.70299999999999996
sS'LYS-CYS'
p235
F1.5349999999999999
sS'GLY-PHE'
p236
F1.079
sS'GLY-LEU'
p237
F1.0089999999999999
sS'MET-SER'
p238
F1.2809999999999999
sS'VAL-ALA'
p239
F1.337
sS'SER-LEU'
p240
F1.2
sS'TRP-LYS'
p241
F1.331
sS'VAL-TYR'
p242
F1.476
sS'VAL-PHE'
p243
F1.4630000000000001
sS'ARG-THR'
p244
F1.149
sS'TYR-TRP'
p245
F1.0329999999999999
sS'GLN-GLN'
p246
F-0.46300000000000002
sS'GLU-PHE'
p247
F1.2969999999999999
sS'VAL-ILE'
p248
F1.5329999999999999
sS'HIS-GLN'
p249
F1.0680000000000001
sS'GLN-GLY'
p250
F0.77000000000000002
sS'PHE-ALA'
p251
F1.1359999999999999
sS'HIS-GLU'
p252
F0.79400000000000004
sS'ARG-PRO'
p253
F0.68000000000000005
sS'HIS-GLY'
p254
F0.71899999999999997
sS'SER-ASN'
p255
F0.71199999999999997
sS'ALA-THR'
p256
F1.1379999999999999
sS'GLN-GLU'
p257
F0.90100000000000002
sS'GLN-LYS'
p258
F0.95799999999999996
sS'CYS-HIS'
p259
F1.5149999999999999
sS'GLN-ASP'
p260
F0.92000000000000004
sS'LEU-HIS'
p261
F1.226
sS'SER-LYS'
p262
F1.085
sS'TRP-LEU'
p263
F1.3069999999999999
sS'CYS-SER'
p264
F1.292
sS'LYS-THR'
p265
F1.216
sS'HIS-LEU'
p266
F1.2190000000000001
sS'LEU-ARG'
p267
F1.1859999999999999
sS'GLY-VAL'
p268
F1.0469999999999999
sS'GLN-ASN'
p269
F0.73299999999999998
sS'TYR-ARG'
p270
F1.0349999999999999
sS'PRO-TYR'
p271
F0.55900000000000005
sS'ASP-PHE'
p272
F1.2789999999999999
sS'TRP-CYS'
p273
F2.0030000000000001
sS'ASN-LEU'
p274
F1.0289999999999999
sS'SER-MET'
p275
F1.3819999999999999
sS'HIS-ILE'
p276
F1.405
sS'SER-TYR'
p277
F0.73899999999999999
sS'MET-TYR'
p278
F1.1850000000000001
sS'GLU-ILE'
p279
F1.3540000000000001
sS'PHE-CYS'
p280
F1.4930000000000001
sS'PRO-LEU'
p281
F0.876
sS'GLY-MET'
p282
F1.232
sS'ARG-ILE'
p283
F1.3420000000000001
sS'HIS-THR'
p284
F0.84499999999999997
sS'THR-GLN'
p285
F0.82099999999999995
sS'TRP-THR'
p286
F1.1819999999999999
sS'LYS-LEU'
p287
F1.3480000000000001
sS'THR-GLY'
p288
F0.86299999999999999
sS'ASP-TRP'
p289
F1.502
sS'TYR-MET'
p290
F1.415
sS'PHE-ILE'
p291
F1.4910000000000001
sS'PRO-VAL'
p292
F1.0629999999999999
sS'MET-ASN'
p293
F1.0760000000000001
sS'LEU-TYR'
p294
F1.2290000000000001
sS'PHE-PHE'
p295
F-0.129
sS'CYS-PHE'
p296
F1.6100000000000001
sS'TRP-ILE'
p297
F1.7030000000000001
sS'PRO-ASN'
p298
F0.59299999999999997
sS'CYS-CYS'
p299
F-1.3680000000000001
sS'SER-ASP'
p300
F0.81299999999999994
sS'ARG-MET'
p301
F1.2669999999999999
sS'SER-PHE'
p302
F1.105
sS'SER-SER'
p303
F-0.29499999999999998
sS'ASN-LYS'
p304
F1.046
sS'CYS-THR'
p305
F1.599
sS'ILE-TRP'
p306
F1.659
sS'PRO-ASP'
p307
F0.53800000000000003
sS'THR-ASP'
p308
F0.94399999999999995
sS'SER-CYS'
p309
F1.373
sS'MET-ASP'
p310
F1.429
sS'GLN-MET'
p311
F1.2689999999999999
sS'MET-TRP'
p312
F1.619
sS'ARG-VAL'
p313
F1.268
sS'GLY-GLN'
p314
F0.77300000000000002
sS'THR-LYS'
p315
F1.423
sS'TRP-MET'
p316
F1.7529999999999999
sS'ARG-ARG'
p317
F-0.42599999999999999
sS'ILE-ASP'
p318
F1.1990000000000001
sS'GLY-GLY'
p319
F-0.29799999999999999
sS'GLY-GLU'
p320
F0.90000000000000002
sS'ALA-ARG'
p321
F0.98399999999999999
sS'GLU-ARG'
p322
F0.88
sS'HIS-VAL'
p323
F1.3080000000000001
sS'VAL-ARG'
p324
F1.3180000000000001
sS'ASN-SER'
p325
F0.66700000000000004
sS'ALA-LYS'
p326
F1.2010000000000001
sS'VAL-GLN'
p327
F1.3600000000000001
sS'TRP-ASN'
p328
F1.0269999999999999
sS'TYR-ILE'
p329
F1.274
sS'TRP-GLY'
p330
F0.88500000000000001
sS'PRO-PHE'
p331
F1.008
sS'GLY-HIS'
p332
F0.755
sS'PHE-SER'
p333
F1.0229999999999999
sS'TRP-ASP'
p334
F1.4019999999999999
sS'TRP-GLN'
p335
F0.85799999999999998
sS'LEU-ALA'
p336
F1.113
sS'VAL-GLU'
p337
F1.2889999999999999
sS'ALA-HIS'
p338
F0.98099999999999998
sS'ARG-ASN'
p339
F0.755
sS'LEU-THR'
p340
F1.181
sS'TYR-CYS'
p341
F1.7030000000000001
sS'THR-THR'
p342
F-0.217
sS'THR-LEU'
p343
F1.1890000000000001
sS'VAL-ASN'
p344
F1.1479999999999999
sS'LEU-TRP'
p345
F1.506
sS'GLU-ASP'
p346
F0.96199999999999997
sS'ILE-SER'
p347
F1.1990000000000001
sS'ILE-ARG'
p348
F1.4490000000000001
sS'TRP-GLU'
p349
F1.133
sS'ILE-MET'
p350
F1.5649999999999999
sS'MET-PHE'
p351
F1.2410000000000001
sS'PRO-ALA'
p352
F0.752
sS'PRO-GLY'
p353
F0.72699999999999998
sS'GLN-THR'
p354
F0.97299999999999998
sS'MET-ALA'
p355
F1.47
sS'TRP-SER'
p356
F1.0609999999999999
sS'ASP-HIS'
p357
F0.88400000000000001
sS'ARG-SER'
p358
F0.93400000000000005
sS'GLN-HIS'
p359
F0.97099999999999997
sS'HIS-PHE'
p360
F1.173
sS'LEU-LEU'
p361
F0.223
sS'ALA-GLN'
p362
F0.89300000000000002
sS'ASP-ASN'
p363
F0.66900000000000004
sS'SER-VAL'
p364
F1.0840000000000001
sS'MET-ILE'
p365
F1.47
sS'ALA-PRO'
p366
F0.87
sS'ASP-ASP'
p367
F-0.052999999999999999
sS'ALA-GLY'
p368
F1.02
sS'TRP-TRP'
p369
F-0.97799999999999998
sS'MET-CYS'
p370
F2.113
sS'ALA-GLU'
p371
F1.0449999999999999
sS'THR-PRO'
p372
F0.56100000000000005
sS'HIS-ALA'
p373
F0.995
sS'GLN-ILE'
p374
F1.1419999999999999
sS'GLU-VAL'
p375
F1.3380000000000001
sS'LYS-ASN'
p376
F1.0569999999999999
sS'ASN-ALA'
p377
F1.038
sS'THR-ILE'
p378
F1.2250000000000001
sS'ASP-CYS'
p379
F1.504
sS'PRO-LYS'
p380
F0.94899999999999995
sS'TYR-TYR'
p381
F-0.48399999999999999
sS'ARG-LYS'
p382
F1.272
sS'ILE-ALA'
p383
F1.248
sS'ASP-SER'
p384
F0.74399999999999999
sS'CYS-LYS'
p385
F1.7949999999999999
sS'GLU-ALA'
p386
F1.0209999999999999
sS'PHE-GLU'
p387
F1.272
sS'GLU-LEU'
p388
F1.1599999999999999
sS'PHE-GLY'
p389
F1.0169999999999999
sS'LYS-HIS'
p390
F1.1240000000000001
sS'HIS-PRO'
p391
F0.436
sS'ILE-ILE'
p392
F0.112
sS'MET-HIS'
p393
F0.95499999999999996
sS'VAL-GLY'
p394
F1.125
sS'THR-MET'
p395
F1.147
sS'PHE-THR'
p396
F1.1910000000000001
sS'VAL-TRP'
p397
F1.571
sS'PHE-LYS'
p398
F1.099
sS'GLY-PRO'
p399
F0.67600000000000005
sS'PHE-GLN'
p400
F1.1259999999999999
sS'LEU-PHE'
p401
F1.349
s.