(dp1
S'MET-MET'
p2
F0.56399999999999995
sS'PRO-ILE'
p3
F2.0179999999999998
sS'TYR-LYS'
p4
F1.9610000000000001
sS'VAL-ASP'
p5
F2.2229999999999999
sS'ASP-GLN'
p6
F1.8600000000000001
sS'HIS-TYR'
p7
F1.7290000000000001
sS'ASP-GLU'
p8
F1.9279999999999999
sS'ALA-ASP'
p9
F2.0129999999999999
sS'ASP-GLY'
p10
F1.6899999999999999
sS'LEU-VAL'
p11
F2.1909999999999998
sS'TRP-TYR'
p12
F2.2370000000000001
sS'GLN-TRP'
p13
F2.2160000000000002
sS'TRP-PHE'
p14
F2.5830000000000002
sS'ARG-TYR'
p15
F1.7529999999999999
sS'GLU-LYS'
p16
F1.796
sS'ILE-HIS'
p17
F2.2080000000000002
sS'LEU-MET'
p18
F2.5190000000000001
sS'GLU-HIS'
p19
F1.881
sS'GLY-THR'
p20
F1.641
sS'ARG-GLU'
p21
F1.698
sS'PHE-ASN'
p22
F2.0009999999999999
sS'ASN-MET'
p23
F2.1549999999999998
sS'PRO-THR'
p24
F1.591
sS'TYR-GLN'
p25
F1.8939999999999999
sS'ARG-GLY'
p26
F1.6000000000000001
sS'VAL-THR'
p27
F2.0590000000000002
sS'ASP-ILE'
p28
F2.1280000000000001
sS'THR-HIS'
p29
F1.899
sS'TYR-GLU'
p30
F1.9319999999999999
sS'ARG-GLN'
p31
F1.8089999999999999
sS'TYR-GLY'
p32
F1.754
sS'PHE-ASP'
p33
F2.125
sS'CYS-ARG'
p34
F2.1890000000000001
sS'GLY-ASN'
p35
F1.4590000000000001
sS'VAL-LYS'
p36
F2.2349999999999999
sS'LEU-ILE'
p37
F2.262
sS'GLN-LEU'
p38
F2.0960000000000001
sS'GLU-MET'
p39
F2.3599999999999999
sS'ASP-THR'
p40
F1.8080000000000001
sS'ASN-PHE'
p41
F2.0009999999999999
sS'GLU-PRO'
p42
F1.6240000000000001
sS'TYR-LEU'
p43
F2.0390000000000001
sS'LYS-ARG'
p44
F2.242
sS'GLY-ASP'
p45
F1.643
sS'PRO-GLN'
p46
F1.597
sS'CYS-MET'
p47
F2.855
sS'HIS-ARG'
p48
F2.0169999999999999
sS'GLU-THR'
p49
F1.825
sS'ILE-THR'
p50
F2.1379999999999999
sS'SER-PRO'
p51
F1.5900000000000001
sS'GLY-CYS'
p52
F1.74
sS'ARG-LEU'
p53
F2.0179999999999998
sS'PRO-GLU'
p54
F1.6950000000000001
sS'ASP-LEU'
p55
F2.145
sS'PHE-VAL'
p56
F2.2410000000000001
sS'ASN-VAL'
p57
F2.044
sS'ALA-MET'
p58
F2.492
sS'LEU-PRO'
p59
F1.8899999999999999
sS'LEU-SER'
p60
F1.9830000000000001
sS'ASN-ARG'
p61
F1.79
sS'SER-THR'
p62
F1.7789999999999999
sS'LYS-VAL'
p63
F2.2469999999999999
sS'LYS-GLN'
p64
F1.8640000000000001
sS'GLN-VAL'
p65
F2.0950000000000002
sS'TYR-PHE'
p66
F2.1589999999999998
sS'ASP-VAL'
p67
F2.2210000000000001
sS'ASN-GLY'
p68
F1.544
sS'ARG-PHE'
p69
F1.944
sS'SER-HIS'
p70
F1.7869999999999999
sS'ALA-ILE'
p71
F2.0870000000000002
sS'ASN-GLU'
p72
F1.7470000000000001
sS'CYS-GLN'
p73
F2.3460000000000001
sS'TYR-PRO'
p74
F1.569
sS'LYS-GLU'
p75
F1.8029999999999999
sS'CYS-GLU'
p76
F2.6309999999999998
sS'ASN-GLN'
p77
F1.5269999999999999
sS'CYS-GLY'
p78
F2.1299999999999999
sS'GLN-SER'
p79
F1.657
sS'HIS-LYS'
p80
F2.0209999999999999
sS'LYS-GLY'
p81
F1.7769999999999999
sS'VAL-MET'
p82
F2.536
sS'GLU-GLY'
p83
F1.667
sS'THR-SER'
p84
F1.7689999999999999
sS'TYR-THR'
p85
F1.9630000000000001
sS'PRO-PRO'
p86
F0.26600000000000001
sS'ILE-PHE'
p87
F2.3029999999999999
sS'PHE-LEU'
p88
F2.2930000000000001
sS'GLU-GLU'
p89
F0.745
sS'SER-ARG'
p90
F1.7709999999999999
sS'GLY-ALA'
p91
F1.732
sS'TYR-ASN'
p92
F1.631
sS'GLU-GLN'
p93
F1.9219999999999999
sS'TRP-ARG'
p94
F2.2639999999999998
sS'LEU-GLU'
p95
F2.1339999999999999
sS'LEU-GLY'
p96
F1.893
sS'LYS-SER'
p97
F1.9610000000000001
sS'MET-VAL'
p98
F2.5230000000000001
sS'SER-ALA'
p99
F1.802
sS'PRO-HIS'
p100
F1.5740000000000001
sS'MET-THR'
p101
F2.2229999999999999
sS'ALA-PHE'
p102
F2.0529999999999999
sS'MET-PRO'
p103
F2.1080000000000001
sS'GLY-SER'
p104
F1.5149999999999999
sS'LEU-GLN'
p105
F2.0110000000000001
sS'VAL-LEU'
p106
F2.1080000000000001
sS'LEU-CYS'
p107
F2.4670000000000001
sS'LYS-TYR'
p108
F1.9530000000000001
sS'ASP-ALA'
p109
F2.0640000000000001
sS'ILE-LEU'
p110
F2.2309999999999999
sS'TRP-VAL'
p111
F2.4020000000000001
sS'PHE-PRO'
p112
F1.7549999999999999
sS'ALA-ALA'
p113
F0.84299999999999997
sS'ARG-TRP'
p114
F2.0880000000000001
sS'MET-GLN'
p115
F2.2869999999999999
sS'ILE-LYS'
p116
F2.4700000000000002
sS'MET-ARG'
p117
F2.4220000000000002
sS'ALA-CYS'
p118
F2.5129999999999999
sS'THR-ARG'
p119
F1.9079999999999999
sS'CYS-ILE'
p120
F2.6349999999999998
sS'LEU-ASN'
p121
F1.9590000000000001
sS'LEU-ASP'
p122
F2.1269999999999998
sS'PHE-TRP'
p123
F2.6680000000000001
sS'MET-GLY'
p124
F2.238
sS'THR-PHE'
p125
F2.024
sS'MET-GLU'
p126
F2.419
sS'THR-TRP'
p127
F2.2559999999999998
sS'THR-TYR'
p128
F1.9330000000000001
sS'CYS-VAL'
p129
F2.6190000000000002
sS'ARG-ALA'
p130
F1.9359999999999999
sS'ALA-TYR'
p131
F1.9379999999999999
sS'ASP-PRO'
p132
F1.542
sS'ARG-CYS'
p133
F2.2229999999999999
sS'GLN-ARG'
p134
F1.7649999999999999
sS'HIS-TRP'
p135
F2.2890000000000001
sS'PRO-SER'
p136
F1.6439999999999999
sS'VAL-VAL'
p137
F0.86899999999999999
sS'LEU-LYS'
p138
F2.2330000000000001
sS'GLY-LYS'
p139
F1.7649999999999999
sS'CYS-ASN'
p140
F2.3759999999999999
sS'GLY-TRP'
p141
F1.966
sS'THR-CYS'
p142
F2.4249999999999998
sS'LYS-LYS'
p143
F1.036
sS'CYS-ASP'
p144
F2.3199999999999998
sS'TYR-ASP'
p145
F1.9710000000000001
sS'VAL-PRO'
p146
F1.9910000000000001
sS'THR-VAL'
p147
F2.0219999999999998
sS'ASP-TYR'
p148
F1.9279999999999999
sS'PRO-CYS'
p149
F2.1179999999999999
sS'VAL-SER'
p150
F1.96
sS'ARG-HIS'
p151
F1.863
sS'CYS-PRO'
p152
F2.0099999999999998
sS'MET-LYS'
p153
F2.3570000000000002
sS'ALA-SER'
p154
F1.7869999999999999
sS'TYR-SER'
p155
F1.7769999999999999
sS'GLY-ARG'
p156
F1.6100000000000001
sS'GLN-ALA'
p157
F1.859
sS'MET-LEU'
p158
F2.3540000000000001
sS'ASN-HIS'
p159
F1.7889999999999999
sS'VAL-CYS'
p160
F2.7290000000000001
sS'GLN-TYR'
p161
F1.835
sS'GLN-PHE'
p162
F1.9710000000000001
sS'ILE-ASN'
p163
F1.986
sS'GLU-ASN'
p164
F1.698
sS'CYS-ALA'
p165
F2.5049999999999999
sS'ASN-ASP'
p166
F1.7070000000000001
sS'ASN-PRO'
p167
F1.4390000000000001
sS'PRO-ARG'
p168
F1.77
sS'LYS-TRP'
p169
F2.6070000000000002
sS'ASN-ASN'
p170
F0.24299999999999999
sS'ASN-THR'
p171
F1.7230000000000001
sS'THR-ALA'
p172
F1.8819999999999999
sS'LYS-ALA'
p173
F2.218
sS'LYS-PRO'
p174
F1.804
sS'SER-GLN'
p175
F1.704
sS'ILE-VAL'
p176
F2.3570000000000002
sS'ASP-ARG'
p177
F1.6819999999999999
sS'ASP-MET'
p178
F2.3410000000000002
sS'CYS-TYR'
p179
F2.4950000000000001
sS'PRO-TRP'
p180
F1.998
sS'THR-GLU'
p181
F1.8300000000000001
sS'TRP-ALA'
p182
F1.956
sS'ILE-CYS'
p183
F2.4889999999999999
sS'LYS-ILE'
p184
F2.4079999999999999
sS'GLN-CYS'
p185
F2.363
sS'TYR-ALA'
p186
F2.052
sS'ARG-ASP'
p187
F1.5580000000000001
sS'SER-GLU'
p188
F1.6479999999999999
sS'TRP-HIS'
p189
F2.1560000000000001
sS'ALA-ASN'
p190
F1.891
sS'GLU-CYS'
p191
F2.609
sS'PRO-MET'
p192
F2.2200000000000002
sS'TYR-HIS'
p193
F1.7629999999999999
sS'PHE-MET'
p194
F2.3519999999999999
sS'GLU-TYR'
p195
F1.9119999999999999
sS'SER-TRP'
p196
F2.097
sS'PHE-ARG'
p197
F2.0409999999999999
sS'GLY-ILE'
p198
F2.0049999999999999
sS'TYR-VAL'
p199
F2.2989999999999999
sS'ASN-TYR'
p200
F1.7030000000000001
sS'SER-ILE'
p201
F2.1030000000000002
sS'GLN-PRO'
p202
F1.548
sS'PHE-TYR'
p203
F1.9750000000000001
sS'ALA-VAL'
p204
F2.1160000000000001
sS'HIS-HIS'
p205
F-0.071999999999999995
sS'THR-ASN'
p206
F1.8
sS'CYS-LEU'
p207
F2.6520000000000001
sS'LYS-MET'
p208
F2.456
sS'LYS-ASP'
p209
F1.8540000000000001
sS'HIS-ASN'
p210
F1.6539999999999999
sS'ILE-GLN'
p211
F2.0299999999999998
sS'VAL-HIS'
p212
F2.121
sS'ALA-LEU'
p213
F1.996
sS'HIS-ASP'
p214
F1.8859999999999999
sS'ILE-TYR'
p215
F1.9530000000000001
sS'ILE-GLU'
p216
F2.2250000000000001
sS'ASN-TRP'
p217
F2.1440000000000001
sS'ILE-GLY'
p218
F2.0720000000000001
sS'ASN-CYS'
p219
F2.302
sS'GLU-SER'
p220
F1.655
sS'ALA-TRP'
p221
F2.2490000000000001
sS'HIS-CYS'
p222
F2.5369999999999999
sS'HIS-MET'
p223
F2.0910000000000002
sS'ILE-PRO'
p224
F1.9410000000000001
sS'LYS-PHE'
p225
F2.2669999999999999
sS'TRP-PRO'
p226
F1.9690000000000001
sS'GLU-TRP'
p227
F2.4279999999999999
sS'PHE-HIS'
p228
F2.081
sS'GLY-TYR'
p229
F1.6950000000000001
sS'SER-GLY'
p230
F1.5029999999999999
sS'CYS-TRP'
p231
F3.1539999999999999
sS'ASP-LYS'
p232
F1.8620000000000001
sS'ASN-ILE'
p233
F1.9730000000000001
sS'HIS-SER'
p234
F1.653
sS'LYS-CYS'
p235
F2.669
sS'GLY-PHE'
p236
F1.8879999999999999
sS'GLY-LEU'
p237
F1.8740000000000001
sS'MET-SER'
p238
F2.157
sS'VAL-ALA'
p239
F2.169
sS'SER-LEU'
p240
F2.0099999999999998
sS'TRP-LYS'
p241
F2.3980000000000001
sS'VAL-TYR'
p242
F2.3300000000000001
sS'VAL-PHE'
p243
F2.3210000000000002
sS'ARG-THR'
p244
F1.9199999999999999
sS'TYR-TRP'
p245
F2.153
sS'GLN-GLN'
p246
F0.34899999999999998
sS'GLU-PHE'
p247
F2.1230000000000002
sS'VAL-ILE'
p248
F2.339
sS'HIS-GLN'
p249
F1.9830000000000001
sS'GLN-GLY'
p250
F1.698
sS'PHE-ALA'
p251
F2.0779999999999998
sS'HIS-GLU'
p252
F1.8540000000000001
sS'ARG-PRO'
p253
F1.6299999999999999
sS'HIS-GLY'
p254
F1.629
sS'SER-ASN'
p255
F1.627
sS'ALA-THR'
p256
F1.9399999999999999
sS'GLN-GLU'
p257
F1.8740000000000001
sS'GLN-LYS'
p258
F1.9399999999999999
sS'CYS-HIS'
p259
F2.5619999999999998
sS'GLN-ASP'
p260
F1.8140000000000001
sS'LEU-HIS'
p261
F2.1549999999999998
sS'SER-LYS'
p262
F1.9610000000000001
sS'TRP-LEU'
p263
F2.3769999999999998
sS'CYS-SER'
p264
F2.121
sS'LYS-THR'
p265
F2.1019999999999999
sS'HIS-LEU'
p266
F2.093
sS'LEU-ARG'
p267
F2.0630000000000002
sS'GLY-VAL'
p268
F1.877
sS'GLN-ASN'
p269
F1.667
sS'TYR-ARG'
p270
F1.9119999999999999
sS'PRO-TYR'
p271
F1.5800000000000001
sS'ASP-PHE'
p272
F2.23
sS'TRP-CYS'
p273
F2.8809999999999998
sS'ASN-LEU'
p274
F1.962
sS'SER-MET'
p275
F2.2490000000000001
sS'HIS-ILE'
p276
F2.2970000000000002
sS'SER-TYR'
p277
F1.726
sS'MET-TYR'
p278
F2.0630000000000002
sS'GLU-ILE'
p279
F2.2069999999999999
sS'PHE-CYS'
p280
F2.4329999999999998
sS'PRO-LEU'
p281
F1.9350000000000001
sS'GLY-MET'
p282
F2.0960000000000001
sS'ARG-ILE'
p283
F2.2360000000000002
sS'HIS-THR'
p284
F1.8149999999999999
sS'THR-GLN'
p285
F1.6910000000000001
sS'TRP-THR'
p286
F2.2509999999999999
sS'LYS-LEU'
p287
F2.2189999999999999
sS'THR-GLY'
p288
F1.663
sS'ASP-TRP'
p289
F2.375
sS'TYR-MET'
p290
F2.2949999999999999
sS'PHE-ILE'
p291
F2.3359999999999999
sS'PRO-VAL'
p292
F2.0179999999999998
sS'MET-ASN'
p293
F2.0899999999999999
sS'LEU-TYR'
p294
F2.0550000000000002
sS'PHE-PHE'
p295
F0.68400000000000005
sS'CYS-PHE'
p296
F2.5019999999999998
sS'TRP-ILE'
p297
F2.5310000000000001
sS'PRO-ASN'
p298
F1.504
sS'CYS-CYS'
p299
F-0.58299999999999996
sS'SER-ASP'
p300
F1.732
sS'ARG-MET'
p301
F2.3610000000000002
sS'SER-PHE'
p302
F1.913
sS'SER-SER'
p303
F0.505
sS'ASN-LYS'
p304
F1.855
sS'CYS-THR'
p305
F2.448
sS'ILE-TRP'
p306
F2.4710000000000001
sS'PRO-ASP'
p307
F1.6020000000000001
sS'THR-ASP'
p308
F1.8320000000000001
sS'SER-CYS'
p309
F2.2349999999999999
sS'MET-ASP'
p310
F2.423
sS'GLN-MET'
p311
F2.3660000000000001
sS'MET-TRP'
p312
F2.665
sS'ARG-VAL'
p313
F2.1120000000000001
sS'GLY-GLN'
p314
F1.6819999999999999
sS'THR-LYS'
p315
F2.2229999999999999
sS'TRP-MET'
p316
F2.7930000000000001
sS'ARG-ARG'
p317
F0.46300000000000002
sS'ILE-ASP'
p318
F2.1949999999999998
sS'GLY-GLY'
p319
F0.46000000000000002
sS'GLY-GLU'
p320
F1.6759999999999999
sS'ALA-ARG'
p321
F1.8440000000000001
sS'GLU-ARG'
p322
F1.6779999999999999
sS'HIS-VAL'
p323
F2.1499999999999999
sS'VAL-ARG'
p324
F2.1320000000000001
sS'ASN-SER'
p325
F1.554
sS'ALA-LYS'
p326
F2.1259999999999999
sS'VAL-GLN'
p327
F2.2269999999999999
sS'TRP-ASN'
p328
F1.946
sS'TYR-ILE'
p329
F2.0760000000000001
sS'TRP-GLY'
p330
F1.8859999999999999
sS'PRO-PHE'
p331
F1.8080000000000001
sS'GLY-HIS'
p332
F1.635
sS'PHE-SER'
p333
F1.923
sS'TRP-ASP'
p334
F2.2669999999999999
sS'TRP-GLN'
p335
F1.903
sS'LEU-ALA'
p336
F2.0550000000000002
sS'VAL-GLU'
p337
F2.1509999999999998
sS'ALA-HIS'
p338
F1.8660000000000001
sS'ARG-ASN'
p339
F1.6850000000000001
sS'LEU-THR'
p340
F2.052
sS'TYR-CYS'
p341
F2.7010000000000001
sS'THR-THR'
p342
F0.57999999999999996
sS'THR-LEU'
p343
F2.0800000000000001
sS'VAL-ASN'
p344
F2.02
sS'LEU-TRP'
p345
F2.4100000000000001
sS'GLU-ASP'
p346
F1.907
sS'ILE-SER'
p347
F2.0259999999999998
sS'ILE-ARG'
p348
F2.306
sS'TRP-GLU'
p349
F2.2029999999999998
sS'ILE-MET'
p350
F2.5630000000000002
sS'MET-PHE'
p351
F2.2850000000000001
sS'PRO-ALA'
p352
F1.6859999999999999
sS'PRO-GLY'
p353
F1.6479999999999999
sS'GLN-THR'
p354
F1.8169999999999999
sS'MET-ALA'
p355
F2.496
sS'TRP-SER'
p356
F2.081
sS'ASP-HIS'
p357
F1.919
sS'ARG-SER'
p358
F1.698
sS'GLN-HIS'
p359
F1.8149999999999999
sS'HIS-PHE'
p360
F2.0899999999999999
sS'LEU-LEU'
p361
F1.0489999999999999
sS'ALA-GLN'
p362
F1.833
sS'ASP-ASN'
p363
F1.6759999999999999
sS'SER-VAL'
p364
F1.9650000000000001
sS'MET-ILE'
p365
F2.5529999999999999
sS'ALA-PRO'
p366
F1.7969999999999999
sS'ASP-ASP'
p367
F0.80600000000000005
sS'ALA-GLY'
p368
F1.833
sS'TRP-TRP'
p369
F-0.152
sS'MET-CYS'
p370
F3.0590000000000002
sS'ALA-GLU'
p371
F1.9670000000000001
sS'THR-PRO'
p372
F1.633
sS'HIS-ALA'
p373
F1.994
sS'GLN-ILE'
p374
F2.0470000000000002
sS'GLU-VAL'
p375
F2.1680000000000001
sS'LYS-ASN'
p376
F1.8879999999999999
sS'ASN-ALA'
p377
F1.9239999999999999
sS'THR-ILE'
p378
F2.1070000000000002
sS'ASP-CYS'
p379
F2.4700000000000002
sS'PRO-LYS'
p380
F1.9019999999999999
sS'TYR-TYR'
p381
F0.36699999999999999
sS'ARG-LYS'
p382
F2.1560000000000001
sS'ILE-ALA'
p383
F2.1190000000000002
sS'ASP-SER'
p384
F1.696
sS'CYS-LYS'
p385
F2.6709999999999998
sS'GLU-ALA'
p386
F1.9379999999999999
sS'PHE-GLU'
p387
F2.1230000000000002
sS'GLU-LEU'
p388
F2.0539999999999998
sS'PHE-GLY'
p389
F1.859
sS'LYS-HIS'
p390
F2.069
sS'HIS-PRO'
p391
F1.498
sS'ILE-ILE'
p392
F0.95499999999999996
sS'MET-HIS'
p393
F2.0459999999999998
sS'VAL-GLY'
p394
F1.982
sS'THR-MET'
p395
F2.1819999999999999
sS'PHE-THR'
p396
F2.052
sS'VAL-TRP'
p397
F2.4140000000000001
sS'PHE-LYS'
p398
F2.093
sS'GLY-PRO'
p399
F1.5569999999999999
sS'PHE-GLN'
p400
F2.0630000000000002
sS'LEU-PHE'
p401
F2.2280000000000002
s.