(dp1
S'MET-MET'
p2
F0.29999999999999999
sS'PRO-ILE'
p3
F1.5089999999999999
sS'TYR-LYS'
p4
F1.4890000000000001
sS'VAL-ASP'
p5
F1.6439999999999999
sS'ASP-GLN'
p6
F1.2949999999999999
sS'HIS-TYR'
p7
F1.494
sS'ASP-GLU'
p8
F1.458
sS'ALA-ASP'
p9
F1.401
sS'ASP-GLY'
p10
F1.2609999999999999
sS'LEU-VAL'
p11
F1.6499999999999999
sS'TRP-TYR'
p12
F1.8879999999999999
sS'GLN-TRP'
p13
F1.6559999999999999
sS'TRP-PHE'
p14
F2.0510000000000002
sS'ARG-TYR'
p15
F1.353
sS'GLU-LYS'
p16
F1.2150000000000001
sS'ILE-HIS'
p17
F1.853
sS'LEU-MET'
p18
F1.8089999999999999
sS'GLU-HIS'
p19
F1.399
sS'GLY-THR'
p20
F1.0609999999999999
sS'ARG-GLU'
p21
F1.167
sS'PHE-ASN'
p22
F1.7070000000000001
sS'ASN-MET'
p23
F1.76
sS'PRO-THR'
p24
F1.069
sS'TYR-GLN'
p25
F1.5209999999999999
sS'ARG-GLY'
p26
F1.1060000000000001
sS'VAL-THR'
p27
F1.542
sS'ASP-ILE'
p28
F1.724
sS'THR-HIS'
p29
F1.5
sS'TYR-GLU'
p30
F1.448
sS'ARG-GLN'
p31
F1.1899999999999999
sS'TYR-GLY'
p32
F1.502
sS'PHE-ASP'
p33
F1.714
sS'CYS-ARG'
p34
F1.655
sS'GLY-ASN'
p35
F0.93300000000000005
sS'VAL-LYS'
p36
F1.7909999999999999
sS'LEU-ILE'
p37
F1.71
sS'GLN-LEU'
p38
F1.5069999999999999
sS'GLU-MET'
p39
F1.891
sS'ASP-THR'
p40
F1.3620000000000001
sS'ASN-PHE'
p41
F1.661
sS'GLU-PRO'
p42
F1.2050000000000001
sS'TYR-LEU'
p43
F1.6719999999999999
sS'LYS-ARG'
p44
F1.5249999999999999
sS'GLY-ASP'
p45
F1.1910000000000001
sS'PRO-GLN'
p46
F1.1950000000000001
sS'CYS-MET'
p47
F1.962
sS'HIS-ARG'
p48
F1.4039999999999999
sS'GLU-THR'
p49
F1.4350000000000001
sS'ILE-THR'
p50
F1.643
sS'SER-PRO'
p51
F1.056
sS'GLY-CYS'
p52
F0.82799999999999996
sS'ARG-LEU'
p53
F1.472
sS'PRO-GLU'
p54
F1.2549999999999999
sS'ASP-LEU'
p55
F1.6859999999999999
sS'PHE-VAL'
p56
F1.869
sS'ASN-VAL'
p57
F1.5089999999999999
sS'ALA-MET'
p58
F1.5860000000000001
sS'LEU-PRO'
p59
F1.4379999999999999
sS'LEU-SER'
p60
F1.5069999999999999
sS'ASN-ARG'
p61
F1.266
sS'SER-THR'
p62
F1.2529999999999999
sS'LYS-VAL'
p63
F1.6379999999999999
sS'LYS-GLN'
p64
F1.3580000000000001
sS'GLN-VAL'
p65
F1.659
sS'TYR-PHE'
p66
F1.7
sS'ASP-VAL'
p67
F1.6639999999999999
sS'ASN-GLY'
p68
F1
sS'ARG-PHE'
p69
F1.607
sS'SER-HIS'
p70
F1.4279999999999999
sS'ALA-ILE'
p71
F1.4810000000000001
sS'ASN-GLU'
p72
F1.2769999999999999
sS'CYS-GLN'
p73
F1.72
sS'TYR-PRO'
p74
F1.472
sS'LYS-GLU'
p75
F1.1919999999999999
sS'CYS-GLU'
p76
F1.897
sS'ASN-GLN'
p77
F1.2450000000000001
sS'CYS-GLY'
p78
F1.2270000000000001
sS'GLN-SER'
p79
F1.0960000000000001
sS'HIS-LYS'
p80
F1.5569999999999999
sS'LYS-GLY'
p81
F1.139
sS'VAL-MET'
p82
F1.804
sS'GLU-GLY'
p83
F1.268
sS'THR-SER'
p84
F1.258
sS'TYR-THR'
p85
F1.522
sS'PRO-PRO'
p86
F0.108
sS'ILE-PHE'
p87
F1.7869999999999999
sS'PHE-LEU'
p88
F1.637
sS'GLU-GLU'
p89
F0.70899999999999996
sS'SER-ARG'
p90
F1.167
sS'GLY-ALA'
p91
F0.46899999999999997
sS'TYR-ASN'
p92
F1.399
sS'GLU-GLN'
p93
F1.3300000000000001
sS'TRP-ARG'
p94
F1.6759999999999999
sS'LEU-GLU'
p95
F1.736
sS'LEU-GLY'
p96
F1.482
sS'LYS-SER'
p97
F1.2210000000000001
sS'MET-VAL'
p98
F1.7689999999999999
sS'SER-ALA'
p99
F1.034
sS'PRO-HIS'
p100
F1.3160000000000001
sS'MET-THR'
p101
F1.8360000000000001
sS'ALA-PHE'
p102
F1.6950000000000001
sS'MET-PRO'
p103
F1.7030000000000001
sS'GLY-SER'
p104
F0.76800000000000002
sS'LEU-GLN'
p105
F1.4259999999999999
sS'VAL-LEU'
p106
F1.647
sS'LEU-CYS'
p107
F1.792
sS'LYS-TYR'
p108
F1.516
sS'ASP-ALA'
p109
F1.462
sS'ILE-LEU'
p110
F1.6180000000000001
sS'TRP-VAL'
p111
F2.0219999999999998
sS'PHE-PRO'
p112
F1.5269999999999999
sS'ALA-ALA'
p113
F-0.068000000000000005
sS'ARG-TRP'
p114
F1.5529999999999999
sS'MET-GLN'
p115
F1.591
sS'ILE-LYS'
p116
F1.8220000000000001
sS'MET-ARG'
p117
F1.865
sS'ALA-CYS'
p118
F1.5629999999999999
sS'THR-ARG'
p119
F1.528
sS'CYS-ILE'
p120
F1.986
sS'LEU-ASN'
p121
F1.5660000000000001
sS'LEU-ASP'
p122
F1.6910000000000001
sS'PHE-TRP'
p123
F1.921
sS'MET-GLY'
p124
F1.613
sS'THR-PHE'
p125
F1.6830000000000001
sS'MET-GLU'
p126
F1.956
sS'THR-TRP'
p127
F2.125
sS'THR-TYR'
p128
F1.49
sS'CYS-VAL'
p129
F1.7729999999999999
sS'ARG-ALA'
p130
F1.288
sS'ALA-TYR'
p131
F1.5269999999999999
sS'ASP-PRO'
p132
F1.1499999999999999
sS'ARG-CYS'
p133
F1.6100000000000001
sS'GLN-ARG'
p134
F1.2969999999999999
sS'HIS-TRP'
p135
F1.883
sS'PRO-SER'
p136
F1.161
sS'VAL-VAL'
p137
F0.66600000000000004
sS'LEU-LYS'
p138
F1.6870000000000001
sS'GLY-LYS'
p139
F1.103
sS'CYS-ASN'
p140
F1.522
sS'GLY-TRP'
p141
F1.915
sS'THR-CYS'
p142
F1.637
sS'LYS-LYS'
p143
F0.73299999999999998
sS'CYS-ASP'
p144
F1.8420000000000001
sS'TYR-ASP'
p145
F1.484
sS'VAL-PRO'
p146
F1.5429999999999999
sS'THR-VAL'
p147
F1.5880000000000001
sS'ASP-TYR'
p148
F1.55
sS'PRO-CYS'
p149
F1.397
sS'VAL-SER'
p150
F1.486
sS'ARG-HIS'
p151
F1.2589999999999999
sS'CYS-PRO'
p152
F1.3600000000000001
sS'MET-LYS'
p153
F1.635
sS'ALA-SER'
p154
F1.0409999999999999
sS'TYR-SER'
p155
F1.4239999999999999
sS'GLY-ARG'
p156
F1.1299999999999999
sS'GLN-ALA'
p157
F1.3080000000000001
sS'MET-LEU'
p158
F1.7869999999999999
sS'ASN-HIS'
p159
F1.4430000000000001
sS'VAL-CYS'
p160
F1.889
sS'GLN-TYR'
p161
F1.383
sS'GLN-PHE'
p162
F1.659
sS'ILE-ASN'
p163
F1.647
sS'GLU-ASN'
p164
F1.24
sS'CYS-ALA'
p165
F1.46
sS'ASN-ASP'
p166
F1.2450000000000001
sS'ASN-PRO'
p167
F0.996
sS'PRO-ARG'
p168
F1.1990000000000001
sS'LYS-TRP'
p169
F1.99
sS'ASN-ASN'
p170
F0.017000000000000001
sS'ASN-THR'
p171
F1.25
sS'THR-ALA'
p172
F1.284
sS'LYS-ALA'
p173
F1.4630000000000001
sS'LYS-PRO'
p174
F1.2949999999999999
sS'SER-GLN'
p175
F1.0900000000000001
sS'ILE-VAL'
p176
F1.7230000000000001
sS'ASP-ARG'
p177
F1.0640000000000001
sS'ASP-MET'
p178
F1.778
sS'CYS-TYR'
p179
F1.5629999999999999
sS'PRO-TRP'
p180
F1.756
sS'THR-GLU'
p181
F1.4530000000000001
sS'TRP-ALA'
p182
F1.8520000000000001
sS'ILE-CYS'
p183
F1.9179999999999999
sS'LYS-ILE'
p184
F1.8080000000000001
sS'GLN-CYS'
p185
F1.756
sS'TYR-ALA'
p186
F1.5880000000000001
sS'ARG-ASP'
p187
F1.02
sS'SER-GLU'
p188
F1.214
sS'TRP-HIS'
p189
F1.7569999999999999
sS'ALA-ASN'
p190
F1.28
sS'GLU-CYS'
p191
F1.97
sS'PRO-MET'
p192
F1.7470000000000001
sS'TYR-HIS'
p193
F1.4690000000000001
sS'PHE-MET'
p194
F1.728
sS'GLU-TYR'
p195
F1.581
sS'SER-TRP'
p196
F1.9079999999999999
sS'PHE-ARG'
p197
F1.6910000000000001
sS'GLY-ILE'
p198
F1.6120000000000001
sS'TYR-VAL'
p199
F1.8080000000000001
sS'ASN-TYR'
p200
F1.415
sS'SER-ILE'
p201
F1.5169999999999999
sS'GLN-PRO'
p202
F1.1479999999999999
sS'PHE-TYR'
p203
F1.645
sS'ALA-VAL'
p204
F1.429
sS'HIS-HIS'
p205
F-0.14199999999999999
sS'THR-ASN'
p206
F1.27
sS'CYS-LEU'
p207
F1.9219999999999999
sS'LYS-MET'
p208
F1.8939999999999999
sS'LYS-ASP'
p209
F1.236
sS'HIS-ASN'
p210
F1.3600000000000001
sS'ILE-GLN'
p211
F1.6699999999999999
sS'VAL-HIS'
p212
F1.694
sS'ALA-LEU'
p213
F1.333
sS'HIS-ASP'
p214
F1.409
sS'ILE-TYR'
p215
F1.639
sS'ILE-GLU'
p216
F1.7509999999999999
sS'ILE-GLY'
p217
F1.579
sS'ASN-CYS'
p218
F1.4339999999999999
sS'GLU-SER'
p219
F1.274
sS'ALA-TRP'
p220
F1.881
sS'HIS-CYS'
p221
F2.085
sS'HIS-MET'
p222
F1.9790000000000001
sS'ILE-PRO'
p223
F1.5369999999999999
sS'LYS-PHE'
p224
F1.8420000000000001
sS'TRP-PRO'
p225
F1.9690000000000001
sS'GLU-TRP'
p226
F1.9330000000000001
sS'PHE-HIS'
p227
F1.897
sS'GLY-TYR'
p228
F1.4590000000000001
sS'SER-GLY'
p229
F0.68799999999999994
sS'CYS-TRP'
p230
F2.6349999999999998
sS'ASP-LYS'
p231
F1.2310000000000001
sS'ASN-ILE'
p232
F1.5580000000000001
sS'HIS-SER'
p233
F1.3660000000000001
sS'LYS-CYS'
p234
F1.881
sS'GLY-PHE'
p235
F1.752
sS'GLY-LEU'
p236
F1.472
sS'MET-SER'
p237
F1.5069999999999999
sS'VAL-ALA'
p238
F1.4359999999999999
sS'SER-LEU'
p239
F1.5269999999999999
sS'TRP-LYS'
p240
F1.9019999999999999
sS'VAL-TYR'
p241
F1.8400000000000001
sS'VAL-PHE'
p242
F1.8140000000000001
sS'ARG-THR'
p243
F1.403
sS'TYR-TRP'
p244
F1.8100000000000001
sS'GLN-GLN'
p245
F0.16900000000000001
sS'GLU-PHE'
p246
F1.776
sS'VAL-ILE'
p247
F1.6990000000000001
sS'HIS-GLN'
p248
F1.542
sS'GLN-GLY'
p249
F1.109
sS'PHE-ALA'
p250
F1.7190000000000001
sS'HIS-GLU'
p251
F1.391
sS'ARG-PRO'
p252
F1.177
sS'HIS-GLY'
p253
F1.5700000000000001
sS'SER-ASN'
p254
F1.105
sS'ALA-THR'
p255
F1.2969999999999999
sS'GLN-GLU'
p256
F1.3149999999999999
sS'GLN-LYS'
p257
F1.353
sS'CYS-HIS'
p258
F1.8859999999999999
sS'GLN-ASP'
p259
F1.2
sS'LEU-HIS'
p260
F1.6000000000000001
sS'SER-LYS'
p261
F1.272
sS'TRP-LEU'
p262
F1.849
sS'CYS-SER'
p263
F1.3879999999999999
sS'LYS-THR'
p264
F1.5369999999999999
sS'HIS-LEU'
p265
F1.627
sS'LEU-ARG'
p266
F1.5349999999999999
sS'GLY-VAL'
p267
F1.331
sS'GLN-ASN'
p268
F1.3080000000000001
sS'TYR-ARG'
p269
F1.4399999999999999
sS'PRO-TYR'
p270
F1.4199999999999999
sS'ASP-PHE'
p271
F1.8240000000000001
sS'TRP-CYS'
p272
F2.681
sS'ASN-LEU'
p273
F1.5509999999999999
sS'SER-MET'
p274
F1.581
sS'HIS-ILE'
p275
F1.792
sS'SER-TYR'
p276
F1.4670000000000001
sS'MET-TYR'
p277
F1.8360000000000001
sS'GLU-ILE'
p278
F1.661
sS'PHE-CYS'
p279
F2.0030000000000001
sS'PRO-LEU'
p280
F1.4059999999999999
sS'GLY-MET'
p281
F1.5900000000000001
sS'ARG-ILE'
p282
F1.5700000000000001
sS'HIS-THR'
p283
F1.492
sS'THR-GLN'
p284
F1.274
sS'TRP-THR'
p285
F1.919
sS'LYS-LEU'
p286
F1.758
sS'THR-GLY'
p287
F0.98199999999999998
sS'ASP-TRP'
p288
F1.9359999999999999
sS'TYR-MET'
p289
F1.7470000000000001
sS'PHE-ILE'
p290
F1.708
sS'PRO-VAL'
p291
F1.597
sS'MET-ASN'
p292
F1.5900000000000001
sS'LEU-TYR'
p293
F1.7090000000000001
sS'PHE-PHE'
p294
F0.76400000000000001
sS'CYS-PHE'
p295
F2.0840000000000001
sS'TRP-ILE'
p296
F2.1150000000000002
sS'PRO-ASN'
p297
F1.0409999999999999
sS'CYS-CYS'
p298
F-1.008
sS'SER-ASP'
p299
F1.306
sS'ARG-MET'
p300
F1.802
sS'SER-PHE'
p301
F1.661
sS'SER-SER'
p302
F0.034000000000000002
sS'ASN-LYS'
p303
F1.2490000000000001
sS'CYS-THR'
p304
F1.7729999999999999
sS'ILE-TRP'
p305
F2.0960000000000001
sS'PRO-ASP'
p306
F1.222
sS'THR-ASP'
p307
F1.4239999999999999
sS'SER-CYS'
p308
F1.526
sS'MET-ASP'
p309
F1.7490000000000001
sS'GLN-MET'
p310
F1.7969999999999999
sS'MET-TRP'
p311
F2.4430000000000001
sS'ARG-VAL'
p312
F1.5660000000000001
sS'GLY-GLN'
p313
F1.1379999999999999
sS'THR-LYS'
p314
F1.482
sS'TRP-MET'
p315
F2.4489999999999998
sS'ARG-ARG'
p316
F0.30399999999999999
sS'ILE-ASP'
p317
F1.7010000000000001
sS'ALA-ARG'
p318
F1.236
sS'GLY-GLU'
p319
F1.3779999999999999
sS'ASN-TRP'
p320
F1.867
sS'GLU-ARG'
p321
F1.194
sS'HIS-VAL'
p322
F1.7729999999999999
sS'VAL-ARG'
p323
F1.591
sS'ASN-SER'
p324
F1.1459999999999999
sS'ALA-LYS'
p325
F1.45
sS'VAL-GLN'
p326
F1.623
sS'TRP-ASN'
p327
F1.7689999999999999
sS'TYR-ILE'
p328
F1.631
sS'TRP-GLY'
p329
F1.9570000000000001
sS'PRO-PHE'
p330
F1.5629999999999999
sS'GLY-HIS'
p331
F1.4379999999999999
sS'PHE-SER'
p332
F1.627
sS'TRP-ASP'
p333
F1.9430000000000001
sS'TRP-GLN'
p334
F1.5700000000000001
sS'LEU-ALA'
p335
F1.454
sS'VAL-GLU'
p336
F1.6579999999999999
sS'ALA-HIS'
p337
F1.4219999999999999
sS'ARG-ASN'
p338
F1.2370000000000001
sS'LEU-THR'
p339
F1.6240000000000001
sS'TYR-CYS'
p340
F1.7070000000000001
sS'THR-THR'
p341
F0.378
sS'THR-LEU'
p342
F1.5700000000000001
sS'VAL-ASN'
p343
F1.4730000000000001
sS'LEU-TRP'
p344
F1.9179999999999999
sS'GLU-ASP'
p345
F1.4430000000000001
sS'ILE-SER'
p346
F1.474
sS'ILE-ARG'
p347
F1.625
sS'TRP-GLU'
p348
F1.929
sS'ILE-MET'
p349
F1.853
sS'MET-PHE'
p350
F1.835
sS'PRO-ALA'
p351
F1.0449999999999999
sS'PRO-GLY'
p352
F1.0149999999999999
sS'GLN-THR'
p353
F1.2789999999999999
sS'MET-ALA'
p354
F1.714
sS'TRP-SER'
p355
F2.0030000000000001
sS'ASP-HIS'
p356
F1.3700000000000001
sS'ARG-SER'
p357
F1.151
sS'GLN-HIS'
p358
F1.3460000000000001
sS'HIS-PHE'
p359
F1.8300000000000001
sS'LEU-LEU'
p360
F0.89700000000000002
sS'ALA-GLN'
p361
F1.2509999999999999
sS'ASP-ASN'
p362
F1.2749999999999999
sS'SER-VAL'
p363
F1.49
sS'MET-ILE'
p364
F1.958
sS'ALA-PRO'
p365
F1.2529999999999999
sS'ASP-ASP'
p366
F0.56100000000000005
sS'ALA-GLY'
p367
F0.54400000000000004
sS'TRP-TRP'
p368
F0.47699999999999998
sS'MET-CYS'
p369
F2.2909999999999999
sS'ALA-GLU'
p370
F1.393
sS'THR-PRO'
p371
F1.127
sS'HIS-ALA'
p372
F1.6839999999999999
sS'GLN-ILE'
p373
F1.516
sS'GLU-VAL'
p374
F1.6839999999999999
sS'LYS-ASN'
p375
F1.268
sS'ASN-ALA'
p376
F1.3480000000000001
sS'THR-ILE'
p377
F1.5820000000000001
sS'ASP-CYS'
p378
F1.819
sS'PRO-LYS'
p379
F1.276
sS'TYR-TYR'
p380
F0.56699999999999995
sS'ARG-LYS'
p381
F1.454
sS'ILE-ALA'
p382
F1.5600000000000001
sS'ASP-SER'
p383
F1.27
sS'CYS-LYS'
p384
F2.0350000000000001
sS'GLU-ALA'
p385
F1.425
sS'PHE-GLU'
p386
F1.7150000000000001
sS'GLU-LEU'
p387
F1.6879999999999999
sS'PHE-GLY'
p388
F1.734
sS'LYS-HIS'
p389
F1.3919999999999999
sS'HIS-PRO'
p390
F1.3819999999999999
sS'ILE-ILE'
p391
F0.78300000000000003
sS'MET-HIS'
p392
F1.889
sS'VAL-GLY'
p393
F1.3600000000000001
sS'THR-MET'
p394
F1.8340000000000001
sS'PHE-THR'
p395
F1.7010000000000001
sS'VAL-TRP'
p396
F2.016
sS'PHE-LYS'
p397
F1.7829999999999999
sS'GLY-PRO'
p398
F0.84799999999999998
sS'PHE-GLN'
p399
F1.702
sS'LEU-PHE'
p400
F1.712
s.