(dp1
S'MET-MET'
p2
F-2.157
sS'PRO-ILE'
p3
F-0.70799999999999996
sS'TYR-LYS'
p4
F-1.278
sS'VAL-ASP'
p5
F-0.58499999999999996
sS'ASP-GLN'
p6
F-1.1579999999999999
sS'HIS-TYR'
p7
F-1.3640000000000001
sS'ASP-GLU'
p8
F-1.0600000000000001
sS'ALA-ASP'
p9
F-0.65300000000000002
sS'ASP-GLY'
p10
F-1.458
sS'LEU-VAL'
p11
F-0.63700000000000001
sS'TRP-TYR'
p12
F-1.141
sS'GLN-TRP'
p13
F-1.2050000000000001
sS'TRP-PHE'
p14
F-0.94599999999999995
sS'ARG-TYR'
p15
F-1.5649999999999999
sS'GLU-LYS'
p16
F-1.4079999999999999
sS'ILE-HIS'
p17
F-0.82799999999999996
sS'LEU-MET'
p18
F-0.54200000000000004
sS'GLU-HIS'
p19
F-1.266
sS'GLY-THR'
p20
F-1.5409999999999999
sS'ARG-GLU'
p21
F-1.647
sS'PHE-ASN'
p22
F-0.98999999999999999
sS'ASN-MET'
p23
F-0.68200000000000005
sS'PRO-THR'
p24
F-0.96899999999999997
sS'TYR-GLN'
p25
F-1.3140000000000001
sS'ARG-GLY'
p26
F-1.7549999999999999
sS'VAL-THR'
p27
F-0.59699999999999998
sS'ASP-ILE'
p28
F-0.624
sS'THR-HIS'
p29
F-0.999
sS'TYR-GLU'
p30
F-1.2909999999999999
sS'ARG-GLN'
p31
F-1.5109999999999999
sS'TYR-GLY'
p32
F-1.48
sS'PHE-ASP'
p33
F-0.92400000000000004
sS'CYS-ARG'
p34
F-0.90500000000000003
sS'GLY-ASN'
p35
F-1.716
sS'VAL-LYS'
p36
F-0.65500000000000003
sS'LEU-ILE'
p37
F-0.67500000000000004
sS'GLN-LEU'
p38
F-1.0089999999999999
sS'GLU-MET'
p39
F-0.55800000000000005
sS'ASP-THR'
p40
F-0.90600000000000003
sS'ASN-PHE'
p41
F-0.95699999999999996
sS'GLU-PRO'
p42
F-1.165
sS'TYR-LEU'
p43
F-1.1080000000000001
sS'LYS-ARG'
p44
F-1.232
sS'GLY-ASP'
p45
F-1.518
sS'PRO-GLN'
p46
F-1.248
sS'CYS-MET'
p47
F-0.016
sS'HIS-ARG'
p48
F-1.379
sS'GLU-THR'
p49
F-1.03
sS'ILE-THR'
p50
F-0.67100000000000004
sS'SER-PRO'
p51
F-0.93500000000000005
sS'GLY-CYS'
p52
F-1.371
sS'ARG-LEU'
p53
F-1.222
sS'PRO-GLU'
p54
F-1.111
sS'ASP-LEU'
p55
F-0.71599999999999997
sS'PHE-VAL'
p56
F-0.76100000000000001
sS'ASN-VAL'
p57
F-0.80000000000000004
sS'ALA-MET'
p58
F-0.40300000000000002
sS'LEU-PRO'
p59
F-0.83499999999999996
sS'LEU-SER'
p60
F-0.72099999999999997
sS'ASN-ARG'
p61
F-1.492
sS'SER-THR'
p62
F-0.82199999999999995
sS'LYS-VAL'
p63
F-0.70299999999999996
sS'LYS-GLN'
p64
F-1.26
sS'GLN-VAL'
p65
F-0.879
sS'TYR-PHE'
p66
F-1.1839999999999999
sS'ASP-VAL'
p67
F-0.61799999999999999
sS'ASN-GLY'
p68
F-1.6819999999999999
sS'ARG-PHE'
p69
F-1.3049999999999999
sS'SER-HIS'
p70
F-1.0449999999999999
sS'ALA-ILE'
p71
F-0.49099999999999999
sS'ASN-GLU'
p72
F-1.282
sS'CYS-GLN'
p73
F-0.51900000000000002
sS'TYR-PRO'
p74
F-1.2869999999999999
sS'LYS-GLU'
p75
F-1.401
sS'CYS-GLU'
p76
F-0.28299999999999997
sS'ASN-GLN'
p77
F-1.347
sS'CYS-GLY'
p78
F-1.2290000000000001
sS'GLN-SER'
p79
F-1.165
sS'HIS-LYS'
p80
F-1.105
sS'LYS-GLY'
p81
F-1.528
sS'VAL-MET'
p82
F-0.35699999999999998
sS'GLU-GLY'
p83
F-1.4930000000000001
sS'THR-SER'
p84
F-0.85699999999999998
sS'TYR-THR'
p85
F-1.1220000000000001
sS'PRO-PRO'
p86
F-2.0920000000000001
sS'ILE-PHE'
p87
F-0.93500000000000005
sS'PHE-LEU'
p88
F-0.93700000000000006
sS'GLU-GLU'
p89
F-2.117
sS'SER-ARG'
p90
F-1.3720000000000001
sS'GLY-ALA'
p91
F-1.9099999999999999
sS'TYR-ASN'
p92
F-1.407
sS'GLU-GLN'
p93
F-1.224
sS'TRP-ARG'
p94
F-1.3720000000000001
sS'LEU-GLU'
p95
F-0.82999999999999996
sS'LEU-GLY'
p96
F-1.167
sS'LYS-SER'
p97
F-1.03
sS'MET-VAL'
p98
F-0.373
sS'SER-ALA'
p99
F-0.63100000000000001
sS'PRO-HIS'
p100
F-1.147
sS'MET-THR'
p101
F-0.55700000000000005
sS'ALA-PHE'
p102
F-0.73699999999999999
sS'MET-PRO'
p103
F-0.498
sS'GLY-SER'
p104
F-1.738
sS'LEU-GLN'
p105
F-1.018
sS'VAL-LEU'
p106
F-0.67000000000000004
sS'LEU-CYS'
p107
F-0.28599999999999998
sS'LYS-TYR'
p108
F-1.244
sS'ASP-ALA'
p109
F-0.63200000000000001
sS'ILE-LEU'
p110
F-0.73099999999999998
sS'TRP-VAL'
p111
F-0.68700000000000006
sS'PHE-PRO'
p112
F-1.071
sS'ALA-ALA'
p113
F-1.413
sS'ARG-TRP'
p114
F-1.4350000000000001
sS'MET-GLN'
p115
F-0.82099999999999995
sS'ILE-LYS'
p116
F-0.68100000000000005
sS'MET-ARG'
p117
F-0.89900000000000002
sS'ALA-CYS'
p118
F0.0040000000000000001
sS'THR-ARG'
p119
F-1.2909999999999999
sS'CYS-ILE'
p120
F-0.16500000000000001
sS'LEU-ASN'
p121
F-0.88
sS'LEU-ASP'
p122
F-0.70999999999999996
sS'PHE-TRP'
p123
F-1.0169999999999999
sS'MET-GLY'
p124
F-1.103
sS'THR-PHE'
p125
F-0.91800000000000004
sS'MET-GLU'
p126
F-0.57399999999999995
sS'THR-TRP'
p127
F-0.89500000000000002
sS'THR-TYR'
p128
F-1.139
sS'CYS-VAL'
p129
F-0.080000000000000002
sS'ARG-ALA'
p130
F-1.167
sS'ALA-TYR'
p131
F-1.022
sS'ASP-PRO'
p132
F-1.0920000000000001
sS'ARG-CYS'
p133
F-0.85899999999999999
sS'GLN-ARG'
p134
F-1.512
sS'HIS-TRP'
p135
F-1.054
sS'PRO-SER'
p136
F-0.92700000000000005
sS'VAL-VAL'
p137
F-1.5049999999999999
sS'LEU-LYS'
p138
F-0.81599999999999995
sS'GLY-LYS'
p139
F-1.5740000000000001
sS'CYS-ASN'
p140
F-0.63500000000000001
sS'GLY-TRP'
p141
F-1.169
sS'THR-CYS'
p142
F-0.35999999999999999
sS'LYS-LYS'
p143
F-1.96
sS'CYS-ASP'
p144
F-0.36499999999999999
sS'TYR-ASP'
p145
F-1.2529999999999999
sS'VAL-PRO'
p146
F-0.627
sS'THR-VAL'
p147
F-0.61199999999999999
sS'ASP-TYR'
p148
F-1.2130000000000001
sS'PRO-CYS'
p149
F-0.46899999999999997
sS'VAL-SER'
p150
F-0.55000000000000004
sS'ARG-HIS'
p151
F-1.4950000000000001
sS'CYS-PRO'
p152
F-0.48699999999999999
sS'MET-LYS'
p153
F-0.70099999999999996
sS'ALA-SER'
p154
F-0.623
sS'TYR-SER'
p155
F-1.206
sS'GLY-ARG'
p156
F-1.7410000000000001
sS'GLN-ALA'
p157
F-0.91500000000000004
sS'MET-LEU'
p158
F-0.59299999999999997
sS'ASN-HIS'
p159
F-1.222
sS'VAL-CYS'
p160
F0.0080000000000000002
sS'GLN-TYR'
p161
F-1.401
sS'GLN-PHE'
p162
F-1.1100000000000001
sS'ILE-ASN'
p163
F-0.85799999999999998
sS'GLU-ASN'
p164
F-1.294
sS'CYS-ALA'
p165
F-0.035999999999999997
sS'ASN-ASP'
p166
F-1.1259999999999999
sS'ASN-PRO'
p167
F-1.242
sS'PRO-ARG'
p168
F-1.3839999999999999
sS'LYS-TRP'
p169
F-0.90400000000000003
sS'ASN-ASN'
p170
F-2.5089999999999999
sS'ASN-THR'
p171
F-1.0529999999999999
sS'THR-ALA'
p172
F-0.65100000000000002
sS'LYS-ALA'
p173
F-0.69599999999999995
sS'LYS-PRO'
p174
F-1.101
sS'SER-GLN'
p175
F-1.161
sS'ILE-VAL'
p176
F-0.50900000000000001
sS'ASP-ARG'
p177
F-1.5840000000000001
sS'ASP-MET'
p178
F-0.60999999999999999
sS'CYS-TYR'
p179
F-0.89100000000000001
sS'PRO-TRP'
p180
F-1.0389999999999999
sS'THR-GLU'
p181
F-0.998
sS'TRP-ALA'
p182
F-0.82499999999999996
sS'ILE-CYS'
p183
F-0.17799999999999999
sS'LYS-ILE'
p184
F-0.71299999999999997
sS'GLN-CYS'
p185
F-0.442
sS'TYR-ALA'
p186
F-0.99199999999999999
sS'ARG-ASP'
p187
F-1.649
sS'SER-GLU'
p188
F-1.0940000000000001
sS'TRP-HIS'
p189
F-1.137
sS'ALA-ASN'
p190
F-0.78900000000000003
sS'GLU-CYS'
p191
F-0.28799999999999998
sS'PRO-MET'
p192
F-0.46400000000000002
sS'TYR-HIS'
p193
F-1.3720000000000001
sS'PHE-MET'
p194
F-0.81599999999999995
sS'GLU-TYR'
p195
F-1.2889999999999999
sS'SER-TRP'
p196
F-1.008
sS'PHE-ARG'
p197
F-1.2410000000000001
sS'GLY-ILE'
p198
F-1.038
sS'TYR-VAL'
p199
F-0.93500000000000005
sS'ASN-TYR'
p200
F-1.369
sS'SER-ILE'
p201
F-0.65000000000000002
sS'GLN-PRO'
p202
F-1.234
sS'PHE-TYR'
p203
F-1.246
sS'ALA-VAL'
p204
F-0.41199999999999998
sS'HIS-HIS'
p205
F-2.831
sS'THR-ASN'
p206
F-1.0389999999999999
sS'CYS-LEU'
p207
F-0.24099999999999999
sS'LYS-MET'
p208
F-0.54200000000000004
sS'LYS-ASP'
p209
F-1.294
sS'HIS-ASN'
p210
F-1.2789999999999999
sS'ILE-GLN'
p211
F-0.88800000000000001
sS'VAL-HIS'
p212
F-0.76200000000000001
sS'ALA-LEU'
p213
F-0.65300000000000002
sS'HIS-ASP'
p214
F-1.169
sS'ILE-TYR'
p215
F-1.054
sS'ILE-GLU'
p216
F-0.73299999999999998
sS'ILE-GLY'
p217
F-0.98399999999999999
sS'ASN-CYS'
p218
F-0.69499999999999995
sS'GLU-SER'
p219
F-1.097
sS'ALA-TRP'
p220
F-0.82699999999999996
sS'HIS-CYS'
p221
F-0.28399999999999997
sS'HIS-MET'
p222
F-0.65600000000000003
sS'ILE-PRO'
p223
F-0.74099999999999999
sS'LYS-PHE'
p224
F-0.90800000000000003
sS'TRP-PRO'
p225
F-0.92900000000000005
sS'GLU-TRP'
p226
F-1.022
sS'PHE-HIS'
p227
F-0.97499999999999998
sS'GLY-TYR'
p228
F-1.512
sS'SER-GLY'
p229
F-1.758
sS'CYS-TRP'
p230
F-0.312
sS'ASP-LYS'
p231
F-1.2669999999999999
sS'ASN-ILE'
p232
F-0.89800000000000002
sS'HIS-SER'
p233
F-1.044
sS'LYS-CYS'
p234
F-0.27400000000000002
sS'GLY-PHE'
p235
F-1.1619999999999999
sS'GLY-LEU'
p236
F-1.2230000000000001
sS'MET-SER'
p237
F-0.56200000000000006
sS'VAL-ALA'
p238
F-0.38700000000000001
sS'SER-LEU'
p239
F-0.73799999999999999
sS'TRP-LYS'
p240
F-0.96499999999999997
sS'VAL-TYR'
p241
F-0.871
sS'VAL-PHE'
p242
F-0.73499999999999999
sS'ARG-THR'
p243
F-1.2989999999999999
sS'TYR-TRP'
p244
F-1.167
sS'GLN-GLN'
p245
F-2.5840000000000001
sS'GLU-PHE'
p246
F-0.97199999999999998
sS'VAL-ILE'
p247
F-0.52800000000000002
sS'HIS-GLN'
p248
F-1.1180000000000001
sS'GLN-GLY'
p249
F-1.6060000000000001
sS'PHE-ALA'
p250
F-0.70899999999999996
sS'HIS-GLU'
p251
F-1.23
sS'ARG-PRO'
p252
F-1.425
sS'HIS-GLY'
p253
F-1.323
sS'SER-ASN'
p254
F-1.1299999999999999
sS'ALA-THR'
p255
F-0.61799999999999999
sS'GLN-GLU'
p256
F-1.26
sS'GLN-LYS'
p257
F-1.248
sS'CYS-HIS'
p258
F-0.46500000000000002
sS'GLN-ASP'
p259
F-1.2110000000000001
sS'LEU-HIS'
p260
F-0.94499999999999995
sS'SER-LYS'
p261
F-1.004
sS'TRP-LEU'
p262
F-0.94599999999999995
sS'CYS-SER'
p263
F-0.47299999999999998
sS'LYS-THR'
p264
F-0.874
sS'HIS-LEU'
p265
F-0.89700000000000002
sS'LEU-ARG'
p266
F-1.181
sS'GLY-VAL'
p267
F-1.25
sS'GLN-ASN'
p268
F-1.3049999999999999
sS'TYR-ARG'
p269
F-1.5029999999999999
sS'PRO-TYR'
p270
F-1.327
sS'ASP-PHE'
p271
F-0.86799999999999999
sS'TRP-CYS'
p272
F-0.25600000000000001
sS'ASN-LEU'
p273
F-0.90100000000000002
sS'SER-MET'
p274
F-0.495
sS'HIS-ILE'
p275
F-0.77600000000000002
sS'SER-TYR'
p276
F-1.234
sS'MET-TYR'
p277
F-0.97199999999999998
sS'GLU-ILE'
p278
F-0.77700000000000002
sS'PHE-CYS'
p279
F-0.501
sS'PRO-LEU'
p280
F-0.82599999999999996
sS'GLY-MET'
p281
F-1.0840000000000001
sS'ARG-ILE'
p282
F-1.0740000000000001
sS'HIS-THR'
p283
F-1.028
sS'THR-GLN'
p284
F-1.204
sS'TRP-THR'
p285
F-0.82799999999999996
sS'LYS-LEU'
p286
F-0.80000000000000004
sS'THR-GLY'
p287
F-1.5609999999999999
sS'ASP-TRP'
p288
F-0.93500000000000005
sS'TYR-MET'
p289
F-0.84999999999999998
sS'PHE-ILE'
p290
F-0.91000000000000003
sS'PRO-VAL'
p291
F-0.629
sS'MET-ASN'
p292
F-0.752
sS'LEU-TYR'
p293
F-1.0800000000000001
sS'PHE-PHE'
p294
F-2.198
sS'CYS-PHE'
p295
F-0.46800000000000003
sS'TRP-ILE'
p296
F-0.752
sS'PRO-ASN'
p297
F-1.202
sS'CYS-CYS'
p298
F-2.7709999999999999
sS'SER-ASP'
p299
F-0.98199999999999998
sS'ARG-MET'
p300
F-0.96599999999999997
sS'SER-PHE'
p301
F-0.89200000000000002
sS'SER-SER'
p302
F-1.901
sS'ASN-LYS'
p303
F-1.2829999999999999
sS'CYS-THR'
p304
F-0.33000000000000002
sS'ILE-TRP'
p305
F-0.629
sS'PRO-ASP'
p306
F-1.073
sS'THR-ASP'
p307
F-0.91500000000000004
sS'SER-CYS'
p308
F-0.374
sS'MET-ASP'
p309
F-0.53100000000000003
sS'GLN-MET'
p310
F-0.68100000000000005
sS'MET-TRP'
p311
F-0.49299999999999999
sS'ARG-VAL'
p312
F-1.0900000000000001
sS'GLY-GLN'
p313
F-1.6080000000000001
sS'THR-LYS'
p314
F-0.90000000000000002
sS'TRP-MET'
p315
F-0.53200000000000003
sS'ARG-ARG'
p316
F-2.6669999999999998
sS'ILE-ASP'
p317
F-0.66300000000000003
sS'ALA-ARG'
p318
F-1.1910000000000001
sS'GLY-GLU'
p319
F-1.421
sS'ASN-TRP'
p320
F-1.032
sS'GLU-ARG'
p321
F-1.6060000000000001
sS'HIS-VAL'
p322
F-0.71999999999999997
sS'VAL-ARG'
p323
F-1.022
sS'ASN-SER'
p324
F-1.149
sS'ALA-LYS'
p325
F-0.73599999999999999
sS'VAL-GLN'
p326
F-0.79800000000000004
sS'TRP-ASN'
p327
F-1.115
sS'TYR-ILE'
p328
F-1.0349999999999999
sS'TRP-GLY'
p329
F-1.216
sS'PRO-PHE'
p330
F-1.0309999999999999
sS'GLY-HIS'
p331
F-1.4119999999999999
sS'PHE-SER'
p332
F-0.90900000000000003
sS'TRP-ASP'
p333
F-0.88
sS'TRP-GLN'
p334
F-1.292
sS'LEU-ALA'
p335
F-0.59999999999999998
sS'VAL-GLU'
p336
F-0.76100000000000001
sS'ALA-HIS'
p337
F-0.92300000000000004
sS'ARG-ASN'
p338
F-1.538
sS'LEU-THR'
p339
F-0.71899999999999997
sS'TYR-CYS'
p340
F-0.81399999999999995
sS'THR-THR'
p341
F-1.889
sS'THR-LEU'
p342
F-0.72099999999999997
sS'VAL-ASN'
p343
F-0.77700000000000002
sS'LEU-TRP'
p344
F-0.97399999999999998
sS'GLU-ASP'
p345
F-1.056
sS'ILE-SER'
p346
F-0.66200000000000003
sS'ILE-ARG'
p347
F-1.0649999999999999
sS'TRP-GLU'
p348
F-0.99099999999999999
sS'ILE-MET'
p349
F-0.49399999999999999
sS'MET-PHE'
p350
F-0.74399999999999999
sS'PRO-ALA'
p351
F-0.74399999999999999
sS'PRO-GLY'
p352
F-1.597
sS'GLN-THR'
p353
F-1.1100000000000001
sS'MET-ALA'
p354
F-0.34399999999999997
sS'TRP-SER'
p355
F-0.91100000000000003
sS'ASP-HIS'
p356
F-1.1779999999999999
sS'ARG-SER'
p357
F-1.3720000000000001
sS'GLN-HIS'
p358
F-1.2529999999999999
sS'HIS-PHE'
p359
F-0.996
sS'LEU-LEU'
p360
F-1.768
sS'ALA-GLN'
p361
F-0.92400000000000004
sS'ASP-ASN'
p362
F-1.123
sS'SER-VAL'
p363
F-0.56599999999999995
sS'MET-ILE'
p364
F-0.51200000000000001
sS'ALA-PRO'
p365
F-0.65900000000000003
sS'ASP-ASP'
p366
F-1.9370000000000001
sS'ALA-GLY'
p367
F-1.8300000000000001
sS'TRP-TRP'
p368
F-2.6219999999999999
sS'MET-CYS'
p369
F0.19
sS'ALA-GLU'
p370
F-0.75600000000000001
sS'THR-PRO'
p371
F-0.95499999999999996
sS'HIS-ALA'
p372
F-0.79200000000000004
sS'GLN-ILE'
p373
F-0.93100000000000005
sS'GLU-VAL'
p374
F-0.73199999999999998
sS'LYS-ASN'
p375
F-1.232
sS'ASN-ALA'
p376
F-0.77800000000000002
sS'THR-ILE'
p377
F-0.72299999999999998
sS'ASP-CYS'
p378
F-0.36199999999999999
sS'PRO-LYS'
p379
F-1.0720000000000001
sS'TYR-TYR'
p380
F-2.4889999999999999
sS'ARG-LYS'
p381
F-1.3080000000000001
sS'ILE-ALA'
p382
F-0.47699999999999998
sS'ASP-SER'
p383
F-0.99099999999999999
sS'CYS-LYS'
p384
F-0.372
sS'GLU-ALA'
p385
F-0.78200000000000003
sS'PHE-GLU'
p386
F-0.96999999999999997
sS'GLU-LEU'
p387
F-0.83999999999999997
sS'PHE-GLY'
p388
F-1.1719999999999999
sS'LYS-HIS'
p389
F-1.1100000000000001
sS'HIS-PRO'
p390
F-1.0860000000000001
sS'ILE-ILE'
p391
F-1.714
sS'MET-HIS'
p392
F-0.78000000000000003
sS'VAL-GLY'
p393
F-1.1890000000000001
sS'THR-MET'
p394
F-0.55600000000000005
sS'PHE-THR'
p395
F-0.91300000000000003
sS'VAL-TRP'
p396
F-0.72599999999999998
sS'PHE-LYS'
p397
F-0.95299999999999996
sS'GLY-PRO'
p398
F-1.665
sS'PHE-GLN'
p399
F-1.069
sS'LEU-PHE'
p400
F-0.91900000000000004
s.