(dp1
S'MET-MET'
p2
F-1.0149999999999999
sS'PRO-ILE'
p3
F-0.055
sS'TYR-LYS'
p4
F-0.38900000000000001
sS'VAL-ASP'
p5
F0.11799999999999999
sS'ASP-GLN'
p6
F-0.42699999999999999
sS'HIS-TYR'
p7
F-0.55400000000000005
sS'ASP-GLU'
p8
F-0.245
sS'ALA-ASP'
p9
F0.086999999999999994
sS'ASP-GLY'
p10
F-0.36499999999999999
sS'LEU-VAL'
p11
F0.078
sS'TRP-TYR'
p12
F-0.16500000000000001
sS'GLN-TRP'
p13
F-0.41899999999999998
sS'TRP-PHE'
p14
F-0.16400000000000001
sS'ARG-TYR'
p15
F-0.67400000000000004
sS'GLU-LYS'
p16
F-0.60399999999999998
sS'ILE-HIS'
p17
F0.029999999999999999
sS'LEU-MET'
p18
F0.193
sS'GLU-HIS'
p19
F-0.54200000000000004
sS'GLY-THR'
p20
F-0.42299999999999999
sS'ARG-GLU'
p21
F-0.77100000000000002
sS'PHE-ASN'
p22
F-0.20999999999999999
sS'ASN-MET'
p23
F0.052999999999999999
sS'PRO-THR'
p24
F-0.48499999999999999
sS'TYR-GLN'
p25
F-0.48999999999999999
sS'ARG-GLY'
p26
F-0.873
sS'VAL-THR'
p27
F0.059999999999999998
sS'ASP-ILE'
p28
F0.155
sS'THR-HIS'
p29
F-0.23899999999999999
sS'TYR-GLU'
p30
F-0.502
sS'ARG-GLN'
p31
F-0.69799999999999995
sS'TYR-GLY'
p32
F-0.52800000000000002
sS'PHE-ASP'
p33
F-0.092999999999999999
sS'CYS-ARG'
p34
F-0.16900000000000001
sS'GLY-ASN'
p35
F-0.73399999999999999
sS'VAL-LYS'
p36
F0.14599999999999999
sS'LEU-ILE'
p37
F0.010999999999999999
sS'GLN-LEU'
p38
F-0.223
sS'GLU-MET'
p39
F0.14399999999999999
sS'ASP-THR'
p40
F-0.23599999999999999
sS'ASN-PHE'
p41
F-0.23899999999999999
sS'GLU-PRO'
p42
F-0.51500000000000001
sS'TYR-LEU'
p43
F-0.30399999999999999
sS'LYS-ARG'
p44
F-0.28599999999999998
sS'GLY-ASP'
p45
F-0.42999999999999999
sS'PRO-GLN'
p46
F-0.55800000000000005
sS'CYS-MET'
p47
F0.501
sS'HIS-ARG'
p48
F-0.51000000000000001
sS'GLU-THR'
p49
F-0.24299999999999999
sS'ILE-THR'
p50
F0.125
sS'SER-PRO'
p51
F-0.39000000000000001
sS'GLY-CYS'
p52
F-0.17499999999999999
sS'ARG-LEU'
p53
F-0.36199999999999999
sS'PRO-GLU'
p54
F-0.44400000000000001
sS'ASP-LEU'
p55
F0.14199999999999999
sS'PHE-VAL'
p56
F0.0080000000000000002
sS'ASN-VAL'
p57
F-0.012
sS'ALA-MET'
p58
F0.35799999999999998
sS'LEU-PRO'
p59
F-0.067000000000000004
sS'LEU-SER'
p60
F0.051999999999999998
sS'ASN-ARG'
p61
F-0.66200000000000003
sS'SER-THR'
p62
F-0.104
sS'LYS-VAL'
p63
F0.083000000000000004
sS'LYS-GLN'
p64
F-0.34799999999999998
sS'GLN-VAL'
p65
F0.042999999999999997
sS'TYR-PHE'
p66
F-0.27900000000000003
sS'ASP-VAL'
p67
F0.16400000000000001
sS'ASN-GLY'
p68
F-0.68100000000000005
sS'ARG-PHE'
p69
F-0.437
sS'SER-HIS'
p70
F-0.38100000000000001
sS'ALA-ILE'
p71
F0.14799999999999999
sS'ASN-GLU'
p72
F-0.54600000000000004
sS'CYS-GLN'
p73
F0.14099999999999999
sS'TYR-PRO'
p74
F-0.65900000000000003
sS'LYS-GLU'
p75
F-0.56899999999999995
sS'CYS-GLU'
p76
F0.52000000000000002
sS'ASN-GLN'
p77
F-0.57799999999999996
sS'CYS-GLY'
p78
F0.058999999999999997
sS'GLN-SER'
p79
F-0.58999999999999997
sS'HIS-LYS'
p80
F-0.26800000000000002
sS'LYS-GLY'
p81
F-0.53300000000000003
sS'VAL-MET'
p82
F0.189
sS'GLU-GLY'
p83
F-0.439
sS'THR-SER'
p84
F-0.074999999999999997
sS'TYR-THR'
p85
F-0.45200000000000001
sS'PRO-PRO'
p86
F-0.94099999999999995
sS'ILE-PHE'
p87
F-0.17100000000000001
sS'PHE-LEU'
p88
F-0.129
sS'GLU-GLU'
p89
F-0.51000000000000001
sS'SER-ARG'
p90
F-0.59799999999999998
sS'GLY-ALA'
p91
F-0.34100000000000003
sS'TYR-ASN'
p92
F-0.60299999999999998
sS'GLU-GLN'
p93
F-0.47799999999999998
sS'TRP-ARG'
p94
F-0.46200000000000002
sS'LEU-GLU'
p95
F0.10100000000000001
sS'LEU-GLY'
p96
F0.001
sS'LYS-SER'
p97
F-0.248
sS'MET-VAL'
p98
F0.25900000000000001
sS'SER-ALA'
p99
F0.070000000000000007
sS'PRO-HIS'
p100
F-0.56499999999999995
sS'MET-THR'
p101
F0.151
sS'ALA-PHE'
p102
F-0.128
sS'MET-PRO'
p103
F0.056000000000000001
sS'GLY-SER'
p104
F-0.497
sS'LEU-GLN'
p105
F-0.161
sS'VAL-LEU'
p106
F0.076999999999999999
sS'LEU-CYS'
p107
F0.38
sS'LYS-TYR'
p108
F-0.372
sS'ASP-ALA'
p109
F0.161
sS'ILE-LEU'
p110
F-0.076999999999999999
sS'TRP-VAL'
p111
F-0.065000000000000002
sS'PHE-PRO'
p112
F-0.442
sS'ALA-ALA'
p113
F-0.19500000000000001
sS'ARG-TRP'
p114
F-0.54700000000000004
sS'MET-GLN'
p115
F-0.16900000000000001
sS'ILE-LYS'
p116
F0.108
sS'MET-ARG'
p117
F-0.02
sS'ALA-CYS'
p118
F0.67800000000000005
sS'THR-ARG'
p119
F-0.313
sS'CYS-ILE'
p120
F0.56999999999999995
sS'LEU-ASN'
p121
F-0.107
sS'LEU-ASP'
p122
F0.159
sS'PHE-TRP'
p123
F-0.224
sS'MET-GLY'
p124
F0.085000000000000006
sS'THR-PHE'
p125
F-0.23899999999999999
sS'MET-GLU'
p126
F0.28499999999999998
sS'THR-TRP'
p127
F-0.028000000000000001
sS'THR-TYR'
p128
F-0.443
sS'CYS-VAL'
p129
F0.51000000000000001
sS'ARG-ALA'
p130
F-0.30099999999999999
sS'ALA-TYR'
p131
F-0.312
sS'ASP-PRO'
p132
F-0.47699999999999998
sS'ARG-CYS'
p133
F-0.16900000000000001
sS'GLN-ARG'
p134
F-0.61699999999999999
sS'HIS-TRP'
p135
F-0.13300000000000001
sS'PRO-SER'
p136
F-0.27200000000000002
sS'VAL-VAL'
p137
F-0.40100000000000002
sS'LEU-LYS'
p138
F0.088999999999999996
sS'GLY-LYS'
p139
F-0.57499999999999996
sS'CYS-ASN'
p140
F0.058999999999999997
sS'GLY-TRP'
p141
F-0.27400000000000002
sS'THR-CYS'
p142
F0.34000000000000002
sS'LYS-LYS'
p143
F-0.32200000000000001
sS'CYS-ASP'
p144
F0.52400000000000002
sS'TYR-ASP'
p145
F-0.46300000000000002
sS'VAL-PRO'
p146
F0.0070000000000000001
sS'THR-VAL'
p147
F0.069000000000000006
sS'ASP-TYR'
p148
F-0.42199999999999999
sS'PRO-CYS'
p149
F0.070000000000000007
sS'VAL-SER'
p150
F0.20100000000000001
sS'ARG-HIS'
p151
F-0.64700000000000002
sS'CYS-PRO'
p152
F0.032000000000000001
sS'MET-LYS'
p153
F0.0089999999999999993
sS'ALA-SER'
p154
F0.10299999999999999
sS'TYR-SER'
p155
F-0.435
sS'GLY-ARG'
p156
F-0.77300000000000002
sS'GLN-ALA'
p157
F-0.14299999999999999
sS'MET-LEU'
p158
F0.14699999999999999
sS'ASN-HIS'
p159
F-0.51100000000000001
sS'VAL-CYS'
p160
F0.63100000000000001
sS'GLN-TYR'
p161
F-0.57999999999999996
sS'GLN-PHE'
p162
F-0.30199999999999999
sS'ILE-ASN'
p163
F-0.0060000000000000001
sS'GLU-ASN'
p164
F-0.53100000000000003
sS'CYS-ALA'
p165
F0.58599999999999997
sS'ASN-ASP'
p166
F-0.433
sS'ASN-PRO'
p167
F-0.68000000000000005
sS'PRO-ARG'
p168
F-0.59499999999999997
sS'LYS-TRP'
p169
F-0.090999999999999998
sS'ASN-ASN'
p170
F-1.2250000000000001
sS'ASN-THR'
p171
F-0.45600000000000002
sS'THR-ALA'
p172
F0.17299999999999999
sS'LYS-ALA'
p173
F0.17000000000000001
sS'LYS-PRO'
p174
F-0.25
sS'SER-GLN'
p175
F-0.55600000000000005
sS'ILE-VAL'
p176
F0.10199999999999999
sS'ASP-ARG'
p177
F-0.86199999999999999
sS'ASP-MET'
p178
F0.23100000000000001
sS'CYS-TYR'
p179
F-0.26300000000000001
sS'PRO-TRP'
p180
F-0.45500000000000002
sS'THR-GLU'
p181
F-0.27600000000000002
sS'TRP-ALA'
p182
F-0.191
sS'ILE-CYS'
p183
F0.48899999999999999
sS'LYS-ILE'
p184
F0.19800000000000001
sS'GLN-CYS'
p185
F0.16600000000000001
sS'TYR-ALA'
p186
F-0.314
sS'ARG-ASP'
p187
F-0.98599999999999999
sS'SER-GLU'
p188
F-0.36399999999999999
sS'TRP-HIS'
p189
F-0.29799999999999999
sS'ALA-ASN'
p190
F-0.055
sS'GLU-CYS'
p191
F0.504
sS'PRO-MET'
p192
F0.11600000000000001
sS'TYR-HIS'
p193
F-0.55500000000000005
sS'PHE-MET'
p194
F-0.221
sS'GLU-TYR'
p195
F-0.40200000000000002
sS'SER-TRP'
p196
F-0.159
sS'PHE-ARG'
p197
F-0.32600000000000001
sS'GLY-ILE'
p198
F0.10199999999999999
sS'TYR-VAL'
p199
F-0.104
sS'ASN-TYR'
p200
F-0.56100000000000005
sS'SER-ILE'
p201
F0.042000000000000003
sS'GLN-PRO'
p202
F-0.64000000000000001
sS'PHE-TYR'
p203
F-0.35999999999999999
sS'ALA-VAL'
p204
F0.26200000000000001
sS'HIS-HIS'
p205
F-1.6879999999999999
sS'THR-ASN'
p206
F-0.36399999999999999
sS'CYS-LEU'
p207
F0.46000000000000002
sS'LYS-MET'
p208
F0.123
sS'LYS-ASP'
p209
F-0.55400000000000005
sS'HIS-ASN'
p210
F-0.504
sS'ILE-GLN'
p211
F-0.114
sS'VAL-HIS'
p212
F-0.078
sS'ALA-LEU'
p213
F0.075999999999999998
sS'HIS-ASP'
p214
F-0.44600000000000001
sS'ILE-TYR'
p215
F-0.39100000000000001
sS'ILE-GLU'
p216
F0.069000000000000006
sS'ILE-GLY'
p217
F0.071999999999999995
sS'ASN-CYS'
p218
F-0.029999999999999999
sS'GLU-SER'
p219
F-0.38
sS'ALA-TRP'
p220
F-0.17799999999999999
sS'HIS-CYS'
p221
F0.33300000000000002
sS'HIS-MET'
p222
F0.076999999999999999
sS'ILE-PRO'
p223
F-0.112
sS'LYS-PHE'
p224
F0.097000000000000003
sS'TRP-PRO'
p225
F-0.252
sS'GLU-TRP'
p226
F-0.113
sS'PHE-HIS'
p227
F-0.121
sS'GLY-TYR'
p228
F-0.58199999999999996
sS'SER-GLY'
p229
F-0.53600000000000003
sS'CYS-TRP'
p230
F0.56000000000000005
sS'ASP-LYS'
p231
F-0.50700000000000001
sS'ASN-ILE'
p232
F-0.059999999999999998
sS'HIS-SER'
p233
F-0.46600000000000003
sS'LYS-CYS'
p234
F0.35399999999999998
sS'GLY-PHE'
p235
F-0.128
sS'GLY-LEU'
p236
F-0.073999999999999996
sS'MET-SER'
p237
F0.070000000000000007
sS'VAL-ALA'
p238
F0.29199999999999998
sS'SER-LEU'
p239
F0.087999999999999995
sS'TRP-LYS'
p240
F-0.20799999999999999
sS'VAL-TYR'
p241
F-0.059999999999999998
sS'VAL-PHE'
p242
F-0.063
sS'ARG-THR'
p243
F-0.50800000000000001
sS'TYR-TRP'
p244
F-0.309
sS'GLN-GLN'
p245
F-1.26
sS'GLU-PHE'
p246
F-0.11799999999999999
sS'VAL-ILE'
p247
F0.098000000000000004
sS'HIS-GLN'
p248
F-0.41999999999999998
sS'GLN-GLY'
p249
F-0.66000000000000003
sS'PHE-ALA'
p250
F-0.088999999999999996
sS'HIS-GLU'
p251
F-0.48899999999999999
sS'ARG-PRO'
p252
F-0.75800000000000001
sS'HIS-GLY'
p253
F-0.379
sS'SER-ASN'
p254
F-0.443
sS'ALA-THR'
p255
F0.16600000000000001
sS'GLN-GLU'
p256
F-0.42399999999999999
sS'GLN-LYS'
p257
F-0.44
sS'CYS-HIS'
p258
F0.33600000000000002
sS'GLN-ASP'
p259
F-0.53900000000000003
sS'LEU-HIS'
p260
F-0.16
sS'SER-LYS'
p261
F-0.23799999999999999
sS'TRP-LEU'
p262
F-0.17899999999999999
sS'CYS-SER'
p263
F0.28999999999999998
sS'LYS-THR'
p264
F-0.107
sS'HIS-LEU'
p265
F-0.087999999999999995
sS'LEU-ARG'
p266
F-0.30499999999999999
sS'GLY-VAL'
p267
F-0.10100000000000001
sS'GLN-ASN'
p268
F-0.501
sS'TYR-ARG'
p269
F-0.627
sS'PRO-TYR'
p270
F-0.68799999999999994
sS'ASP-PHE'
p271
F-0.014
sS'TRP-CYS'
p272
F0.51600000000000001
sS'ASN-LEU'
p273
F-0.12
sS'SER-MET'
p274
F0.19500000000000001
sS'HIS-ILE'
p275
F-0.051999999999999998
sS'SER-TYR'
p276
F-0.45700000000000002
sS'MET-TYR'
p277
F-0.255
sS'GLU-ILE'
p278
F0.0060000000000000001
sS'PHE-CYS'
p279
F0.155
sS'PRO-LEU'
p280
F-0.188
sS'GLY-MET'
p281
F0.062
sS'ARG-ILE'
p282
F-0.153
sS'HIS-THR'
p283
F-0.36599999999999999
sS'THR-GLN'
p284
F-0.52000000000000002
sS'TRP-THR'
p285
F-0.23599999999999999
sS'LYS-LEU'
p286
F0.152
sS'THR-GLY'
p287
F-0.44400000000000001
sS'ASP-TRP'
p288
F-0.036999999999999998
sS'TYR-MET'
p289
F-0.23300000000000001
sS'PHE-ILE'
p290
F-0.20100000000000001
sS'PRO-VAL'
p291
F0.058000000000000003
sS'MET-ASN'
p292
F-0.021000000000000001
sS'LEU-TYR'
p293
F-0.27100000000000002
sS'PHE-PHE'
p294
F-0.877
sS'CYS-PHE'
p295
F0.22900000000000001
sS'TRP-ILE'
p296
F-0.042000000000000003
sS'PRO-ASN'
p297
F-0.61599999999999999
sS'CYS-CYS'
p298
F-2.2589999999999999
sS'SER-ASP'
p299
F-0.216
sS'ARG-MET'
p300
F-0.014999999999999999
sS'SER-PHE'
p301
F-0.129
sS'SER-SER'
p302
F-0.71499999999999997
sS'ASN-LYS'
p303
F-0.51100000000000001
sS'CYS-THR'
p304
F0.52000000000000002
sS'ILE-TRP'
p305
F-0.012
sS'PRO-ASP'
p306
F-0.42799999999999999
sS'THR-ASP'
p307
F-0.224
sS'SER-CYS'
p308
F0.35999999999999999
sS'MET-ASP'
p309
F0.033000000000000002
sS'GLN-MET'
p310
F0.0080000000000000002
sS'MET-TRP'
p311
F0.24299999999999999
sS'ARG-VAL'
p312
F-0.20000000000000001
sS'GLY-GLN'
p313
F-0.65100000000000002
sS'THR-LYS'
p314
F-0.066000000000000003
sS'TRP-MET'
p315
F0.30399999999999999
sS'ARG-ARG'
p316
F-1.0760000000000001
sS'ILE-ASP'
p317
F0.123
sS'ALA-ARG'
p318
F-0.35399999999999998
sS'GLY-GLU'
p319
F-0.379
sS'ASN-TRP'
p320
F-0.246
sS'GLU-ARG'
p321
F-0.753
sS'HIS-VAL'
p322
F-0.059999999999999998
sS'VAL-ARG'
p323
F-0.154
sS'ASN-SER'
p324
F-0.48299999999999998
sS'ALA-LYS'
p325
F0.10199999999999999
sS'VAL-GLN'
p326
F-0.066000000000000003
sS'TRP-ASN'
p327
F-0.40100000000000002
sS'TYR-ILE'
p328
F-0.33500000000000002
sS'TRP-GLY'
p329
F-0.28100000000000003
sS'PRO-PHE'
p330
F-0.43099999999999999
sS'GLY-HIS'
p331
F-0.48399999999999999
sS'PHE-SER'
p332
F-0.20499999999999999
sS'TRP-ASP'
p333
F0.056000000000000001
sS'TRP-GLN'
p334
F-0.54400000000000004
sS'LEU-ALA'
p335
F0.17499999999999999
sS'VAL-GLU'
p336
F0.080000000000000002
sS'ALA-HIS'
p337
F-0.29499999999999998
sS'ARG-ASN'
p338
F-0.67100000000000004
sS'LEU-THR'
p339
F0.075999999999999998
sS'TYR-CYS'
p340
F0.035999999999999997
sS'THR-THR'
p341
F-0.65600000000000003
sS'THR-LEU'
p342
F0.025999999999999999
sS'VAL-ASN'
p343
F-0.050999999999999997
sS'LEU-TRP'
p344
F-0.186
sS'GLU-ASP'
p345
F-0.248
sS'ILE-SER'
p346
F0.064000000000000001
sS'ILE-ARG'
p347
F-0.126
sS'TRP-GLU'
p348
F-0.12
sS'ILE-MET'
p349
F0.20100000000000001
sS'MET-PHE'
p350
F-0.221
sS'PRO-ALA'
p351
F-0.214
sS'PRO-GLY'
p352
F-0.501
sS'GLN-THR'
p353
F-0.38800000000000001
sS'MET-ALA'
p354
F0.48499999999999999
sS'TRP-SER'
p355
F-0.189
sS'ASP-HIS'
p356
F-0.50800000000000001
sS'ARG-SER'
p357
F-0.55500000000000005
sS'GLN-HIS'
p358
F-0.58499999999999996
sS'HIS-PHE'
p359
F-0.23599999999999999
sS'LEU-LEU'
p360
F-0.33700000000000002
sS'ALA-GLN'
p361
F-0.19900000000000001
sS'ASP-ASN'
p362
F-0.433
sS'SER-VAL'
p363
F0.13900000000000001
sS'MET-ILE'
p364
F0.35199999999999998
sS'ALA-PRO'
p365
F0.031
sS'ASP-ASP'
p366
F-0.51500000000000001
sS'ALA-GLY'
p367
F-0.24199999999999999
sS'TRP-TRP'
p368
F-1.4039999999999999
sS'MET-CYS'
p369
F0.77200000000000002
sS'ALA-GLU'
p370
F0.034000000000000002
sS'THR-PRO'
p371
F-0.41299999999999998
sS'HIS-ALA'
p372
F-0.023
sS'GLN-ILE'
p373
F-0.27200000000000002
sS'GLU-VAL'
p374
F0.10100000000000001
sS'LYS-ASN'
p375
F-0.434
sS'ASN-ALA'
p376
F-0.053999999999999999
sS'THR-ILE'
p377
F0.069000000000000006
sS'ASP-CYS'
p378
F0.46600000000000003
sS'PRO-LYS'
p379
F-0.34999999999999998
sS'TYR-TYR'
p380
F-1.1339999999999999
sS'ARG-LYS'
p381
F-0.307
sS'ILE-ALA'
p382
F0.23799999999999999
sS'ASP-SER'
p383
F-0.28000000000000003
sS'CYS-LYS'
p384
F0.51400000000000001
sS'GLU-ALA'
p385
F0.012999999999999999
sS'PHE-GLU'
p386
F-0.084000000000000005
sS'GLU-LEU'
p387
F0.048000000000000001
sS'PHE-GLY'
p388
F-0.19800000000000001
sS'LYS-HIS'
p389
F-0.24199999999999999
sS'HIS-PRO'
p390
F-0.48799999999999999
sS'ILE-ILE'
p391
F-0.442
sS'MET-HIS'
p392
F0.055
sS'VAL-GLY'
p393
F-0.0080000000000000002
sS'THR-MET'
p394
F0.20499999999999999
sS'PHE-THR'
p395
F-0.22700000000000001
sS'VAL-TRP'
p396
F-0.0080000000000000002
sS'PHE-LYS'
p397
F-0.025000000000000001
sS'GLY-PRO'
p398
F-0.57299999999999995
sS'PHE-GLN'
p399
F-0.28999999999999998
sS'LEU-PHE'
p400
F-0.185
s.