(dp1
S'MET-MET'
p2
F-0.78300000000000003
sS'PRO-ILE'
p3
F0.158
sS'TYR-LYS'
p4
F-0.092999999999999999
sS'VAL-ASP'
p5
F0.35799999999999998
sS'ASP-GLN'
p6
F-0.22600000000000001
sS'HIS-TYR'
p7
F-0.249
sS'ASP-GLU'
p8
F-0.027
sS'ALA-ASP'
p9
F0.253
sS'ASP-GLY'
p10
F-0.35599999999999998
sS'LEU-VAL'
p11
F0.252
sS'TRP-TYR'
p12
F0.161
sS'GLN-TRP'
p13
F-0.029000000000000001
sS'TRP-PHE'
p14
F0.24399999999999999
sS'ARG-TYR'
p15
F-0.40300000000000002
sS'GLU-LYS'
p16
F-0.40000000000000002
sS'ILE-HIS'
p17
F0.155
sS'LEU-MET'
p18
F0.39500000000000002
sS'GLU-HIS'
p19
F-0.31
sS'GLY-THR'
p20
F-0.379
sS'ARG-GLU'
p21
F-0.63600000000000001
sS'PHE-ASN'
p22
F-0.010999999999999999
sS'ASN-MET'
p23
F0.26700000000000002
sS'PRO-THR'
p24
F-0.217
sS'TYR-GLN'
p25
F-0.20399999999999999
sS'ARG-GLY'
p26
F-0.73699999999999999
sS'VAL-THR'
p27
F0.25900000000000001
sS'ASP-ILE'
p28
F0.36299999999999999
sS'THR-HIS'
p29
F-0.097000000000000003
sS'TYR-GLU'
p30
F-0.184
sS'ARG-GLN'
p31
F-0.433
sS'TYR-GLY'
p32
F-0.41499999999999998
sS'PHE-ASP'
p33
F0.17399999999999999
sS'CYS-ARG'
p34
F0.059999999999999998
sS'GLY-ASN'
p35
F-0.64500000000000002
sS'VAL-LYS'
p36
F0.36499999999999999
sS'LEU-ILE'
p37
F0.20300000000000001
sS'GLN-LEU'
p38
F0.0040000000000000001
sS'GLU-MET'
p39
F0.40600000000000003
sS'ASP-THR'
p40
F-0.052999999999999999
sS'ASN-PHE'
p41
F0.02
sS'GLU-PRO'
p42
F-0.26900000000000002
sS'TYR-LEU'
p43
F-0.070000000000000007
sS'LYS-ARG'
p44
F-0.0089999999999999993
sS'GLY-ASP'
p45
F-0.41199999999999998
sS'PRO-GLN'
p46
F-0.375
sS'CYS-MET'
p47
F0.93100000000000005
sS'HIS-ARG'
p48
F-0.24199999999999999
sS'GLU-THR'
p49
F-0.14099999999999999
sS'ILE-THR'
p50
F0.24199999999999999
sS'SER-PRO'
p51
F-0.157
sS'GLY-CYS'
p52
F-0.051999999999999998
sS'ARG-LEU'
p53
F-0.13400000000000001
sS'PRO-GLU'
p54
F-0.19700000000000001
sS'ASP-LEU'
p55
F0.28299999999999997
sS'PHE-VAL'
p56
F0.14499999999999999
sS'ASN-VAL'
p57
F0.14599999999999999
sS'ALA-MET'
p58
F0.59599999999999997
sS'LEU-PRO'
p59
F0.052999999999999999
sS'LEU-SER'
p60
F0.21299999999999999
sS'ASN-ARG'
p61
F-0.46500000000000002
sS'SER-THR'
p62
F-0.02
sS'LYS-VAL'
p63
F0.30199999999999999
sS'LYS-GLN'
p64
F-0.17799999999999999
sS'GLN-VAL'
p65
F0.078
sS'TYR-PHE'
p66
F-0.019
sS'ASP-VAL'
p67
F0.33500000000000002
sS'ASN-GLY'
p68
F-0.60899999999999999
sS'ARG-PHE'
p69
F-0.16800000000000001
sS'SER-HIS'
p70
F-0.17699999999999999
sS'ALA-ILE'
p71
F0.42199999999999999
sS'ASN-GLU'
p72
F-0.36399999999999999
sS'CYS-GLN'
p73
F0.44600000000000001
sS'TYR-PRO'
p74
F-0.42099999999999999
sS'LYS-GLU'
p75
F-0.39700000000000002
sS'CYS-GLU'
p76
F0.75900000000000001
sS'ASN-GLN'
p77
F-0.46400000000000002
sS'CYS-GLY'
p78
F0.091999999999999998
sS'GLN-SER'
p79
F-0.30199999999999999
sS'HIS-LYS'
p80
F0.029999999999999999
sS'LYS-GLY'
p81
F-0.42999999999999999
sS'VAL-MET'
p82
F0.55000000000000004
sS'GLU-GLY'
p83
F-0.40500000000000003
sS'THR-SER'
p84
F-0.034000000000000002
sS'TYR-THR'
p85
F-0.097000000000000003
sS'PRO-PRO'
p86
F-0.77800000000000002
sS'ILE-PHE'
p87
F0.10199999999999999
sS'PHE-LEU'
p88
F0.083000000000000004
sS'GLU-GLU'
p89
F-0.51200000000000001
sS'SER-ARG'
p90
F-0.39200000000000002
sS'GLY-ALA'
p91
F-0.29799999999999999
sS'TYR-ASN'
p92
F-0.33600000000000002
sS'GLU-GLN'
p93
F-0.20000000000000001
sS'TRP-ARG'
p94
F-0.13100000000000001
sS'LEU-GLU'
p95
F0.217
sS'LEU-GLY'
p96
F0.001
sS'LYS-SER'
p97
F-0.071999999999999995
sS'MET-VAL'
p98
F0.55400000000000005
sS'SER-ALA'
p99
F0.20699999999999999
sS'PRO-HIS'
p100
F-0.29899999999999999
sS'MET-THR'
p101
F0.34499999999999997
sS'ALA-PHE'
p102
F0.13300000000000001
sS'MET-PRO'
p103
F0.36099999999999999
sS'GLY-SER'
p104
F-0.45300000000000001
sS'LEU-GLN'
p105
F0.02
sS'VAL-LEU'
p106
F0.19800000000000001
sS'LEU-CYS'
p107
F0.67200000000000004
sS'LYS-TYR'
p108
F-0.080000000000000002
sS'ASP-ALA'
p109
F0.27100000000000002
sS'ILE-LEU'
p110
F0.16400000000000001
sS'TRP-VAL'
p111
F0.372
sS'PHE-PRO'
p112
F-0.19400000000000001
sS'ALA-ALA'
p113
F-0.055
sS'ARG-TRP'
p114
F-0.187
sS'MET-GLN'
p115
F0.154
sS'ILE-LYS'
p116
F0.41999999999999998
sS'MET-ARG'
p117
F0.20999999999999999
sS'ALA-CYS'
p118
F0.88200000000000001
sS'THR-ARG'
p119
F-0.253
sS'CYS-ILE'
p120
F0.78600000000000003
sS'LEU-ASN'
p121
F0.066000000000000003
sS'LEU-ASP'
p122
F0.29699999999999999
sS'PHE-TRP'
p123
F0.222
sS'MET-GLY'
p124
F0.086999999999999994
sS'THR-PHE'
p125
F0.017000000000000001
sS'MET-GLU'
p126
F0.40400000000000003
sS'THR-TRP'
p127
F0.19500000000000001
sS'THR-TYR'
p128
F-0.13
sS'CYS-VAL'
p129
F0.82199999999999995
sS'ARG-ALA'
p130
F-0.14000000000000001
sS'ALA-TYR'
p131
F-0.085999999999999993
sS'ASP-PRO'
p132
F-0.22900000000000001
sS'ARG-CYS'
p133
F0.187
sS'GLN-ARG'
p134
F-0.42899999999999999
sS'HIS-TRP'
p135
F0.14599999999999999
sS'PRO-SER'
p136
F-0.14299999999999999
sS'VAL-VAL'
p137
F-0.193
sS'LEU-LYS'
p138
F0.29899999999999999
sS'GLY-LYS'
p139
F-0.47199999999999998
sS'CYS-ASN'
p140
F0.307
sS'GLY-TRP'
p141
F-0.13
sS'THR-CYS'
p142
F0.58999999999999997
sS'LYS-LYS'
p143
F-0.19900000000000001
sS'CYS-ASP'
p144
F0.66000000000000003
sS'TYR-ASP'
p145
F-0.13400000000000001
sS'VAL-PRO'
p146
F0.20499999999999999
sS'THR-VAL'
p147
F0.20999999999999999
sS'ASP-TYR'
p148
F-0.13400000000000001
sS'PRO-CYS'
p149
F0.34599999999999997
sS'VAL-SER'
p150
F0.29699999999999999
sS'ARG-HIS'
p151
F-0.34200000000000003
sS'CYS-PRO'
p152
F0.318
sS'MET-LYS'
p153
F0.34300000000000003
sS'ALA-SER'
p154
F0.23000000000000001
sS'TYR-SER'
p155
F-0.21199999999999999
sS'GLY-ARG'
p156
F-0.69999999999999996
sS'GLN-ALA'
p157
F0.0089999999999999993
sS'MET-LEU'
p158
F0.35599999999999998
sS'ASN-HIS'
p159
F-0.28100000000000003
sS'VAL-CYS'
p160
F0.92300000000000004
sS'GLN-TYR'
p161
F-0.28799999999999998
sS'GLN-PHE'
p162
F-0.031
sS'ILE-ASN'
p163
F0.096000000000000002
sS'GLU-ASN'
p164
F-0.373
sS'CYS-ALA'
p165
F0.877
sS'ASN-ASP'
p166
F-0.26300000000000001
sS'ASN-PRO'
p167
F-0.39500000000000002
sS'PRO-ARG'
p168
F-0.40000000000000002
sS'LYS-TRP'
p169
F0.28100000000000003
sS'ASN-ASN'
p170
F-1.1180000000000001
sS'ASN-THR'
p171
F-0.23100000000000001
sS'THR-ALA'
p172
F0.20000000000000001
sS'LYS-ALA'
p173
F0.33400000000000002
sS'LYS-PRO'
p174
F-0.10199999999999999
sS'SER-GLN'
p175
F-0.28799999999999998
sS'ILE-VAL'
p176
F0.33800000000000002
sS'ASP-ARG'
p177
F-0.64300000000000002
sS'ASP-MET'
p178
F0.373
sS'CYS-TYR'
p179
F0.19500000000000001
sS'PRO-TRP'
p180
F-0.092999999999999999
sS'THR-GLU'
p181
F-0.113
sS'TRP-ALA'
p182
F0.14799999999999999
sS'ILE-CYS'
p183
F0.76600000000000001
sS'LYS-ILE'
p184
F0.36099999999999999
sS'GLN-CYS'
p185
F0.52200000000000002
sS'TYR-ALA'
p186
F-0.059999999999999998
sS'ARG-ASP'
p187
F-0.71599999999999997
sS'SER-GLU'
p188
F-0.23599999999999999
sS'TRP-HIS'
p189
F0.070999999999999994
sS'ALA-ASN'
p190
F0.094
sS'GLU-CYS'
p191
F0.752
sS'PRO-MET'
p192
F0.40899999999999997
sS'TYR-HIS'
p193
F-0.29099999999999998
sS'PHE-MET'
p194
F0.217
sS'GLU-TYR'
p195
F-0.20200000000000001
sS'SER-TRP'
p196
F0.01
sS'PHE-ARG'
p197
F-0.080000000000000002
sS'GLY-ILE'
p198
F0.112
sS'TYR-VAL'
p199
F0.088999999999999996
sS'ASN-TYR'
p200
F-0.30399999999999999
sS'SER-ILE'
p201
F0.26800000000000002
sS'GLN-PRO'
p202
F-0.36499999999999999
sS'PHE-TYR'
p203
F-0.090999999999999998
sS'ALA-VAL'
p204
F0.46100000000000002
sS'HIS-HIS'
p205
F-1.405
sS'THR-ASN'
p206
F-0.17999999999999999
sS'CYS-LEU'
p207
F0.72099999999999997
sS'LYS-MET'
p208
F0.45600000000000002
sS'LYS-ASP'
p209
F-0.36899999999999999
sS'HIS-ASN'
p210
F-0.34499999999999997
sS'ILE-GLN'
p211
F0.089999999999999997
sS'VAL-HIS'
p212
F0.20300000000000001
sS'ALA-LEU'
p213
F0.252
sS'HIS-ASP'
p214
F-0.251
sS'ILE-TYR'
p215
F-0.035999999999999997
sS'ILE-GLU'
p216
F0.28599999999999998
sS'ILE-GLY'
p217
F0.17299999999999999
sS'ASN-CYS'
p218
F0.20999999999999999
sS'GLU-SER'
p219
F-0.245
sS'ALA-TRP'
p220
F0.186
sS'HIS-CYS'
p221
F0.59299999999999997
sS'HIS-MET'
p222
F0.33700000000000002
sS'ILE-PRO'
p223
F0.114
sS'LYS-PHE'
p224
F0.26900000000000002
sS'TRP-PRO'
p225
F0.014
sS'GLU-TRP'
p226
F0.182
sS'PHE-HIS'
p227
F0.098000000000000004
sS'GLY-TYR'
p228
F-0.46100000000000002
sS'SER-GLY'
p229
F-0.48199999999999998
sS'CYS-TRP'
p230
F0.78000000000000003
sS'ASP-LYS'
p231
F-0.33000000000000002
sS'ASN-ILE'
p232
F0.058999999999999997
sS'HIS-SER'
p233
F-0.189
sS'LYS-CYS'
p234
F0.75700000000000001
sS'GLY-PHE'
p235
F-0.114
sS'GLY-LEU'
p236
F-0.058999999999999997
sS'MET-SER'
p237
F0.35199999999999998
sS'VAL-ALA'
p238
F0.49099999999999999
sS'SER-LEU'
p239
F0.189
sS'TRP-LYS'
p240
F0.23300000000000001
sS'VAL-TYR'
p241
F0.13200000000000001
sS'VAL-PHE'
p242
F0.185
sS'ARG-THR'
p243
F-0.29999999999999999
sS'TYR-TRP'
p244
F0.127
sS'GLN-GLN'
p245
F-1.095
sS'GLU-PHE'
p246
F0.13100000000000001
sS'VAL-ILE'
p247
F0.33200000000000002
sS'HIS-GLN'
p248
F-0.129
sS'GLN-GLY'
p249
F-0.56699999999999995
sS'PHE-ALA'
p250
F0.17399999999999999
sS'HIS-GLU'
p251
F-0.251
sS'ARG-PRO'
p252
F-0.436
sS'HIS-GLY'
p253
F-0.33400000000000002
sS'SER-ASN'
p254
F-0.29399999999999998
sS'ALA-THR'
p255
F0.245
sS'GLN-GLU'
p256
F-0.23599999999999999
sS'GLN-LYS'
p257
F-0.16700000000000001
sS'CYS-HIS'
p258
F0.52200000000000002
sS'GLN-ASP'
p259
F-0.255
sS'LEU-HIS'
p260
F0.067000000000000004
sS'SER-LYS'
p261
F-0.048000000000000001
sS'TRP-LEU'
p262
F0.13900000000000001
sS'CYS-SER'
p263
F0.443
sS'LYS-THR'
p264
F0.11799999999999999
sS'HIS-LEU'
p265
F0.13600000000000001
sS'LEU-ARG'
p266
F-0.081000000000000003
sS'GLY-VAL'
p267
F-0.058999999999999997
sS'GLN-ASN'
p268
F-0.40899999999999997
sS'TYR-ARG'
p269
F-0.33400000000000002
sS'PRO-TYR'
p270
F-0.44500000000000001
sS'ASP-PHE'
p271
F0.23100000000000001
sS'TRP-CYS'
p272
F0.749
sS'ASN-LEU'
p273
F0.048000000000000001
sS'SER-MET'
p274
F0.437
sS'HIS-ILE'
p275
F0.214
sS'SER-TYR'
p276
F-0.248
sS'MET-TYR'
p277
F0.055
sS'GLU-ILE'
p278
F0.219
sS'PHE-CYS'
p279
F0.39900000000000002
sS'PRO-LEU'
p280
F0.056000000000000001
sS'GLY-MET'
p281
F0.105
sS'ARG-ILE'
p282
F0.059999999999999998
sS'HIS-THR'
p283
F-0.11600000000000001
sS'THR-GLN'
p284
F-0.33900000000000002
sS'TRP-THR'
p285
F0.20699999999999999
sS'LYS-LEU'
p286
F0.29199999999999998
sS'THR-GLY'
p287
F-0.39300000000000002
sS'ASP-TRP'
p288
F0.26300000000000001
sS'TYR-MET'
p289
F0.16400000000000001
sS'PHE-ILE'
p290
F0.114
sS'PRO-VAL'
p291
F0.186
sS'MET-ASN'
p292
F0.22700000000000001
sS'LEU-TYR'
p293
F-0.039
sS'PHE-PHE'
p294
F-0.66800000000000004
sS'CYS-PHE'
p295
F0.42699999999999999
sS'TRP-ILE'
p296
F0.314
sS'PRO-ASN'
p297
F-0.38
sS'CYS-CYS'
p298
F-1.7190000000000001
sS'SER-ASP'
p299
F-0.155
sS'ARG-MET'
p300
F0.13100000000000001
sS'SER-PHE'
p301
F0.052999999999999999
sS'SER-SER'
p302
F-0.59399999999999997
sS'ASN-LYS'
p303
F-0.29399999999999998
sS'CYS-THR'
p304
F0.60599999999999998
sS'ILE-TRP'
p305
F0.41299999999999998
sS'PRO-ASP'
p306
F-0.22700000000000001
sS'THR-ASP'
p307
F-0.065000000000000002
sS'SER-CYS'
p308
F0.504
sS'MET-ASP'
p309
F0.42399999999999999
sS'GLN-MET'
p310
F0.29499999999999998
sS'MET-TRP'
p311
F0.53800000000000003
sS'ARG-VAL'
p312
F-0.012
sS'GLY-GLN'
p313
F-0.57299999999999995
sS'THR-LYS'
p314
F0.11
sS'TRP-MET'
p315
F0.51900000000000002
sS'ARG-ARG'
p316
F-0.91200000000000003
sS'ILE-ASP'
p317
F0.32100000000000001
sS'ALA-ARG'
p318
F-0.16
sS'GLY-GLU'
p319
F-0.34200000000000003
sS'ASN-TRP'
p320
F0.070999999999999994
sS'GLU-ARG'
p321
F-0.58799999999999997
sS'HIS-VAL'
p322
F0.23300000000000001
sS'VAL-ARG'
p323
F0.050000000000000003
sS'ASN-SER'
p324
F-0.34200000000000003
sS'ALA-LYS'
p325
F0.28899999999999998
sS'VAL-GLN'
p326
F0.14299999999999999
sS'TRP-ASN'
p327
F-0.057000000000000002
sS'TYR-ILE'
p328
F-0.035999999999999997
sS'TRP-GLY'
p329
F-0.183
sS'PRO-PHE'
p330
F-0.13700000000000001
sS'GLY-HIS'
p331
F-0.42599999999999999
sS'PHE-SER'
p332
F0.048000000000000001
sS'TRP-ASP'
p333
F0.34000000000000002
sS'TRP-GLN'
p334
F-0.127
sS'LEU-ALA'
p335
F0.30399999999999999
sS'VAL-GLU'
p336
F0.215
sS'ALA-HIS'
p337
F-0.045999999999999999
sS'ARG-ASN'
p338
F-0.51500000000000001
sS'LEU-THR'
p339
F0.20100000000000001
sS'TYR-CYS'
p340
F0.32200000000000001
sS'THR-THR'
p341
F-0.57099999999999995
sS'THR-LEU'
p342
F0.21299999999999999
sS'VAL-ASN'
p343
F0.158
sS'LEU-TRP'
p344
F0.129
sS'GLU-ASP'
p345
F-0.027
sS'ILE-SER'
p346
F0.23699999999999999
sS'ILE-ARG'
p347
F0.085999999999999993
sS'TRP-GLU'
p348
F0.185
sS'ILE-MET'
p349
F0.46400000000000002
sS'MET-PHE'
p350
F0.218
sS'PRO-ALA'
p351
F0.021000000000000001
sS'PRO-GLY'
p352
F-0.45200000000000001
sS'GLN-THR'
p353
F-0.216
sS'MET-ALA'
p354
F0.59099999999999997
sS'TRP-SER'
p355
F0.032000000000000001
sS'ASP-HIS'
p356
F-0.25700000000000001
sS'ARG-SER'
p357
F-0.40400000000000003
sS'GLN-HIS'
p358
F-0.28299999999999997
sS'HIS-PHE'
p359
F0.070999999999999994
sS'LEU-LEU'
p360
F-0.315
sS'ALA-GLN'
p361
F-0.019
sS'ASP-ASN'
p362
F-0.254
sS'SER-VAL'
p363
F0.27700000000000002
sS'MET-ILE'
p364
F0.48799999999999999
sS'ALA-PRO'
p365
F0.13100000000000001
sS'ASP-ASP'
p366
F-0.442
sS'ALA-GLY'
p367
F-0.218
sS'TRP-TRP'
p368
F-0.97499999999999998
sS'MET-CYS'
p369
F1.0600000000000001
sS'ALA-GLU'
p370
F0.187
sS'THR-PRO'
p371
F-0.19800000000000001
sS'HIS-ALA'
p372
F0.122
sS'GLN-ILE'
p373
F0.029000000000000001
sS'GLU-VAL'
p374
F0.23200000000000001
sS'LYS-ASN'
p375
F-0.23300000000000001
sS'ASN-ALA'
p376
F0.091999999999999998
sS'THR-ILE'
p377
F0.19600000000000001
sS'ASP-CYS'
p378
F0.63900000000000001
sS'PRO-LYS'
p379
F-0.086999999999999994
sS'TYR-TYR'
p380
F-0.84299999999999997
sS'ARG-LYS'
p381
F-0.10100000000000001
sS'ILE-ALA'
p382
F0.45600000000000002
sS'ASP-SER'
p383
F-0.16
sS'CYS-LYS'
p384
F0.65900000000000003
sS'GLU-ALA'
p385
F0.153
sS'PHE-GLU'
p386
F0.14399999999999999
sS'GLU-LEU'
p387
F0.20000000000000001
sS'PHE-GLY'
p388
F-0.13
sS'LYS-HIS'
p389
F0.017000000000000001
sS'HIS-PRO'
p390
F-0.22800000000000001
sS'ILE-ILE'
p391
F-0.32700000000000001
sS'MET-HIS'
p392
F0.252
sS'VAL-GLY'
p393
F0.012
sS'THR-MET'
p394
F0.34999999999999998
sS'PHE-THR'
p395
F0.050999999999999997
sS'VAL-TRP'
p396
F0.32200000000000001
sS'PHE-LYS'
p397
F0.24299999999999999
sS'GLY-PRO'
p398
F-0.50900000000000001
sS'PHE-GLN'
p399
F0.0030000000000000001
sS'LEU-PHE'
p400
F0.091999999999999998
s.