(dp1
S'MET-MET'
p2
F-3.1720000000000002
sS'PRO-ILE'
p3
F-1.7450000000000001
sS'TYR-LYS'
p4
F-2.3809999999999998
sS'VAL-ASP'
p5
F-1.667
sS'ASP-GLN'
p6
F-2.173
sS'HIS-TYR'
p7
F-2.4780000000000002
sS'ASP-GLU'
p8
F-2.1309999999999998
sS'ALA-ASP'
p9
F-1.6479999999999999
sS'ASP-GLY'
p10
F-2.254
sS'LEU-VAL'
p11
F-1.661
sS'TRP-TYR'
p12
F-2.274
sS'GLN-TRP'
p13
F-2.395
sS'TRP-PHE'
p14
F-2.1549999999999998
sS'ARG-TYR'
p15
F-2.6259999999999999
sS'GLU-LYS'
p16
F-2.4649999999999999
sS'ILE-HIS'
p17
F-1.772
sS'LEU-MET'
p18
F-1.5780000000000001
sS'GLU-HIS'
p19
F-2.335
sS'GLY-THR'
p20
F-2.3450000000000002
sS'ARG-GLU'
p21
F-2.5950000000000002
sS'PHE-ASN'
p22
F-1.988
sS'ASN-MET'
p23
F-1.716
sS'PRO-THR'
p24
F-2.0510000000000002
sS'TYR-GLN'
p25
F-2.4079999999999999
sS'ARG-GLY'
p26
F-2.6099999999999999
sS'VAL-THR'
p27
F-1.6339999999999999
sS'ASP-ILE'
p28
F-1.679
sS'THR-HIS'
p29
F-1.958
sS'TYR-GLU'
p30
F-2.4329999999999998
sS'ARG-GLN'
p31
F-2.5790000000000002
sS'TYR-GLY'
p32
F-2.3380000000000001
sS'PHE-ASP'
p33
F-2.0329999999999999
sS'CYS-ARG'
p34
F-1.931
sS'GLY-ASN'
p35
F-2.5289999999999999
sS'VAL-LYS'
p36
F-1.7110000000000001
sS'LEU-ILE'
p37
F-1.7190000000000001
sS'GLN-LEU'
p38
F-2.0600000000000001
sS'GLU-MET'
p39
F-1.617
sS'ASP-THR'
p40
F-1.897
sS'ASN-PHE'
p41
F-2.0070000000000001
sS'GLU-PRO'
p42
F-2.2229999999999999
sS'TYR-LEU'
p43
F-2.165
sS'LYS-ARG'
p44
F-2.3079999999999998
sS'GLY-ASP'
p45
F-2.3149999999999999
sS'PRO-GLN'
p46
F-2.2120000000000002
sS'CYS-MET'
p47
F-1.266
sS'HIS-ARG'
p48
F-2.4380000000000002
sS'GLU-THR'
p49
F-1.9390000000000001
sS'ILE-THR'
p50
F-1.635
sS'SER-PRO'
p51
F-1.9630000000000001
sS'GLY-CYS'
p52
F-2.2869999999999999
sS'ARG-LEU'
p53
F-2.258
sS'PRO-GLU'
p54
F-2.1779999999999999
sS'ASP-LEU'
p55
F-1.71
sS'PHE-VAL'
p56
F-1.73
sS'ASN-VAL'
p57
F-1.76
sS'ALA-MET'
p58
F-1.476
sS'LEU-PRO'
p59
F-1.7849999999999999
sS'LEU-SER'
p60
F-1.7110000000000001
sS'ASN-ARG'
p61
F-2.46
sS'SER-THR'
p62
F-1.7150000000000001
sS'LYS-VAL'
p63
F-1.756
sS'LYS-GLN'
p64
F-2.2480000000000002
sS'GLN-VAL'
p65
F-1.728
sS'TYR-PHE'
p66
F-2.2799999999999998
sS'ASP-VAL'
p67
F-1.6359999999999999
sS'ASN-GLY'
p68
F-2.4750000000000001
sS'ARG-PHE'
p69
F-2.3620000000000001
sS'SER-HIS'
p70
F-2.0390000000000001
sS'ALA-ILE'
p71
F-1.589
sS'ASN-GLU'
p72
F-2.2669999999999999
sS'CYS-GLN'
p73
F-1.631
sS'TYR-PRO'
p74
F-2.2890000000000001
sS'LYS-GLU'
p75
F-2.4140000000000001
sS'CYS-GLU'
p76
F-1.3899999999999999
sS'ASN-GLN'
p77
F-2.2410000000000001
sS'CYS-GLY'
p78
F-2.032
sS'GLN-SER'
p79
F-2.238
sS'HIS-LYS'
p80
F-2.238
sS'LYS-GLY'
p81
F-2.4060000000000001
sS'VAL-MET'
p82
F-1.5609999999999999
sS'GLU-GLY'
p83
F-2.3050000000000002
sS'THR-SER'
p84
F-1.7130000000000001
sS'TYR-THR'
p85
F-2.2959999999999998
sS'PRO-PRO'
p86
F-3.024
sS'ILE-PHE'
p87
F-2.0649999999999999
sS'PHE-LEU'
p88
F-2
sS'GLU-GLU'
p89
F-2.9409999999999998
sS'SER-ARG'
p90
F-2.363
sS'GLY-ALA'
p91
F-2.7069999999999999
sS'TYR-ASN'
p92
F-2.4710000000000001
sS'GLU-GLN'
p93
F-2.3300000000000001
sS'TRP-ARG'
p94
F-2.484
sS'LEU-GLU'
p95
F-1.798
sS'LEU-GLY'
p96
F-1.966
sS'LYS-SER'
p97
F-2.0089999999999999
sS'MET-VAL'
p98
F-1.5129999999999999
sS'SER-ALA'
p99
F-1.5509999999999999
sS'PRO-HIS'
p100
F-2.1920000000000002
sS'MET-THR'
p101
F-1.532
sS'ALA-PHE'
p102
F-1.7829999999999999
sS'MET-PRO'
p103
F-1.605
sS'GLY-SER'
p104
F-2.524
sS'LEU-GLN'
p105
F-2.036
sS'VAL-LEU'
p106
F-1.639
sS'LEU-CYS'
p107
F-1.4330000000000001
sS'LYS-TYR'
p108
F-2.3460000000000001
sS'ASP-ALA'
p109
F-1.579
sS'ILE-LEU'
p110
F-1.831
sS'TRP-VAL'
p111
F-1.946
sS'PHE-PRO'
p112
F-2.1070000000000002
sS'ALA-ALA'
p113
F-2.286
sS'ARG-TRP'
p114
F-2.5680000000000001
sS'MET-GLN'
p115
F-1.9530000000000001
sS'ILE-LYS'
p116
F-1.835
sS'MET-ARG'
p117
F-1.9219999999999999
sS'ALA-CYS'
p118
F-1.01
sS'THR-ARG'
p119
F-2.1499999999999999
sS'CYS-ILE'
p120
F-1.212
sS'LEU-ASN'
p121
F-1.8680000000000001
sS'LEU-ASP'
p122
F-1.708
sS'PHE-TRP'
p123
F-2.2759999999999998
sS'MET-GLY'
p124
F-1.8799999999999999
sS'THR-PHE'
p125
F-2.0049999999999999
sS'MET-GLU'
p126
F-1.492
sS'THR-TRP'
p127
F-1.9470000000000001
sS'THR-TYR'
p128
F-2.2719999999999998
sS'CYS-VAL'
p129
F-1.228
sS'ARG-ALA'
p130
F-2.1259999999999999
sS'ALA-TYR'
p131
F-2.0430000000000001
sS'ASP-PRO'
p132
F-2.1600000000000001
sS'ARG-CYS'
p133
F-2.0470000000000002
sS'GLN-ARG'
p134
F-2.4929999999999999
sS'HIS-TRP'
p135
F-2.1539999999999999
sS'PRO-SER'
p136
F-1.8580000000000001
sS'VAL-VAL'
p137
F-2.5259999999999998
sS'LEU-LYS'
p138
F-1.869
sS'GLY-LYS'
p139
F-2.4239999999999999
sS'CYS-ASN'
p140
F-1.704
sS'GLY-TRP'
p141
F-2.0579999999999998
sS'THR-CYS'
p142
F-1.4710000000000001
sS'LYS-LYS'
p143
F-2.8929999999999998
sS'CYS-ASP'
p144
F-1.3540000000000001
sS'TYR-ASP'
p145
F-2.4060000000000001
sS'VAL-PRO'
p146
F-1.6479999999999999
sS'THR-VAL'
p147
F-1.5820000000000001
sS'ASP-TYR'
p148
F-2.3149999999999999
sS'PRO-CYS'
p149
F-1.5669999999999999
sS'VAL-SER'
p150
F-1.452
sS'ARG-HIS'
p151
F-2.5950000000000002
sS'CYS-PRO'
p152
F-1.605
sS'MET-LYS'
p153
F-1.837
sS'ALA-SER'
p154
F-1.5409999999999999
sS'TYR-SER'
p155
F-2.23
sS'GLY-ARG'
p156
F-2.5369999999999999
sS'GLN-ALA'
p157
F-1.8759999999999999
sS'MET-LEU'
p158
F-1.635
sS'ASN-HIS'
p159
F-2.2519999999999998
sS'VAL-CYS'
p160
F-1.125
sS'GLN-TYR'
p161
F-2.512
sS'GLN-PHE'
p162
F-2.1909999999999998
sS'ILE-ASN'
p163
F-1.784
sS'GLU-ASN'
p164
F-2.262
sS'CYS-ALA'
p165
F-1.1579999999999999
sS'ASN-ASP'
p166
F-2.117
sS'ASN-PRO'
p167
F-2.3370000000000002
sS'PRO-ARG'
p168
F-2.355
sS'LYS-TRP'
p169
F-2.0880000000000001
sS'ASN-ASN'
p170
F-3.3860000000000001
sS'ASN-THR'
p171
F-2.069
sS'THR-ALA'
p172
F-1.504
sS'LYS-ALA'
p173
F-1.6539999999999999
sS'LYS-PRO'
p174
F-2.0680000000000001
sS'SER-GLN'
p175
F-2.226
sS'ILE-VAL'
p176
F-1.589
sS'ASP-ARG'
p177
F-2.5870000000000002
sS'ASP-MET'
p178
F-1.585
sS'CYS-TYR'
p179
F-2.2210000000000001
sS'PRO-TRP'
p180
F-2.1549999999999998
sS'THR-GLU'
p181
F-1.962
sS'TRP-ALA'
p182
F-1.944
sS'ILE-CYS'
p183
F-1.2749999999999999
sS'LYS-ILE'
p184
F-1.7090000000000001
sS'GLN-CYS'
p185
F-1.609
sS'TYR-ALA'
p186
F-2.036
sS'ARG-ASP'
p187
F-2.7080000000000002
sS'SER-GLU'
p188
F-2.016
sS'TRP-HIS'
p189
F-2.3410000000000002
sS'ALA-ASN'
p190
F-1.7370000000000001
sS'GLU-CYS'
p191
F-1.393
sS'PRO-MET'
p192
F-1.5529999999999999
sS'TYR-HIS'
p193
F-2.444
sS'PHE-MET'
p194
F-2.0830000000000002
sS'GLU-TYR'
p195
F-2.3119999999999998
sS'SER-TRP'
p196
F-1.976
sS'PHE-ARG'
p197
F-2.286
sS'GLY-ILE'
p198
F-1.8440000000000001
sS'TYR-VAL'
p199
F-1.958
sS'ASN-TYR'
p200
F-2.4359999999999999
sS'SER-ILE'
p201
F-1.694
sS'GLN-PRO'
p202
F-2.2959999999999998
sS'PHE-TYR'
p203
F-2.3399999999999999
sS'ALA-VAL'
p204
F-1.4259999999999999
sS'HIS-HIS'
p205
F-3.8999999999999999
sS'THR-ASN'
p206
F-2.0289999999999999
sS'CYS-LEU'
p207
F-1.349
sS'LYS-MET'
p208
F-1.6619999999999999
sS'LYS-ASP'
p209
F-2.298
sS'HIS-ASN'
p210
F-2.2370000000000001
sS'ILE-GLN'
p211
F-1.9099999999999999
sS'VAL-HIS'
p212
F-1.8879999999999999
sS'ALA-LEU'
p213
F-1.6419999999999999
sS'HIS-ASP'
p214
F-2.1760000000000002
sS'ILE-TYR'
p215
F-2.2349999999999999
sS'ILE-GLU'
p216
F-1.7909999999999999
sS'ILE-GLY'
p217
F-1.8899999999999999
sS'ASN-CYS'
p218
F-1.7709999999999999
sS'GLU-SER'
p219
F-2.024
sS'ALA-TRP'
p220
F-1.98
sS'HIS-CYS'
p221
F-1.363
sS'HIS-MET'
p222
F-1.7270000000000001
sS'ILE-PRO'
p223
F-1.792
sS'LYS-PHE'
p224
F-1.889
sS'TRP-PRO'
p225
F-1.95
sS'GLU-TRP'
p226
F-2.1160000000000001
sS'PHE-HIS'
p227
F-2.0179999999999998
sS'GLY-TYR'
p228
F-2.371
sS'SER-GLY'
p229
F-2.5590000000000002
sS'CYS-TRP'
p230
F-1.3520000000000001
sS'ASP-LYS'
p231
F-2.2709999999999999
sS'ASN-ILE'
p232
F-1.837
sS'HIS-SER'
p233
F-2.1160000000000001
sS'LYS-CYS'
p234
F-1.48
sS'GLY-PHE'
p235
F-1.9570000000000001
sS'GLY-LEU'
p236
F-2.0219999999999998
sS'MET-SER'
p237
F-1.6459999999999999
sS'VAL-ALA'
p238
F-1.399
sS'SER-LEU'
p239
F-1.6679999999999999
sS'TRP-LYS'
p240
F-2.1890000000000001
sS'VAL-TYR'
p241
F-1.895
sS'VAL-PHE'
p242
F-1.8220000000000001
sS'ARG-THR'
p243
F-2.306
sS'TYR-TRP'
p244
F-2.4380000000000002
sS'GLN-GLN'
p245
F-3.516
sS'GLU-PHE'
p246
F-2.0630000000000002
sS'VAL-ILE'
p247
F-1.609
sS'HIS-GLN'
p248
F-2.2210000000000001
sS'GLN-GLY'
p249
F-2.415
sS'PHE-ALA'
p250
F-1.752
sS'HIS-GLU'
p251
F-2.2959999999999998
sS'ARG-PRO'
p252
F-2.5270000000000001
sS'HIS-GLY'
p253
F-2.1150000000000002
sS'SER-ASN'
p254
F-2.0640000000000001
sS'ALA-THR'
p255
F-1.524
sS'GLN-GLU'
p256
F-2.274
sS'GLN-LYS'
p257
F-2.3319999999999999
sS'CYS-HIS'
p258
F-1.5109999999999999
sS'GLN-ASP'
p259
F-2.3250000000000002
sS'LEU-HIS'
p260
F-2.0369999999999999
sS'SER-LYS'
p261
F-1.988
sS'TRP-LEU'
p262
F-2.0880000000000001
sS'CYS-SER'
p263
F-1.4570000000000001
sS'LYS-THR'
p264
F-1.913
sS'HIS-LEU'
p265
F-1.9830000000000001
sS'LEU-ARG'
p266
F-2.222
sS'GLY-VAL'
p267
F-2.0590000000000002
sS'GLN-ASN'
p268
F-2.1909999999999998
sS'TYR-ARG'
p269
F-2.5920000000000001
sS'PRO-TYR'
p270
F-2.339
sS'ASP-PHE'
p271
F-1.9510000000000001
sS'TRP-CYS'
p272
F-1.3120000000000001
sS'ASN-LEU'
p273
F-1.8859999999999999
sS'SER-MET'
p274
F-1.55
sS'HIS-ILE'
p275
F-1.861
sS'SER-TYR'
p276
F-2.2320000000000002
sS'MET-TYR'
p277
F-2.0569999999999999
sS'GLU-ILE'
p278
F-1.8260000000000001
sS'PHE-CYS'
p279
F-1.5740000000000001
sS'PRO-LEU'
p280
F-1.9059999999999999
sS'GLY-MET'
p281
F-1.8839999999999999
sS'ARG-ILE'
p282
F-2.1099999999999999
sS'HIS-THR'
p283
F-2.097
sS'THR-GLN'
p284
F-2.1709999999999998
sS'TRP-THR'
p285
F-2.0840000000000001
sS'LYS-LEU'
p286
F-1.768
sS'THR-GLY'
p287
F-2.379
sS'ASP-TRP'
p288
F-2.0830000000000002
sS'TYR-MET'
p289
F-2.0489999999999999
sS'PHE-ILE'
p290
F-2.0779999999999998
sS'PRO-VAL'
p291
F-1.585
sS'MET-ASN'
p292
F-1.819
sS'LEU-TYR'
p293
F-2.137
sS'PHE-PHE'
p294
F-3.2010000000000001
sS'CYS-PHE'
p295
F-1.4890000000000001
sS'TRP-ILE'
p296
F-1.9339999999999999
sS'PRO-ASN'
p297
F-2.2549999999999999
sS'CYS-CYS'
p298
F-3.8340000000000001
sS'SER-ASP'
p299
F-1.837
sS'ARG-MET'
p300
F-1.9099999999999999
sS'SER-PHE'
p301
F-1.887
sS'SER-SER'
p302
F-2.7589999999999999
sS'ASN-LYS'
p303
F-2.3010000000000002
sS'CYS-THR'
p304
F-1.274
sS'ILE-TRP'
p305
F-1.8720000000000001
sS'PRO-ASP'
p306
F-2.0960000000000001
sS'THR-ASP'
p307
F-1.8839999999999999
sS'SER-CYS'
p308
F-1.3320000000000001
sS'MET-ASP'
p309
F-1.7569999999999999
sS'GLN-MET'
p310
F-1.7689999999999999
sS'MET-TRP'
p311
F-1.5449999999999999
sS'ARG-VAL'
p312
F-2.093
sS'GLY-GLN'
p313
F-2.407
sS'THR-LYS'
p314
F-1.899
sS'TRP-MET'
p315
F-1.502
sS'ARG-ARG'
p316
F-3.6190000000000002
sS'ILE-ASP'
p317
F-1.7210000000000001
sS'ALA-ARG'
p318
F-2.1930000000000001
sS'GLY-GLU'
p319
F-2.2280000000000002
sS'ASN-TRP'
p320
F-2.1339999999999999
sS'GLU-ARG'
p321
F-2.5880000000000001
sS'HIS-VAL'
p322
F-1.839
sS'VAL-ARG'
p323
F-2.0369999999999999
sS'ASN-SER'
p324
F-2.0680000000000001
sS'ALA-LYS'
p325
F-1.7330000000000001
sS'VAL-GLN'
p326
F-1.8109999999999999
sS'TRP-ASN'
p327
F-2.2250000000000001
sS'TYR-ILE'
p328
F-2.1659999999999999
sS'TRP-GLY'
p329
F-2.036
sS'PRO-PHE'
p330
F-2.113
sS'GLY-HIS'
p331
F-2.2320000000000002
sS'PHE-SER'
p332
F-1.984
sS'TRP-ASP'
p333
F-2.0150000000000001
sS'TRP-GLN'
p334
F-2.4990000000000001
sS'LEU-ALA'
p335
F-1.542
sS'VAL-GLU'
p336
F-1.734
sS'ALA-HIS'
p337
F-1.9650000000000001
sS'ARG-ASN'
p338
F-2.4769999999999999
sS'LEU-THR'
p339
F-1.6859999999999999
sS'TYR-CYS'
p340
F-1.966
sS'THR-THR'
p341
F-2.7599999999999998
sS'THR-LEU'
p342
F-1.7430000000000001
sS'VAL-ASN'
p343
F-1.792
sS'LEU-TRP'
p344
F-2.1179999999999999
sS'GLU-ASP'
p345
F-2.1309999999999998
sS'ILE-SER'
p346
F-1.6679999999999999
sS'ILE-ARG'
p347
F-2.0990000000000002
sS'TRP-GLU'
p348
F-2.105
sS'ILE-MET'
p349
F-1.585
sS'MET-PHE'
p350
F-2.0110000000000001
sS'PRO-ALA'
p351
F-1.7669999999999999
sS'PRO-GLY'
p352
F-2.395
sS'GLN-THR'
p353
F-2.0819999999999999
sS'MET-ALA'
p354
F-1.264
sS'TRP-SER'
p355
F-1.911
sS'ASP-HIS'
p356
F-2.266
sS'ARG-SER'
p357
F-2.302
sS'GLN-HIS'
p358
F-2.371
sS'HIS-PHE'
p359
F-2.1099999999999999
sS'LEU-LEU'
p360
F-2.6160000000000001
sS'ALA-GLN'
p361
F-1.897
sS'ASP-ASN'
p362
F-2.1120000000000001
sS'SER-VAL'
p363
F-1.512
sS'MET-ILE'
p364
F-1.4790000000000001
sS'ALA-PRO'
p365
F-1.556
sS'ASP-ASP'
p366
F-2.8380000000000001
sS'ALA-GLY'
p367
F-2.6230000000000002
sS'TRP-TRP'
p368
F-3.8149999999999999
sS'MET-CYS'
p369
F-0.86599999999999999
sS'ALA-GLU'
p370
F-1.732
sS'THR-PRO'
p371
F-1.98
sS'HIS-ALA'
p372
F-1.7330000000000001
sS'GLN-ILE'
p373
F-2.0499999999999998
sS'GLU-VAL'
p374
F-1.696
sS'LYS-ASN'
p375
F-2.2440000000000002
sS'ASN-ALA'
p376
F-1.7190000000000001
sS'THR-ILE'
p377
F-1.6950000000000001
sS'ASP-CYS'
p378
F-1.3959999999999999
sS'PRO-LYS'
p379
F-2.1560000000000001
sS'TYR-TYR'
p380
F-3.5489999999999999
sS'ARG-LYS'
p381
F-2.3180000000000001
sS'ILE-ALA'
p382
F-1.5209999999999999
sS'ASP-SER'
p383
F-1.911
sS'CYS-LYS'
p384
F-1.3360000000000001
sS'GLU-ALA'
p385
F-1.7390000000000001
sS'PHE-GLU'
p386
F-2.0390000000000001
sS'GLU-LEU'
p387
F-1.8380000000000001
sS'PHE-GLY'
p388
F-2.028
sS'LYS-HIS'
p389
F-2.202
sS'HIS-PRO'
p390
F-2.1320000000000001
sS'ILE-ILE'
p391
F-2.6629999999999998
sS'MET-HIS'
p392
F-1.8
sS'VAL-GLY'
p393
F-1.9830000000000001
sS'THR-MET'
p394
F-1.516
sS'PHE-THR'
p395
F-2.024
sS'VAL-TRP'
p396
F-1.8899999999999999
sS'PHE-LYS'
p397
F-2.0310000000000001
sS'GLY-PRO'
p398
F-2.4780000000000002
sS'PHE-GLN'
p399
F-2.161
sS'LEU-PHE'
p400
F-2.0430000000000001
s.