(dp1
S'MET-MET'
p2
F1.131
sS'PRO-ILE'
p3
F2.452
sS'TYR-LYS'
p4
F2.4820000000000002
sS'VAL-ASP'
p5
F2.581
sS'ASP-GLN'
p6
F2.2429999999999999
sS'HIS-TYR'
p7
F2.4580000000000002
sS'ASP-GLU'
p8
F2.3290000000000002
sS'ALA-ASP'
p9
F2.1699999999999999
sS'ASP-GLY'
p10
F1.881
sS'LEU-VAL'
p11
F2.5190000000000001
sS'TRP-TYR'
p12
F2.992
sS'GLN-TRP'
p13
F2.7170000000000001
sS'TRP-PHE'
p14
F3.1019999999999999
sS'ARG-TYR'
p15
F2.3359999999999999
sS'GLU-LYS'
p16
F2.1030000000000002
sS'ILE-HIS'
p17
F2.6989999999999998
sS'LEU-MET'
p18
F2.7469999999999999
sS'GLU-HIS'
p19
F2.3450000000000002
sS'GLY-THR'
p20
F1.6719999999999999
sS'ARG-GLU'
p21
F2.0270000000000001
sS'PHE-ASN'
p22
F2.6320000000000001
sS'ASN-MET'
p23
F2.6280000000000001
sS'PRO-THR'
p24
F2.0329999999999999
sS'TYR-GLN'
p25
F2.4529999999999998
sS'ARG-GLY'
p26
F1.8799999999999999
sS'VAL-THR'
p27
F2.4169999999999998
sS'ASP-ILE'
p28
F2.6629999999999998
sS'THR-HIS'
p29
F2.4140000000000001
sS'TYR-GLU'
p30
F2.476
sS'ARG-GLN'
p31
F2.1709999999999998
sS'TYR-GLY'
p32
F2.246
sS'PHE-ASP'
p33
F2.6789999999999998
sS'CYS-ARG'
p34
F2.5409999999999999
sS'GLY-ASN'
p35
F1.599
sS'VAL-LYS'
p36
F2.6240000000000001
sS'LEU-ILE'
p37
F2.6280000000000001
sS'GLN-LEU'
p38
F2.4009999999999998
sS'GLU-MET'
p39
F2.8460000000000001
sS'ASP-THR'
p40
F2.2429999999999999
sS'ASN-PHE'
p41
F2.6589999999999998
sS'GLU-PRO'
p42
F2.117
sS'TYR-LEU'
p43
F2.5859999999999999
sS'LYS-ARG'
p44
F2.4700000000000002
sS'GLY-ASP'
p45
F1.8129999999999999
sS'PRO-GLN'
p46
F2.032
sS'CYS-MET'
p47
F2.9630000000000001
sS'HIS-ARG'
p48
F2.387
sS'GLU-THR'
p49
F2.254
sS'ILE-THR'
p50
F2.4780000000000002
sS'SER-PRO'
p51
F1.8939999999999999
sS'GLY-CYS'
p52
F1.627
sS'ARG-LEU'
p53
F2.3769999999999998
sS'PRO-GLU'
p54
F2.177
sS'ASP-LEU'
p55
F2.573
sS'PHE-VAL'
p56
F2.7599999999999998
sS'ASN-VAL'
p57
F2.3380000000000001
sS'ALA-MET'
p58
F2.4260000000000002
sS'LEU-PRO'
p59
F2.3109999999999999
sS'LEU-SER'
p60
F2.2949999999999999
sS'ASN-ARG'
p61
F2.1110000000000002
sS'SER-THR'
p62
F2.008
sS'LYS-VAL'
p63
F2.5750000000000002
sS'LYS-GLN'
p64
F2.2149999999999999
sS'GLN-VAL'
p65
F2.427
sS'TYR-PHE'
p66
F2.726
sS'ASP-VAL'
p67
F2.5430000000000001
sS'ASN-GLY'
p68
F1.643
sS'ARG-PHE'
p69
F2.5259999999999998
sS'SER-HIS'
p70
F2.2559999999999998
sS'ALA-ILE'
p71
F2.355
sS'ASN-GLU'
p72
F2.121
sS'CYS-GLN'
p73
F2.677
sS'TYR-PRO'
p74
F2.343
sS'LYS-GLU'
p75
F2.105
sS'CYS-GLU'
p76
F2.8809999999999998
sS'ASN-GLN'
p77
F2.0499999999999998
sS'CYS-GLY'
p78
F1.821
sS'GLN-SER'
p79
F1.9930000000000001
sS'HIS-LYS'
p80
F2.4809999999999999
sS'LYS-GLY'
p81
F1.9159999999999999
sS'VAL-MET'
p82
F2.8210000000000002
sS'GLU-GLY'
p83
F1.9339999999999999
sS'THR-SER'
p84
F1.9770000000000001
sS'TYR-THR'
p85
F2.504
sS'PRO-PRO'
p86
F0.91900000000000004
sS'ILE-PHE'
p87
F2.6699999999999999
sS'PHE-LEU'
p88
F2.6800000000000002
sS'GLU-GLU'
p89
F1.3979999999999999
sS'SER-ARG'
p90
F2.0289999999999999
sS'GLY-ALA'
p91
F0.99399999999999999
sS'TYR-ASN'
p92
F2.27
sS'GLU-GLN'
p93
F2.2789999999999999
sS'TRP-ARG'
p94
F2.6949999999999998
sS'LEU-GLU'
p95
F2.573
sS'LEU-GLY'
p96
F2.1789999999999998
sS'LYS-SER'
p97
F2.1240000000000001
sS'MET-VAL'
p98
F2.7970000000000002
sS'SER-ALA'
p99
F1.7070000000000001
sS'PRO-HIS'
p100
F2.2469999999999999
sS'MET-THR'
p101
F2.6299999999999999
sS'ALA-PHE'
p102
F2.5750000000000002
sS'MET-PRO'
p103
F2.6800000000000002
sS'GLY-SER'
p104
F1.321
sS'LEU-GLN'
p105
F2.3690000000000002
sS'VAL-LEU'
p106
F2.4849999999999999
sS'LEU-CYS'
p107
F2.7130000000000001
sS'LYS-TYR'
p108
F2.524
sS'ASP-ALA'
p109
F2.202
sS'ILE-LEU'
p110
F2.5680000000000001
sS'TRP-VAL'
p111
F3.0649999999999999
sS'PHE-PRO'
p112
F2.4529999999999998
sS'ALA-ALA'
p113
F0.53600000000000003
sS'ARG-TRP'
p114
F2.5840000000000001
sS'MET-GLN'
p115
F2.5990000000000002
sS'ILE-LYS'
p116
F2.7440000000000002
sS'MET-ARG'
p117
F2.714
sS'ALA-CYS'
p118
F2.3580000000000001
sS'THR-ARG'
p119
F2.2240000000000002
sS'CYS-ILE'
p120
F2.8490000000000002
sS'LEU-ASN'
p121
F2.4129999999999998
sS'LEU-ASP'
p122
F2.581
sS'PHE-TRP'
p123
F3.0449999999999999
sS'MET-GLY'
p124
F2.2469999999999999
sS'THR-PHE'
p125
F2.6080000000000001
sS'MET-GLU'
p126
F2.8340000000000001
sS'THR-TRP'
p127
F2.927
sS'THR-TYR'
p128
F2.4670000000000001
sS'CYS-VAL'
p129
F2.766
sS'ARG-ALA'
p130
F2.1309999999999998
sS'ALA-TYR'
p131
F2.3969999999999998
sS'ASP-PRO'
p132
F2.0640000000000001
sS'ARG-CYS'
p133
F2.5179999999999998
sS'GLN-ARG'
p134
F2.1720000000000002
sS'HIS-TRP'
p135
F2.9239999999999999
sS'PRO-SER'
p136
F1.9039999999999999
sS'VAL-VAL'
p137
F1.5229999999999999
sS'LEU-LYS'
p138
F2.585
sS'GLY-LYS'
p139
F1.8640000000000001
sS'CYS-ASN'
p140
F2.419
sS'GLY-TRP'
p141
F2.6960000000000002
sS'THR-CYS'
p142
F2.5129999999999999
sS'LYS-LYS'
p143
F1.538
sS'CYS-ASP'
p144
F2.6890000000000001
sS'TYR-ASP'
p145
F2.4430000000000001
sS'VAL-PRO'
p146
F2.3809999999999998
sS'THR-VAL'
p147
F2.399
sS'ASP-TYR'
p148
F2.4740000000000002
sS'PRO-CYS'
p149
F2.3490000000000002
sS'VAL-SER'
p150
F2.286
sS'ARG-HIS'
p151
F2.2599999999999998
sS'CYS-PRO'
p152
F2.3290000000000002
sS'MET-LYS'
p153
F2.6680000000000001
sS'ALA-SER'
p154
F1.7110000000000001
sS'TYR-SER'
p155
F2.3290000000000002
sS'GLY-ARG'
p156
F1.893
sS'GLN-ALA'
p157
F2.1070000000000002
sS'MET-LEU'
p158
F2.6869999999999998
sS'ASN-HIS'
p159
F2.2930000000000001
sS'VAL-CYS'
p160
F2.867
sS'GLN-TYR'
p161
F2.3719999999999999
sS'GLN-PHE'
p162
F2.6019999999999999
sS'ILE-ASN'
p163
F2.4500000000000002
sS'GLU-ASN'
p164
F2.101
sS'CYS-ALA'
p165
F2.3199999999999998
sS'ASN-ASP'
p166
F2.1640000000000001
sS'ASN-PRO'
p167
F1.903
sS'PRO-ARG'
p168
F2.1200000000000001
sS'LYS-TRP'
p169
F3.0129999999999999
sS'ASN-ASN'
p170
F0.77000000000000002
sS'ASN-THR'
p171
F2.1059999999999999
sS'THR-ALA'
p172
F1.962
sS'LYS-ALA'
p173
F2.3100000000000001
sS'LYS-PRO'
p174
F2.1739999999999999
sS'SER-GLN'
p175
F1.994
sS'ILE-VAL'
p176
F2.653
sS'ASP-ARG'
p177
F2.0129999999999999
sS'ASP-MET'
p178
F2.6749999999999998
sS'CYS-TYR'
p179
F2.6320000000000001
sS'PRO-TRP'
p180
F2.7269999999999999
sS'THR-GLU'
p181
F2.2850000000000001
sS'TRP-ALA'
p182
F2.7570000000000001
sS'ILE-CYS'
p183
F2.8340000000000001
sS'LYS-ILE'
p184
F2.718
sS'GLN-CYS'
p185
F2.754
sS'TYR-ALA'
p186
F2.4489999999999998
sS'ARG-ASP'
p187
F1.944
sS'SER-GLU'
p188
F2.0600000000000001
sS'TRP-HIS'
p189
F2.8090000000000002
sS'ALA-ASN'
p190
F2.0630000000000002
sS'GLU-CYS'
p191
F2.8889999999999998
sS'PRO-MET'
p192
F2.7029999999999998
sS'TYR-HIS'
p193
F2.4820000000000002
sS'PHE-MET'
p194
F2.79
sS'GLU-TYR'
p195
F2.4889999999999999
sS'SER-TRP'
p196
F2.7189999999999999
sS'PHE-ARG'
p197
F2.5950000000000002
sS'GLY-ILE'
p198
F2.2770000000000001
sS'TYR-VAL'
p199
F2.681
sS'ASN-TYR'
p200
F2.3170000000000002
sS'SER-ILE'
p201
F2.3540000000000001
sS'GLN-PRO'
p202
F2.0489999999999999
sS'PHE-TYR'
p203
F2.6659999999999999
sS'ALA-VAL'
p204
F2.2050000000000001
sS'HIS-HIS'
p205
F0.81499999999999995
sS'THR-ASN'
p206
F2.1269999999999998
sS'CYS-LEU'
p207
F2.794
sS'LYS-MET'
p208
F2.843
sS'LYS-ASP'
p209
F2.1030000000000002
sS'HIS-ASN'
p210
F2.2250000000000001
sS'ILE-GLN'
p211
F2.5110000000000001
sS'VAL-HIS'
p212
F2.6320000000000001
sS'ALA-LEU'
p213
F2.1779999999999999
sS'HIS-ASP'
p214
F2.331
sS'ILE-TYR'
p215
F2.6499999999999999
sS'ILE-GLU'
p216
F2.6739999999999999
sS'ILE-GLY'
p217
F2.3330000000000002
sS'ASN-CYS'
p218
F2.3399999999999999
sS'GLU-SER'
p219
F2.0630000000000002
sS'ALA-TRP'
p220
F2.7650000000000001
sS'HIS-CYS'
p221
F3.024
sS'HIS-MET'
p222
F2.875
sS'ILE-PRO'
p223
F2.4089999999999998
sS'LYS-PHE'
p224
F2.786
sS'TRP-PRO'
p225
F2.871
sS'GLU-TRP'
p226
F2.9119999999999999
sS'PHE-HIS'
p227
F2.7999999999999998
sS'GLY-TYR'
p228
F2.202
sS'SER-GLY'
p229
F1.2949999999999999
sS'CYS-TRP'
p230
F3.5139999999999998
sS'ASP-LYS'
p231
F2.1299999999999999
sS'ASN-ILE'
p232
F2.4020000000000001
sS'HIS-SER'
p233
F2.2480000000000002
sS'LYS-CYS'
p234
F2.8879999999999999
sS'GLY-PHE'
p235
F2.4929999999999999
sS'GLY-LEU'
p236
F2.1179999999999999
sS'MET-SER'
p237
F2.4510000000000001
sS'VAL-ALA'
p238
F2.2349999999999999
sS'SER-LEU'
p239
F2.286
sS'TRP-LYS'
p240
F2.9279999999999999
sS'VAL-TYR'
p241
F2.7519999999999998
sS'VAL-PHE'
p242
F2.7839999999999998
sS'ARG-THR'
p243
F2.2120000000000002
sS'TYR-TRP'
p244
F2.9580000000000002
sS'GLN-GLN'
p245
F0.93300000000000005
sS'GLU-PHE'
p246
F2.7200000000000002
sS'VAL-ILE'
p247
F2.629
sS'HIS-GLN'
p248
F2.4790000000000001
sS'GLN-GLY'
p249
F1.8320000000000001
sS'PHE-ALA'
p250
F2.5979999999999999
sS'HIS-GLU'
p251
F2.367
sS'ARG-PRO'
p252
F2.0790000000000002
sS'HIS-GLY'
p253
F2.222
sS'SER-ASN'
p254
F1.887
sS'ALA-THR'
p255
F2.0009999999999999
sS'GLN-GLU'
p256
F2.242
sS'GLN-LYS'
p257
F2.2410000000000001
sS'CYS-HIS'
p258
F2.8279999999999998
sS'GLN-ASP'
p259
F2.1859999999999999
sS'LEU-HIS'
p260
F2.5499999999999998
sS'SER-LYS'
p261
F2.1629999999999998
sS'TRP-LEU'
p262
F2.9060000000000001
sS'CYS-SER'
p263
F2.1629999999999998
sS'LYS-THR'
p264
F2.4369999999999998
sS'HIS-LEU'
p265
F2.6110000000000002
sS'LEU-ARG'
p266
F2.4169999999999998
sS'GLY-VAL'
p267
F1.9350000000000001
sS'GLN-ASN'
p268
F2.101
sS'TYR-ARG'
p269
F2.4140000000000001
sS'PRO-TYR'
p270
F2.2890000000000001
sS'ASP-PHE'
p271
F2.7509999999999999
sS'TRP-CYS'
p272
F3.5569999999999999
sS'ASN-LEU'
p273
F2.3959999999999999
sS'SER-MET'
p274
F2.5139999999999998
sS'HIS-ILE'
p275
F2.7440000000000002
sS'SER-TYR'
p276
F2.2949999999999999
sS'MET-TYR'
p277
F2.73
sS'GLU-ILE'
p278
F2.6240000000000001
sS'PHE-CYS'
p279
F2.9060000000000001
sS'PRO-LEU'
p280
F2.3210000000000002
sS'GLY-MET'
p281
F2.2509999999999999
sS'ARG-ILE'
p282
F2.52
sS'HIS-THR'
p283
F2.3919999999999999
sS'THR-GLN'
p284
F2.0990000000000002
sS'TRP-THR'
p285
F2.9820000000000002
sS'LYS-LEU'
p286
F2.605
sS'THR-GLY'
p287
F1.6379999999999999
sS'ASP-TRP'
p288
F2.9220000000000002
sS'TYR-MET'
p289
F2.8530000000000002
sS'PHE-ILE'
p290
F2.6829999999999998
sS'PRO-VAL'
p291
F2.391
sS'MET-ASN'
p292
F2.5219999999999998
sS'LEU-TYR'
p293
F2.617
sS'PHE-PHE'
p294
F1.671
sS'CYS-PHE'
p295
F2.9700000000000002
sS'TRP-ILE'
p296
F3.0979999999999999
sS'PRO-ASN'
p297
F1.9550000000000001
sS'CYS-CYS'
p298
F-0.17999999999999999
sS'SER-ASP'
p299
F2.0310000000000001
sS'ARG-MET'
p300
F2.6150000000000002
sS'SER-PHE'
p301
F2.54
sS'SER-SER'
p302
F0.72599999999999998
sS'ASN-LYS'
p303
F2.1110000000000002
sS'CYS-THR'
p304
F2.536
sS'ILE-TRP'
p305
F3.214
sS'PRO-ASP'
p306
F2.089
sS'THR-ASP'
p307
F2.234
sS'SER-CYS'
p308
F2.274
sS'MET-ASP'
p309
F2.7690000000000001
sS'GLN-MET'
p310
F2.73
sS'MET-TRP'
p311
F3.343
sS'ARG-VAL'
p312
F2.4169999999999998
sS'GLY-GLN'
p313
F1.8340000000000001
sS'THR-LYS'
p314
F2.3999999999999999
sS'TRP-MET'
p315
F3.3300000000000001
sS'ARG-ARG'
p316
F1.159
sS'ILE-ASP'
p317
F2.609
sS'ALA-ARG'
p318
F2.1040000000000001
sS'GLY-GLU'
p319
F2.0230000000000001
sS'ASN-TRP'
p320
F2.8210000000000002
sS'GLU-ARG'
p321
F2.0710000000000002
sS'HIS-VAL'
p322
F2.6949999999999998
sS'VAL-ARG'
p323
F2.4790000000000001
sS'ASN-SER'
p324
F1.8620000000000001
sS'ALA-LYS'
p325
F2.274
sS'VAL-GLN'
p326
F2.5030000000000001
sS'TRP-ASN'
p327
F2.738
sS'TYR-ILE'
p328
F2.661
sS'TRP-GLY'
p329
F2.6429999999999998
sS'PRO-PHE'
p330
F2.4950000000000001
sS'GLY-HIS'
p331
F2.1110000000000002
sS'PHE-SER'
p332
F2.52
sS'TRP-ASP'
p333
F2.96
sS'TRP-GLN'
p334
F2.6560000000000001
sS'LEU-ALA'
p335
F2.2370000000000001
sS'VAL-GLU'
p336
F2.5150000000000001
sS'ALA-HIS'
p337
F2.21
sS'ARG-ASN'
p338
F2.0619999999999998
sS'LEU-THR'
p339
F2.4510000000000001
sS'TYR-CYS'
p340
F2.7389999999999999
sS'THR-THR'
p341
F1.131
sS'THR-LEU'
p342
F2.4449999999999998
sS'VAL-ASN'
p343
F2.375
sS'LEU-TRP'
p344
F2.8820000000000001
sS'GLU-ASP'
p345
F2.331
sS'ILE-SER'
p346
F2.3479999999999999
sS'ILE-ARG'
p347
F2.5270000000000001
sS'TRP-GLU'
p348
F2.9159999999999999
sS'ILE-MET'
p349
F2.794
sS'MET-PHE'
p350
F2.871
sS'PRO-ALA'
p351
F1.859
sS'PRO-GLY'
p352
F1.611
sS'GLN-THR'
p353
F2.181
sS'MET-ALA'
p354
F2.4980000000000002
sS'TRP-SER'
p355
F2.8170000000000002
sS'ASP-HIS'
p356
F2.3279999999999998
sS'ARG-SER'
p357
F2.0270000000000001
sS'GLN-HIS'
p358
F2.3410000000000002
sS'HIS-PHE'
p359
F2.7919999999999998
sS'LEU-LEU'
p360
F1.5449999999999999
sS'ALA-GLN'
p361
F2.0760000000000001
sS'ASP-ASN'
p362
F2.1619999999999999
sS'SER-VAL'
p363
F2.2799999999999998
sS'MET-ILE'
p364
F2.7909999999999999
sS'ALA-PRO'
p365
F1.9490000000000001
sS'ASP-ASP'
p366
F1.371
sS'ALA-GLY'
p367
F1.0669999999999999
sS'TRP-TRP'
p368
F1.5649999999999999
sS'MET-CYS'
p369
F3.1920000000000002
sS'ALA-GLU'
p370
F2.2440000000000002
sS'THR-PRO'
p371
F2.052
sS'HIS-ALA'
p372
F2.3860000000000001
sS'GLN-ILE'
p373
F2.4700000000000002
sS'GLU-VAL'
p374
F2.5579999999999998
sS'LYS-ASN'
p375
F2.1680000000000001
sS'ASN-ALA'
p376
F2.0659999999999998
sS'THR-ILE'
p377
F2.4239999999999999
sS'ASP-CYS'
p378
F2.7069999999999999
sS'PRO-LYS'
p379
F2.2200000000000002
sS'TYR-TYR'
p380
F1.484
sS'ARG-LYS'
p381
F2.3929999999999998
sS'ILE-ALA'
p382
F2.3660000000000001
sS'ASP-SER'
p383
F2.0129999999999999
sS'CYS-LYS'
p384
F2.778
sS'GLU-ALA'
p385
F2.2170000000000001
sS'PHE-GLU'
p386
F2.7210000000000001
sS'GLU-LEU'
p387
F2.5609999999999999
sS'PHE-GLY'
p388
F2.4670000000000001
sS'LYS-HIS'
p389
F2.468
sS'HIS-PRO'
p390
F2.306
sS'ILE-ILE'
p391
F1.5980000000000001
sS'MET-HIS'
p392
F2.7679999999999998
sS'VAL-GLY'
p393
F2.016
sS'THR-MET'
p394
F2.613
sS'PHE-THR'
p395
F2.6179999999999999
sS'VAL-TRP'
p396
F3.056
sS'PHE-LYS'
p397
F2.7250000000000001
sS'GLY-PRO'
p398
F1.5209999999999999
sS'PHE-GLN'
p399
F2.6619999999999999
sS'LEU-PHE'
p400
F2.6850000000000001
s.