(dp1
S'MET-MET'
p2
F-4.181
sS'PRO-ILE'
p3
F-2.645
sS'TYR-LYS'
p4
F-3.028
sS'VAL-ASP'
p5
F-2.4249999999999998
sS'ASP-GLN'
p6
F-3.1070000000000002
sS'HIS-TYR'
p7
F-3.081
sS'ASP-GLU'
p8
F-3.0179999999999998
sS'ALA-ASP'
p9
F-3.1909999999999998
sS'ASP-GLY'
p10
F0
sS'LEU-VAL'
p11
F-2.516
sS'TRP-TYR'
p12
F-2.7330000000000001
sS'TYR-LEU'
p13
F-2.8380000000000001
sS'LYS-GLU'
p14
F-3.431
sS'TRP-PHE'
p15
F-2.6850000000000001
sS'ARG-TYR'
p16
F-3.2280000000000002
sS'GLU-LYS'
p17
F-3.3860000000000001
sS'ILE-HIS'
p18
F-2.6869999999999998
sS'GLY-GLY'
p19
F0
sS'LEU-MET'
p20
F-2.3719999999999999
sS'GLU-HIS'
p21
F-3.234
sS'GLY-THR'
p22
F0
sS'ARG-GLU'
p23
F-3.5009999999999999
sS'PHE-ASN'
p24
F-2.7570000000000001
sS'ASN-MET'
p25
F-2.488
sS'PRO-THR'
p26
F-2.9409999999999998
sS'TYR-GLN'
p27
F-3.0649999999999999
sS'ARG-GLY'
p28
F0
sS'VAL-THR'
p29
F-2.573
sS'ASP-ILE'
p30
F-2.3660000000000001
sS'GLY-ILE'
p31
F0
sS'TYR-GLU'
p32
F-3.0840000000000001
sS'ARG-GLN'
p33
F-3.4119999999999999
sS'TYR-GLY'
p34
F0
sS'PHE-ASP'
p35
F-2.6349999999999998
sS'CYS-ARG'
p36
F-2.8260000000000001
sS'HIS-ARG'
p37
F-3.141
sS'VAL-LYS'
p38
F-2.48
sS'LEU-ILE'
p39
F-2.552
sS'GLN-LEU'
p40
F-2.7400000000000002
sS'GLU-MET'
p41
F-2.4609999999999999
sS'ASP-THR'
p42
F-2.9239999999999999
sS'ASN-PHE'
p43
F-2.694
sS'GLU-PRO'
p44
F-3.1669999999999998
sS'LYS-ARG'
p45
F-3.226
sS'GLY-ASP'
p46
F0
sS'PRO-GLN'
p47
F-3.2989999999999999
sS'CYS-MET'
p48
F-2.4049999999999998
sS'GLU-THR'
p49
F-3.0569999999999999
sS'ILE-THR'
p50
F-2.5339999999999998
sS'PHE-GLY'
p51
F0
sS'SER-PRO'
p52
F-3.085
sS'GLY-CYS'
p53
F0
sS'ARG-LEU'
p54
F-2.968
sS'PRO-GLU'
p55
F-3.1040000000000001
sS'ASP-LEU'
p56
F-2.4500000000000002
sS'PHE-VAL'
p57
F-2.6629999999999998
sS'ASN-VAL'
p58
F-2.7050000000000001
sS'PRO-VAL'
p59
F-2.5430000000000001
sS'ALA-MET'
p60
F-2.8199999999999998
sS'LEU-PRO'
p61
F-2.7149999999999999
sS'LEU-SER'
p62
F-2.7669999999999999
sS'ASN-ARG'
p63
F-3.4500000000000002
sS'SER-THR'
p64
F-2.9910000000000001
sS'LYS-VAL'
p65
F-2.5710000000000002
sS'LYS-PRO'
p66
F-3.0659999999999998
sS'GLN-VAL'
p67
F-2.7410000000000001
sS'TYR-PHE'
p68
F-2.778
sS'ASP-VAL'
p69
F-2.464
sS'ASN-GLY'
p70
F0
sS'ARG-PHE'
p71
F-2.8700000000000001
sS'HIS-TRP'
p72
F-2.6600000000000001
sS'LYS-GLN'
p73
F-3.226
sS'ASN-GLU'
p74
F-3.2349999999999999
sS'CYS-GLN'
p75
F-2.4380000000000002
sS'TYR-PRO'
p76
F-3.2789999999999999
sS'ARG-ILE'
p77
F-2.8719999999999999
sS'CYS-GLU'
p78
F-2.2999999999999998
sS'ASN-GLN'
p79
F-3.2909999999999999
sS'CYS-GLY'
p80
F0
sS'GLN-SER'
p81
F-3.3959999999999999
sS'HIS-LYS'
p82
F-3.0739999999999998
sS'LEU-LYS'
p83
F-2.3999999999999999
sS'LYS-GLY'
p84
F0
sS'VAL-MET'
p85
F-2.3210000000000002
sS'ALA-ALA'
p86
F-4.0309999999999997
sS'THR-SER'
p87
F-3.0299999999999998
sS'PRO-PRO'
p88
F-4.165
sS'ILE-PHE'
p89
F-2.855
sS'PHE-LEU'
p90
F-2.847
sS'GLU-GLU'
p91
F-4.1139999999999999
sS'TYR-ASP'
p92
F-3.1080000000000001
sS'GLY-ALA'
p93
F0
sS'TYR-ASN'
p94
F-3.1970000000000001
sS'GLU-GLN'
p95
F-3.1459999999999999
sS'TRP-ARG'
p96
F-3.052
sS'LEU-GLU'
p97
F-2.4780000000000002
sS'LEU-GLY'
p98
F0
sS'LYS-SER'
p99
F-3.242
sS'MET-VAL'
p100
F-2.3490000000000002
sS'SER-ALA'
p101
F-3.1429999999999998
sS'PRO-HIS'
p102
F-3.1309999999999998
sS'MET-THR'
p103
F-2.5089999999999999
sS'ALA-PHE'
p104
F-3.234
sS'MET-PRO'
p105
F-2.4239999999999999
sS'GLY-SER'
p106
F0
sS'LEU-GLN'
p107
F-2.7639999999999998
sS'VAL-LEU'
p108
F-2.5459999999999998
sS'LEU-CYS'
p109
F-2.3199999999999998
sS'LYS-TYR'
p110
F-3.0179999999999998
sS'ASP-ALA'
p111
F-3.1480000000000001
sS'ILE-LEU'
p112
F-2.601
sS'TRP-VAL'
p113
F-2.552
sS'PHE-PRO'
p114
F-2.9689999999999999
sS'GLU-GLY'
p115
F0
sS'ARG-TRP'
p116
F-3.1280000000000001
sS'MET-GLN'
p117
F-2.6970000000000001
sS'HIS-PHE'
p118
F-2.5169999999999999
sS'MET-ARG'
p119
F-2.7869999999999999
sS'TYR-THR'
p120
F-3.0270000000000001
sS'SER-ARG'
p121
F-3.5579999999999998
sS'THR-ARG'
p122
F-3.2970000000000002
sS'CYS-ILE'
p123
F-2.266
sS'LEU-ASN'
p124
F-2.6179999999999999
sS'LEU-ASP'
p125
F-2.456
sS'PHE-TRP'
p126
F-2.6469999999999998
sS'MET-GLY'
p127
F0
sS'THR-PHE'
p128
F-2.8599999999999999
sS'MET-GLU'
p129
F-2.4849999999999999
sS'THR-TRP'
p130
F-2.9089999999999998
sS'THR-TYR'
p131
F-3.0680000000000001
sS'CYS-VAL'
p132
F-2.165
sS'ARG-ALA'
p133
F-3.6520000000000001
sS'ALA-TYR'
p134
F-3.5049999999999999
sS'ASP-PRO'
p135
F-3.0059999999999998
sS'ARG-CYS'
p136
F-2.9140000000000001
sS'GLN-ARG'
p137
F-3.3700000000000001
sS'SER-HIS'
p138
F-3.1579999999999999
sS'PRO-SER'
p139
F-3.0790000000000002
sS'VAL-VAL'
p140
F-3.4849999999999999
sS'GLN-TRP'
p141
F-2.9500000000000002
sS'GLY-LYS'
p142
F0
sS'CYS-ASN'
p143
F-2.5950000000000002
sS'GLY-TRP'
p144
F0
sS'THR-CYS'
p145
F-2.6030000000000002
sS'LYS-LYS'
p146
F-4.1150000000000002
sS'CYS-ASP'
p147
F-2.5619999999999998
sS'VAL-PRO'
p148
F-2.5840000000000001
sS'THR-VAL'
p149
F-2.4790000000000001
sS'ASP-TYR'
p150
F-3.1469999999999998
sS'PRO-CYS'
p151
F-2.754
sS'VAL-SER'
p152
F-2.5920000000000001
sS'ARG-HIS'
p153
F-3.3130000000000002
sS'CYS-PRO'
p154
F-2.625
sS'MET-LYS'
p155
F-2.5529999999999999
sS'ALA-SER'
p156
F-3.125
sS'TYR-SER'
p157
F-3.3450000000000002
sS'GLY-ARG'
p158
F0
sS'GLN-ALA'
p159
F-3.4820000000000002
sS'MET-LEU'
p160
F-2.4079999999999999
sS'ASN-HIS'
p161
F-3.0449999999999999
sS'VAL-CYS'
p162
F-2.0800000000000001
sS'GLN-TYR'
p163
F-3.149
sS'MET-SER'
p164
F-2.7229999999999999
sS'ALA-TRP'
p165
F-3.371
sS'GLU-ASN'
p166
F-3.21
sS'CYS-ALA'
p167
F-2.464
sS'GLY-ASN'
p168
F0
sS'ASN-ASP'
p169
F-3.0329999999999999
sS'ASN-PRO'
p170
F-3.226
sS'PRO-ARG'
p171
F-3.427
sS'LYS-TRP'
p172
F-2.7909999999999999
sS'ASN-ASN'
p173
F-4.5419999999999998
sS'THR-ALA'
p174
F-3.2080000000000002
sS'LYS-ALA'
p175
F-3.222
sS'SER-GLN'
p176
F-3.3719999999999999
sS'ILE-VAL'
p177
F-2.4180000000000001
sS'ASP-ARG'
p178
F-3.5310000000000001
sS'ASP-MET'
p179
F-2.4209999999999998
sS'CYS-TYR'
p180
F-2.9580000000000002
sS'PRO-TRP'
p181
F-3.012
sS'ILE-LYS'
p182
F-2.4809999999999999
sS'TRP-ALA'
p183
F-3.4220000000000002
sS'ILE-CYS'
p184
F-2.0739999999999998
sS'LYS-ILE'
p185
F-2.5459999999999998
sS'GLN-CYS'
p186
F-2.4039999999999999
sS'ARG-ASP'
p187
F-3.5899999999999999
sS'SER-GLU'
p188
F-3.2839999999999998
sS'TRP-HIS'
p189
F-2.786
sS'ALA-ASN'
p190
F-3.3069999999999999
sS'GLU-CYS'
p191
F-2.3359999999999999
sS'ALA-CYS'
p192
F-2.4340000000000002
sS'PRO-MET'
p193
F-2.4180000000000001
sS'TYR-HIS'
p194
F-3.0089999999999999
sS'PHE-MET'
p195
F-2.6240000000000001
sS'GLU-TYR'
p196
F-3.1520000000000001
sS'SER-TRP'
p197
F-3.105
sS'PHE-ARG'
p198
F-2.798
sS'THR-HIS'
p199
F-2.968
sS'TYR-VAL'
p200
F-2.8180000000000001
sS'SER-ILE'
p201
F-2.7130000000000001
sS'GLN-PRO'
p202
F-3.2320000000000002
sS'ALA-VAL'
p203
F-2.9079999999999999
sS'HIS-HIS'
p204
F-4.7110000000000003
sS'THR-ASN'
p205
F-3.0750000000000002
sS'CYS-LEU'
p206
F-2.1429999999999998
sS'LYS-MET'
p207
F-2.419
sS'LYS-ASP'
p208
F-3.2639999999999998
sS'HIS-ASN'
p209
F-3.1499999999999999
sS'ILE-GLN'
p210
F-2.6349999999999998
sS'VAL-HIS'
p211
F-2.5529999999999999
sS'ALA-LEU'
p212
F-3.093
sS'HIS-ASP'
p213
F-3.0670000000000002
sS'ILE-TYR'
p214
F-2.8740000000000001
sS'ILE-GLU'
p215
F-2.4630000000000001
sS'ASP-ASP'
p216
F-3.9689999999999999
sS'ILE-GLY'
p217
F0
sS'ASN-CYS'
p218
F-2.6970000000000001
sS'GLU-SER'
p219
F-3.27
sS'ILE-ASN'
p220
F-2.6480000000000001
sS'HIS-CYS'
p221
F-2.2629999999999999
sS'HIS-MET'
p222
F-2.4550000000000001
sS'ILE-PRO'
p223
F-2.7130000000000001
sS'LYS-PHE'
p224
F-2.5299999999999998
sS'GLY-PHE'
p225
F0
sS'ILE-ASP'
p226
F-2.403
sS'PHE-HIS'
p227
F-2.5609999999999999
sS'GLY-TYR'
p228
F0
sS'SER-GLY'
p229
F0
sS'CYS-TRP'
p230
F-2.1640000000000001
sS'ASP-LYS'
p231
F-3.2450000000000001
sS'ASN-ILE'
p232
F-2.6920000000000002
sS'HIS-SER'
p233
F-3.2410000000000001
sS'LYS-CYS'
p234
F-2.2280000000000002
sS'TRP-PRO'
p235
F-2.899
sS'ASN-THR'
p236
F-3.0419999999999998
sS'GLN-PHE'
p237
F-2.7349999999999999
sS'VAL-ALA'
p238
F-2.8809999999999998
sS'SER-LEU'
p239
F-2.7559999999999998
sS'TRP-LYS'
p240
F-2.8260000000000001
sS'VAL-TYR'
p241
F-2.7400000000000002
sS'VAL-PHE'
p242
F-2.661
sS'ARG-THR'
p243
F-3.3159999999999998
sS'TYR-TRP'
p244
F-2.7400000000000002
sS'GLN-GLN'
p245
F-4.5439999999999996
sS'GLU-PHE'
p246
F-2.5819999999999999
sS'VAL-ILE'
p247
F-2.5489999999999999
sS'HIS-GLN'
p248
F-2.9449999999999998
sS'GLN-GLY'
p249
F0
sS'PHE-ALA'
p250
F-3.2149999999999999
sS'HIS-GLU'
p251
F-3.1120000000000001
sS'ARG-PRO'
p252
F-3.3780000000000001
sS'HIS-GLY'
p253
F0
sS'SER-ASN'
p254
F-3.3399999999999999
sS'ALA-THR'
p255
F-3.1629999999999998
sS'GLN-GLU'
p256
F-3.0739999999999998
sS'GLN-LYS'
p257
F-3.1549999999999998
sS'CYS-HIS'
p258
F-2.5489999999999999
sS'GLN-ASP'
p259
F-3.1629999999999998
sS'LEU-HIS'
p260
F-2.6440000000000001
sS'SER-LYS'
p261
F-3.2490000000000001
sS'TRP-LEU'
p262
F-2.863
sS'CYS-SER'
p263
F-2.694
sS'LYS-THR'
p264
F-2.8580000000000001
sS'HIS-LEU'
p265
F-2.6339999999999999
sS'LEU-ARG'
p266
F-2.9100000000000001
sS'GLY-VAL'
p267
F0
sS'GLN-ASN'
p268
F-3.2759999999999998
sS'TYR-ARG'
p269
F-3.161
sS'PRO-TYR'
p270
F-3.3210000000000002
sS'ASP-PHE'
p271
F-2.5750000000000002
sS'ARG-VAL'
p272
F-2.9350000000000001
sS'ASN-LEU'
p273
F-2.609
sS'SER-MET'
p274
F-2.6509999999999998
sS'HIS-ILE'
p275
F-2.5430000000000001
sS'GLY-LEU'
p276
F0
sS'SER-TYR'
p277
F-3.3740000000000001
sS'MET-TYR'
p278
F-2.7759999999999998
sS'GLU-ILE'
p279
F-2.5249999999999999
sS'PHE-CYS'
p280
F-2.738
sS'PRO-LEU'
p281
F-2.6819999999999999
sS'GLY-MET'
p282
F0
sS'HIS-THR'
p283
F-2.927
sS'THR-GLN'
p284
F-3.1819999999999999
sS'TRP-THR'
p285
F-2.9399999999999999
sS'LYS-LEU'
p286
F-2.4260000000000002
sS'THR-GLY'
p287
F0
sS'ALA-LYS'
p288
F-3.1749999999999998
sS'ASP-TRP'
p289
F-2.7330000000000001
sS'TYR-MET'
p290
F-2.6840000000000002
sS'PHE-ILE'
p291
F-2.8210000000000002
sS'THR-GLU'
p292
F-3.0059999999999998
sS'MET-ASN'
p293
F-2.6589999999999998
sS'LEU-TYR'
p294
F-2.8010000000000002
sS'PHE-PHE'
p295
F-3.988
sS'CYS-PHE'
p296
F-2.649
sS'TRP-ILE'
p297
F-2.6139999999999999
sS'PRO-ASN'
p298
F-3.1840000000000002
sS'CYS-CYS'
p299
F-5.3920000000000003
sS'SER-ASP'
p300
F-3.2240000000000002
sS'ARG-MET'
p301
F-2.8420000000000001
sS'SER-PHE'
p302
F-2.9460000000000002
sS'SER-SER'
p303
F-4.1630000000000003
sS'ASN-LYS'
p304
F-3.2370000000000001
sS'CYS-THR'
p305
F-2.4460000000000002
sS'ILE-TRP'
p306
F-2.5960000000000001
sS'PRO-ASP'
p307
F-3.0219999999999998
sS'THR-ASP'
p308
F-2.8700000000000001
sS'SER-CYS'
p309
F-2.3069999999999999
sS'MET-ASP'
p310
F-2.4220000000000002
sS'GLN-MET'
p311
F-2.6230000000000002
sS'MET-TRP'
p312
F-2.573
sS'TRP-CYS'
p313
F-1.9990000000000001
sS'GLY-GLN'
p314
F0
sS'THR-LYS'
p315
F-2.9119999999999999
sS'TRP-MET'
p316
F-2.6110000000000002
sS'ARG-ARG'
p317
F-4.548
sS'ALA-ARG'
p318
F-3.673
sS'PRO-PHE'
p319
F-2.9660000000000002
sS'ASN-TRP'
p320
F-2.8380000000000001
sS'GLU-ARG'
p321
F-3.4849999999999999
sS'HIS-VAL'
p322
F-2.6629999999999998
sS'VAL-ARG'
p323
F-2.871
sS'TRP-GLU'
p324
F-2.7389999999999999
sS'PHE-TYR'
p325
F-2.8519999999999999
sS'VAL-GLN'
p326
F-2.7789999999999999
sS'TRP-ASN'
p327
F-3.052
sS'TYR-ILE'
p328
F-2.8370000000000002
sS'TRP-GLY'
p329
F0
sS'GLY-GLU'
p330
F0
sS'GLY-HIS'
p331
F0
sS'PHE-SER'
p332
F-3.0030000000000001
sS'TRP-ASP'
p333
F-2.8530000000000002
sS'TRP-GLN'
p334
F-3.0960000000000001
sS'LEU-ALA'
p335
F-3.0379999999999998
sS'VAL-GLU'
p336
F-2.6030000000000002
sS'ALA-HIS'
p337
F-3.4380000000000002
sS'TYR-ALA'
p338
F-3.5089999999999999
sS'LEU-THR'
p339
F-2.5680000000000001
sS'TYR-CYS'
p340
F-2.7679999999999998
sS'THR-THR'
p341
F-3.9889999999999999
sS'THR-LEU'
p342
F-2.6059999999999999
sS'VAL-ASN'
p343
F-2.6139999999999999
sS'LEU-TRP'
p344
F-2.8450000000000002
sS'GLU-ASP'
p345
F-3.048
sS'ILE-SER'
p346
F-2.7519999999999998
sS'ILE-ARG'
p347
F-2.9249999999999998
sS'ASN-SER'
p348
F-3.3399999999999999
sS'ILE-MET'
p349
F-2.319
sS'MET-PHE'
p350
F-2.5979999999999999
sS'PRO-ALA'
p351
F-3.3730000000000002
sS'PRO-GLY'
p352
F0
sS'GLN-THR'
p353
F-3.0990000000000002
sS'MET-ALA'
p354
F-2.778
sS'TRP-SER'
p355
F-2.9809999999999999
sS'ASP-HIS'
p356
F-3.0059999999999998
sS'ARG-SER'
p357
F-3.589
sS'GLN-HIS'
p358
F-3.0979999999999999
sS'LEU-LEU'
p359
F-3.6619999999999999
sS'ALA-GLN'
p360
F-3.4630000000000001
sS'ASP-ASN'
p361
F-3.0569999999999999
sS'SER-VAL'
p362
F-2.5880000000000001
sS'MET-ILE'
p363
F-2.4209999999999998
sS'ALA-PRO'
p364
F-3.2410000000000001
sS'ALA-ILE'
p365
F-2.9790000000000001
sS'ALA-GLY'
p366
F0
sS'TRP-TRP'
p367
F-4.5880000000000001
sS'MET-CYS'
p368
F-2.0470000000000002
sS'ALA-GLU'
p369
F-3.266
sS'THR-PRO'
p370
F-2.9119999999999999
sS'HIS-ALA'
p371
F-3.2679999999999998
sS'GLN-ILE'
p372
F-2.722
sS'GLU-VAL'
p373
F-2.5779999999999998
sS'LYS-ASN'
p374
F-3.153
sS'ASN-ALA'
p375
F-3.294
sS'GLU-TRP'
p376
F-2.786
sS'THR-ILE'
p377
F-2.637
sS'ASP-CYS'
p378
F-2.218
sS'PRO-LYS'
p379
F-3.0819999999999999
sS'TYR-TYR'
p380
F-4.2430000000000003
sS'ARG-LYS'
p381
F-3.2610000000000001
sS'ILE-ALA'
p382
F-2.9500000000000002
sS'ASP-SER'
p383
F-3.1840000000000002
sS'CYS-LYS'
p384
F-2.4300000000000002
sS'ARG-ASN'
p385
F-3.508
sS'GLU-ALA'
p386
F-3.2989999999999999
sS'PHE-GLU'
p387
F-2.5870000000000002
sS'GLU-LEU'
p388
F-2.5270000000000001
sS'ASN-TYR'
p389
F-3.1989999999999998
sS'LYS-HIS'
p390
F-3.081
sS'HIS-PRO'
p391
F-3.0710000000000002
sS'ILE-ILE'
p392
F-3.681
sS'MET-HIS'
p393
F-2.5830000000000002
sS'VAL-GLY'
p394
F0
sS'THR-MET'
p395
F-2.5590000000000002
sS'PHE-THR'
p396
F-2.895
sS'VAL-TRP'
p397
F-2.6160000000000001
sS'PHE-LYS'
p398
F-2.5710000000000002
sS'GLY-PRO'
p399
F0
sS'PHE-GLN'
p400
F-2.7240000000000002
sS'LEU-PHE'
p401
F-2.8410000000000002
s.