(dp1
S'MET-MET'
p2
F-3.468
sS'PRO-ILE'
p3
F-1.9359999999999999
sS'TYR-LYS'
p4
F-2.335
sS'VAL-ASP'
p5
F-1.734
sS'ASP-GLN'
p6
F-2.4140000000000001
sS'HIS-TYR'
p7
F-2.379
sS'ASP-GLU'
p8
F-2.3100000000000001
sS'ALA-ASP'
p9
F-2.492
sS'ASP-GLY'
p10
F0
sS'LEU-VAL'
p11
F-1.8460000000000001
sS'TRP-TYR'
p12
F-2.0550000000000002
sS'TYR-LEU'
p13
F-2.161
sS'LYS-GLU'
p14
F-2.641
sS'TRP-PHE'
p15
F-1.9419999999999999
sS'ARG-TYR'
p16
F-2.5139999999999998
sS'GLU-LYS'
p17
F-2.597
sS'ILE-HIS'
p18
F-1.9419999999999999
sS'GLY-GLY'
p19
F0
sS'LEU-MET'
p20
F-1.621
sS'GLU-HIS'
p21
F-2.4569999999999999
sS'GLY-THR'
p22
F0
sS'ARG-GLU'
p23
F-2.8029999999999999
sS'PHE-ASN'
p24
F-2.0739999999999998
sS'ASN-MET'
p25
F-1.7170000000000001
sS'PRO-THR'
p26
F-2.2400000000000002
sS'TYR-GLN'
p27
F-2.3769999999999998
sS'ARG-GLY'
p28
F0
sS'VAL-THR'
p29
F-1.756
sS'ASP-ILE'
p30
F-1.5860000000000001
sS'GLY-ILE'
p31
F0
sS'TYR-GLU'
p32
F-2.399
sS'ARG-GLN'
p33
F-2.6970000000000001
sS'TYR-GLY'
p34
F0
sS'PHE-ASP'
p35
F-1.9359999999999999
sS'CYS-ARG'
p36
F-2.1579999999999999
sS'HIS-ARG'
p37
F-2.4260000000000002
sS'VAL-LYS'
p38
F-1.782
sS'LEU-ILE'
p39
F-1.8029999999999999
sS'GLN-LEU'
p40
F-1.986
sS'GLU-MET'
p41
F-1.6970000000000001
sS'ASP-THR'
p42
F-2.226
sS'ASN-PHE'
p43
F-2.0179999999999998
sS'GLU-PRO'
p44
F-2.464
sS'LYS-ARG'
p45
F-2.4510000000000001
sS'GLY-ASP'
p46
F0
sS'PRO-GLN'
p47
F-2.5830000000000002
sS'CYS-MET'
p48
F-1.5009999999999999
sS'GLU-THR'
p49
F-2.3540000000000001
sS'ILE-THR'
p50
F-1.8480000000000001
sS'PHE-GLY'
p51
F0
sS'SER-PRO'
p52
F-2.3809999999999998
sS'GLY-CYS'
p53
F0
sS'ARG-LEU'
p54
F-2.2000000000000002
sS'PRO-GLU'
p55
F-2.3919999999999999
sS'ASP-LEU'
p56
F-1.655
sS'PHE-VAL'
p57
F-1.99
sS'ASN-VAL'
p58
F-1.954
sS'PRO-VAL'
p59
F-1.8460000000000001
sS'ALA-MET'
p60
F-2.1480000000000001
sS'LEU-PRO'
p61
F-2.0249999999999999
sS'LEU-SER'
p62
F-2.0870000000000002
sS'ASN-ARG'
p63
F-2.7240000000000002
sS'SER-THR'
p64
F-2.3039999999999998
sS'LYS-VAL'
p65
F-1.865
sS'LYS-PRO'
p66
F-2.3540000000000001
sS'GLN-VAL'
p67
F-2.0750000000000002
sS'TYR-PHE'
p68
F-2.0569999999999999
sS'ASP-VAL'
p69
F-1.7709999999999999
sS'ASN-GLY'
p70
F0
sS'ARG-PHE'
p71
F-2.141
sS'HIS-TRP'
p72
F-1.954
sS'LYS-GLN'
p73
F-2.423
sS'ASN-GLU'
p74
F-2.5089999999999999
sS'CYS-GLN'
p75
F-1.75
sS'TYR-PRO'
p76
F-2.6070000000000002
sS'ARG-ILE'
p77
F-2.1040000000000001
sS'CYS-GLU'
p78
F-1.6200000000000001
sS'ASN-GLN'
p79
F-2.5329999999999999
sS'CYS-GLY'
p80
F0
sS'GLN-SER'
p81
F-2.6829999999999998
sS'HIS-LYS'
p82
F-2.2799999999999998
sS'LEU-LYS'
p83
F-1.72
sS'LYS-GLY'
p84
F0
sS'VAL-MET'
p85
F-1.542
sS'ALA-ALA'
p86
F-3.339
sS'THR-SER'
p87
F-2.339
sS'PRO-PRO'
p88
F-3.4409999999999998
sS'ILE-PHE'
p89
F-2.0720000000000001
sS'PHE-LEU'
p90
F-2.089
sS'GLU-GLU'
p91
F-3.3969999999999998
sS'TYR-ASP'
p92
F-2.3679999999999999
sS'GLY-ALA'
p93
F0
sS'TYR-ASN'
p94
F-2.488
sS'GLU-GLN'
p95
F-2.3980000000000001
sS'TRP-ARG'
p96
F-2.3639999999999999
sS'LEU-GLU'
p97
F-1.802
sS'LEU-GLY'
p98
F0
sS'LYS-SER'
p99
F-2.5449999999999999
sS'MET-VAL'
p100
F-1.546
sS'SER-ALA'
p101
F-2.427
sS'PRO-HIS'
p102
F-2.4209999999999998
sS'MET-THR'
p103
F-1.7869999999999999
sS'ALA-PHE'
p104
F-2.5609999999999999
sS'MET-PRO'
p105
F-1.6970000000000001
sS'GLY-SER'
p106
F0
sS'LEU-GLN'
p107
F-1.9930000000000001
sS'VAL-LEU'
p108
F-1.8779999999999999
sS'LEU-CYS'
p109
F-1.587
sS'LYS-TYR'
p110
F-2.3130000000000002
sS'ASP-ALA'
p111
F-2.4529999999999998
sS'ILE-LEU'
p112
F-1.841
sS'TRP-VAL'
p113
F-1.8740000000000001
sS'PHE-PRO'
p114
F-2.2909999999999999
sS'GLU-GLY'
p115
F0
sS'ARG-TRP'
p116
F-2.4289999999999998
sS'MET-GLN'
p117
F-1.915
sS'HIS-PHE'
p118
F-1.835
sS'MET-ARG'
p119
F-2.0169999999999999
sS'TYR-THR'
p120
F-2.363
sS'SER-ARG'
p121
F-2.859
sS'THR-ARG'
p122
F-2.6000000000000001
sS'CYS-ILE'
p123
F-1.4650000000000001
sS'LEU-ASN'
p124
F-1.8520000000000001
sS'LEU-ASP'
p125
F-1.6699999999999999
sS'PHE-TRP'
p126
F-1.964
sS'MET-GLY'
p127
F0
sS'THR-PHE'
p128
F-2.1989999999999998
sS'MET-GLU'
p129
F-1.732
sS'THR-TRP'
p130
F-2.2160000000000002
sS'THR-TYR'
p131
F-2.3900000000000001
sS'CYS-VAL'
p132
F-1.405
sS'ARG-ALA'
p133
F-2.972
sS'ALA-TYR'
p134
F-2.8069999999999999
sS'ASP-PRO'
p135
F-2.2999999999999998
sS'ARG-CYS'
p136
F-2.21
sS'GLN-ARG'
p137
F-2.6800000000000002
sS'SER-HIS'
p138
F-2.4729999999999999
sS'PRO-SER'
p139
F-2.371
sS'VAL-VAL'
p140
F-2.8109999999999999
sS'GLN-TRP'
p141
F-2.2509999999999999
sS'GLY-LYS'
p142
F0
sS'CYS-ASN'
p143
F-1.8580000000000001
sS'GLY-TRP'
p144
F0
sS'THR-CYS'
p145
F-1.728
sS'LYS-LYS'
p146
F-3.3599999999999999
sS'CYS-ASP'
p147
F-1.679
sS'VAL-PRO'
p148
F-1.778
sS'THR-VAL'
p149
F-1.7969999999999999
sS'ASP-TYR'
p150
F-2.3969999999999998
sS'PRO-CYS'
p151
F-1.8300000000000001
sS'VAL-SER'
p152
F-1.907
sS'ARG-HIS'
p153
F-2.5299999999999998
sS'CYS-PRO'
p154
F-1.796
sS'MET-LYS'
p155
F-1.74
sS'ALA-SER'
p156
F-2.4380000000000002
sS'TYR-SER'
p157
F-2.6339999999999999
sS'GLY-ARG'
p158
F0
sS'GLN-ALA'
p159
F-2.7919999999999998
sS'MET-LEU'
p160
F-1.6479999999999999
sS'ASN-HIS'
p161
F-2.3620000000000001
sS'VAL-CYS'
p162
F-1.3140000000000001
sS'GLN-TYR'
p163
F-2.4510000000000001
sS'MET-SER'
p164
F-2.0299999999999998
sS'ALA-TRP'
p165
F-2.649
sS'GLU-ASN'
p166
F-2.5019999999999998
sS'CYS-ALA'
p167
F-1.7869999999999999
sS'GLY-ASN'
p168
F0
sS'ASN-ASP'
p169
F-2.331
sS'ASN-PRO'
p170
F-2.5089999999999999
sS'PRO-ARG'
p171
F-2.6829999999999998
sS'LYS-TRP'
p172
F-2.0089999999999999
sS'ASN-ASN'
p173
F-3.7610000000000001
sS'THR-ALA'
p174
F-2.5059999999999998
sS'LYS-ALA'
p175
F-2.5169999999999999
sS'SER-GLN'
p176
F-2.665
sS'ILE-VAL'
p177
F-1.724
sS'ASP-ARG'
p178
F-2.8439999999999999
sS'ASP-MET'
p179
F-1.663
sS'CYS-TYR'
p180
F-2.254
sS'PRO-TRP'
p181
F-2.3290000000000002
sS'ILE-LYS'
p182
F-1.6120000000000001
sS'TRP-ALA'
p183
F-2.706
sS'ILE-CYS'
p184
F-1.377
sS'LYS-ILE'
p185
F-1.6519999999999999
sS'GLN-CYS'
p186
F-1.7549999999999999
sS'ARG-ASP'
p187
F-2.9009999999999998
sS'SER-GLU'
p188
F-2.597
sS'TRP-HIS'
p189
F-2.0529999999999999
sS'ALA-ASN'
p190
F-2.6099999999999999
sS'GLU-CYS'
p191
F-1.659
sS'ALA-CYS'
p192
F-1.758
sS'PRO-MET'
p193
F-1.6839999999999999
sS'TYR-HIS'
p194
F-2.319
sS'PHE-MET'
p195
F-1.9419999999999999
sS'GLU-TYR'
p196
F-2.4540000000000002
sS'SER-TRP'
p197
F-2.403
sS'PHE-ARG'
p198
F-2.0779999999999998
sS'THR-HIS'
p199
F-2.2909999999999999
sS'TYR-VAL'
p200
F-2.141
sS'SER-ILE'
p201
F-2.0270000000000001
sS'GLN-PRO'
p202
F-2.524
sS'ALA-VAL'
p203
F-2.2240000000000002
sS'HIS-HIS'
p204
F-3.9700000000000002
sS'THR-ASN'
p205
F-2.3719999999999999
sS'CYS-LEU'
p206
F-1.4870000000000001
sS'LYS-MET'
p207
F-1.637
sS'LYS-ASP'
p208
F-2.5710000000000002
sS'HIS-ASN'
p209
F-2.4590000000000001
sS'ILE-GLN'
p210
F-1.8540000000000001
sS'VAL-HIS'
p211
F-1.847
sS'ALA-LEU'
p212
F-2.4279999999999999
sS'HIS-ASP'
p213
F-2.367
sS'ILE-TYR'
p214
F-2.1440000000000001
sS'ILE-GLU'
p215
F-1.726
sS'ASP-ASP'
p216
F-3.2440000000000002
sS'ILE-GLY'
p217
F0
sS'ASN-CYS'
p218
F-1.984
sS'GLU-SER'
p219
F-2.5830000000000002
sS'ILE-ASN'
p220
F-1.889
sS'HIS-CYS'
p221
F-1.548
sS'HIS-MET'
p222
F-1.752
sS'ILE-PRO'
p223
F-1.9850000000000001
sS'LYS-PHE'
p224
F-1.7789999999999999
sS'GLY-PHE'
p225
F0
sS'ILE-ASP'
p226
F-1.6279999999999999
sS'PHE-HIS'
p227
F-1.8979999999999999
sS'GLY-TYR'
p228
F0
sS'SER-GLY'
p229
F0
sS'CYS-TRP'
p230
F-1.5489999999999999
sS'ASP-LYS'
p231
F-2.5510000000000002
sS'ASN-ILE'
p232
F-1.9219999999999999
sS'HIS-SER'
p233
F-2.5459999999999998
sS'LYS-CYS'
p234
F-1.556
sS'TRP-PRO'
p235
F-2.2349999999999999
sS'ASN-THR'
p236
F-2.3479999999999999
sS'GLN-PHE'
p237
F-2.0630000000000002
sS'VAL-ALA'
p238
F-2.2090000000000001
sS'SER-LEU'
p239
F-2.0750000000000002
sS'TRP-LYS'
p240
F-2.0640000000000001
sS'VAL-TYR'
p241
F-2.0649999999999999
sS'VAL-PHE'
p242
F-1.9870000000000001
sS'ARG-THR'
p243
F-2.6240000000000001
sS'TYR-TRP'
p244
F-2.0089999999999999
sS'GLN-GLN'
p245
F-3.8250000000000002
sS'GLU-PHE'
p246
F-1.8799999999999999
sS'VAL-ILE'
p247
F-1.744
sS'HIS-GLN'
p248
F-2.2240000000000002
sS'GLN-GLY'
p249
F0
sS'PHE-ALA'
p250
F-2.5299999999999998
sS'HIS-GLU'
p251
F-2.3839999999999999
sS'ARG-PRO'
p252
F-2.6840000000000002
sS'HIS-GLY'
p253
F0
sS'SER-ASN'
p254
F-2.6349999999999998
sS'ALA-THR'
p255
F-2.4489999999999998
sS'GLN-GLU'
p256
F-2.379
sS'GLN-LYS'
p257
F-2.3719999999999999
sS'CYS-HIS'
p258
F-1.647
sS'GLN-ASP'
p259
F-2.4550000000000001
sS'LEU-HIS'
p260
F-1.9279999999999999
sS'SER-LYS'
p261
F-2.556
sS'TRP-LEU'
p262
F-2.024
sS'CYS-SER'
p263
F-1.7649999999999999
sS'LYS-THR'
p264
F-2.177
sS'HIS-LEU'
p265
F-1.859
sS'LEU-ARG'
p266
F-2.137
sS'GLY-VAL'
p267
F0
sS'GLN-ASN'
p268
F-2.5419999999999998
sS'TYR-ARG'
p269
F-2.4820000000000002
sS'PRO-TYR'
p270
F-2.6240000000000001
sS'ASP-PHE'
p271
F-1.8819999999999999
sS'ARG-VAL'
p272
F-2.2509999999999999
sS'ASN-LEU'
p273
F-1.857
sS'SER-MET'
p274
F-1.9570000000000001
sS'HIS-ILE'
p275
F-1.764
sS'GLY-LEU'
p276
F0
sS'SER-TYR'
p277
F-2.6829999999999998
sS'MET-TYR'
p278
F-2.0750000000000002
sS'GLU-ILE'
p279
F-1.79
sS'PHE-CYS'
p280
F-1.96
sS'PRO-LEU'
p281
F-1.996
sS'GLY-MET'
p282
F0
sS'HIS-THR'
p283
F-2.2759999999999998
sS'THR-GLN'
p284
F-2.4809999999999999
sS'TRP-THR'
p285
F-2.2210000000000001
sS'LYS-LEU'
p286
F-1.7170000000000001
sS'THR-GLY'
p287
F0
sS'ALA-LYS'
p288
F-2.4729999999999999
sS'ASP-TRP'
p289
F-2.032
sS'TYR-MET'
p290
F-1.99
sS'PHE-ILE'
p291
F-2.0529999999999999
sS'THR-GLU'
p292
F-2.3170000000000002
sS'MET-ASN'
p293
F-1.869
sS'LEU-TYR'
p294
F-2.1259999999999999
sS'PHE-PHE'
p295
F-3.2909999999999999
sS'CYS-PHE'
p296
F-1.9770000000000001
sS'TRP-ILE'
p297
F-1.853
sS'PRO-ASN'
p298
F-2.4849999999999999
sS'CYS-CYS'
p299
F-4.4749999999999996
sS'SER-ASP'
p300
F-2.5299999999999998
sS'ARG-MET'
p301
F-2.0409999999999999
sS'SER-PHE'
p302
F-2.2690000000000001
sS'SER-SER'
p303
F-3.468
sS'ASN-LYS'
p304
F-2.52
sS'CYS-THR'
p305
F-1.627
sS'ILE-TRP'
p306
F-1.8580000000000001
sS'PRO-ASP'
p307
F-2.3119999999999998
sS'THR-ASP'
p308
F-2.1749999999999998
sS'SER-CYS'
p309
F-1.6599999999999999
sS'MET-ASP'
p310
F-1.6539999999999999
sS'GLN-MET'
p311
F-1.746
sS'MET-TRP'
p312
F-1.8169999999999999
sS'TRP-CYS'
p313
F-1.3160000000000001
sS'GLY-GLN'
p314
F0
sS'THR-LYS'
p315
F-2.226
sS'TRP-MET'
p316
F-1.871
sS'ARG-ARG'
p317
F-3.8029999999999999
sS'ALA-ARG'
p318
F-2.9820000000000002
sS'PRO-PHE'
p319
F-2.2930000000000001
sS'ASN-TRP'
p320
F-2.1800000000000002
sS'GLU-ARG'
p321
F-2.7890000000000001
sS'HIS-VAL'
p322
F-1.8779999999999999
sS'VAL-ARG'
p323
F-2.1760000000000002
sS'TRP-GLU'
p324
F-2.0489999999999999
sS'PHE-TYR'
p325
F-2.1360000000000001
sS'VAL-GLN'
p326
F-2.036
sS'TRP-ASN'
p327
F-2.363
sS'TYR-ILE'
p328
F-2.0990000000000002
sS'TRP-GLY'
p329
F0
sS'GLY-GLU'
p330
F0
sS'GLY-HIS'
p331
F0
sS'PHE-SER'
p332
F-2.3149999999999999
sS'TRP-ASP'
p333
F-1.998
sS'TRP-GLN'
p334
F-2.383
sS'LEU-ALA'
p335
F-2.363
sS'VAL-GLU'
p336
F-1.907
sS'ALA-HIS'
p337
F-2.7160000000000002
sS'TYR-ALA'
p338
F-2.8439999999999999
sS'LEU-THR'
p339
F-1.8959999999999999
sS'TYR-CYS'
p340
F-2.0219999999999998
sS'THR-THR'
p341
F-3.302
sS'THR-LEU'
p342
F-1.8819999999999999
sS'VAL-ASN'
p343
F-1.9119999999999999
sS'LEU-TRP'
p344
F-2.0790000000000002
sS'GLU-ASP'
p345
F-2.298
sS'ILE-SER'
p346
F-2.0630000000000002
sS'ILE-ARG'
p347
F-2.1389999999999998
sS'ASN-SER'
p348
F-2.6299999999999999
sS'ILE-MET'
p349
F-1.5589999999999999
sS'MET-PHE'
p350
F-1.9159999999999999
sS'PRO-ALA'
p351
F-2.6589999999999998
sS'PRO-GLY'
p352
F0
sS'GLN-THR'
p353
F-2.4119999999999999
sS'MET-ALA'
p354
F-2.1320000000000001
sS'TRP-SER'
p355
F-2.2999999999999998
sS'ASP-HIS'
p356
F-2.3079999999999998
sS'ARG-SER'
p357
F-2.8969999999999998
sS'GLN-HIS'
p358
F-2.3690000000000002
sS'LEU-LEU'
p359
F-2.992
sS'ALA-GLN'
p360
F-2.7679999999999998
sS'ASP-ASN'
p361
F-2.3540000000000001
sS'SER-VAL'
p362
F-1.9259999999999999
sS'MET-ILE'
p363
F-1.581
sS'ALA-PRO'
p364
F-2.5489999999999999
sS'ALA-ILE'
p365
F-2.2959999999999998
sS'ALA-GLY'
p366
F0
sS'TRP-TRP'
p367
F-3.9319999999999999
sS'MET-CYS'
p368
F-1.329
sS'ALA-GLU'
p369
F-2.5659999999999998
sS'THR-PRO'
p370
F-2.202
sS'HIS-ALA'
p371
F-2.609
sS'GLN-ILE'
p372
F-1.948
sS'GLU-VAL'
p373
F-1.877
sS'LYS-ASN'
p374
F-2.4620000000000002
sS'ASN-ALA'
p375
F-2.5870000000000002
sS'GLU-TRP'
p376
F-2.097
sS'THR-ILE'
p377
F-1.9530000000000001
sS'ASP-CYS'
p378
F-1.5209999999999999
sS'PRO-LYS'
p379
F-2.3730000000000002
sS'TYR-TYR'
p380
F-3.544
sS'ARG-LYS'
p381
F-2.4980000000000002
sS'ILE-ALA'
p382
F-2.258
sS'ASP-SER'
p383
F-2.4860000000000002
sS'CYS-LYS'
p384
F-1.6160000000000001
sS'ARG-ASN'
p385
F-2.7639999999999998
sS'GLU-ALA'
p386
F-2.5920000000000001
sS'PHE-GLU'
p387
F-1.8979999999999999
sS'GLU-LEU'
p388
F-1.843
sS'ASN-TYR'
p389
F-2.4969999999999999
sS'LYS-HIS'
p390
F-2.2690000000000001
sS'HIS-PRO'
p391
F-2.359
sS'ILE-ILE'
p392
F-2.984
sS'MET-HIS'
p393
F-1.835
sS'VAL-GLY'
p394
F0
sS'THR-MET'
p395
F-1.772
sS'PHE-THR'
p396
F-2.1600000000000001
sS'VAL-TRP'
p397
F-1.9359999999999999
sS'PHE-LYS'
p398
F-1.8069999999999999
sS'GLY-PRO'
p399
F0
sS'PHE-GLN'
p400
F-2.044
sS'LEU-PHE'
p401
F-2.0800000000000001
s.