(dp1
S'MET-MET'
p2
F-1.8819999999999999
sS'PRO-ILE'
p3
F-0.67000000000000004
sS'TYR-LYS'
p4
F-1.1100000000000001
sS'VAL-ASP'
p5
F-0.33000000000000002
sS'ASP-GLN'
p6
F-1.24
sS'HIS-TYR'
p7
F-1.3680000000000001
sS'ASP-GLU'
p8
F-1.0600000000000001
sS'ALA-ASP'
p9
F-0.68100000000000005
sS'ASP-GLY'
p10
F0
sS'LEU-VAL'
p11
F-0.63200000000000001
sS'TRP-TYR'
p12
F-0.98799999999999999
sS'TYR-LEU'
p13
F-1.036
sS'LYS-GLU'
p14
F-1.7350000000000001
sS'TRP-PHE'
p15
F-1.026
sS'ARG-TYR'
p16
F-1.4990000000000001
sS'GLU-LYS'
p17
F-1.7170000000000001
sS'ILE-HIS'
p18
F-0.78500000000000003
sS'GLY-GLY'
p19
F0
sS'LEU-MET'
p20
F-0.60999999999999999
sS'GLU-HIS'
p21
F-1.577
sS'GLY-THR'
p22
F0
sS'ARG-GLU'
p23
F-1.9099999999999999
sS'PHE-ASN'
p24
F-0.871
sS'ASN-MET'
p25
F-0.54300000000000004
sS'PRO-THR'
p26
F-1.006
sS'TYR-GLN'
p27
F-1.248
sS'ARG-GLY'
p28
F0
sS'VAL-THR'
p29
F-0.57799999999999996
sS'ASP-ILE'
p30
F-0.35199999999999998
sS'GLY-ILE'
p31
F0
sS'TYR-GLU'
p32
F-1.2889999999999999
sS'ARG-GLN'
p33
F-1.5940000000000001
sS'TYR-GLY'
p34
F0
sS'PHE-ASP'
p35
F-0.63400000000000001
sS'CYS-ARG'
p36
F-0.67800000000000005
sS'HIS-ARG'
p37
F-1.3240000000000001
sS'VAL-LYS'
p38
F-0.32300000000000001
sS'LEU-ILE'
p39
F-0.79500000000000004
sS'GLN-LEU'
p40
F-0.82699999999999996
sS'GLU-MET'
p41
F-0.51400000000000001
sS'ASP-THR'
p42
F-0.93799999999999994
sS'ASN-PHE'
p43
F-0.85099999999999998
sS'GLU-PRO'
p44
F-1.1679999999999999
sS'LYS-ARG'
p45
F-1.2050000000000001
sS'GLY-ASP'
p46
F0
sS'PRO-GLN'
p47
F-1.3740000000000001
sS'CYS-MET'
p48
F-0.222
sS'GLU-THR'
p49
F-1.103
sS'ILE-THR'
p50
F-0.54400000000000004
sS'PHE-GLY'
p51
F0
sS'SER-PRO'
p52
F-1.0289999999999999
sS'GLY-CYS'
p53
F0
sS'ARG-LEU'
p54
F-1.0309999999999999
sS'PRO-GLU'
p55
F-1.101
sS'ASP-LEU'
p56
F-0.47899999999999998
sS'PHE-VAL'
p57
F-0.80600000000000005
sS'ASN-VAL'
p58
F-0.66000000000000003
sS'PRO-VAL'
p59
F-0.57099999999999995
sS'ALA-MET'
p60
F-0.41699999999999998
sS'LEU-PRO'
p61
F-0.73899999999999999
sS'LEU-SER'
p62
F-0.61699999999999999
sS'ASN-ARG'
p63
F-1.5980000000000001
sS'SER-THR'
p64
F-0.88300000000000001
sS'LYS-VAL'
p65
F-0.41999999999999998
sS'LYS-PRO'
p66
F-0.96899999999999997
sS'GLN-VAL'
p67
F-0.72499999999999998
sS'TYR-PHE'
p68
F-1.0880000000000001
sS'ASP-VAL'
p69
F-0.34399999999999997
sS'ASN-GLY'
p70
F0
sS'ARG-PHE'
p71
F-1.1100000000000001
sS'HIS-TRP'
p72
F-0.86899999999999999
sS'LYS-GLN'
p73
F-1.333
sS'ASN-GLU'
p74
F-1.3879999999999999
sS'CYS-GLN'
p75
F-0.27200000000000002
sS'TYR-PRO'
p76
F-1.4670000000000001
sS'ARG-ILE'
p77
F-0.871
sS'CYS-GLU'
p78
F0.028000000000000001
sS'ASN-GLN'
p79
F-1.5509999999999999
sS'CYS-GLY'
p80
F0
sS'GLN-SER'
p81
F-1.3180000000000001
sS'HIS-LYS'
p82
F-1.1040000000000001
sS'LEU-LYS'
p83
F-0.379
sS'LYS-GLY'
p84
F0
sS'VAL-MET'
p85
F-0.40000000000000002
sS'ALA-ALA'
p86
F-1.0820000000000001
sS'THR-SER'
p87
F-0.92200000000000004
sS'PRO-PRO'
p88
F-1.6359999999999999
sS'ILE-PHE'
p89
F-1.0549999999999999
sS'PHE-LEU'
p90
F-1.069
sS'GLU-GLU'
p91
F-1.6259999999999999
sS'TYR-ASP'
p92
F-1.22
sS'GLY-ALA'
p93
F0
sS'TYR-ASN'
p94
F-1.321
sS'GLU-GLN'
p95
F-1.2989999999999999
sS'TRP-ARG'
p96
F-1.284
sS'LEU-GLU'
p97
F-0.499
sS'LEU-GLY'
p98
F0
sS'LYS-SER'
p99
F-1.1240000000000001
sS'MET-VAL'
p100
F-0.41999999999999998
sS'SER-ALA'
p101
F-0.747
sS'PRO-HIS'
p102
F-1.1950000000000001
sS'MET-THR'
p103
F-0.57399999999999995
sS'ALA-PHE'
p104
F-0.87
sS'MET-PRO'
p105
F-0.52900000000000003
sS'GLY-SER'
p106
F0
sS'LEU-GLN'
p107
F-0.83199999999999996
sS'VAL-LEU'
p108
F-0.67200000000000004
sS'LEU-CYS'
p109
F-0.126
sS'LYS-TYR'
p110
F-1.139
sS'ASP-ALA'
p111
F-0.65200000000000002
sS'ILE-LEU'
p112
F-0.83699999999999997
sS'TRP-VAL'
p113
F-0.58299999999999996
sS'PHE-PRO'
p114
F-1.1140000000000001
sS'GLU-GLY'
p115
F0
sS'ARG-TRP'
p116
F-1.395
sS'MET-GLN'
p117
F-0.79400000000000004
sS'HIS-PHE'
p118
F-0.75600000000000001
sS'MET-ARG'
p119
F-0.79600000000000004
sS'TYR-THR'
p120
F-1.0449999999999999
sS'SER-ARG'
p121
F-1.4370000000000001
sS'THR-ARG'
p122
F-1.3100000000000001
sS'CYS-ILE'
p123
F-0.10000000000000001
sS'LEU-ASN'
p124
F-0.71099999999999997
sS'LEU-ASP'
p125
F-0.44800000000000001
sS'PHE-TRP'
p126
F-0.95499999999999996
sS'MET-GLY'
p127
F0
sS'THR-PHE'
p128
F-0.89900000000000002
sS'MET-GLU'
p129
F-0.503
sS'THR-TRP'
p130
F-0.88900000000000001
sS'THR-TYR'
p131
F-1.0980000000000001
sS'CYS-VAL'
p132
F0.001
sS'ARG-ALA'
p133
F-1.1399999999999999
sS'ALA-TYR'
p134
F-1.0620000000000001
sS'ASP-PRO'
p135
F-1.0249999999999999
sS'ARG-CYS'
p136
F-0.66700000000000004
sS'GLN-ARG'
p137
F-1.5620000000000001
sS'SER-HIS'
p138
F-1.117
sS'PRO-SER'
p139
F-1.0109999999999999
sS'VAL-VAL'
p140
F-1.0409999999999999
sS'GLN-TRP'
p141
F-1.109
sS'GLY-LYS'
p142
F0
sS'CYS-ASN'
p143
F-0.47199999999999998
sS'GLY-TRP'
p144
F0
sS'THR-CYS'
p145
F-0.39900000000000002
sS'LYS-LYS'
p146
F-1.409
sS'CYS-ASP'
p147
F-0.222
sS'VAL-PRO'
p148
F-0.63200000000000001
sS'THR-VAL'
p149
F-0.51200000000000001
sS'ASP-TYR'
p150
F-1.2889999999999999
sS'PRO-CYS'
p151
F-0.52300000000000002
sS'VAL-SER'
p152
F-0.48899999999999999
sS'ARG-HIS'
p153
F-1.4810000000000001
sS'CYS-PRO'
p154
F-0.46100000000000002
sS'MET-LYS'
p155
F-0.58299999999999996
sS'ALA-SER'
p156
F-0.70099999999999996
sS'TYR-SER'
p157
F-1.204
sS'GLY-ARG'
p158
F0
sS'GLN-ALA'
p159
F-0.99399999999999999
sS'MET-LEU'
p160
F-0.64800000000000002
sS'ASN-HIS'
p161
F-1.224
sS'VAL-CYS'
p162
F0.108
sS'GLN-TYR'
p163
F-1.337
sS'MET-SER'
p164
F-0.56200000000000006
sS'ALA-TRP'
p165
F-0.91900000000000004
sS'GLU-ASN'
p166
F-1.3640000000000001
sS'CYS-ALA'
p167
F-0.048000000000000001
sS'GLY-ASN'
p168
F0
sS'ASN-ASP'
p169
F-1.208
sS'ASN-PRO'
p170
F-1.226
sS'PRO-ARG'
p171
F-1.4590000000000001
sS'LYS-TRP'
p172
F-0.87
sS'ASN-ASN'
p173
F-2.149
sS'THR-ALA'
p174
F-0.75900000000000001
sS'LYS-ALA'
p175
F-0.68700000000000006
sS'SER-GLN'
p176
F-1.292
sS'ILE-VAL'
p177
F-0.52800000000000002
sS'ASP-ARG'
p178
F-1.8799999999999999
sS'ASP-MET'
p179
F-0.39200000000000002
sS'CYS-TYR'
p180
F-0.60299999999999998
sS'PRO-TRP'
p181
F-1.1850000000000001
sS'ILE-LYS'
p182
F-0.39600000000000002
sS'TRP-ALA'
p183
F-1.0009999999999999
sS'ILE-CYS'
p184
F0.10299999999999999
sS'LYS-ILE'
p185
F-0.48499999999999999
sS'GLN-CYS'
p186
F-0.14499999999999999
sS'ARG-ASP'
p187
F-1.9330000000000001
sS'SER-GLU'
p188
F-1.2529999999999999
sS'TRP-HIS'
p189
F-0.98199999999999998
sS'ALA-ASN'
p190
F-0.84299999999999997
sS'GLU-CYS'
p191
F-0.01
sS'ALA-CYS'
p192
F-0.050000000000000003
sS'PRO-MET'
p193
F-0.496
sS'TYR-HIS'
p194
F-1.335
sS'PHE-MET'
p195
F-0.93799999999999994
sS'GLU-TYR'
p196
F-1.351
sS'SER-TRP'
p197
F-0.96699999999999997
sS'PHE-ARG'
p198
F-1.014
sS'THR-HIS'
p199
F-1.0289999999999999
sS'TYR-VAL'
p200
F-0.85899999999999999
sS'SER-ILE'
p201
F-0.52900000000000003
sS'GLN-PRO'
p202
F-1.2989999999999999
sS'ALA-VAL'
p203
F-0.497
sS'HIS-HIS'
p204
F-2.508
sS'THR-ASN'
p205
F-1.137
sS'CYS-LEU'
p206
F0.012999999999999999
sS'LYS-MET'
p207
F-0.42699999999999999
sS'LYS-ASP'
p208
F-1.5369999999999999
sS'HIS-ASN'
p209
F-1.3129999999999999
sS'ILE-GLN'
p210
F-0.75600000000000001
sS'VAL-HIS'
p211
F-0.56399999999999995
sS'ALA-LEU'
p212
F-0.71599999999999997
sS'HIS-ASP'
p213
F-1.3400000000000001
sS'ILE-TYR'
p214
F-1.01
sS'ILE-GLU'
p215
F-0.48699999999999999
sS'ASP-ASP'
p216
F-1.4710000000000001
sS'ILE-GLY'
p217
F0
sS'ASN-CYS'
p218
F-0.54300000000000004
sS'GLU-SER'
p219
F-1.2529999999999999
sS'ILE-ASN'
p220
F-0.65600000000000003
sS'HIS-CYS'
p221
F-0.27300000000000002
sS'HIS-MET'
p222
F-0.48899999999999999
sS'ILE-PRO'
p223
F-0.73599999999999999
sS'LYS-PHE'
p224
F-0.53200000000000003
sS'GLY-PHE'
p225
F0
sS'ILE-ASP'
p226
F-0.36899999999999999
sS'PHE-HIS'
p227
F-0.76200000000000001
sS'GLY-TYR'
p228
F0
sS'SER-GLY'
p229
F0
sS'CYS-TRP'
p230
F0.042999999999999997
sS'ASP-LYS'
p231
F-1.524
sS'ASN-ILE'
p232
F-0.73499999999999999
sS'HIS-SER'
p233
F-1.1559999999999999
sS'LYS-CYS'
p234
F0.033000000000000002
sS'TRP-PRO'
p235
F-1.0509999999999999
sS'ASN-THR'
p236
F-1.117
sS'GLN-PHE'
p237
F-0.91800000000000004
sS'VAL-ALA'
p238
F-0.46500000000000002
sS'SER-LEU'
p239
F-0.62
sS'TRP-LYS'
p240
F-0.86499999999999999
sS'VAL-TYR'
p241
F-0.78500000000000003
sS'VAL-PHE'
p242
F-0.77300000000000002
sS'ARG-THR'
p243
F-1.325
sS'TYR-TRP'
p244
F-0.99299999999999999
sS'GLN-GLN'
p245
F-2.2280000000000002
sS'GLU-PHE'
p246
F-0.69799999999999995
sS'VAL-ILE'
p247
F-0.66000000000000003
sS'HIS-GLN'
p248
F-1.173
sS'GLN-GLY'
p249
F0
sS'PHE-ALA'
p250
F-0.86899999999999999
sS'HIS-GLU'
p251
F-1.452
sS'ARG-PRO'
p252
F-1.401
sS'HIS-GLY'
p253
F0
sS'SER-ASN'
p254
F-1.2669999999999999
sS'ALA-THR'
p255
F-0.71099999999999997
sS'GLN-GLU'
p256
F-1.232
sS'GLN-LYS'
p257
F-1.2889999999999999
sS'CYS-HIS'
p258
F-0.436
sS'GLN-ASP'
p259
F-1.276
sS'LEU-HIS'
p260
F-0.76200000000000001
sS'SER-LYS'
p261
F-1.1279999999999999
sS'TRP-LEU'
p262
F-1.0860000000000001
sS'CYS-SER'
p263
F-0.49199999999999999
sS'LYS-THR'
p264
F-0.81899999999999995
sS'HIS-LEU'
p265
F-0.73699999999999999
sS'LEU-ARG'
p266
F-0.95399999999999996
sS'GLY-VAL'
p267
F0
sS'GLN-ASN'
p268
F-1.4910000000000001
sS'TYR-ARG'
p269
F-1.425
sS'PRO-TYR'
p270
F-1.492
sS'ASP-PHE'
p271
F-0.54800000000000004
sS'ARG-VAL'
p272
F-0.86399999999999999
sS'ASN-LEU'
p273
F-0.71299999999999997
sS'SER-MET'
p274
F-0.46899999999999997
sS'HIS-ILE'
p275
F-0.66000000000000003
sS'GLY-LEU'
p276
F0
sS'SER-TYR'
p277
F-1.248
sS'MET-TYR'
p278
F-1.03
sS'GLU-ILE'
p279
F-0.55500000000000005
sS'PHE-CYS'
p280
F-0.59799999999999998
sS'PRO-LEU'
p281
F-0.71299999999999997
sS'GLY-MET'
p282
F0
sS'HIS-THR'
p283
F-1.018
sS'THR-GLN'
p284
F-1.2769999999999999
sS'TRP-THR'
p285
F-0.92300000000000004
sS'LYS-LEU'
p286
F-0.40300000000000002
sS'THR-GLY'
p287
F0
sS'ALA-LYS'
p288
F-0.65900000000000003
sS'ASP-TRP'
p289
F-0.72199999999999998
sS'TYR-MET'
p290
F-0.94299999999999995
sS'PHE-ILE'
p291
F-1.0389999999999999
sS'THR-GLU'
p292
F-1.0720000000000001
sS'MET-ASN'
p293
F-0.70899999999999996
sS'LEU-TYR'
p294
F-0.999
sS'PHE-PHE'
p295
F-1.8939999999999999
sS'CYS-PHE'
p296
F-0.52500000000000002
sS'TRP-ILE'
p297
F-0.81499999999999995
sS'PRO-ASN'
p298
F-1.2050000000000001
sS'CYS-CYS'
p299
F-3.1080000000000001
sS'SER-ASP'
p300
F-1.1579999999999999
sS'ARG-MET'
p301
F-0.86899999999999999
sS'SER-PHE'
p302
F-0.81699999999999995
sS'SER-SER'
p303
F-1.5309999999999999
sS'ASN-LYS'
p304
F-1.3160000000000001
sS'CYS-THR'
p305
F-0.26600000000000001
sS'ILE-TRP'
p306
F-0.78500000000000003
sS'PRO-ASP'
p307
F-1.0369999999999999
sS'THR-ASP'
p308
F-0.89600000000000002
sS'SER-CYS'
p309
F-0.17199999999999999
sS'MET-ASP'
p310
F-0.40000000000000002
sS'GLN-MET'
p311
F-0.70599999999999996
sS'MET-TRP'
p312
F-0.77500000000000002
sS'TRP-CYS'
p313
F0.20300000000000001
sS'GLY-GLN'
p314
F0
sS'THR-LYS'
p315
F-0.85399999999999998
sS'TRP-MET'
p316
F-0.76800000000000002
sS'ARG-ARG'
p317
F-2.1680000000000001
sS'ALA-ARG'
p318
F-1.1419999999999999
sS'PRO-PHE'
p319
F-1.093
sS'ASN-TRP'
p320
F-0.94999999999999996
sS'GLU-ARG'
p321
F-1.8799999999999999
sS'HIS-VAL'
p322
F-0.70799999999999996
sS'VAL-ARG'
p323
F-0.81299999999999994
sS'TRP-GLU'
p324
F-0.90000000000000002
sS'PHE-TYR'
p325
F-1.1519999999999999
sS'VAL-GLN'
p326
F-0.77400000000000002
sS'TRP-ASN'
p327
F-1.1910000000000001
sS'TYR-ILE'
p328
F-1.0129999999999999
sS'TRP-GLY'
p329
F0
sS'GLY-GLU'
p330
F0
sS'GLY-HIS'
p331
F0
sS'PHE-SER'
p332
F-0.85199999999999998
sS'TRP-ASP'
p333
F-0.82899999999999996
sS'TRP-GLN'
p334
F-1.2310000000000001
sS'LEU-ALA'
p335
F-0.66300000000000003
sS'VAL-GLU'
p336
F-0.55300000000000005
sS'ALA-HIS'
p337
F-1.024
sS'TYR-ALA'
p338
F-1.0580000000000001
sS'LEU-THR'
p339
F-0.55100000000000005
sS'TYR-CYS'
p340
F-0.42899999999999999
sS'THR-THR'
p341
F-1.52
sS'THR-LEU'
p342
F-0.60599999999999998
sS'VAL-ASN'
p343
F-0.59399999999999997
sS'LEU-TRP'
p344
F-1.054
sS'GLU-ASP'
p345
F-1.0860000000000001
sS'ILE-SER'
p346
F-0.56699999999999995
sS'ILE-ARG'
p347
F-0.88500000000000001
sS'ASN-SER'
p348
F-1.2909999999999999
sS'ILE-MET'
p349
F-0.45300000000000001
sS'MET-PHE'
p350
F-0.91400000000000003
sS'PRO-ALA'
p351
F-0.96899999999999997
sS'PRO-GLY'
p352
F0
sS'GLN-THR'
p353
F-1.175
sS'MET-ALA'
p354
F-0.38500000000000001
sS'TRP-SER'
p355
F-0.89900000000000002
sS'ASP-HIS'
p356
F-1.3180000000000001
sS'ARG-SER'
p357
F-1.48
sS'GLN-HIS'
p358
F-1.3009999999999999
sS'LEU-LEU'
p359
F-1.3540000000000001
sS'ALA-GLN'
p360
F-1.006
sS'ASP-ASN'
p361
F-1.2130000000000001
sS'SER-VAL'
p362
F-0.48799999999999999
sS'MET-ILE'
p363
F-0.52400000000000002
sS'ALA-PRO'
p364
F-0.82399999999999995
sS'ALA-ILE'
p365
F-0.56799999999999995
sS'ALA-GLY'
p366
F0
sS'TRP-TRP'
p367
F-2.3900000000000001
sS'MET-CYS'
p368
F0.055
sS'ALA-GLU'
p369
F-0.77100000000000002
sS'THR-PRO'
p370
F-1.004
sS'HIS-ALA'
p371
F-0.82999999999999996
sS'GLN-ILE'
p372
F-0.82399999999999995
sS'GLU-VAL'
p373
F-0.53500000000000003
sS'LYS-ASN'
p374
F-1.2290000000000001
sS'ASN-ALA'
p375
F-0.83799999999999997
sS'GLU-TRP'
p376
F-0.93600000000000005
sS'THR-ILE'
p377
F-0.63
sS'ASP-CYS'
p378
F0.070000000000000007
sS'PRO-LYS'
p379
F-0.97599999999999998
sS'TYR-TYR'
p380
F-1.998
sS'ARG-LYS'
p381
F-1.24
sS'ILE-ALA'
p382
F-0.52700000000000002
sS'ASP-SER'
p383
F-1.1319999999999999
sS'CYS-LYS'
p384
F-0.152
sS'ARG-ASN'
p385
F-1.6419999999999999
sS'GLU-ALA'
p386
F-0.79800000000000004
sS'PHE-GLU'
p387
F-0.67700000000000005
sS'GLU-LEU'
p388
F-0.56299999999999994
sS'ASN-TYR'
p389
F-1.3009999999999999
sS'LYS-HIS'
p390
F-1.1399999999999999
sS'HIS-PRO'
p391
F-1.123
sS'ILE-ILE'
p392
F-1.3160000000000001
sS'MET-HIS'
p393
F-0.63100000000000001
sS'VAL-GLY'
p394
F0
sS'THR-MET'
p395
F-0.59299999999999997
sS'PHE-THR'
p396
F-0.90900000000000003
sS'VAL-TRP'
p397
F-0.70199999999999996
sS'PHE-LYS'
p398
F-0.56399999999999995
sS'GLY-PRO'
p399
F0
sS'PHE-GLN'
p400
F-0.90300000000000002
sS'LEU-PHE'
p401
F-1.0700000000000001
s.