(dp1
S'MET-MET'
p2
F-0.17199999999999999
sS'PRO-ILE'
p3
F1.218
sS'TYR-LYS'
p4
F1.6439999999999999
sS'VAL-ASP'
p5
F1.4410000000000001
sS'ASP-GLN'
p6
F1.119
sS'HIS-TYR'
p7
F1.7190000000000001
sS'ASP-GLU'
p8
F1.177
sS'ALA-ASP'
p9
F0.49399999999999999
sS'ASP-GLY'
p10
F0
sS'LEU-VAL'
p11
F1.383
sS'TRP-TYR'
p12
F2.379
sS'TYR-LEU'
p13
F1.8440000000000001
sS'LYS-GLU'
p14
F0.877
sS'TRP-PHE'
p15
F2.3769999999999998
sS'ARG-TYR'
p16
F1.621
sS'GLU-LYS'
p17
F0.92700000000000005
sS'ILE-HIS'
p18
F1.6459999999999999
sS'GLY-GLY'
p19
F0
sS'LEU-MET'
p20
F1.554
sS'GLU-HIS'
p21
F1.236
sS'GLY-THR'
p22
F0
sS'ARG-GLU'
p23
F1.099
sS'PHE-ASN'
p24
F1.7829999999999999
sS'ASN-MET'
p25
F1.5389999999999999
sS'PRO-THR'
p26
F0.64400000000000002
sS'TYR-GLN'
p27
F1.5960000000000001
sS'ARG-GLY'
p28
F0
sS'VAL-THR'
p29
F1.1120000000000001
sS'ASP-ILE'
p30
F1.643
sS'GLY-ILE'
p31
F0
sS'TYR-GLU'
p32
F1.6619999999999999
sS'ARG-GLN'
p33
F1.1819999999999999
sS'TYR-GLY'
p34
F0
sS'PHE-ASP'
p35
F1.8109999999999999
sS'CYS-ARG'
p36
F1.4239999999999999
sS'HIS-ARG'
p37
F1.5049999999999999
sS'VAL-LYS'
p38
F1.5409999999999999
sS'LEU-ILE'
p39
F1.462
sS'GLN-LEU'
p40
F1.488
sS'GLU-MET'
p41
F1.7130000000000001
sS'ASP-THR'
p42
F0.97099999999999997
sS'ASN-PHE'
p43
F1.877
sS'GLU-PRO'
p44
F0.92200000000000004
sS'LYS-ARG'
p45
F1.27
sS'GLY-ASP'
p46
F0
sS'PRO-GLN'
p47
F0.70399999999999996
sS'CYS-MET'
p48
F1.341
sS'GLU-THR'
p49
F1.0349999999999999
sS'ILE-THR'
p50
F1.3140000000000001
sS'PHE-GLY'
p51
F0
sS'SER-PRO'
p52
F0.46800000000000003
sS'GLY-CYS'
p53
F0
sS'ARG-LEU'
p54
F1.4970000000000001
sS'PRO-GLU'
p55
F0.94199999999999995
sS'ASP-LEU'
p56
F1.5600000000000001
sS'PHE-VAL'
p57
F1.694
sS'ASN-VAL'
p58
F1.165
sS'PRO-VAL'
p59
F1.0489999999999999
sS'ALA-MET'
p60
F0.82599999999999996
sS'LEU-PRO'
p61
F1.181
sS'LEU-SER'
p62
F1.016
sS'ASN-ARG'
p63
F1.052
sS'SER-THR'
p64
F0.59099999999999997
sS'LYS-VAL'
p65
F1.4219999999999999
sS'LYS-PRO'
p66
F0.96899999999999997
sS'GLN-VAL'
p67
F1.282
sS'TYR-PHE'
p68
F2.0720000000000001
sS'ASP-VAL'
p69
F1.4570000000000001
sS'ASN-GLY'
p70
F0
sS'ARG-PHE'
p71
F1.903
sS'HIS-TRP'
p72
F2.3559999999999999
sS'LYS-GLN'
p73
F1.079
sS'ASN-GLU'
p74
F0.97899999999999998
sS'CYS-GLN'
p75
F1.4039999999999999
sS'TYR-PRO'
p76
F1.28
sS'ARG-ILE'
p77
F1.5760000000000001
sS'CYS-GLU'
p78
F1.6080000000000001
sS'ASN-GLN'
p79
F0.90600000000000003
sS'CYS-GLY'
p80
F0
sS'GLN-SER'
p81
F0.58399999999999996
sS'HIS-LYS'
p82
F1.3779999999999999
sS'LEU-LYS'
p83
F1.7569999999999999
sS'LYS-GLY'
p84
F0
sS'VAL-MET'
p85
F1.5600000000000001
sS'ALA-ALA'
p86
F-1.6499999999999999
sS'THR-SER'
p87
F0.54400000000000004
sS'PRO-PRO'
p88
F-0.45600000000000002
sS'ILE-PHE'
p89
F1.681
sS'PHE-LEU'
p90
F1.6459999999999999
sS'GLU-GLU'
p91
F0.27400000000000002
sS'TYR-ASP'
p92
F1.4990000000000001
sS'GLY-ALA'
p93
F0
sS'TYR-ASN'
p94
F1.357
sS'GLU-GLN'
p95
F1.21
sS'TRP-ARG'
p96
F1.9750000000000001
sS'LEU-GLU'
p97
F1.694
sS'LEU-GLY'
p98
F0
sS'LYS-SER'
p99
F0.65500000000000003
sS'MET-VAL'
p100
F1.635
sS'SER-ALA'
p101
F-0.104
sS'PRO-HIS'
p102
F1.129
sS'MET-THR'
p103
F1.371
sS'ALA-PHE'
p104
F1.026
sS'MET-PRO'
p105
F1.4550000000000001
sS'GLY-SER'
p106
F0
sS'LEU-GLN'
p107
F1.4259999999999999
sS'VAL-LEU'
p108
F1.337
sS'LEU-CYS'
p109
F1.4219999999999999
sS'LYS-TYR'
p110
F1.5609999999999999
sS'ASP-ALA'
p111
F0.54700000000000004
sS'ILE-LEU'
p112
F1.421
sS'TRP-VAL'
p113
F2.0830000000000002
sS'PHE-PRO'
p114
F1.361
sS'GLU-GLY'
p115
F0
sS'ARG-TRP'
p116
F1.8859999999999999
sS'MET-GLN'
p117
F1.4339999999999999
sS'HIS-PHE'
p118
F2.1240000000000001
sS'MET-ARG'
p119
F1.7070000000000001
sS'TYR-THR'
p120
F1.4770000000000001
sS'SER-ARG'
p121
F0.70299999999999996
sS'THR-ARG'
p122
F1.1910000000000001
sS'CYS-ILE'
p123
F1.4370000000000001
sS'LEU-ASN'
p124
F1.373
sS'LEU-ASP'
p125
F1.5049999999999999
sS'PHE-TRP'
p126
F2.4209999999999998
sS'MET-GLY'
p127
F0
sS'THR-PHE'
p128
F1.4550000000000001
sS'MET-GLU'
p129
F1.7330000000000001
sS'THR-TRP'
p130
F1.7629999999999999
sS'THR-TYR'
p131
F1.3899999999999999
sS'CYS-VAL'
p132
F1.345
sS'ARG-ALA'
p133
F0.48399999999999999
sS'ALA-TYR'
p134
F0.81000000000000005
sS'ASP-PRO'
p135
F0.80900000000000005
sS'ARG-CYS'
p136
F1.173
sS'GLN-ARG'
p137
F1.1599999999999999
sS'SER-HIS'
p138
F0.98699999999999999
sS'PRO-SER'
p139
F0.47599999999999998
sS'VAL-VAL'
p140
F0.26200000000000001
sS'GLN-TRP'
p141
F1.9650000000000001
sS'GLY-LYS'
p142
F0
sS'CYS-ASN'
p143
F1.1339999999999999
sS'GLY-TRP'
p144
F0
sS'THR-CYS'
p145
F0.93600000000000005
sS'LYS-LYS'
p146
F0.060999999999999999
sS'CYS-ASP'
p147
F1.288
sS'VAL-PRO'
p148
F1.081
sS'THR-VAL'
p149
F1.0780000000000001
sS'ASP-TYR'
p150
F1.4219999999999999
sS'PRO-CYS'
p151
F0.78300000000000003
sS'VAL-SER'
p152
F0.92600000000000005
sS'ARG-HIS'
p153
F1.421
sS'CYS-PRO'
p154
F0.79600000000000004
sS'MET-LYS'
p155
F1.6160000000000001
sS'ALA-SER'
p156
F-0.089999999999999997
sS'TYR-SER'
p157
F1.1020000000000001
sS'GLY-ARG'
p158
F0
sS'GLN-ALA'
p159
F0.441
sS'MET-LEU'
p160
F1.5129999999999999
sS'ASN-HIS'
p161
F1.3420000000000001
sS'VAL-CYS'
p162
F1.462
sS'GLN-TYR'
p163
F1.4990000000000001
sS'MET-SER'
p164
F0.97199999999999998
sS'ALA-TRP'
p165
F1.0309999999999999
sS'GLU-ASN'
p166
F0.95999999999999996
sS'CYS-ALA'
p167
F0.60899999999999999
sS'GLY-ASN'
p168
F0
sS'ASN-ASP'
p169
F0.96099999999999997
sS'ASN-PRO'
p170
F0.72799999999999998
sS'PRO-ARG'
p171
F0.88500000000000001
sS'LYS-TRP'
p172
F2.125
sS'ASN-ASN'
p173
F-0.48699999999999999
sS'THR-ALA'
p174
F0.20799999999999999
sS'LYS-ALA'
p175
F0.69099999999999995
sS'SER-GLN'
p176
F0.65100000000000002
sS'ILE-VAL'
p177
F1.419
sS'ASP-ARG'
p178
F0.98599999999999999
sS'ASP-MET'
p179
F1.6200000000000001
sS'CYS-TYR'
p180
F1.3779999999999999
sS'PRO-TRP'
p181
F1.694
sS'ILE-LYS'
p182
F1.6599999999999999
sS'TRP-ALA'
p183
F1.091
sS'ILE-CYS'
p184
F1.663
sS'LYS-ILE'
p185
F1.6919999999999999
sS'GLN-CYS'
p186
F1.494
sS'ARG-ASP'
p187
F0.84499999999999997
sS'SER-GLU'
p188
F0.69999999999999996
sS'TRP-HIS'
p189
F2.1880000000000002
sS'ALA-ASN'
p190
F0.375
sS'GLU-CYS'
p191
F1.5529999999999999
sS'ALA-CYS'
p192
F0.64100000000000001
sS'PRO-MET'
p193
F1.4299999999999999
sS'TYR-HIS'
p194
F1.79
sS'PHE-MET'
p195
F1.8360000000000001
sS'GLU-TYR'
p196
F1.5469999999999999
sS'SER-TRP'
p197
F1.464
sS'PHE-ARG'
p198
F1.9570000000000001
sS'THR-HIS'
p199
F1.224
sS'TYR-VAL'
p200
F1.669
sS'SER-ILE'
p201
F1.097
sS'GLN-PRO'
p202
F0.78100000000000003
sS'ALA-VAL'
p203
F0.52100000000000002
sS'HIS-HIS'
p204
F-0.062
sS'THR-ASN'
p205
F0.86899999999999999
sS'CYS-LEU'
p206
F1.5489999999999999
sS'LYS-MET'
p207
F1.7729999999999999
sS'LYS-ASP'
p208
F0.871
sS'HIS-ASN'
p209
F1.2250000000000001
sS'ILE-GLN'
p210
F1.546
sS'VAL-HIS'
p211
F1.673
sS'ALA-LEU'
p212
F0.63100000000000001
sS'HIS-ASP'
p213
F1.3109999999999999
sS'ILE-TYR'
p214
F1.778
sS'ILE-GLU'
p215
F1.661
sS'ASP-ASP'
p216
F0.090999999999999998
sS'ILE-GLY'
p217
F0
sS'ASN-CYS'
p218
F1.0309999999999999
sS'GLU-SER'
p219
F0.78000000000000003
sS'ILE-ASN'
p220
F1.3819999999999999
sS'HIS-CYS'
p221
F1.9339999999999999
sS'HIS-MET'
p222
F1.875
sS'ILE-PRO'
p223
F1.117
sS'LYS-PHE'
p224
F2.0750000000000002
sS'GLY-PHE'
p225
F0
sS'ILE-ASP'
p226
F1.5880000000000001
sS'PHE-HIS'
p227
F2.2000000000000002
sS'GLY-TYR'
p228
F0
sS'SER-GLY'
p229
F0
sS'CYS-TRP'
p230
F2.4089999999999998
sS'ASP-LYS'
p231
F0.91100000000000003
sS'ASN-ILE'
p232
F1.335
sS'HIS-SER'
p233
F0.88100000000000001
sS'LYS-CYS'
p234
F1.631
sS'TRP-PRO'
p235
F1.831
sS'ASN-THR'
p236
F0.89900000000000002
sS'GLN-PHE'
p237
F1.8340000000000001
sS'VAL-ALA'
p238
F0.55900000000000005
sS'SER-LEU'
p239
F1.0189999999999999
sS'TRP-LYS'
p240
F2.1240000000000001
sS'VAL-TYR'
p241
F1.7190000000000001
sS'VAL-PHE'
p242
F1.7490000000000001
sS'ARG-THR'
p243
F1.1299999999999999
sS'TYR-TRP'
p244
F2.3940000000000001
sS'GLN-GLN'
p245
F-0.16200000000000001
sS'GLU-PHE'
p246
F2.0009999999999999
sS'VAL-ILE'
p247
F1.3320000000000001
sS'HIS-GLN'
p248
F1.518
sS'GLN-GLY'
p249
F0
sS'PHE-ALA'
p250
F0.98799999999999999
sS'HIS-GLU'
p251
F1.343
sS'ARG-PRO'
p252
F0.86499999999999999
sS'HIS-GLY'
p253
F0
sS'SER-ASN'
p254
F0.46700000000000003
sS'ALA-THR'
p255
F0.26400000000000001
sS'GLN-GLU'
p256
F1.2010000000000001
sS'GLN-LYS'
p257
F1.0469999999999999
sS'CYS-HIS'
p258
F1.5649999999999999
sS'GLN-ASP'
p259
F0.99199999999999999
sS'LEU-HIS'
p260
F1.6140000000000001
sS'SER-LYS'
p261
F0.67300000000000004
sS'TRP-LEU'
p262
F1.976
sS'CYS-SER'
p263
F0.501
sS'LYS-THR'
p264
F1.1459999999999999
sS'HIS-LEU'
p265
F1.6850000000000001
sS'LEU-ARG'
p266
F1.5640000000000001
sS'GLY-VAL'
p267
F0
sS'GLN-ASN'
p268
F0.89100000000000001
sS'TYR-ARG'
p269
F1.6659999999999999
sS'PRO-TYR'
p270
F1.1639999999999999
sS'ASP-PHE'
p271
F1.907
sS'ARG-VAL'
p272
F1.3720000000000001
sS'ASN-LEU'
p273
F1.4570000000000001
sS'SER-MET'
p274
F1.0329999999999999
sS'HIS-ILE'
p275
F1.764
sS'GLY-LEU'
p276
F0
sS'SER-TYR'
p277
F1.0009999999999999
sS'MET-TYR'
p278
F1.786
sS'GLU-ILE'
p279
F1.631
sS'PHE-CYS'
p280
F1.5029999999999999
sS'PRO-LEU'
p281
F1.2170000000000001
sS'GLY-MET'
p282
F0
sS'HIS-THR'
p283
F1.357
sS'THR-GLN'
p284
F0.88300000000000001
sS'TRP-THR'
p285
F1.698
sS'LYS-LEU'
p286
F1.728
sS'THR-GLY'
p287
F0
sS'ALA-LYS'
p288
F0.65400000000000003
sS'ASP-TRP'
p289
F2.0009999999999999
sS'TYR-MET'
p290
F2.0499999999999998
sS'PHE-ILE'
p291
F1.669
sS'THR-GLU'
p292
F1.0369999999999999
sS'MET-ASN'
p293
F1.335
sS'LEU-TYR'
p294
F1.8799999999999999
sS'PHE-PHE'
p295
F0.875
sS'CYS-PHE'
p296
F1.6220000000000001
sS'TRP-ILE'
p297
F2.165
sS'PRO-ASN'
p298
F0.67100000000000004
sS'CYS-CYS'
p299
F-2.2280000000000002
sS'SER-ASP'
p300
F0.58199999999999996
sS'ARG-MET'
p301
F1.571
sS'SER-PHE'
p302
F1.357
sS'SER-SER'
p303
F-0.98599999999999999
sS'ASN-LYS'
p304
F0.83699999999999997
sS'CYS-THR'
p305
F1.069
sS'ILE-TRP'
p306
F2.2829999999999999
sS'PRO-ASP'
p307
F0.79800000000000004
sS'THR-ASP'
p308
F1.046
sS'SER-CYS'
p309
F0.84299999999999997
sS'MET-ASP'
p310
F1.609
sS'GLN-MET'
p311
F1.5820000000000001
sS'MET-TRP'
p312
F2.2330000000000001
sS'TRP-CYS'
p313
F2.4990000000000001
sS'GLY-GLN'
p314
F0
sS'THR-LYS'
p315
F1.097
sS'TRP-MET'
p316
F2.1850000000000001
sS'ARG-ARG'
p317
F0.246
sS'ALA-ARG'
p318
F0.55100000000000005
sS'PRO-PHE'
p319
F1.3660000000000001
sS'ASN-TRP'
p320
F2.0089999999999999
sS'GLU-ARG'
p321
F1.004
sS'HIS-VAL'
p322
F1.597
sS'VAL-ARG'
p323
F1.423
sS'TRP-GLU'
p324
F2.0870000000000002
sS'PHE-TYR'
p325
F2.0350000000000001
sS'VAL-GLN'
p326
F1.296
sS'TRP-ASN'
p327
F1.7749999999999999
sS'TYR-ILE'
p328
F1.7350000000000001
sS'TRP-GLY'
p329
F0
sS'GLY-GLU'
p330
F0
sS'GLY-HIS'
p331
F0
sS'PHE-SER'
p332
F1.3069999999999999
sS'TRP-ASP'
p333
F1.829
sS'TRP-GLN'
p334
F1.823
sS'LEU-ALA'
p335
F0.69099999999999995
sS'VAL-GLU'
p336
F1.5169999999999999
sS'ALA-HIS'
p337
F0.58199999999999996
sS'TYR-ALA'
p338
F0.83899999999999997
sS'LEU-THR'
p339
F1.264
sS'TYR-CYS'
p340
F1.5800000000000001
sS'THR-THR'
p341
F-0.29899999999999999
sS'THR-LEU'
p342
F1.26
sS'VAL-ASN'
p343
F1.2070000000000001
sS'LEU-TRP'
p344
F1.9370000000000001
sS'GLU-ASP'
p345
F1.1279999999999999
sS'ILE-SER'
p346
F0.97499999999999998
sS'ILE-ARG'
p347
F1.4910000000000001
sS'ASN-SER'
p348
F0.46500000000000002
sS'ILE-MET'
p349
F1.6779999999999999
sS'MET-PHE'
p350
F1.9299999999999999
sS'PRO-ALA'
p351
F0.034000000000000002
sS'PRO-GLY'
p352
F0
sS'GLN-THR'
p353
F0.94099999999999995
sS'MET-ALA'
p354
F0.88800000000000001
sS'TRP-SER'
p355
F1.6879999999999999
sS'ASP-HIS'
p356
F1.252
sS'ARG-SER'
p357
F0.73999999999999999
sS'GLN-HIS'
p358
F1.355
sS'LEU-LEU'
p359
F0.48499999999999999
sS'ALA-GLN'
p360
F0.434
sS'ASP-ASN'
p361
F0.94999999999999996
sS'SER-VAL'
p362
F0.94399999999999995
sS'MET-ILE'
p363
F1.5980000000000001
sS'ALA-PRO'
p364
F0.17699999999999999
sS'ALA-ILE'
p365
F0.66200000000000003
sS'ALA-GLY'
p366
F0
sS'TRP-TRP'
p367
F0.97699999999999998
sS'MET-CYS'
p368
F1.651
sS'ALA-GLU'
p369
F0.63700000000000001
sS'THR-PRO'
p370
F0.66700000000000004
sS'HIS-ALA'
p371
F0.77700000000000002
sS'GLN-ILE'
p372
F1.45
sS'GLU-VAL'
p373
F1.5209999999999999
sS'LYS-ASN'
p374
F1.032
sS'ASN-ALA'
p375
F0.40799999999999997
sS'GLU-TRP'
p376
F2.1200000000000001
sS'THR-ILE'
p377
F1.2110000000000001
sS'ASP-CYS'
p378
F1.534
sS'PRO-LYS'
p379
F1.0109999999999999
sS'TYR-TYR'
p380
F0.89400000000000002
sS'ARG-LYS'
p381
F1.2210000000000001
sS'ILE-ALA'
p382
F0.78000000000000003
sS'ASP-SER'
p383
F0.65500000000000003
sS'CYS-LYS'
p384
F1.4790000000000001
sS'ARG-ASN'
p385
F0.94899999999999995
sS'GLU-ALA'
p386
F0.60499999999999998
sS'PHE-GLU'
p387
F1.96
sS'GLU-LEU'
p388
F1.627
sS'ASN-TYR'
p389
F1.387
sS'LYS-HIS'
p390
F1.3380000000000001
sS'HIS-PRO'
p391
F1.1180000000000001
sS'ILE-ILE'
p392
F0.29299999999999998
sS'MET-HIS'
p393
F1.819
sS'VAL-GLY'
p394
F0
sS'THR-MET'
p395
F1.2709999999999999
sS'PHE-THR'
p396
F1.468
sS'VAL-TRP'
p397
F2.081
sS'PHE-LYS'
p398
F2.056
sS'GLY-PRO'
p399
F0
sS'PHE-GLN'
p400
F1.8959999999999999
sS'LEU-PHE'
p401
F1.6659999999999999
s.