(dp1
S'MET-MET'
p2
F-0.94199999999999995
sS'PRO-ILE'
p3
F0.20100000000000001
sS'TYR-LYS'
p4
F-0.124
sS'VAL-ASP'
p5
F0.47699999999999998
sS'ASP-GLN'
p6
F-0.38200000000000001
sS'HIS-TYR'
p7
F-0.41899999999999998
sS'ASP-GLU'
p8
F-0.22500000000000001
sS'ALA-ASP'
p9
F0.13500000000000001
sS'ASP-GLY'
p10
F0
sS'LEU-VAL'
p11
F0.23200000000000001
sS'TRP-TYR'
p12
F0.059999999999999998
sS'TYR-LEU'
p13
F-0.058000000000000003
sS'LYS-GLU'
p14
F-0.76200000000000001
sS'TRP-PHE'
p15
F0.017999999999999999
sS'ARG-TYR'
p16
F-0.46899999999999997
sS'GLU-LYS'
p17
F-0.74099999999999999
sS'ILE-HIS'
p18
F0.16400000000000001
sS'GLY-GLY'
p19
F0
sS'LEU-MET'
p20
F0.32700000000000001
sS'GLU-HIS'
p21
F-0.57199999999999995
sS'GLY-THR'
p22
F0
sS'ARG-GLU'
p23
F-0.92300000000000004
sS'PHE-ASN'
p24
F0.085000000000000006
sS'ASN-MET'
p25
F0.38900000000000001
sS'PRO-THR'
p26
F-0.23999999999999999
sS'TYR-GLN'
p27
F-0.249
sS'ARG-GLY'
p28
F0
sS'VAL-THR'
p29
F0.32000000000000001
sS'ASP-ILE'
p30
F0.53600000000000003
sS'GLY-ILE'
p31
F0
sS'TYR-GLU'
p32
F-0.28699999999999998
sS'ARG-GLN'
p33
F-0.61399999999999999
sS'TYR-GLY'
p34
F0
sS'PHE-ASP'
p35
F0.29999999999999999
sS'CYS-ARG'
p36
F0.34499999999999997
sS'HIS-ARG'
p37
F-0.373
sS'VAL-LYS'
p38
F0.54800000000000004
sS'LEU-ILE'
p39
F0.17000000000000001
sS'GLN-LEU'
p40
F0.159
sS'GLU-MET'
p41
F0.45500000000000002
sS'ASP-THR'
p42
F-0.114
sS'ASN-PHE'
p43
F0.083000000000000004
sS'GLU-PRO'
p44
F-0.309
sS'LYS-ARG'
p45
F-0.17599999999999999
sS'GLY-ASP'
p46
F0
sS'PRO-GLN'
p47
F-0.49399999999999999
sS'CYS-MET'
p48
F0.81200000000000006
sS'GLU-THR'
p49
F-0.216
sS'ILE-THR'
p50
F0.314
sS'PHE-GLY'
p51
F0
sS'SER-PRO'
p52
F-0.26700000000000002
sS'GLY-CYS'
p53
F0
sS'ARG-LEU'
p54
F0.037999999999999999
sS'PRO-GLU'
p55
F-0.23899999999999999
sS'ASP-LEU'
p56
F0.45200000000000001
sS'PHE-VAL'
p57
F0.14099999999999999
sS'ASN-VAL'
p58
F0.19700000000000001
sS'PRO-VAL'
p59
F0.19
sS'ALA-MET'
p60
F0.57799999999999996
sS'LEU-PRO'
p61
F0.10299999999999999
sS'LEU-SER'
p62
F0.24099999999999999
sS'ASN-ARG'
p63
F-0.60499999999999998
sS'SER-THR'
p64
F-0.121
sS'LYS-VAL'
p65
F0.45100000000000001
sS'LYS-PRO'
p66
F-0.14000000000000001
sS'GLN-VAL'
p67
F0.17100000000000001
sS'TYR-PHE'
p68
F-0.087999999999999995
sS'ASP-VAL'
p69
F0.45000000000000001
sS'ASN-GLY'
p70
F0
sS'ARG-PHE'
p71
F-0.111
sS'HIS-TRP'
p72
F0.155
sS'LYS-GLN'
p73
F-0.38200000000000001
sS'ASN-GLU'
p74
F-0.49399999999999999
sS'CYS-GLN'
p75
F0.66000000000000003
sS'TYR-PRO'
p76
F-0.44700000000000001
sS'ARG-ILE'
p77
F0.19600000000000001
sS'CYS-GLU'
p78
F0.87
sS'ASN-GLN'
p79
F-0.61199999999999999
sS'CYS-GLY'
p80
F0
sS'GLN-SER'
p81
F-0.39600000000000002
sS'HIS-LYS'
p82
F-0.111
sS'LEU-LYS'
p83
F0.51700000000000002
sS'LYS-GLY'
p84
F0
sS'VAL-MET'
p85
F0.57599999999999996
sS'ALA-ALA'
p86
F-0.34200000000000003
sS'THR-SER'
p87
F-0.161
sS'PRO-PRO'
p88
F-0.82799999999999996
sS'ILE-PHE'
p89
F-0.021000000000000001
sS'PHE-LEU'
p90
F-0.032000000000000001
sS'GLU-GLU'
p91
F-0.71799999999999997
sS'TYR-ASP'
p92
F-0.156
sS'GLY-ALA'
p93
F0
sS'TYR-ASN'
p94
F-0.33800000000000002
sS'GLU-GLN'
p95
F-0.37
sS'TRP-ARG'
p96
F-0.23699999999999999
sS'LEU-GLU'
p97
F0.37
sS'LEU-GLY'
p98
F0
sS'LYS-SER'
p99
F-0.23999999999999999
sS'MET-VAL'
p100
F0.57499999999999996
sS'SER-ALA'
p101
F0.019
sS'PRO-HIS'
p102
F-0.28299999999999997
sS'MET-THR'
p103
F0.33900000000000002
sS'ALA-PHE'
p104
F0.184
sS'MET-PRO'
p105
F0.33700000000000002
sS'GLY-SER'
p106
F0
sS'LEU-GLN'
p107
F0.14399999999999999
sS'VAL-LEU'
p108
F0.17299999999999999
sS'LEU-CYS'
p109
F0.82399999999999995
sS'LYS-TYR'
p110
F-0.14799999999999999
sS'ASP-ALA'
p111
F0.17199999999999999
sS'ILE-LEU'
p112
F0.123
sS'TRP-VAL'
p113
F0.45600000000000002
sS'PHE-PRO'
p114
F-0.155
sS'GLU-GLY'
p115
F0
sS'ARG-TRP'
p116
F-0.34000000000000002
sS'MET-GLN'
p117
F0.158
sS'HIS-PHE'
p118
F0.14899999999999999
sS'MET-ARG'
p119
F0.27400000000000002
sS'TYR-THR'
p120
F-0.036999999999999998
sS'SER-ARG'
p121
F-0.42999999999999999
sS'THR-ARG'
p122
F-0.32500000000000001
sS'CYS-ILE'
p123
F0.83099999999999996
sS'LEU-ASN'
p124
F0.20899999999999999
sS'LEU-ASP'
p125
F0.46500000000000002
sS'PHE-TRP'
p126
F0.047
sS'MET-GLY'
p127
F0
sS'THR-PHE'
p128
F0.066000000000000003
sS'MET-GLU'
p129
F0.48599999999999999
sS'THR-TRP'
p130
F0.22900000000000001
sS'THR-TYR'
p131
F-0.108
sS'CYS-VAL'
p132
F0.84199999999999997
sS'ARG-ALA'
p133
F-0.104
sS'ALA-TYR'
p134
F-0.0030000000000000001
sS'ASP-PRO'
p135
F-0.23400000000000001
sS'ARG-CYS'
p136
F0.315
sS'GLN-ARG'
p137
F-0.59999999999999998
sS'SER-HIS'
p138
F-0.17299999999999999
sS'PRO-SER'
p139
F-0.255
sS'VAL-VAL'
p140
F-0.17999999999999999
sS'GLN-TRP'
p141
F-0.095000000000000001
sS'GLY-LYS'
p142
F0
sS'CYS-ASN'
p143
F0.40200000000000002
sS'GLY-TRP'
p144
F0
sS'THR-CYS'
p145
F0.59699999999999998
sS'LYS-LYS'
p146
F-0.48599999999999999
sS'CYS-ASP'
p147
F0.74399999999999999
sS'VAL-PRO'
p148
F0.23599999999999999
sS'THR-VAL'
p149
F0.247
sS'ASP-TYR'
p150
F-0.23000000000000001
sS'PRO-CYS'
p151
F0.41999999999999998
sS'VAL-SER'
p152
F0.28499999999999998
sS'ARG-HIS'
p153
F-0.45800000000000002
sS'CYS-PRO'
p154
F0.39900000000000002
sS'MET-LYS'
p155
F0.48299999999999998
sS'ALA-SER'
p156
F0.0070000000000000001
sS'TYR-SER'
p157
F-0.14499999999999999
sS'GLY-ARG'
p158
F0
sS'GLN-ALA'
p159
F-0.037999999999999999
sS'MET-LEU'
p160
F0.28499999999999998
sS'ASN-HIS'
p161
F-0.33900000000000002
sS'VAL-CYS'
p162
F0.995
sS'GLN-TYR'
p163
F-0.33300000000000002
sS'MET-SER'
p164
F0.30599999999999999
sS'ALA-TRP'
p165
F0.17599999999999999
sS'GLU-ASN'
p166
F-0.49199999999999999
sS'CYS-ALA'
p167
F0.70599999999999996
sS'GLY-ASN'
p168
F0
sS'ASN-ASP'
p169
F-0.37
sS'ASN-PRO'
p170
F-0.432
sS'PRO-ARG'
p171
F-0.42999999999999999
sS'LYS-TRP'
p172
F0.223
sS'ASN-ASN'
p173
F-1.2110000000000001
sS'THR-ALA'
p174
F0.060999999999999999
sS'LYS-ALA'
p175
F0.27900000000000003
sS'SER-GLN'
p176
F-0.378
sS'ILE-VAL'
p177
F0.35999999999999999
sS'ASP-ARG'
p178
F-0.874
sS'ASP-MET'
p179
F0.55200000000000005
sS'CYS-TYR'
p180
F0.45400000000000001
sS'PRO-TRP'
p181
F-0.13700000000000001
sS'ILE-LYS'
p182
F0.63400000000000001
sS'TRP-ALA'
p183
F0.105
sS'ILE-CYS'
p184
F0.97799999999999998
sS'LYS-ILE'
p185
F0.60699999999999998
sS'GLN-CYS'
p186
F0.76200000000000001
sS'ARG-ASP'
p187
F-0.93300000000000005
sS'SER-GLU'
p188
F-0.33900000000000002
sS'TRP-HIS'
p189
F0.02
sS'ALA-ASN'
p190
F0.002
sS'GLU-CYS'
p191
F0.82099999999999995
sS'ALA-CYS'
p192
F0.73499999999999999
sS'PRO-MET'
p193
F0.39000000000000001
sS'TYR-HIS'
p194
F-0.40100000000000002
sS'PHE-MET'
p195
F0.02
sS'GLU-TYR'
p196
F-0.34000000000000002
sS'SER-TRP'
p197
F0.084000000000000005
sS'PHE-ARG'
p198
F-0.0040000000000000001
sS'THR-HIS'
p199
F-0.14399999999999999
sS'TYR-VAL'
p200
F0.13800000000000001
sS'SER-ILE'
p201
F0.32300000000000001
sS'GLN-PRO'
p202
F-0.41899999999999998
sS'ALA-VAL'
p203
F0.34899999999999998
sS'HIS-HIS'
p204
F-1.5009999999999999
sS'THR-ASN'
p205
F-0.31
sS'CYS-LEU'
p206
F0.84599999999999997
sS'LYS-MET'
p207
F0.57499999999999996
sS'LYS-ASP'
p208
F-0.63400000000000001
sS'HIS-ASN'
p209
F-0.42299999999999999
sS'ILE-GLN'
p210
F0.23100000000000001
sS'VAL-HIS'
p211
F0.33200000000000002
sS'ALA-LEU'
p212
F0.224
sS'HIS-ASP'
p213
F-0.41499999999999998
sS'ILE-TYR'
p214
F0.033000000000000002
sS'ILE-GLU'
p215
F0.42499999999999999
sS'ASP-ASP'
p216
F-0.63100000000000001
sS'ILE-GLY'
p217
F0
sS'ASN-CYS'
p218
F0.29099999999999998
sS'GLU-SER'
p219
F-0.34499999999999997
sS'ILE-ASN'
p220
F0.249
sS'HIS-CYS'
p221
F0.60199999999999998
sS'HIS-MET'
p222
F0.45700000000000002
sS'ILE-PRO'
p223
F0.14000000000000001
sS'LYS-PHE'
p224
F0.46200000000000002
sS'GLY-PHE'
p225
F0
sS'ILE-ASP'
p226
F0.51400000000000001
sS'PHE-HIS'
p227
F0.13
sS'GLY-TYR'
p228
F0
sS'SER-GLY'
p229
F0
sS'CYS-TRP'
p230
F1.153
sS'ASP-LYS'
p231
F-0.61499999999999999
sS'ASN-ILE'
p232
F0.17899999999999999
sS'HIS-SER'
p233
F-0.245
sS'LYS-CYS'
p234
F0.94199999999999995
sS'TRP-PRO'
p235
F0.0080000000000000002
sS'ASN-THR'
p236
F-0.29699999999999999
sS'GLN-PHE'
p237
F-0.001
sS'VAL-ALA'
p238
F0.38600000000000001
sS'SER-LEU'
p239
F0.23499999999999999
sS'TRP-LYS'
p240
F0.23000000000000001
sS'VAL-TYR'
p241
F0.20799999999999999
sS'VAL-PHE'
p242
F0.187
sS'ARG-THR'
p243
F-0.34899999999999998
sS'TYR-TRP'
p244
F0.086999999999999994
sS'GLN-GLN'
p245
F-1.272
sS'GLU-PHE'
p246
F0.23200000000000001
sS'VAL-ILE'
p247
F0.33200000000000002
sS'HIS-GLN'
p248
F-0.23799999999999999
sS'GLN-GLY'
p249
F0
sS'PHE-ALA'
p250
F0.17599999999999999
sS'HIS-GLU'
p251
F-0.51400000000000001
sS'ARG-PRO'
p252
F-0.42599999999999999
sS'HIS-GLY'
p253
F0
sS'SER-ASN'
p254
F-0.41399999999999998
sS'ALA-THR'
p255
F0.11600000000000001
sS'GLN-GLU'
p256
F-0.35799999999999998
sS'GLN-LYS'
p257
F-0.34699999999999998
sS'CYS-HIS'
p258
F0.63100000000000001
sS'GLN-ASP'
p259
F-0.42199999999999999
sS'LEU-HIS'
p260
F0.14499999999999999
sS'SER-LYS'
p261
F-0.21199999999999999
sS'TRP-LEU'
p262
F0.11
sS'CYS-SER'
p263
F0.36399999999999999
sS'LYS-THR'
p264
F0.064000000000000001
sS'HIS-LEU'
p265
F0.248
sS'LEU-ARG'
p266
F0.123
sS'GLY-VAL'
p267
F0
sS'GLN-ASN'
p268
F-0.59299999999999997
sS'TYR-ARG'
p269
F-0.42999999999999999
sS'PRO-TYR'
p270
F-0.47099999999999997
sS'ASP-PHE'
p271
F0.379
sS'ARG-VAL'
p272
F0.115
sS'ASN-LEU'
p273
F0.20200000000000001
sS'SER-MET'
p274
F0.36399999999999999
sS'HIS-ILE'
p275
F0.33000000000000002
sS'GLY-LEU'
p276
F0
sS'SER-TYR'
p277
F-0.218
sS'MET-TYR'
p278
F-0.034000000000000002
sS'GLU-ILE'
p279
F0.37
sS'PHE-CYS'
p280
F0.501
sS'PRO-LEU'
p281
F0.12
sS'GLY-MET'
p282
F0
sS'HIS-THR'
p283
F-0.127
sS'THR-GLN'
p284
F-0.36699999999999999
sS'TRP-THR'
p285
F0.19
sS'LYS-LEU'
p286
F0.51000000000000001
sS'THR-GLY'
p287
F0
sS'ALA-LYS'
p288
F0.28299999999999997
sS'ASP-TRP'
p289
F0.308
sS'TYR-MET'
p290
F0.056000000000000001
sS'PHE-ILE'
p291
F0.01
sS'THR-GLU'
p292
F-0.19800000000000001
sS'MET-ASN'
p293
F0.26800000000000002
sS'LEU-TYR'
p294
F-0.0060000000000000001
sS'PHE-PHE'
p295
F-0.89600000000000002
sS'CYS-PHE'
p296
F0.496
sS'TRP-ILE'
p297
F0.307
sS'PRO-ASN'
p298
F-0.41099999999999998
sS'CYS-CYS'
p299
F-1.921
sS'SER-ASP'
p300
F-0.29599999999999999
sS'ARG-MET'
p301
F0.17000000000000001
sS'SER-PHE'
p302
F0.16500000000000001
sS'SER-SER'
p303
F-0.79000000000000004
sS'ASN-LYS'
p304
F-0.46000000000000002
sS'CYS-THR'
p305
F0.63300000000000001
sS'ILE-TRP'
p306
F0.36399999999999999
sS'PRO-ASP'
p307
F-0.23599999999999999
sS'THR-ASP'
p308
F-0.071999999999999995
sS'SER-CYS'
p309
F0.47699999999999998
sS'MET-ASP'
p310
F0.52300000000000002
sS'GLN-MET'
p311
F0.34100000000000003
sS'MET-TRP'
p312
F0.38800000000000001
sS'TRP-CYS'
p313
F1.244
sS'GLY-GLN'
p314
F0
sS'THR-LYS'
p315
F0.039
sS'TRP-MET'
p316
F0.371
sS'ARG-ARG'
p317
F-1.1399999999999999
sS'ALA-ARG'
p318
F-0.111
sS'PRO-PHE'
p319
F-0.13100000000000001
sS'ASN-TRP'
p320
F0.095000000000000001
sS'GLU-ARG'
p321
F-0.88300000000000001
sS'HIS-VAL'
p322
F0.28399999999999997
sS'VAL-ARG'
p323
F0.157
sS'TRP-GLU'
p324
F0.126
sS'PHE-TYR'
p325
F-0.161
sS'VAL-GLN'
p326
F0.20499999999999999
sS'TRP-ASN'
p327
F-0.14000000000000001
sS'TYR-ILE'
p328
F0.045999999999999999
sS'TRP-GLY'
p329
F0
sS'GLY-GLU'
p330
F0
sS'GLY-HIS'
p331
F0
sS'PHE-SER'
p332
F0.124
sS'TRP-ASP'
p333
F0.34300000000000003
sS'TRP-GLN'
p334
F-0.16400000000000001
sS'LEU-ALA'
p335
F0.29699999999999999
sS'VAL-GLU'
p336
F0.32100000000000001
sS'ALA-HIS'
p337
F-0.037999999999999999
sS'TYR-ALA'
p338
F0.0080000000000000002
sS'LEU-THR'
p339
F0.29699999999999999
sS'TYR-CYS'
p340
F0.73499999999999999
sS'THR-THR'
p341
F-0.67400000000000004
sS'THR-LEU'
p342
F0.28899999999999998
sS'VAL-ASN'
p343
F0.21199999999999999
sS'LEU-TRP'
p344
F0.075999999999999998
sS'GLU-ASP'
p345
F-0.20899999999999999
sS'ILE-SER'
p346
F0.29599999999999999
sS'ILE-ARG'
p347
F0.17100000000000001
sS'ASN-SER'
p348
F-0.44
sS'ILE-MET'
p349
F0.48399999999999999
sS'MET-PHE'
p350
F0.058999999999999997
sS'PRO-ALA'
p351
F-0.13100000000000001
sS'PRO-GLY'
p352
F0
sS'GLN-THR'
p353
F-0.28199999999999997
sS'MET-ALA'
p354
F0.56899999999999995
sS'TRP-SER'
p355
F0.151
sS'ASP-HIS'
p356
F-0.39000000000000001
sS'ARG-SER'
p357
F-0.48799999999999999
sS'GLN-HIS'
p358
F-0.36299999999999999
sS'LEU-LEU'
p359
F-0.46000000000000002
sS'ALA-GLN'
p360
F-0.074999999999999997
sS'ASP-ASN'
p361
F-0.378
sS'SER-VAL'
p362
F0.29299999999999998
sS'MET-ILE'
p363
F0.497
sS'ALA-PRO'
p364
F-0.0070000000000000001
sS'ALA-ILE'
p365
F0.38600000000000001
sS'ALA-GLY'
p366
F0
sS'TRP-TRP'
p367
F-1.26
sS'MET-CYS'
p368
F0.96999999999999997
sS'ALA-GLU'
p369
F0.158
sS'THR-PRO'
p370
F-0.24099999999999999
sS'HIS-ALA'
p371
F0.14399999999999999
sS'GLN-ILE'
p372
F0.13500000000000001
sS'GLU-VAL'
p373
F0.35799999999999998
sS'LYS-ASN'
p374
F-0.38
sS'ASN-ALA'
p375
F0.042999999999999997
sS'GLU-TRP'
p376
F0.10299999999999999
sS'THR-ILE'
p377
F0.21299999999999999
sS'ASP-CYS'
p378
F0.89000000000000001
sS'PRO-LYS'
p379
F-0.13800000000000001
sS'TYR-TYR'
p380
F-0.96399999999999997
sS'ARG-LYS'
p381
F-0.217
sS'ILE-ALA'
p382
F0.432
sS'ASP-SER'
p383
F-0.27700000000000002
sS'CYS-LYS'
p384
F0.90700000000000003
sS'ARG-ASN'
p385
F-0.64100000000000001
sS'GLU-ALA'
p386
F0.151
sS'PHE-GLU'
p387
F0.253
sS'GLU-LEU'
p388
F0.309
sS'ASN-TYR'
p389
F-0.32200000000000001
sS'LYS-HIS'
p390
F-0.13800000000000001
sS'HIS-PRO'
p391
F-0.245
sS'ILE-ILE'
p392
F-0.38200000000000001
sS'MET-HIS'
p393
F0.38100000000000001
sS'VAL-GLY'
p394
F0
sS'THR-MET'
p395
F0.36699999999999999
sS'PHE-THR'
p396
F0.111
sS'VAL-TRP'
p397
F0.34100000000000003
sS'PHE-LYS'
p398
F0.45600000000000002
sS'GLY-PRO'
p399
F0
sS'PHE-GLN'
p400
F0.035000000000000003
sS'LEU-PHE'
p401
F-0.029000000000000001
s.