(dp1
S'MET-MET'
p2
F0.55900000000000005
sS'PRO-ILE'
p3
F1.982
sS'TYR-LYS'
p4
F2.452
sS'VAL-ASP'
p5
F2.1659999999999999
sS'ASP-GLN'
p6
F1.8220000000000001
sS'HIS-TYR'
p7
F2.4929999999999999
sS'ASP-GLU'
p8
F1.891
sS'ALA-ASP'
p9
F1.109
sS'ASP-GLY'
p10
F0
sS'LEU-VAL'
p11
F2.0939999999999999
sS'TRP-TYR'
p12
F3.262
sS'TYR-LEU'
p13
F2.5449999999999999
sS'LYS-GLU'
p14
F1.6699999999999999
sS'TRP-PHE'
p15
F3.2639999999999998
sS'ARG-TYR'
p16
F2.4689999999999999
sS'GLU-LYS'
p17
F1.7190000000000001
sS'ILE-HIS'
p18
F2.4710000000000001
sS'GLY-GLY'
p19
F0
sS'LEU-MET'
p20
F2.419
sS'GLU-HIS'
p21
F2.0640000000000001
sS'GLY-THR'
p22
F0
sS'ARG-GLU'
p23
F1.847
sS'PHE-ASN'
p24
F2.5049999999999999
sS'ASN-MET'
p25
F2.3079999999999998
sS'PRO-THR'
p26
F1.3859999999999999
sS'TYR-GLN'
p27
F2.423
sS'ARG-GLY'
p28
F0
sS'VAL-THR'
p29
F1.8859999999999999
sS'ASP-ILE'
p30
F2.4279999999999999
sS'GLY-ILE'
p31
F0
sS'TYR-GLU'
p32
F2.4049999999999998
sS'ARG-GLN'
p33
F1.948
sS'TYR-GLY'
p34
F0
sS'PHE-ASP'
p35
F2.617
sS'CYS-ARG'
p36
F2.1499999999999999
sS'HIS-ARG'
p37
F2.3380000000000001
sS'VAL-LYS'
p38
F2.319
sS'LEU-ILE'
p39
F2.2789999999999999
sS'GLN-LEU'
p40
F2.2829999999999999
sS'GLU-MET'
p41
F2.5510000000000002
sS'ASP-THR'
p42
F1.6779999999999999
sS'ASN-PHE'
p43
F2.5550000000000002
sS'GLU-PRO'
p44
F1.633
sS'LYS-ARG'
p45
F2.1949999999999998
sS'GLY-ASP'
p46
F0
sS'PRO-GLN'
p47
F1.4990000000000001
sS'CYS-MET'
p48
F2.2360000000000002
sS'GLU-THR'
p49
F1.7490000000000001
sS'ILE-THR'
p50
F2.0750000000000002
sS'PHE-GLY'
p51
F0
sS'SER-PRO'
p52
F1.099
sS'GLY-CYS'
p53
F0
sS'ARG-LEU'
p54
F2.3719999999999999
sS'PRO-GLU'
p55
F1.71
sS'ASP-LEU'
p56
F2.3610000000000002
sS'PHE-VAL'
p57
F2.4740000000000002
sS'ASN-VAL'
p58
F1.9419999999999999
sS'PRO-VAL'
p59
F1.784
sS'ALA-MET'
p60
F1.5069999999999999
sS'LEU-PRO'
p61
F1.883
sS'LEU-SER'
p62
F1.708
sS'ASN-ARG'
p63
F1.827
sS'SER-THR'
p64
F1.202
sS'LYS-VAL'
p65
F2.23
sS'LYS-PRO'
p66
F1.734
sS'GLN-VAL'
p67
F2.0609999999999999
sS'TYR-PHE'
p68
F2.952
sS'ASP-VAL'
p69
F2.1200000000000001
sS'ASN-GLY'
p70
F0
sS'ARG-PHE'
p71
F2.7229999999999999
sS'HIS-TRP'
p72
F3.1589999999999998
sS'LYS-GLN'
p73
F1.883
sS'ASN-GLU'
p74
F1.71
sS'CYS-GLN'
p75
F2.2349999999999999
sS'TYR-PRO'
p76
F1.996
sS'ARG-ILE'
p77
F2.4609999999999999
sS'CYS-GLU'
p78
F2.3359999999999999
sS'ASN-GLN'
p79
F1.6890000000000001
sS'CYS-GLY'
p80
F0
sS'GLN-SER'
p81
F1.292
sS'HIS-LYS'
p82
F2.2519999999999998
sS'LEU-LYS'
p83
F2.5369999999999999
sS'LYS-GLY'
p84
F0
sS'VAL-MET'
p85
F2.3860000000000001
sS'ALA-ALA'
p86
F-1.0349999999999999
sS'THR-SER'
p87
F1.1639999999999999
sS'PRO-PRO'
p88
F0.182
sS'ILE-PHE'
p89
F2.484
sS'PHE-LEU'
p90
F2.5070000000000001
sS'GLU-GLU'
p91
F0.94599999999999995
sS'TYR-ASP'
p92
F2.3359999999999999
sS'GLY-ALA'
p93
F0
sS'TYR-ASN'
p94
F2.1800000000000002
sS'GLU-GLN'
p95
F1.952
sS'TRP-ARG'
p96
F2.8439999999999999
sS'LEU-GLU'
p97
F2.4380000000000002
sS'LEU-GLY'
p98
F0
sS'LYS-SER'
p99
F1.4039999999999999
sS'MET-VAL'
p100
F2.3780000000000001
sS'SER-ALA'
p101
F0.53000000000000003
sS'PRO-HIS'
p102
F1.8740000000000001
sS'MET-THR'
p103
F2.1440000000000001
sS'ALA-PHE'
p104
F1.6240000000000001
sS'MET-PRO'
p105
F2.1920000000000002
sS'GLY-SER'
p106
F0
sS'LEU-GLN'
p107
F2.2490000000000001
sS'VAL-LEU'
p108
F2.044
sS'LEU-CYS'
p109
F2.2080000000000002
sS'LYS-TYR'
p110
F2.464
sS'ASP-ALA'
p111
F1.161
sS'ILE-LEU'
p112
F2.222
sS'TRP-VAL'
p113
F2.9060000000000001
sS'PHE-PRO'
p114
F2.169
sS'GLU-GLY'
p115
F0
sS'ARG-TRP'
p116
F2.7599999999999998
sS'MET-GLN'
p117
F2.3109999999999999
sS'HIS-PHE'
p118
F2.9449999999999998
sS'MET-ARG'
p119
F2.5470000000000002
sS'TYR-THR'
p120
F2.2490000000000001
sS'SER-ARG'
p121
F1.448
sS'THR-ARG'
p122
F1.833
sS'CYS-ILE'
p123
F2.2759999999999998
sS'LEU-ASN'
p124
F2.1859999999999999
sS'LEU-ASP'
p125
F2.3479999999999999
sS'PHE-TRP'
p126
F3.2490000000000001
sS'MET-GLY'
p127
F0
sS'THR-PHE'
p128
F2.2770000000000001
sS'MET-GLU'
p129
F2.5390000000000001
sS'THR-TRP'
p130
F2.6320000000000001
sS'THR-TYR'
p131
F2.1869999999999998
sS'CYS-VAL'
p132
F2.0750000000000002
sS'ARG-ALA'
p133
F1.181
sS'ALA-TYR'
p134
F1.4670000000000001
sS'ASP-PRO'
p135
F1.585
sS'ARG-CYS'
p136
F2.0270000000000001
sS'GLN-ARG'
p137
F1.9810000000000001
sS'SER-HIS'
p138
F1.716
sS'PRO-SER'
p139
F1.099
sS'VAL-VAL'
p140
F0.85599999999999998
sS'GLN-TRP'
p141
F2.738
sS'GLY-LYS'
p142
F0
sS'CYS-ASN'
p143
F1.9079999999999999
sS'GLY-TRP'
p144
F0
sS'THR-CYS'
p145
F1.8080000000000001
sS'LYS-LYS'
p146
F0.96499999999999997
sS'CYS-ASP'
p147
F2.0880000000000001
sS'VAL-PRO'
p148
F1.847
sS'THR-VAL'
p149
F1.835
sS'ASP-TYR'
p150
F2.2949999999999999
sS'PRO-CYS'
p151
F1.599
sS'VAL-SER'
p152
F1.5900000000000001
sS'ARG-HIS'
p153
F2.2370000000000001
sS'CYS-PRO'
p154
F1.653
sS'MET-LYS'
p155
F2.528
sS'ALA-SER'
p156
F0.51600000000000001
sS'TYR-SER'
p157
F1.8200000000000001
sS'GLY-ARG'
p158
F0
sS'GLN-ALA'
p159
F1.052
sS'MET-LEU'
p160
F2.3820000000000001
sS'ASN-HIS'
p161
F2.048
sS'VAL-CYS'
p162
F2.1960000000000002
sS'GLN-TYR'
p163
F2.3500000000000001
sS'MET-SER'
p164
F1.752
sS'ALA-TRP'
p165
F1.7969999999999999
sS'GLU-ASN'
p166
F1.712
sS'CYS-ALA'
p167
F1.212
sS'GLY-ASN'
p168
F0
sS'ASN-ASP'
p169
F1.698
sS'ASN-PRO'
p170
F1.3680000000000001
sS'PRO-ARG'
p171
F1.7629999999999999
sS'LYS-TRP'
p172
F2.9649999999999999
sS'ASN-ASN'
p173
F0.24199999999999999
sS'THR-ALA'
p174
F0.82999999999999996
sS'LYS-ALA'
p175
F1.3089999999999999
sS'SER-GLN'
p176
F1.3129999999999999
sS'ILE-VAL'
p177
F2.206
sS'ASP-ARG'
p178
F1.72
sS'ASP-MET'
p179
F2.3889999999999998
sS'CYS-TYR'
p180
F2.1619999999999999
sS'PRO-TRP'
p181
F2.464
sS'ILE-LYS'
p182
F2.6150000000000002
sS'TRP-ALA'
p183
F1.752
sS'ILE-CYS'
p184
F2.3940000000000001
sS'LYS-ILE'
p185
F2.6000000000000001
sS'GLN-CYS'
p186
F2.246
sS'ARG-ASP'
p187
F1.6539999999999999
sS'SER-GLU'
p188
F1.3759999999999999
sS'TRP-HIS'
p189
F3.008
sS'ALA-ASN'
p190
F0.99199999999999999
sS'GLU-CYS'
p191
F2.2730000000000001
sS'ALA-CYS'
p192
F1.2370000000000001
sS'PRO-MET'
p193
F2.206
sS'TYR-HIS'
p194
F2.5539999999999998
sS'PHE-MET'
p195
F2.6230000000000002
sS'GLU-TYR'
p196
F2.339
sS'SER-TRP'
p197
F2.2440000000000002
sS'PHE-ARG'
p198
F2.8010000000000002
sS'THR-HIS'
p199
F2.0089999999999999
sS'TYR-VAL'
p200
F2.4510000000000001
sS'SER-ILE'
p201
F1.746
sS'GLN-PRO'
p202
F1.577
sS'ALA-VAL'
p203
F1.1279999999999999
sS'HIS-HIS'
p204
F0.66300000000000003
sS'THR-ASN'
p205
F1.516
sS'CYS-LEU'
p206
F2.2919999999999998
sS'LYS-MET'
p207
F2.617
sS'LYS-ASP'
p208
F1.6579999999999999
sS'HIS-ASN'
p209
F1.9570000000000001
sS'ILE-GLN'
p210
F2.399
sS'VAL-HIS'
p211
F2.4319999999999999
sS'ALA-LEU'
p212
F1.2210000000000001
sS'HIS-ASP'
p213
F2.0310000000000001
sS'ILE-TYR'
p214
F2.5699999999999998
sS'ILE-GLU'
p215
F2.496
sS'ASP-ASP'
p216
F0.76900000000000002
sS'ILE-GLY'
p217
F0
sS'ASN-CYS'
p218
F1.786
sS'GLU-SER'
p219
F1.3899999999999999
sS'ILE-ASN'
p220
F2.1509999999999998
sS'HIS-CYS'
p221
F2.5630000000000002
sS'HIS-MET'
p222
F2.6859999999999999
sS'ILE-PRO'
p223
F1.9319999999999999
sS'LYS-PHE'
p224
F2.8839999999999999
sS'GLY-PHE'
p225
F0
sS'ILE-ASP'
p226
F2.3820000000000001
sS'PHE-HIS'
p227
F2.903
sS'GLY-TYR'
p228
F0
sS'SER-GLY'
p229
F0
sS'CYS-TRP'
p230
F3.1629999999999998
sS'ASP-LYS'
p231
F1.6819999999999999
sS'ASN-ILE'
p232
F2.1160000000000001
sS'HIS-SER'
p233
F1.6140000000000001
sS'LYS-CYS'
p234
F2.4319999999999999
sS'TRP-PRO'
p235
F2.581
sS'ASN-THR'
p236
F1.5489999999999999
sS'GLN-PHE'
p237
F2.6070000000000002
sS'VAL-ALA'
p238
F1.155
sS'SER-LEU'
p239
F1.7110000000000001
sS'TRP-LYS'
p240
F2.9249999999999998
sS'VAL-TYR'
p241
F2.5310000000000001
sS'VAL-PHE'
p242
F2.476
sS'ARG-THR'
p243
F1.8029999999999999
sS'TYR-TRP'
p244
F3.2850000000000001
sS'GLN-GLN'
p245
F0.52000000000000002
sS'GLU-PHE'
p246
F2.7789999999999999
sS'VAL-ILE'
p247
F2.1859999999999999
sS'HIS-GLN'
p248
F2.3029999999999999
sS'GLN-GLY'
p249
F0
sS'PHE-ALA'
p250
F1.6399999999999999
sS'HIS-GLU'
p251
F2.1219999999999999
sS'ARG-PRO'
p252
F1.7509999999999999
sS'HIS-GLY'
p253
F0
sS'SER-ASN'
p254
F1.1379999999999999
sS'ALA-THR'
p255
F0.88900000000000001
sS'GLN-GLU'
p256
F1.9650000000000001
sS'GLN-LYS'
p257
F1.948
sS'CYS-HIS'
p258
F2.4750000000000001
sS'GLN-ASP'
p259
F1.7569999999999999
sS'LEU-HIS'
p260
F2.4710000000000001
sS'SER-LYS'
p261
F1.4239999999999999
sS'TRP-LEU'
p262
F2.8919999999999999
sS'CYS-SER'
p263
F1.325
sS'LYS-THR'
p264
F1.9450000000000001
sS'HIS-LEU'
p265
F2.5640000000000001
sS'LEU-ARG'
p266
F2.4350000000000001
sS'GLY-VAL'
p267
F0
sS'GLN-ASN'
p268
F1.6739999999999999
sS'TYR-ARG'
p269
F2.5009999999999999
sS'PRO-TYR'
p270
F1.9570000000000001
sS'ASP-PHE'
p271
F2.6840000000000002
sS'ARG-VAL'
p272
F2.1840000000000002
sS'ASN-LEU'
p273
F2.181
sS'SER-MET'
p274
F1.8109999999999999
sS'HIS-ILE'
p275
F2.6720000000000002
sS'GLY-LEU'
p276
F0
sS'SER-TYR'
p277
F1.7569999999999999
sS'MET-TYR'
p278
F2.6190000000000002
sS'GLU-ILE'
p279
F2.444
sS'PHE-CYS'
p280
F2.355
sS'PRO-LEU'
p281
F1.9099999999999999
sS'GLY-MET'
p282
F0
sS'HIS-THR'
p283
F2.0539999999999998
sS'THR-GLN'
p284
F1.647
sS'TRP-THR'
p285
F2.5950000000000002
sS'LYS-LEU'
p286
F2.54
sS'THR-GLY'
p287
F0
sS'ALA-LYS'
p288
F1.3440000000000001
sS'ASP-TRP'
p289
F2.8660000000000001
sS'TYR-MET'
p290
F2.7149999999999999
sS'PHE-ILE'
p291
F2.536
sS'THR-GLU'
p292
F1.7869999999999999
sS'MET-ASN'
p293
F2.1800000000000002
sS'LEU-TYR'
p294
F2.5939999999999999
sS'PHE-PHE'
p295
F1.6200000000000001
sS'CYS-PHE'
p296
F2.379
sS'TRP-ILE'
p297
F3.0579999999999998
sS'PRO-ASN'
p298
F1.407
sS'CYS-CYS'
p299
F-1.4299999999999999
sS'SER-ASP'
p300
F1.2350000000000001
sS'ARG-MET'
p301
F2.4649999999999999
sS'SER-PHE'
p302
F2.0590000000000002
sS'SER-SER'
p303
F-0.373
sS'ASN-LYS'
p304
F1.6839999999999999
sS'CYS-THR'
p305
F1.875
sS'ILE-TRP'
p306
F3.1019999999999999
sS'PRO-ASP'
p307
F1.569
sS'THR-ASP'
p308
F1.7250000000000001
sS'SER-CYS'
p309
F1.4970000000000001
sS'MET-ASP'
p310
F2.379
sS'GLN-MET'
p311
F2.4940000000000002
sS'MET-TRP'
p312
F3.113
sS'TRP-CYS'
p313
F3.3039999999999998
sS'GLY-GLN'
p314
F0
sS'THR-LYS'
p315
F1.8959999999999999
sS'TRP-MET'
p316
F3.0720000000000001
sS'ARG-ARG'
p317
F1.02
sS'ALA-ARG'
p318
F1.163
sS'PRO-PHE'
p319
F2.1749999999999998
sS'ASN-TRP'
p320
F2.762
sS'GLU-ARG'
p321
F1.8720000000000001
sS'HIS-VAL'
p322
F2.427
sS'VAL-ARG'
p323
F2.2440000000000002
sS'TRP-GLU'
p324
F2.9500000000000002
sS'PHE-TYR'
p325
F2.8730000000000002
sS'VAL-GLN'
p326
F2.1080000000000001
sS'TRP-ASN'
p327
F2.5539999999999998
sS'TYR-ILE'
p328
F2.6160000000000001
sS'TRP-GLY'
p329
F0
sS'GLY-GLU'
p330
F0
sS'GLY-HIS'
p331
F0
sS'PHE-SER'
p332
F2.008
sS'TRP-ASP'
p333
F2.8679999999999999
sS'TRP-GLN'
p334
F2.629
sS'LEU-ALA'
p335
F1.296
sS'VAL-GLU'
p336
F2.1970000000000001
sS'ALA-HIS'
p337
F1.2749999999999999
sS'TYR-ALA'
p338
F1.4670000000000001
sS'LEU-THR'
p339
F2.04
sS'TYR-CYS'
p340
F2.4390000000000001
sS'THR-THR'
p341
F0.34699999999999998
sS'THR-LEU'
p342
F2.044
sS'VAL-ASN'
p343
F1.9750000000000001
sS'LEU-TRP'
p344
F2.8410000000000002
sS'GLU-ASP'
p345
F1.9019999999999999
sS'ILE-SER'
p346
F1.7190000000000001
sS'ILE-ARG'
p347
F2.399
sS'ASN-SER'
p348
F1.1379999999999999
sS'ILE-MET'
p349
F2.496
sS'MET-PHE'
p350
F2.6699999999999999
sS'PRO-ALA'
p351
F0.67000000000000004
sS'PRO-GLY'
p352
F0
sS'GLN-THR'
p353
F1.7190000000000001
sS'MET-ALA'
p354
F1.5349999999999999
sS'TRP-SER'
p355
F2.3679999999999999
sS'ASP-HIS'
p356
F2.101
sS'ARG-SER'
p357
F1.403
sS'GLN-HIS'
p358
F2.1600000000000001
sS'LEU-LEU'
p359
F1.083
sS'ALA-GLN'
p360
F1.0409999999999999
sS'ASP-ASN'
p361
F1.6699999999999999
sS'SER-VAL'
p362
F1.585
sS'MET-ILE'
p363
F2.4740000000000002
sS'ALA-PRO'
p364
F0.79400000000000004
sS'ALA-ILE'
p365
F1.3560000000000001
sS'ALA-GLY'
p366
F0
sS'TRP-TRP'
p367
F1.589
sS'MET-CYS'
p368
F2.4329999999999998
sS'ALA-GLU'
p369
F1.2609999999999999
sS'THR-PRO'
p370
F1.4179999999999999
sS'HIS-ALA'
p371
F1.4239999999999999
sS'GLN-ILE'
p372
F2.2919999999999998
sS'GLU-VAL'
p373
F2.2320000000000002
sS'LYS-ASN'
p374
F1.7609999999999999
sS'ASN-ALA'
p375
F1.034
sS'GLU-TRP'
p376
F2.9279999999999999
sS'THR-ILE'
p377
F1.9630000000000001
sS'ASP-CYS'
p378
F2.2839999999999998
sS'PRO-LYS'
p379
F1.726
sS'TYR-TYR'
p380
F1.544
sS'ARG-LYS'
p381
F2.149
sS'ILE-ALA'
p382
F1.391
sS'ASP-SER'
p383
F1.2729999999999999
sS'CYS-LYS'
p384
F2.3889999999999998
sS'ARG-ASN'
p385
F1.762
sS'GLU-ALA'
p386
F1.2350000000000001
sS'PHE-GLU'
p387
F2.7730000000000001
sS'GLU-LEU'
p388
F2.3940000000000001
sS'ASN-TYR'
p389
F2.1760000000000002
sS'LYS-HIS'
p390
F2.2450000000000001
sS'HIS-PRO'
p391
F1.9259999999999999
sS'ILE-ILE'
p392
F1.083
sS'MET-HIS'
p393
F2.6120000000000001
sS'VAL-GLY'
p394
F0
sS'THR-MET'
p395
F2.145
sS'PHE-THR'
p396
F2.3010000000000002
sS'VAL-TRP'
p397
F2.8500000000000001
sS'PHE-LYS'
p398
F2.8460000000000001
sS'GLY-PRO'
p399
F0
sS'PHE-GLN'
p400
F2.6379999999999999
sS'LEU-PHE'
p401
F2.5150000000000001
s.