(dp1
S'PRO-ILE'
p2
F-0.498
sS'TYR-LYS'
p3
F-0.88800000000000001
sS'VAL-ASP'
p4
F-0.074999999999999997
sS'ASP-GLN'
p5
F-0.58799999999999997
sS'ASP-GLU'
p6
F-0.54300000000000004
sS'ASP-GLY'
p7
F0.40000000000000002
sS'LEU-VAL'
p8
F-0.5
sS'TYR-LEU'
p9
F-0.96099999999999997
sS'ALA-THR'
p10
F-0.073999999999999996
sS'TRP-PHE'
p11
F-1.1990000000000001
sS'ARG-TYR'
p12
F-1.115
sS'GLU-LYS'
p13
F-1.1319999999999999
sS'LEU-MET'
p14
F-0.54400000000000004
sS'GLU-HIS'
p15
F-1.0740000000000001
sS'GLY-THR'
p16
F0.40000000000000002
sS'ARG-GLU'
p17
F-1.2230000000000001
sS'PHE-ASN'
p18
F-0.61899999999999999
sS'ARG-GLY'
p19
F0.40000000000000002
sS'ASP-ILE'
p20
F-0.28899999999999998
sS'ALA-VAL'
p21
F-0.035999999999999997
sS'PHE-ASP'
p22
F-0.40500000000000003
sS'GLY-ASN'
p23
F0.40000000000000002
sS'VAL-LYS'
p24
F-0.222
sS'LEU-ILE'
p25
F-0.79400000000000004
sS'GLN-LEU'
p26
F-0.61099999999999999
sS'GLU-MET'
p27
F-0.58699999999999997
sS'ASN-PHE'
p28
F-0.57199999999999995
sS'LYS-ARG'
p29
F-0.81100000000000005
sS'GLY-ASP'
p30
F0.40000000000000002
sS'PRO-GLN'
p31
F-0.95899999999999996
sS'CYS-MET'
p32
F-0.34899999999999998
sS'GLU-THR'
p33
F-0.53900000000000003
sS'SER-PRO'
p34
F-0.32600000000000001
sS'GLY-CYS'
p35
F0.40000000000000002
sS'PRO-GLU'
p36
F-0.61199999999999999
sS'ASP-LEU'
p37
F-0.40799999999999997
sS'ALA-MET'
p38
F-0.096000000000000002
sS'SER-THR'
p39
F-0.251
sS'LYS-VAL'
p40
F-0.29499999999999998
sS'GLN-VAL'
p41
F-0.36599999999999999
sS'ASP-VAL'
p42
F0.043999999999999997
sS'ASN-GLY'
p43
F0.40000000000000002
sS'LYS-GLN'
p44
F-0.91000000000000003
sS'ALA-ILE'
p45
F-0.26900000000000002
sS'TYR-PRO'
p46
F-0.93899999999999995
sS'LYS-GLU'
p47
F-1.131
sS'ASN-GLN'
p48
F-1.002
sS'GLN-SER'
p49
F-0.70099999999999996
sS'LYS-GLY'
p50
F0.40000000000000002
sS'VAL-MET'
p51
F-0.41299999999999998
sS'ALA-ALA'
p52
F-0.22700000000000001
sS'THR-SER'
p53
F-0.26800000000000002
sS'THR-TRP'
p54
F-0.63800000000000001
sS'ILE-PHE'
p55
F-0.77600000000000002
sS'GLY-ALA'
p56
F0.40000000000000002
sS'LEU-GLU'
p57
F-0.46400000000000002
sS'LEU-GLY'
p58
F0.40000000000000002
sS'LYS-SER'
p59
F-0.54400000000000004
sS'PRO-HIS'
p60
F-0.66900000000000004
sS'ALA-PHE'
p61
F-0.40899999999999997
sS'CYS-HIS'
p62
F-0.60699999999999998
sS'GLY-SER'
p63
F0.40000000000000002
sS'LEU-GLN'
p64
F-0.58599999999999997
sS'ASP-ALA'
p65
F-0.0040000000000000001
sS'ILE-LEU'
p66
F-0.83299999999999996
sS'TRP-VAL'
p67
F-0.64400000000000002
sS'MET-ARG'
p68
F-0.51700000000000002
sS'TYR-THR'
p69
F-0.61099999999999999
sS'THR-ARG'
p70
F-0.79800000000000004
sS'LEU-ASN'
p71
F-0.51700000000000002
sS'LEU-ASP'
p72
F-0.33500000000000002
sS'GLN-TRP'
p73
F-0.83199999999999996
sS'ARG-ALA'
p74
F-0.41699999999999998
sS'SER-HIS'
p75
F-0.56299999999999994
sS'VAL-VAL'
p76
F-0.53400000000000003
sS'GLY-LYS'
p77
F0.40000000000000002
sS'GLY-TRP'
p78
F0.40000000000000002
sS'LYS-LYS'
p79
F-0.73599999999999999
sS'CYS-ASP'
p80
F-0.21199999999999999
sS'THR-VAL'
p81
F-0.35899999999999999
sS'CYS-ASN'
p82
F-0.17599999999999999
sS'PRO-CYS'
p83
F-0.36899999999999999
sS'ARG-HIS'
p84
F-0.93400000000000005
sS'ALA-SER'
p85
F-0.023
sS'TYR-SER'
p86
F-0.66100000000000003
sS'ASN-HIS'
p87
F-0.621
sS'VAL-CYS'
p88
F0.092999999999999999
sS'GLN-TYR'
p89
F-0.96999999999999997
sS'GLN-PHE'
p90
F-0.61699999999999999
sS'ASN-PRO'
p91
F-0.77800000000000002
sS'PRO-ARG'
p92
F-0.90100000000000002
sS'CYS-PHE'
p93
F-0.32700000000000001
sS'LYS-ALA'
p94
F-0.091999999999999998
sS'ILE-VAL'
p95
F-0.54300000000000004
sS'PHE-TYR'
p96
F-0.90000000000000002
sS'ARG-ASN'
p97
F-1.099
sS'PRO-TRP'
p98
F-0.89300000000000002
sS'ILE-LYS'
p99
F-0.56699999999999995
sS'TRP-ALA'
p100
F-0.68100000000000005
sS'ILE-CYS'
p101
F-0.080000000000000002
sS'LYS-ILE'
p102
F-0.63400000000000001
sS'GLN-CYS'
p103
F0.047
sS'ARG-ASP'
p104
F-1.1970000000000001
sS'TYR-HIS'
p105
F-0.85999999999999999
sS'GLU-TYR'
p106
F-0.93000000000000005
sS'SER-TRP'
p107
F-0.65900000000000003
sS'PHE-ARG'
p108
F-0.77900000000000003
sS'GLY-ILE'
p109
F0.40000000000000002
sS'TYR-VAL'
p110
F-0.73299999999999998
sS'ASN-TYR'
p111
F-0.84999999999999998
sS'ARG-GLN'
p112
F-1.0469999999999999
sS'HIS-HIS'
p113
F-1.431
sS'THR-ASN'
p114
F-0.55500000000000005
sS'LYS-ASP'
p115
F-0.97399999999999998
sS'ILE-GLN'
p116
F-0.58999999999999997
sS'ALA-ASP'
p117
F0
sS'ILE-GLU'
p118
F-0.53800000000000003
sS'ILE-GLY'
p119
F0.40000000000000002
sS'HIS-ARG'
p120
F-0.90400000000000003
sS'ILE-ASN'
p121
F-0.41599999999999998
sS'THR-LYS'
p122
F-0.55200000000000005
sS'ILE-PRO'
p123
F-0.45800000000000002
sS'ILE-ASP'
p124
F-0.22700000000000001
sS'GLU-CYS'
p125
F-0.039
sS'GLY-TYR'
p126
F0.40000000000000002
sS'CYS-TRP'
p127
F-0.11
sS'HIS-SER'
p128
F-0.59399999999999997
sS'TRP-PRO'
p129
F-0.78000000000000003
sS'GLY-LEU'
p130
F0.40000000000000002
sS'TRP-LYS'
p131
F-0.505
sS'VAL-TYR'
p132
F-0.63600000000000001
sS'VAL-PHE'
p133
F-0.45000000000000001
sS'TYR-TRP'
p134
F-0.98599999999999999
sS'ARG-ILE'
p135
F-0.70099999999999996
sS'GLU-PHE'
p136
F-0.59199999999999997
sS'ARG-PRO'
p137
F-0.88800000000000001
sS'ASN-ARG'
p138
F-1.0189999999999999
sS'GLN-LYS'
p139
F-0.94199999999999995
sS'GLN-ASP'
p140
F-0.59999999999999998
sS'LEU-HIS'
p141
F-0.60199999999999998
sS'SER-LYS'
p142
F-0.48199999999999998
sS'CYS-SER'
p143
F0.40000000000000002
sS'GLY-VAL'
p144
F0.40000000000000002
sS'GLN-ASN'
p145
F-0.94899999999999995
sS'PRO-TYR'
p146
F-0.96099999999999997
sS'SER-TYR'
p147
F-0.67300000000000004
sS'MET-TYR'
p148
F-0.93899999999999995
sS'GLU-ILE'
p149
F-0.45900000000000002
sS'PHE-CYS'
p150
F-0.52200000000000002
sS'PRO-LEU'
p151
F-0.64600000000000002
sS'GLY-MET'
p152
F0.40000000000000002
sS'HIS-THR'
p153
F-0.51700000000000002
sS'TRP-THR'
p154
F-0.60799999999999998
sS'TYR-MET'
p155
F-0.81499999999999995
sS'PRO-VAL'
p156
F-0.38200000000000001
sS'MET-ASN'
p157
F-0.72399999999999998
sS'PHE-PHE'
p158
F-1.1799999999999999
sS'TRP-ILE'
p159
F-0.747
sS'LYS-TYR'
p160
F-0.93300000000000005
sS'SER-PHE'
p161
F-0.33600000000000002
sS'THR-ASP'
p162
F-0.42799999999999999
sS'SER-CYS'
p163
F-0.063
sS'MET-ASP'
p164
F-0.28599999999999998
sS'GLN-MET'
p165
F-0.71099999999999997
sS'MET-TRP'
p166
F-0.89200000000000002
sS'TRP-CYS'
p167
F0.379
sS'GLY-GLN'
p168
F0.40000000000000002
sS'GLY-GLY'
p169
F0.40000000000000002
sS'GLY-GLU'
p170
F0.40000000000000002
sS'ALA-ARG'
p171
F-0.46200000000000002
sS'ASN-SER'
p172
F-0.45300000000000001
sS'ALA-LYS'
p173
F-0.039
sS'TYR-ILE'
p174
F-0.82499999999999996
sS'TRP-GLY'
p175
F0.40000000000000002
sS'GLY-HIS'
p176
F0.40000000000000002
sS'PHE-SER'
p177
F-0.28399999999999997
sS'TRP-GLN'
p178
F-0.93899999999999995
sS'TYR-ALA'
p179
F-0.48199999999999998
sS'THR-THR'
p180
F-0.749
sS'THR-LEU'
p181
F-0.61699999999999999
sS'VAL-ASN'
p182
F-0.28399999999999997
sS'GLU-ASP'
p183
F-0.55100000000000005
sS'TRP-GLU'
p184
F-0.72699999999999998
sS'PRO-GLY'
p185
F0.40000000000000002
sS'GLN-THR'
p186
F-0.69099999999999995
sS'MET-ALA'
p187
F-0.255
sS'ASP-HIS'
p188
F-0.86099999999999999
sS'GLN-HIS'
p189
F-0.82999999999999996
sS'TRP-HIS'
p190
F-0.74299999999999999
sS'SER-VAL'
p191
F-0.109
sS'MET-ILE'
p192
F-0.56499999999999995
sS'MET-CYS'
p193
F-0.217
sS'PRO-LYS'
p194
F-0.33800000000000002
sS'SER-SER'
p195
F-0.60099999999999998
sS'ILE-ALA'
p196
F-0.39600000000000002
sS'ASP-SER'
p197
F-0.437
sS'CYS-LYS'
p198
F-0.378
sS'GLU-ALA'
p199
F-0.252
sS'LYS-HIS'
p200
F-0.78100000000000003
sS'HIS-PRO'
p201
F-0.72499999999999998
sS'ILE-ILE'
p202
F-0.92500000000000004
sS'THR-MET'
p203
F-0.57999999999999996
sS'PHE-THR'
p204
F-0.65300000000000002
sS'PHE-LYS'
p205
F-0.496
sS'GLY-PRO'
p206
F0.40000000000000002
sS'MET-MET'
p207
F-1.1499999999999999
sS'HIS-TYR'
p208
F-0.98499999999999999
sS'TRP-TYR'
p209
F-0.90200000000000002
sS'ILE-HIS'
p210
F-0.53200000000000003
sS'ASN-MET'
p211
F-0.45500000000000002
sS'PRO-THR'
p212
F-0.56599999999999995
sS'TYR-GLN'
p213
F-0.94799999999999995
sS'VAL-THR'
p214
F-0.33000000000000002
sS'THR-HIS'
p215
F-0.46400000000000002
sS'TYR-GLU'
p216
F-0.874
sS'TYR-GLY'
p217
F0.40000000000000002
sS'VAL-HIS'
p218
F-0.40200000000000002
sS'CYS-ARG'
p219
F-0.379
sS'GLU-SER'
p220
F-0.57099999999999995
sS'HIS-MET'
p221
F-0.27300000000000002
sS'ASP-THR'
p222
F-0.35299999999999998
sS'GLU-PRO'
p223
F-0.627
sS'VAL-ILE'
p224
F-0.65700000000000003
sS'ILE-THR'
p225
F-0.63300000000000001
sS'ARG-LEU'
p226
F-0.76500000000000001
sS'PHE-VAL'
p227
F-0.46100000000000002
sS'ASN-VAL'
p228
F-0.38500000000000001
sS'LEU-PRO'
p229
F-0.71199999999999997
sS'LEU-SER'
p230
F-0.33700000000000002
sS'LYS-PRO'
p231
F-0.60599999999999998
sS'ARG-PHE'
p232
F-0.85799999999999998
sS'ASN-GLU'
p233
F-0.76900000000000002
sS'CYS-GLN'
p234
F-0.27700000000000002
sS'SER-ARG'
p235
F-0.73899999999999999
sS'CYS-GLU'
p236
F0.20100000000000001
sS'MET-VAL'
p237
F-0.5
sS'CYS-GLY'
p238
F0.40000000000000002
sS'HIS-LYS'
p239
F-0.628
sS'GLU-GLY'
p240
F0.40000000000000002
sS'PRO-PRO'
p241
F-0.93000000000000005
sS'PHE-LEU'
p242
F-0.77700000000000002
sS'GLU-GLU'
p243
F-0.79900000000000004
sS'TYR-ASP'
p244
F-0.82999999999999996
sS'TYR-ASN'
p245
F-0.92300000000000004
sS'GLU-GLN'
p246
F-0.71499999999999997
sS'TRP-ARG'
p247
F-0.95099999999999996
sS'SER-ALA'
p248
F-0.067000000000000004
sS'MET-THR'
p249
F-0.60799999999999998
sS'MET-PRO'
p250
F-0.47599999999999998
sS'VAL-LEU'
p251
F-0.68799999999999994
sS'LEU-CYS'
p252
F-0.14799999999999999
sS'VAL-ARG'
p253
F-0.58799999999999997
sS'LEU-THR'
p254
F-0.33700000000000002
sS'PHE-PRO'
p255
F-0.81599999999999995
sS'ARG-TRP'
p256
F-1.0049999999999999
sS'MET-GLN'
p257
F-0.59699999999999998
sS'HIS-PHE'
p258
F-0.61299999999999999
sS'ALA-CYS'
p259
F0.094
sS'CYS-ILE'
p260
F-0.13400000000000001
sS'PHE-TRP'
p261
F-1.117
sS'MET-GLY'
p262
F0.40000000000000002
sS'THR-PHE'
p263
F-0.68400000000000005
sS'MET-GLU'
p264
F-0.438
sS'THR-TYR'
p265
F-0.66300000000000003
sS'ALA-TYR'
p266
F-0.64000000000000001
sS'ASP-PRO'
p267
F-0.66900000000000004
sS'ARG-CYS'
p268
F-0.34300000000000003
sS'GLN-ARG'
p269
F-0.95599999999999996
sS'HIS-TRP'
p270
F-0.71099999999999997
sS'PRO-SER'
p271
F-0.29899999999999999
sS'LEU-LYS'
p272
F-0.32200000000000001
sS'THR-CYS'
p273
F-0.080000000000000002
sS'ASP-TYR'
p274
F-0.878
sS'VAL-SER'
p275
F-0.26100000000000001
sS'CYS-PRO'
p276
F-0.495
sS'MET-LYS'
p277
F-0.65500000000000003
sS'GLY-ARG'
p278
F0.40000000000000002
sS'GLN-ALA'
p279
F-0.26600000000000001
sS'MET-LEU'
p280
F-0.64000000000000001
sS'ASN-CYS'
p281
F-0.248
sS'MET-SER'
p282
F-0.34300000000000003
sS'CYS-ALA'
p283
F0.36099999999999999
sS'ASN-ASP'
p284
F-0.751
sS'LYS-TRP'
p285
F-0.70099999999999996
sS'ASN-ASN'
p286
F-1.2050000000000001
sS'THR-ALA'
p287
F-0.153
sS'ASP-ARG'
p288
F-1.161
sS'ASP-MET'
p289
F-0.23200000000000001
sS'CYS-TYR'
p290
F-0.161
sS'SER-GLU'
p291
F-0.67900000000000005
sS'ALA-ASN'
p292
F-0.13800000000000001
sS'PHE-MET'
p293
F-0.96199999999999997
sS'SER-ILE'
p294
F-0.28799999999999998
sS'CYS-LEU'
p295
F-0.053999999999999999
sS'LYS-MET'
p296
F-0.41799999999999998
sS'HIS-ASN'
p297
F-0.64000000000000001
sS'GLU-ASN'
p298
F-0.73399999999999999
sS'ALA-LEU'
p299
F-0.31900000000000001
sS'HIS-ASP'
p300
F-0.81499999999999995
sS'ILE-TYR'
p301
F-0.78100000000000003
sS'ASN-TRP'
p302
F-0.54900000000000004
sS'ALA-TRP'
p303
F-0.72899999999999998
sS'HIS-CYS'
p304
F-0.40999999999999998
sS'SER-GLN'
p305
F-0.52400000000000002
sS'LYS-PHE'
p306
F-0.32300000000000001
sS'GLU-TRP'
p307
F-0.74399999999999999
sS'PHE-HIS'
p308
F-0.58599999999999997
sS'SER-GLY'
p309
F0.40000000000000002
sS'ASP-LYS'
p310
F-1.028
sS'ALA-GLU'
p311
F-0.28899999999999998
sS'LYS-CYS'
p312
F0.32200000000000001
sS'GLY-PHE'
p313
F0.40000000000000002
sS'ASN-THR'
p314
F-0.52400000000000002
sS'VAL-ALA'
p315
F-0.13800000000000001
sS'SER-LEU'
p316
F-0.20799999999999999
sS'ARG-THR'
p317
F-0.79000000000000004
sS'GLN-GLN'
p318
F-1.254
sS'HIS-GLN'
p319
F-0.81399999999999995
sS'GLN-GLY'
p320
F0.40000000000000002
sS'PHE-ALA'
p321
F-0.44900000000000001
sS'HIS-GLU'
p322
F-0.94599999999999995
sS'HIS-GLY'
p323
F0.40000000000000002
sS'SER-ASN'
p324
F-0.42699999999999999
sS'GLN-GLU'
p325
F-0.78300000000000003
sS'VAL-TRP'
p326
F-0.67600000000000005
sS'TRP-LEU'
p327
F-0.98699999999999999
sS'LYS-THR'
p328
F-0.57699999999999996
sS'LEU-ARG'
p329
F-0.70799999999999996
sS'TYR-ARG'
p330
F-1.0049999999999999
sS'ASP-PHE'
p331
F-0.28899999999999998
sS'ASN-LEU'
p332
F-0.52500000000000002
sS'SER-MET'
p333
F-0.17000000000000001
sS'HIS-ILE'
p334
F-0.63400000000000001
sS'CYS-VAL'
p335
F0.115
sS'THR-GLN'
p336
F-0.74099999999999999
sS'LYS-LEU'
p337
F-0.48599999999999999
sS'THR-GLY'
p338
F0.40000000000000002
sS'ASP-TRP'
p339
F-0.86299999999999999
sS'PHE-ILE'
p340
F-0.90700000000000003
sS'THR-GLU'
p341
F-0.61699999999999999
sS'LEU-TYR'
p342
F-0.95299999999999996
sS'PRO-ASN'
p343
F-0.70299999999999996
sS'CYS-CYS'
p344
F-1.663
sS'SER-ASP'
p345
F-0.44900000000000001
sS'ARG-MET'
p346
F-0.66300000000000003
sS'ARG-LYS'
p347
F-0.73399999999999999
sS'ASN-LYS'
p348
F-0.76900000000000002
sS'CYS-THR'
p349
F-0.014
sS'ILE-TRP'
p350
F-0.78500000000000003
sS'PRO-ASP'
p351
F-0.64000000000000001
sS'HIS-LEU'
p352
F-0.64100000000000001
sS'ARG-VAL'
p353
F-0.71299999999999997
sS'TRP-MET'
p354
F-0.70799999999999996
sS'ARG-ARG'
p355
F-1.272
sS'PRO-PHE'
p356
F-0.80000000000000004
sS'GLU-ARG'
p357
F-1.2969999999999999
sS'HIS-VAL'
p358
F-0.42999999999999999
sS'VAL-GLN'
p359
F-0.49399999999999999
sS'TRP-ASN'
p360
F-0.77400000000000002
sS'VAL-GLY'
p361
F0.40000000000000002
sS'TRP-ASP'
p362
F-0.90200000000000002
sS'LEU-ALA'
p363
F-0.186
sS'VAL-GLU'
p364
F-0.35999999999999999
sS'ALA-HIS'
p365
F-0.40899999999999997
sS'TYR-CYS'
p366
F-0.37
sS'TYR-PHE'
p367
F-0.88100000000000001
sS'LEU-TRP'
p368
F-0.86099999999999999
sS'ILE-SER'
p369
F-0.246
sS'ILE-ARG'
p370
F-0.58999999999999997
sS'ILE-MET'
p371
F-0.67100000000000004
sS'MET-PHE'
p372
F-1.0269999999999999
sS'PRO-ALA'
p373
F-0.41899999999999998
sS'TRP-SER'
p374
F-0.65200000000000002
sS'VAL-PRO'
p375
F-0.35199999999999998
sS'ARG-SER'
p376
F-0.79300000000000004
sS'LEU-LEU'
p377
F-0.89900000000000002
sS'ALA-GLN'
p378
F-0.26500000000000001
sS'ASP-ASN'
p379
F-0.65300000000000002
sS'PRO-MET'
p380
F-0.69099999999999995
sS'ALA-PRO'
p381
F-0.32100000000000001
sS'ASP-ASP'
p382
F-0.57899999999999996
sS'ALA-GLY'
p383
F0.40000000000000002
sS'TRP-TRP'
p384
F-1.4650000000000001
sS'ASN-ILE'
p385
F-0.45700000000000002
sS'THR-PRO'
p386
F-0.45200000000000001
sS'HIS-ALA'
p387
F-0.30399999999999999
sS'GLN-ILE'
p388
F-0.60799999999999998
sS'GLU-VAL'
p389
F-0.33100000000000002
sS'LYS-ASN'
p390
F-0.71599999999999997
sS'ASN-ALA'
p391
F-0.17000000000000001
sS'THR-ILE'
p392
F-0.54100000000000004
sS'ASP-CYS'
p393
F-0.047
sS'TYR-TYR'
p394
F-1.2250000000000001
sS'GLN-PRO'
p395
F-0.79100000000000004
sS'PHE-GLU'
p396
F-0.52500000000000002
sS'GLU-LEU'
p397
F-0.63
sS'PHE-GLY'
p398
F0.40000000000000002
sS'MET-HIS'
p399
F-0.432
sS'PHE-GLN'
p400
F-0.67200000000000004
sS'LEU-PHE'
p401
F-0.80500000000000005
s.