(dp1
S'PRO-ILE'
p2
(dp3
I2
F1
sI3
F0.67240999999999995
sI4
F0.37930999999999998
sI5
F0.16667000000000001
sI6
F0.040230000000000002
sI7
F0.02299
sI8
F0.0057499999999999999
sI9
F0.0057499999999999999
ssS'TYR-LYS'
p4
(dp5
I2
F1
sI3
F0.72726999999999997
sI4
F0.75524000000000002
sI5
F0.65734000000000004
sI6
F0.43357000000000001
sI7
F0.23776
sI8
F0.16783000000000001
sI9
F0.13286999999999999
sI10
F0.10489999999999999
sI11
F0.041959999999999997
sI12
F0.034970000000000001
ssS'ASP-GLN'
p6
(dp7
I2
F1
sI3
F0.48061999999999999
sI4
F0.68217000000000005
sI5
F0.60465000000000002
sI6
F0.62790999999999997
sI7
F0.26357000000000003
sI8
F0.10853
sI9
F0.10077999999999999
sI10
F0.054260000000000003
sI11
F0.046510000000000003
sI12
F0.023259999999999999
sI13
F0.0155
ssS'ASP-GLU'
p8
(dp9
I2
F1
sI3
F0.44444
sI4
F0.53332999999999997
sI5
F0.47406999999999999
sI6
F1
sI7
F0.23704
sI8
F0.17777999999999999
sI9
F0.11111
sI10
F0.04444
sI11
F0.0074099999999999999
ssS'ASP-GLY'
p10
(dp11
I2
F1
sI3
F0.89744000000000002
sI4
F0.70940000000000003
sI5
F0.59828999999999999
sI6
F0.26495999999999997
sI7
F0.22222
sI8
F0.068379999999999996
sI9
F0.059830000000000001
sI10
F0.0085500000000000003
ssS'LEU-VAL'
p12
(dp13
I2
F1
sI3
F0.39690999999999999
sI4
F0.18040999999999999
sI5
F0.091069999999999998
sI6
F0.042959999999999998
sI7
F0.020619999999999999
sI8
F0.01031
sI9
F0.0034399999999999999
sI10
F0.0051500000000000001
sI11
F0.0051500000000000001
ssS'GLN-TRP'
p14
(dp15
I2
F1
sI3
F0.67567999999999995
sI4
F1
sI5
F0.59458999999999995
sI6
F0.56757000000000002
sI7
F0.35135
sI8
F0.13514000000000001
sI9
F0.29730000000000001
sI10
F0.13514000000000001
sI11
F0.027029999999999998
sI12
F0.054050000000000001
sI13
F0.054050000000000001
sI14
F0.16216
sI15
F0.054050000000000001
sI16
F0.10811
ssS'TRP-PHE'
p16
(dp17
I2
F1
sI3
F1
sI4
F0.95348999999999995
sI5
F0.62790999999999997
sI6
F0.37208999999999998
sI7
F0.23255999999999999
sI8
F0.37208999999999998
sI9
F0.37208999999999998
sI10
F0.069769999999999999
sI11
F0.069769999999999999
sI12
F0.18604999999999999
sI14
F0.023259999999999999
sI16
F0.069769999999999999
ssS'ARG-TYR'
p18
(dp19
I2
F1
sI3
F0.63736000000000004
sI4
F0.70879000000000003
sI5
F0.55495000000000005
sI6
F0.47253000000000001
sI7
F0.37363000000000002
sI8
F0.26923000000000002
sI9
F0.24176
sI10
F0.13186999999999999
sI11
F0.21429000000000001
sI12
F0.1978
sI13
F0.13186999999999999
sI14
F0.049450000000000001
sI15
F0.032969999999999999
sI16
F0.0054900000000000001
ssS'GLU-LYS'
p20
(dp21
I2
F0.89446999999999999
sI3
F0.70603000000000005
sI4
F0.70101000000000002
sI5
F1
sI6
F0.69347000000000003
sI7
F0.20854
sI8
F0.095479999999999995
sI9
F0.055280000000000003
sI10
F0.03015
sI11
F0.01256
sI12
F0.0025100000000000001
sI14
F0.0025100000000000001
ssS'LEU-MET'
p22
(dp23
I2
F1
sI3
F0.50275999999999998
sI4
F0.37017
sI5
F0.1326
sI6
F0.077350000000000002
sI7
F0.044200000000000003
sI8
F0.016570000000000001
sI9
F0.0055199999999999997
sI10
F0.0055199999999999997
ssS'GLU-HIS'
p24
(dp25
I2
F0.63158000000000003
sI3
F0.71428999999999998
sI4
F0.48120000000000002
sI5
F0.84211000000000003
sI6
F1
sI7
F0.39850000000000002
sI8
F0.20301
sI9
F0.20301
sI10
F0.17293
sI11
F0.02256
sI12
F0.01504
ssS'GLY-THR'
p26
(dp27
I2
F1
sI3
F0.88234999999999997
sI4
F0.58823999999999999
sI5
F0.18953999999999999
sI6
F0.16993
sI7
F0.039219999999999998
sI8
F0.019609999999999999
sI9
F0.032680000000000001
ssS'ARG-GLU'
p28
(dp29
I2
F0.66132000000000002
sI3
F0.34759000000000001
sI4
F0.58111000000000002
sI5
F0.47949999999999998
sI6
F1
sI7
F0.40998000000000001
sI8
F0.34938000000000002
sI9
F0.16933999999999999
sI10
F0.098040000000000002
sI11
F0.044560000000000002
sI12
F0.02674
sI13
F0.0053499999999999997
sI14
F0.0089099999999999995
sI15
F0.0071300000000000001
sI16
F0.0017799999999999999
ssS'PHE-ASN'
p30
(dp31
I2
F1
sI3
F1
sI4
F0.83908000000000005
sI5
F0.79310000000000003
sI6
F0.56322000000000005
sI7
F0.26436999999999999
sI8
F0.24138000000000001
sI9
F0.18390999999999999
sI10
F0.11494
sI11
F0.068970000000000004
sI12
F0.05747
sI13
F0.01149
sI14
F0.04598
ssS'ARG-GLY'
p32
(dp33
I2
F1
sI3
F0.73092000000000001
sI4
F0.60241
sI5
F0.65059999999999996
sI6
F0.44979999999999998
sI7
F0.18071999999999999
sI8
F0.092369999999999994
sI9
F0.02811
sI10
F0.0241
sI11
F0.0040200000000000001
sI12
F0.0040200000000000001
ssS'ASP-ILE'
p34
(dp35
I2
F1
sI3
F0.56799999999999995
sI4
F0.61599999999999999
sI5
F0.27200000000000002
sI6
F0.13600000000000001
sI7
F0.080000000000000002
sI8
F0.048000000000000001
sI9
F0.048000000000000001
sI10
F0.0080000000000000002
sI11
F0.016
ssS'ARG-GLN'
p36
(dp37
I2
F1
sI3
F0.55913999999999997
sI4
F0.67203999999999997
sI5
F0.63441000000000003
sI6
F0.44085999999999997
sI7
F0.44624000000000003
sI8
F0.26344000000000001
sI9
F0.18279999999999999
sI10
F0.075270000000000004
sI11
F0.026880000000000001
sI12
F0.032259999999999997
sI13
F0.016129999999999999
sI14
F0.021510000000000001
ssS'PHE-ASP'
p38
(dp39
I2
F1
sI3
F0.86419999999999997
sI4
F0.81481000000000003
sI5
F0.48148000000000002
sI6
F0.41975000000000001
sI7
F0.12346
sI8
F0.1358
sI9
F0.074069999999999997
sI10
F0.06173
sI11
F0.037039999999999997
sI12
F0.037039999999999997
sI13
F0.01235
ssS'GLY-ASN'
p40
(dp41
I2
F1
sI3
F0.81559999999999999
sI4
F0.78722999999999999
sI5
F0.61702000000000001
sI6
F0.31914999999999999
sI7
F0.23404
sI8
F0.056739999999999999
sI9
F0.056739999999999999
sI10
F0.0070899999999999999
ssS'VAL-LYS'
p42
(dp43
I2
F1
sI3
F0.72253999999999996
sI4
F0.35837999999999998
sI5
F0.19075
sI6
F0.10405
sI7
F0.075139999999999998
sI8
F0.040460000000000003
sI9
F0.0057800000000000004
sI10
F0.034680000000000002
sI11
F0.0057800000000000004
ssS'LEU-ILE'
p44
(dp45
I2
F1
sI3
F0.36203999999999997
sI4
F0.19777
sI5
F0.094100000000000003
sI6
F0.04147
sI7
F0.015949999999999999
sI8
F0.015949999999999999
sI9
F0.015949999999999999
sI10
F0.0063800000000000003
sI13
F0.0015900000000000001
ssS'GLN-LEU'
p46
(dp47
I2
F1
sI3
F0.52190999999999999
sI4
F0.53785000000000005
sI5
F0.38246999999999998
sI6
F0.21912000000000001
sI7
F0.13546
sI8
F0.083669999999999994
sI9
F0.031870000000000002
sI10
F0.011950000000000001
sI11
F0.0079699999999999997
ssS'GLU-MET'
p48
(dp49
I2
F1
sI3
F0.72414000000000001
sI4
F0.72414000000000001
sI5
F0.27585999999999999
sI6
F0.39655000000000001
sI7
F0.22414000000000001
sI8
F0.17241000000000001
sI9
F0.034479999999999997
sI10
F0.034479999999999997
sI12
F0.017239999999999998
ssS'ASN-PHE'
p50
(dp51
I2
F1
sI3
F1
sI4
F0.83908000000000005
sI5
F0.79310000000000003
sI6
F0.56322000000000005
sI7
F0.26436999999999999
sI8
F0.24138000000000001
sI9
F0.18390999999999999
sI10
F0.11494
sI11
F0.068970000000000004
sI12
F0.05747
sI13
F0.01149
sI14
F0.04598
ssS'LYS-ARG'
p52
(dp53
I2
F1
sI3
F0.80645
sI4
F0.60214999999999996
sI5
F0.47849000000000003
sI6
F0.27418999999999999
sI7
F0.27956999999999999
sI8
F0.1129
sI9
F0.064519999999999994
sI10
F0.021510000000000001
sI11
F0.0053800000000000002
sI12
F0.010749999999999999
ssS'GLY-ASP'
p54
(dp55
I2
F1
sI3
F0.89744000000000002
sI4
F0.70940000000000003
sI5
F0.59828999999999999
sI6
F0.26495999999999997
sI7
F0.22222
sI8
F0.068379999999999996
sI9
F0.059830000000000001
sI10
F0.0085500000000000003
ssS'PRO-GLN'
p56
(dp57
I2
F1
sI3
F0.65359
sI4
F0.52288000000000001
sI5
F0.47711999999999999
sI6
F0.27450999999999998
sI7
F0.12418
sI8
F0.18301000000000001
sI9
F0.0065399999999999998
sI10
F0.01307
sI11
F0.0065399999999999998
ssS'CYS-MET'
p58
(dp59
I2
F0.66666999999999998
sI3
F1
sI4
F0.25
sI5
F0.33333000000000002
sI6
F0.16667000000000001
sI7
F0.083330000000000001
ssS'GLU-THR'
p60
(dp61
I2
F1
sI3
F0.56725000000000003
sI4
F0.57310000000000005
sI5
F0.50292000000000003
sI6
F0.56725000000000003
sI7
F0.41520000000000001
sI8
F0.22806999999999999
sI9
F0.11111
sI10
F0.0117
sI11
F0.0058500000000000002
sI12
F0.0058500000000000002
ssS'SER-PRO'
p62
(dp63
I2
F1
sI3
F0.84472000000000003
sI4
F0.65217000000000003
sI5
F0.30435000000000001
sI6
F0.1118
sI7
F0.062109999999999999
sI8
F0.0062100000000000002
ssS'GLY-CYS'
p64
(dp65
I2
F1
sI3
F0.84614999999999996
sI4
F0.76922999999999997
sI5
F0.30769000000000002
sI6
F0.11538
sI7
F0.076920000000000002
sI8
F0.11538
ssS'PRO-GLU'
p66
(dp67
I2
F1
sI3
F0.78571000000000002
sI4
F0.54166999999999998
sI5
F0.50595000000000001
sI6
F0.29762
sI7
F0.19048000000000001
sI8
F0.035709999999999999
sI9
F0.023810000000000001
ssS'ASP-LEU'
p68
(dp69
I2
F1
sI3
F0.50746000000000002
sI4
F0.45273999999999998
sI5
F0.43780999999999998
sI6
F0.20397999999999999
sI7
F0.10945000000000001
sI8
F0.079600000000000004
sI9
F0.03483
sI10
F0.0099500000000000005
sI12
F0.0049800000000000001
ssS'ALA-MET'
p70
(dp71
I2
F1
sI3
F0.49296000000000001
sI4
F0.40844999999999998
sI5
F0.33803
sI6
F0.056340000000000001
sI7
F0.028170000000000001
sI8
F0.014080000000000001
ssS'SER-THR'
p72
(dp73
I2
F1
sI3
F0.76471
sI4
F0.64705999999999997
sI5
F0.50734999999999997
sI6
F0.25735000000000002
sI7
F0.22059000000000001
sI8
F0.16175999999999999
sI9
F0.029409999999999999
sI10
F0.0073499999999999998
sI11
F0.0073499999999999998
ssS'LYS-VAL'
p74
(dp75
I2
F1
sI3
F0.72253999999999996
sI4
F0.35837999999999998
sI5
F0.19075
sI6
F0.10405
sI7
F0.075139999999999998
sI8
F0.040460000000000003
sI9
F0.0057800000000000004
sI10
F0.034680000000000002
sI11
F0.0057800000000000004
ssS'GLN-VAL'
p76
(dp77
I2
F1
sI3
F0.67669000000000001
sI4
F0.64661999999999997
sI5
F0.49624000000000001
sI6
F0.18797
sI7
F0.10526000000000001
sI8
F0.18045
sI9
F0.01504
sI10
F0.0075199999999999998
sI11
F0.0075199999999999998
ssS'ASP-VAL'
p78
(dp79
I2
F1
sI3
F0.81081000000000003
sI4
F0.63963999999999999
sI5
F0.40540999999999999
sI6
F0.23422999999999999
sI7
F0.21622
sI8
F0.072069999999999995
sI9
F0.036040000000000003
sI10
F0.0090100000000000006
sI11
F0.0090100000000000006
ssS'ASN-GLY'
p80
(dp81
I2
F1
sI3
F0.81559999999999999
sI4
F0.78722999999999999
sI5
F0.61702000000000001
sI6
F0.31914999999999999
sI7
F0.23404
sI8
F0.056739999999999999
sI9
F0.056739999999999999
sI10
F0.0070899999999999999
ssS'LYS-PRO'
p82
(dp83
I2
F1
sI3
F0.79103999999999997
sI4
F0.59701000000000004
sI5
F0.23880999999999999
sI6
F0.16417999999999999
sI7
F0.067159999999999997
sI8
F0.029850000000000002
sI9
F0.014930000000000001
ssS'ALA-ILE'
p84
(dp85
I2
F1
sI3
F0.53137999999999996
sI4
F0.27196999999999999
sI5
F0.14226
sI6
F0.062759999999999996
sI7
F0.016740000000000001
sI8
F0.0041799999999999997
sI9
F0.0083700000000000007
ssS'TYR-PRO'
p86
(dp87
I2
F1
sI3
F0.83006999999999997
sI4
F0.78430999999999995
sI5
F0.55556000000000005
sI6
F0.43136999999999998
sI7
F0.37907999999999997
sI8
F0.24837000000000001
sI9
F0.13072
sI10
F0.065360000000000001
sI11
F0.065360000000000001
sI12
F0.0065399999999999998
sI13
F0.01307
ssS'LYS-GLU'
p88
(dp89
I2
F0.89446999999999999
sI3
F0.70603000000000005
sI4
F0.70101000000000002
sI5
F1
sI6
F0.69347000000000003
sI7
F0.20854
sI8
F0.095479999999999995
sI9
F0.055280000000000003
sI10
F0.03015
sI11
F0.01256
sI12
F0.0025100000000000001
sI14
F0.0025100000000000001
ssS'ASN-GLN'
p90
(dp91
I2
F1
sI3
F0.52481999999999995
sI4
F0.64539000000000002
sI5
F0.65956999999999999
sI6
F0.75177000000000005
sI7
F0.25531999999999999
sI8
F0.22695000000000001
sI9
F0.099290000000000003
sI10
F0.070919999999999997
sI11
F0.0070899999999999999
sI12
F0.01418
sI14
F0.01418
ssS'GLN-SER'
p92
(dp93
I2
F1
sI3
F0.75373000000000001
sI4
F0.81342999999999999
sI5
F0.60448000000000002
sI6
F0.45522000000000001
sI7
F0.29851
sI8
F0.14179
sI9
F0.037310000000000003
sI10
F0.0074599999999999996
ssS'LYS-GLY'
p94
(dp95
I2
F1
sI3
F0.87248000000000003
sI4
F0.77851999999999999
sI5
F0.61073999999999995
sI6
F0.28188000000000002
sI7
F0.093960000000000002
sI8
F0.0067099999999999998
sI9
F0.01342
sI10
F0.0067099999999999998
ssS'VAL-MET'
p96
(dp97
I2
F1
sI3
F0.52222000000000002
sI4
F0.32222000000000001
sI5
F0.14444000000000001
sI6
F0.066669999999999993
sI7
F0.02222
sI8
F0.033329999999999999
ssS'ALA-ALA'
p98
(dp99
I2
F1
sI3
F0.30070000000000002
sI4
F0.37063000000000001
sI5
F0.18182000000000001
sI6
F0.12238
sI7
F0.017479999999999999
sI8
F0.017479999999999999
sI9
F0.0035000000000000001
sI10
F0.013990000000000001
ssS'THR-SER'
p100
(dp101
I2
F1
sI3
F0.76471
sI4
F0.64705999999999997
sI5
F0.50734999999999997
sI6
F0.25735000000000002
sI7
F0.22059000000000001
sI8
F0.16175999999999999
sI9
F0.029409999999999999
sI10
F0.0073499999999999998
sI11
F0.0073499999999999998
ssS'THR-TRP'
p102
(dp103
I2
F1
sI3
F0.77778000000000003
sI4
F0.73333000000000004
sI5
F0.31111
sI6
F0.40000000000000002
sI7
F0.17777999999999999
sI8
F0.088889999999999997
sI9
F0.02222
sI11
F0.04444
ssS'ILE-PHE'
p104
(dp105
I2
F1
sI3
F0.78139999999999998
sI4
F0.53952999999999995
sI5
F0.20465
sI6
F0.13952999999999999
sI7
F0.079070000000000001
sI8
F0.051159999999999997
sI9
F0.03721
sI10
F0.023259999999999999
sI11
F0.0092999999999999992
sI13
F0.0046499999999999996
ssS'GLY-ALA'
p106
(dp107
I2
F1
sI3
F0.85882000000000003
sI4
F0.47059000000000001
sI5
F0.24706
sI6
F0.14706
sI7
F0.0058799999999999998
sI8
F0.017649999999999999
ssS'LEU-GLU'
p108
(dp109
I2
F1
sI3
F0.65427999999999997
sI4
F0.67286000000000001
sI5
F0.41636000000000001
sI6
F0.25279000000000001
sI7
F0.13755000000000001
sI8
F0.085500000000000007
sI9
F0.01487
sI10
F0.040890000000000003
sI11
F0.01487
ssS'LEU-GLY'
p110
(dp111
I2
F1
sI3
F0.77273000000000003
sI4
F0.43636000000000003
sI5
F0.16364000000000001
sI6
F0.10000000000000001
sI7
F0.090910000000000005
sI8
F0.018180000000000002
sI9
F0.0090900000000000009
sI10
F0.0045500000000000002
ssS'LYS-SER'
p112
(dp113
I2
F1
sI3
F0.69306999999999996
sI4
F0.78217999999999999
sI5
F0.45545000000000002
sI6
F0.19306999999999999
sI7
F0.10396
sI8
F0.049500000000000002
sI9
F0.029700000000000001
sI10
F0.0099000000000000008
ssS'PRO-HIS'
p114
(dp115
I2
F1
sI3
F0.94286000000000003
sI4
F0.81428999999999996
sI5
F0.57142999999999999
sI6
F0.18570999999999999
sI7
F0.17143
sI8
F0.18570999999999999
sI9
F0.085709999999999995
sI10
F0.014290000000000001
ssS'ALA-PHE'
p116
(dp117
I2
F1
sI3
F0.74724999999999997
sI4
F0.63736000000000004
sI5
F0.44505
sI6
F0.15384999999999999
sI7
F0.12088
sI8
F0.071429999999999993
sI9
F0.016480000000000002
ssS'VAL-TRP'
p118
(dp119
I2
F1
sI3
F0.84745999999999999
sI4
F0.72880999999999996
sI5
F0.33898
sI6
F0.28814000000000001
sI7
F0.15254000000000001
sI8
F0.084750000000000006
sI9
F0.15254000000000001
sI10
F0.0339
ssS'GLY-SER'
p120
(dp121
I2
F0.80271999999999999
sI3
F1
sI4
F0.74150000000000005
sI5
F0.51700999999999997
sI6
F0.21768999999999999
sI7
F0.054420000000000003
sI8
F0.034009999999999999
sI9
F0.0067999999999999996
ssS'LEU-GLN'
p122
(dp123
I2
F1
sI3
F0.52190999999999999
sI4
F0.53785000000000005
sI5
F0.38246999999999998
sI6
F0.21912000000000001
sI7
F0.13546
sI8
F0.083669999999999994
sI9
F0.031870000000000002
sI10
F0.011950000000000001
sI11
F0.0079699999999999997
ssS'ASP-ALA'
p124
(dp125
I2
F1
sI3
F0.43065999999999999
sI4
F0.48175000000000001
sI5
F0.38685999999999998
sI6
F0.32117000000000001
sI7
F0.10219
sI8
F0.051090000000000003
sI9
F0.0292
sI10
F0.0073000000000000001
ssS'ILE-LEU'
p126
(dp127
I2
F1
sI3
F0.36203999999999997
sI4
F0.19777
sI5
F0.094100000000000003
sI6
F0.04147
sI7
F0.015949999999999999
sI8
F0.015949999999999999
sI9
F0.015949999999999999
sI10
F0.0063800000000000003
sI13
F0.0015900000000000001
ssS'TRP-VAL'
p128
(dp129
I2
F1
sI3
F0.84745999999999999
sI4
F0.72880999999999996
sI5
F0.33898
sI6
F0.28814000000000001
sI7
F0.15254000000000001
sI8
F0.084750000000000006
sI9
F0.15254000000000001
sI10
F0.0339
ssS'MET-ARG'
p130
(dp131
I2
F1
sI3
F0.50685000000000002
sI4
F0.47944999999999999
sI5
F0.39726
sI6
F0.38356000000000001
sI7
F0.17807999999999999
sI8
F0.15068000000000001
sI9
F0.054789999999999998
sI10
F0.0137
sI11
F0.0137
sI12
F0.0137
ssS'TYR-THR'
p132
(dp133
I2
F1
sI3
F0.61806000000000005
sI4
F0.58333000000000002
sI5
F0.39583000000000002
sI6
F0.36806
sI7
F0.11806
sI8
F0.125
sI9
F0.055559999999999998
sI10
F0.034720000000000001
sI11
F0.00694
ssS'THR-ARG'
p134
(dp135
I2
F1
sI3
F0.56481000000000003
sI4
F0.45833000000000002
sI5
F0.39815
sI6
F0.36574000000000001
sI7
F0.23610999999999999
sI8
F0.11111
sI9
F0.078700000000000006
sI10
F0.032410000000000001
sI11
F0.01389
sI13
F0.0046299999999999996
ssS'LEU-ASN'
p136
(dp137
I2
F1
sI3
F0.44214999999999999
sI4
F0.45455000000000001
sI5
F0.34710999999999997
sI6
F0.19835
sI7
F0.19008
sI8
F0.099169999999999994
sI9
F0.049590000000000002
sI10
F0.01653
ssS'LEU-ASP'
p138
(dp139
I2
F1
sI3
F0.50746000000000002
sI4
F0.45273999999999998
sI5
F0.43780999999999998
sI6
F0.20397999999999999
sI7
F0.10945000000000001
sI8
F0.079600000000000004
sI9
F0.03483
sI10
F0.0099500000000000005
sI12
F0.0049800000000000001
ssS'TYR-LEU'
p140
(dp141
I2
F1
sI3
F0.61967000000000005
sI4
F0.60328000000000004
sI5
F0.41310999999999998
sI6
F0.24590000000000001
sI7
F0.16392999999999999
sI8
F0.13442999999999999
sI9
F0.088520000000000001
sI10
F0.016389999999999998
sI11
F0.0065599999999999999
sI12
F0.0032799999999999999
sI15
F0.0065599999999999999
ssS'ARG-ALA'
p142
(dp143
I2
F1
sI3
F0.63404000000000005
sI4
F0.62553000000000003
sI5
F0.47660000000000002
sI6
F0.34893999999999997
sI7
F0.14043
sI8
F0.10213
sI9
F0.038300000000000001
sI10
F0.01277
sI11
F0.0085100000000000002
ssS'SER-HIS'
p144
(dp145
I2
F1
sI3
F0.83562000000000003
sI4
F0.98629999999999995
sI5
F0.69862999999999997
sI6
F0.34247
sI7
F0.34247
sI8
F0.13699
sI9
F0.041099999999999998
sI10
F0.041099999999999998
ssS'VAL-VAL'
p146
(dp147
I2
F1
sI3
F0.18956000000000001
sI4
F0.23901
sI5
F0.038460000000000001
sI6
F0.043959999999999999
sI7
F0.035709999999999999
sI8
F0.024729999999999999
sI9
F0.01099
sI10
F0.016480000000000002
sI11
F0.0027499999999999998
sI12
F0.0027499999999999998
ssS'GLY-LYS'
p148
(dp149
I2
F1
sI3
F0.87248000000000003
sI4
F0.77851999999999999
sI5
F0.61073999999999995
sI6
F0.28188000000000002
sI7
F0.093960000000000002
sI8
F0.0067099999999999998
sI9
F0.01342
sI10
F0.0067099999999999998
ssS'GLY-TRP'
p150
(dp151
I2
F0.95745000000000002
sI3
F0.78722999999999999
sI4
F1
sI5
F0.55318999999999996
sI6
F0.40426000000000001
sI7
F0.25531999999999999
sI8
F0.29787000000000002
sI9
F0.14893999999999999
sI10
F0.10638
sI11
F0.063829999999999998
sI12
F0.02128
sI13
F0.02128
sI14
F0.042549999999999998
ssS'LYS-LYS'
p152
(dp153
I2
F1
sI3
F0.51266
sI4
F0.49367
sI5
F0.22785
sI6
F0.15190000000000001
sI7
F0.088609999999999994
sI8
F0.056959999999999997
sI9
F0.012659999999999999
sI10
F0.025319999999999999
sI11
F0.012659999999999999
sI12
F0.025319999999999999
sI14
F0.0063299999999999997
ssS'CYS-ASP'
p154
(dp155
I2
F1
sI3
F0.83333000000000002
sI4
F0.16667000000000001
sI5
F0.33333000000000002
sI6
F0.22222
sI7
F0.22222
sI8
F0.11111
sI9
F0.055559999999999998
sI11
F0.055559999999999998
ssS'THR-VAL'
p156
(dp157
I2
F1
sI3
F0.47944999999999999
sI4
F0.38812999999999998
sI5
F0.15525
sI6
F0.17807999999999999
sI7
F0.050229999999999997
sI8
F0.018259999999999998
sI9
F0.0091299999999999992
sI10
F0.0091299999999999992
sI11
F0.0045700000000000003
ssS'CYS-ASN'
p158
(dp159
I2
F1
sI3
F0.36842000000000003
sI4
F0.52632000000000001
sI5
F0.42104999999999998
sI6
F0.26316000000000001
sI7
F0.26316000000000001
sI8
F0.052630000000000003
ssS'PRO-CYS'
p160
(dp161
I2
F1
sI3
F0.75861999999999996
sI4
F0.51724000000000003
sI5
F0.13793
sI6
F0.068970000000000004
sI7
F0.10345
ssS'ARG-HIS'
p162
(dp163
I2
F1
sI3
F0.69230999999999998
sI4
F0.55556000000000005
sI5
F0.40171000000000001
sI6
F0.44444
sI7
F0.24786
sI8
F0.18803
sI9
F0.22222
sI10
F0.13675000000000001
sI11
F0.19658
sI12
F0.017090000000000001
sI13
F0.0085500000000000003
sI14
F0.0085500000000000003
ssS'ALA-SER'
p164
(dp165
I2
F1
sI3
F0.66851000000000005
sI4
F0.55801000000000001
sI5
F0.26518999999999998
sI6
F0.1326
sI7
F0.11602
sI8
F0.11602
sI9
F0.0055199999999999997
sI10
F0.016570000000000001
ssS'TYR-SER'
p166
(dp167
I2
F1
sI3
F0.75609999999999999
sI4
F0.73984000000000005
sI5
F0.77236000000000005
sI6
F0.45528000000000002
sI7
F0.30893999999999999
sI8
F0.097559999999999994
sI9
F0.089429999999999996
sI10
F0.073169999999999999
sI12
F0.024389999999999998
sI13
F0.024389999999999998
sI14
F0.01626
ssS'MET-LYS'
p168
(dp169
I2
F1
sI3
F0.68852000000000002
sI4
F0.47541
sI5
F0.26229999999999998
sI6
F0.26229999999999998
sI7
F0.18032999999999999
sI8
F0.03279
sI9
F0.049180000000000001
sI10
F0.016389999999999998
sI11
F0.016389999999999998
ssS'VAL-CYS'
p170
(dp171
I2
F1
sI3
F0.61111000000000004
sI4
F0.5
sI5
F0.13889000000000001
sI6
F0.027779999999999999
ssS'GLN-TYR'
p172
(dp173
I2
F1
sI3
F0.73077000000000003
sI4
F0.66346000000000005
sI5
F0.68269000000000002
sI6
F0.625
sI7
F0.41345999999999999
sI8
F0.19231000000000001
sI9
F0.18268999999999999
sI10
F0.15384999999999999
sI11
F0.076920000000000002
sI12
F0.019230000000000001
sI13
F0.038460000000000001
sI14
F0.028850000000000001
ssS'GLN-PHE'
p174
(dp175
I2
F1
sI3
F0.78000000000000003
sI4
F0.64000000000000001
sI5
F0.46000000000000002
sI6
F0.44
sI7
F0.20000000000000001
sI8
F0.17000000000000001
sI9
F0.12
sI10
F0.16
sI11
F0.089999999999999997
sI12
F0.01
sI13
F0.029999999999999999
sI14
F0.01
ssS'ASN-PRO'
p176
(dp177
I2
F1
sI3
F0.56098000000000003
sI4
F0.68293000000000004
sI5
F0.56911
sI6
F0.23577000000000001
sI7
F0.097559999999999994
sI8
F0.081299999999999997
sI9
F0.03252
sI10
F0.0081300000000000001
ssS'PRO-ARG'
p178
(dp179
I2
F1
sI3
F0.67906999999999995
sI4
F0.66047
sI5
F0.64185999999999999
sI6
F0.4093
sI7
F0.23255999999999999
sI8
F0.07442
sI9
F0.055809999999999998
sI10
F0.0092999999999999992
sI11
F0.0046499999999999996
ssS'CYS-PHE'
p180
(dp181
I2
F1
sI3
F0.93332999999999999
sI4
F0.59999999999999998
sI5
F0.10000000000000001
sI6
F0.10000000000000001
sI7
F0.13333
sI9
F0.26667000000000002
ssS'LYS-ALA'
p182
(dp183
I2
F1
sI3
F0.66666999999999998
sI4
F0.76515
sI5
F0.38635999999999998
sI6
F0.19697000000000001
sI7
F0.037879999999999997
sI8
F0.037879999999999997
sI9
F0.01515
sI10
F0.01515
ssS'ILE-VAL'
p184
(dp185
I2
F1
sI3
F0.37159999999999999
sI4
F0.25075999999999998
sI5
F0.11178
sI6
F0.042299999999999997
sI7
F0.042299999999999997
sI8
F0.024170000000000001
sI9
F0.01511
sI10
F0.0060400000000000002
sI12
F0.0030200000000000001
ssS'PHE-TYR'
p186
(dp187
I2
F0.98290999999999995
sI3
F1
sI4
F0.95726
sI5
F0.62392999999999998
sI6
F0.42735000000000001
sI7
F0.29060000000000002
sI8
F0.31624000000000002
sI9
F0.13675000000000001
sI10
F0.059830000000000001
sI11
F0.04274
sI12
F0.034189999999999998
sI13
F0.02564
sI17
F0.0085500000000000003
sI18
F0.0085500000000000003
ssS'ARG-ASN'
p188
(dp189
I2
F1
sI3
F0.55659999999999998
sI4
F0.50471999999999995
sI5
F0.49528
sI6
F0.45755000000000001
sI7
F0.30659999999999998
sI8
F0.25942999999999999
sI9
F0.12264
sI10
F0.070749999999999993
sI11
F0.066040000000000001
sI12
F0.0047200000000000002
sI13
F0.014149999999999999
sI14
F0.0047200000000000002
ssS'PRO-TRP'
p190
(dp191
I2
F1
sI3
F0.77585999999999999
sI4
F0.67240999999999995
sI5
F0.67240999999999995
sI6
F0.36207
sI7
F0.29310000000000003
sI8
F0.27585999999999999
sI9
F0.31034
sI10
F0.068970000000000004
sI11
F0.13793
sI12
F0.068970000000000004
sI13
F0.017239999999999998
sI14
F0.017239999999999998
ssS'ILE-LYS'
p192
(dp193
I2
F1
sI3
F0.53247
sI4
F0.53247
sI5
F0.31169000000000002
sI6
F0.090910000000000005
sI7
F0.090910000000000005
sI8
F0.038960000000000002
sI9
F0.0064900000000000001
sI11
F0.0064900000000000001
ssS'TRP-ALA'
p194
(dp195
I2
F1
sI3
F0.71211999999999998
sI4
F0.84848000000000001
sI5
F0.5
sI6
F0.21212
sI7
F0.15151999999999999
sI8
F0.10606
sI9
F0.060609999999999997
sI11
F0.01515
sI12
F0.01515
ssS'ILE-CYS'
p196
(dp197
I2
F1
sI3
F0.32432
sI4
F0.24324000000000001
sI5
F0.27027000000000001
sI6
F0.027029999999999998
sI8
F0.054050000000000001
ssS'LYS-ILE'
p198
(dp199
I2
F1
sI3
F0.53247
sI4
F0.53247
sI5
F0.31169000000000002
sI6
F0.090910000000000005
sI7
F0.090910000000000005
sI8
F0.038960000000000002
sI9
F0.0064900000000000001
sI11
F0.0064900000000000001
ssS'GLN-CYS'
p200
(dp201
I2
F1
sI3
F0.81818000000000002
sI4
F0.63636000000000004
sI5
F0.45455000000000001
sI6
F0.22727
sI7
F0.22727
ssS'TYR-ALA'
p202
(dp203
I2
F1
sI3
F0.59116000000000002
sI4
F0.49170999999999998
sI5
F0.36464000000000002
sI6
F0.24309
sI7
F0.17127000000000001
sI8
F0.05525
sI9
F0.038670000000000003
sI10
F0.022100000000000002
ssS'ARG-ASP'
p204
(dp205
I2
F0.59128999999999998
sI3
F0.39834000000000003
sI4
F0.45435999999999999
sI5
F0.47925000000000001
sI6
F1
sI7
F0.46266000000000002
sI8
F0.30704999999999999
sI9
F0.097509999999999999
sI10
F0.072609999999999994
sI11
F0.0332
sI12
F0.012449999999999999
sI13
F0.0020699999999999998
ssS'TYR-HIS'
p206
(dp207
I2
F0.97143000000000002
sI3
F0.61429
sI4
F0.64285999999999999
sI5
F0.40000000000000002
sI6
F1
sI7
F0.42857000000000001
sI8
F0.31429000000000001
sI9
F0.27143
sI10
F0.17143
sI11
F0.071429999999999993
sI12
F0.042860000000000002
sI13
F0.085709999999999995
sI14
F0.085709999999999995
sI16
F0.028570000000000002
ssS'GLU-TYR'
p208
(dp209
I2
F0.66108999999999996
sI3
F0.36402000000000001
sI4
F0.37237999999999999
sI5
F0.43096000000000001
sI6
F1
sI7
F0.21757000000000001
sI8
F0.14226
sI9
F0.087870000000000004
sI10
F0.041840000000000002
sI11
F0.020920000000000001
sI12
F0.025100000000000001
sI13
F0.01255
sI14
F0.03347
sI15
F0.01255
ssS'SER-TRP'
p210
(dp211
I2
F0.72726999999999997
sI3
F0.88636000000000004
sI4
F1
sI5
F0.54544999999999999
sI6
F0.52273000000000003
sI7
F0.56818000000000002
sI8
F0.15909000000000001
sI9
F0.11364
sI11
F0.02273
sI13
F0.02273
sI15
F0.02273
ssS'PHE-ARG'
p212
(dp213
I2
F1
sI3
F0.84297999999999995
sI4
F0.81818000000000002
sI5
F0.73553999999999997
sI6
F0.57850999999999997
sI7
F0.37190000000000001
sI8
F0.24793000000000001
sI9
F0.34710999999999997
sI10
F0.25619999999999998
sI11
F0.14876
sI12
F0.12397
sI13
F0.090910000000000005
sI14
F0.01653
sI15
F0.02479
sI20
F0.00826
ssS'THR-HIS'
p214
(dp215
I2
F1
sI3
F0.87719000000000003
sI4
F0.61404000000000003
sI5
F0.64912000000000003
sI6
F0.45613999999999999
sI7
F0.49123
sI8
F0.087720000000000006
sI9
F0.052630000000000003
sI10
F0.01754
sI11
F0.01754
sI12
F0.01754
ssS'TYR-VAL'
p216
(dp217
I2
F1
sI3
F0.63461999999999996
sI4
F0.55769000000000002
sI5
F0.32051000000000002
sI6
F0.28845999999999999
sI7
F0.25641000000000003
sI8
F0.08974
sI9
F0.04487
sI10
F0.01282
sI11
F0.019230000000000001
sI13
F0.01282
ssS'ASN-TYR'
p218
(dp219
I2
F1
sI3
F0.60784000000000005
sI4
F0.65686
sI5
F0.74509999999999998
sI6
F0.76471
sI7
F0.41176000000000001
sI8
F0.23529
sI9
F0.21568999999999999
sI10
F0.068629999999999997
sI11
F0.088239999999999999
sI12
F0.029409999999999999
sI13
F0.019609999999999999
sI14
F0.029409999999999999
sI15
F0.019609999999999999
sI16
F0.0097999999999999997
ssS'ALA-VAL'
p220
(dp221
I2
F1
sI3
F0.47266000000000002
sI4
F0.33202999999999999
sI5
F0.10546999999999999
sI6
F0.070309999999999997
sI7
F0.042970000000000001
sI8
F0.03125
sI9
F0.01562
sI10
F0.0039100000000000003
ssS'HIS-HIS'
p222
(dp223
I2
F0.63636000000000004
sI3
F0.58182
sI4
F1
sI5
F0.72726999999999997
sI6
F0.65454999999999997
sI7
F0.43636000000000003
sI8
F0.21818000000000001
sI9
F0.25455
sI10
F0.27272999999999997
sI11
F0.20000000000000001
sI12
F0.45455000000000001
sI13
F0.036360000000000003
sI14
F0.036360000000000003
ssS'PHE-PHE'
p224
(dp225
I2
F0.9375
sI3
F0.59028000000000003
sI4
F1
sI5
F0.40278000000000003
sI6
F0.33333000000000002
sI7
F0.15972
sI8
F0.21528
sI9
F0.15278
sI10
F0.14582999999999999
sI11
F0.090279999999999999
sI12
F0.083330000000000001
sI13
F0.041669999999999999
sI14
F0.090279999999999999
sI16
F0.00694
sI17
F0.00694
sI19
F0.00694
ssS'LYS-ASP'
p226
(dp227
I2
F0.78419000000000005
sI3
F0.51976
sI4
F0.65956999999999999
sI5
F1
sI6
F0.75380000000000003
sI7
F0.20061000000000001
sI8
F0.1003
sI9
F0.045589999999999999
sI10
F0.027359999999999999
sI11
F0.0060800000000000003
sI13
F0.0030400000000000002
ssS'ILE-GLN'
p228
(dp229
I2
F1
sI3
F0.46762999999999999
sI4
F0.57554000000000005
sI5
F0.36691000000000001
sI6
F0.34532000000000002
sI7
F0.20144000000000001
sI8
F0.086330000000000004
sI9
F0.050360000000000002
sI10
F0.0071900000000000002
ssS'ILE-GLU'
p230
(dp231
I2
F1
sI3
F0.70587999999999995
sI4
F0.64705999999999997
sI5
F0.43136999999999998
sI6
F0.17646999999999999
sI7
F0.13725000000000001
sI8
F0.12418
sI9
F0.10458000000000001
sI10
F0.019609999999999999
sI11
F0.02614
sI13
F0.01307
ssS'ILE-GLY'
p232
(dp233
I2
F1
sI3
F0.83672999999999997
sI4
F0.57142999999999999
sI5
F0.31633
sI6
F0.17347000000000001
sI7
F0.081629999999999994
sI8
F0.020410000000000001
sI9
F0.020410000000000001
ssS'GLU-SER'
p234
(dp235
I2
F0.97646999999999995
sI3
F0.71175999999999995
sI4
F0.79412000000000005
sI5
F1
sI6
F0.80000000000000004
sI7
F0.59999999999999998
sI8
F0.21176
sI9
F0.07059
sI10
F0.035290000000000002
sI11
F0.0058799999999999998
ssS'ILE-ASN'
p236
(dp237
I2
F1
sI3
F0.60465000000000002
sI4
F0.59689999999999999
sI5
F0.35659000000000002
sI6
F0.1938
sI7
F0.21704999999999999
sI8
F0.054260000000000003
sI9
F0.12403
sI10
F0.038760000000000003
ssS'THR-LYS'
p238
(dp239
I2
F1
sI3
F0.70130000000000003
sI4
F0.55195000000000005
sI5
F0.43506
sI6
F0.27272999999999997
sI7
F0.0974
sI8
F0.064939999999999998
sI9
F0.032469999999999999
sI10
F0.0064900000000000001
sI11
F0.01299
sI12
F0.0064900000000000001
ssS'ILE-PRO'
p240
(dp241
I2
F1
sI3
F0.67240999999999995
sI4
F0.37930999999999998
sI5
F0.16667000000000001
sI6
F0.040230000000000002
sI7
F0.02299
sI8
F0.0057499999999999999
sI9
F0.0057499999999999999
ssS'ILE-ASP'
p242
(dp243
I2
F1
sI3
F0.56799999999999995
sI4
F0.61599999999999999
sI5
F0.27200000000000002
sI6
F0.13600000000000001
sI7
F0.080000000000000002
sI8
F0.048000000000000001
sI9
F0.048000000000000001
sI10
F0.0080000000000000002
sI11
F0.016
ssS'GLU-CYS'
p244
(dp245
I2
F1
sI3
F1
sI4
F0.84614999999999996
sI5
F0.53846000000000005
sI6
F0.46154000000000001
sI7
F0.23077
sI8
F0.15384999999999999
sI10
F0.076920000000000002
ssS'GLY-TYR'
p246
(dp247
I2
F1
sI3
F0.88785000000000003
sI4
F0.74765999999999999
sI5
F0.84111999999999998
sI6
F0.50466999999999995
sI7
F0.25234000000000001
sI8
F0.11215
sI9
F0.093460000000000001
sI11
F0.018689999999999998
ssS'CYS-TRP'
p248
(dp249
I2
F0.36364000000000002
sI3
F1
sI4
F0.72726999999999997
sI6
F0.090910000000000005
sI8
F0.090910000000000005
sI10
F0.090910000000000005
sI11
F0.090910000000000005
sI13
F0.18182000000000001
ssS'HIS-SER'
p250
(dp251
I2
F1
sI3
F0.83562000000000003
sI4
F0.98629999999999995
sI5
F0.69862999999999997
sI6
F0.34247
sI7
F0.34247
sI8
F0.13699
sI9
F0.041099999999999998
sI10
F0.041099999999999998
ssS'TRP-PRO'
p252
(dp253
I2
F1
sI3
F0.77585999999999999
sI4
F0.67240999999999995
sI5
F0.67240999999999995
sI6
F0.36207
sI7
F0.29310000000000003
sI8
F0.27585999999999999
sI9
F0.31034
sI10
F0.068970000000000004
sI11
F0.13793
sI12
F0.068970000000000004
sI13
F0.017239999999999998
sI14
F0.017239999999999998
ssS'GLY-LEU'
p254
(dp255
I2
F1
sI3
F0.77273000000000003
sI4
F0.43636000000000003
sI5
F0.16364000000000001
sI6
F0.10000000000000001
sI7
F0.090910000000000005
sI8
F0.018180000000000002
sI9
F0.0090900000000000009
sI10
F0.0045500000000000002
ssS'TRP-LYS'
p256
(dp257
I2
F1
sI3
F0.97367999999999999
sI4
F0.63158000000000003
sI5
F0.26316000000000001
sI6
F0.31579000000000002
sI7
F0.26316000000000001
sI8
F0.21052999999999999
sI9
F0.42104999999999998
sI10
F0.23683999999999999
sI11
F0.23683999999999999
sI12
F0.15789
sI13
F0.078950000000000006
ssS'VAL-TYR'
p258
(dp259
I2
F1
sI3
F0.63461999999999996
sI4
F0.55769000000000002
sI5
F0.32051000000000002
sI6
F0.28845999999999999
sI7
F0.25641000000000003
sI8
F0.08974
sI9
F0.04487
sI10
F0.01282
sI11
F0.019230000000000001
sI13
F0.01282
ssS'VAL-PHE'
p260
(dp261
I2
F1
sI3
F0.63083999999999996
sI4
F0.49064999999999998
sI5
F0.28037000000000001
sI6
F0.14019000000000001
sI7
F0.079439999999999997
sI8
F0.065420000000000006
sI9
F0.032710000000000003
sI10
F0.014019999999999999
sI11
F0.0046699999999999997
sI13
F0.0046699999999999997
ssS'TYR-TRP'
p262
(dp263
I2
F1
sI3
F0.95121999999999995
sI4
F0.75609999999999999
sI5
F0.65854000000000001
sI6
F0.58536999999999995
sI7
F0.51219999999999999
sI8
F0.14634
sI9
F0.048779999999999997
sI10
F0.097559999999999994
sI11
F0.048779999999999997
sI12
F0.048779999999999997
sI13
F0.073169999999999999
sI14
F0.073169999999999999
sI15
F0.048779999999999997
sI16
F0.024389999999999998
sI17
F0.024389999999999998
ssS'ARG-ILE'
p264
(dp265
I2
F1
sI3
F0.53210999999999997
sI4
F0.44036999999999998
sI5
F0.35321000000000002
sI6
F0.21101
sI7
F0.15137999999999999
sI8
F0.082570000000000005
sI9
F0.01376
sI10
F0.01376
sI11
F0.01376
sI14
F0.0045900000000000003
ssS'GLU-PHE'
p266
(dp267
I2
F1
sI3
F0.88800000000000001
sI4
F0.752
sI5
F0.53600000000000003
sI6
F0.39200000000000002
sI7
F0.16800000000000001
sI8
F0.14399999999999999
sI9
F0.16
sI10
F0.080000000000000002
sI11
F0.016
sI13
F0.032000000000000001
sI14
F0.024
ssS'ARG-PRO'
p268
(dp269
I2
F1
sI3
F0.67906999999999995
sI4
F0.66047
sI5
F0.64185999999999999
sI6
F0.4093
sI7
F0.23255999999999999
sI8
F0.07442
sI9
F0.055809999999999998
sI10
F0.0092999999999999992
sI11
F0.0046499999999999996
ssS'ALA-THR'
p270
(dp271
I2
F1
sI3
F0.48603000000000002
sI4
F0.48603000000000002
sI5
F0.19553000000000001
sI6
F0.12848999999999999
sI7
F0.07263
sI8
F0.016760000000000001
sI9
F0.022349999999999998
ssS'GLN-LYS'
p272
(dp273
I2
F1
sI3
F0.58282
sI4
F0.73006000000000004
sI5
F0.46011999999999997
sI6
F0.36196
sI7
F0.18404999999999999
sI8
F0.11043
sI9
F0.042939999999999999
sI10
F0.0184
sI11
F0.01227
sI12
F0.01227
sI14
F0.00613
ssS'GLN-ASP'
p274
(dp275
I2
F1
sI3
F0.48061999999999999
sI4
F0.68217000000000005
sI5
F0.60465000000000002
sI6
F0.62790999999999997
sI7
F0.26357000000000003
sI8
F0.10853
sI9
F0.10077999999999999
sI10
F0.054260000000000003
sI11
F0.046510000000000003
sI12
F0.023259999999999999
sI13
F0.0155
ssS'LEU-HIS'
p276
(dp277
I2
F0.87178999999999995
sI3
F1
sI4
F0.73504000000000003
sI5
F0.52990999999999999
sI6
F0.26495999999999997
sI7
F0.11111
sI8
F0.076920000000000002
sI9
F0.068379999999999996
sI10
F0.02564
sI12
F0.0085500000000000003
ssS'SER-LYS'
p278
(dp279
I2
F1
sI3
F0.69306999999999996
sI4
F0.78217999999999999
sI5
F0.45545000000000002
sI6
F0.19306999999999999
sI7
F0.10396
sI8
F0.049500000000000002
sI9
F0.029700000000000001
sI10
F0.0099000000000000008
ssS'CYS-SER'
p280
(dp281
I2
F1
sI3
F0.55556000000000005
sI4
F0.55556000000000005
sI5
F0.14815
sI6
F0.18518999999999999
sI7
F0.11111
sI8
F0.11111
sI9
F0.037039999999999997
ssS'GLY-VAL'
p282
(dp283
I2
F1
sI3
F0.72316000000000003
sI4
F0.50846999999999998
sI5
F0.22599
sI6
F0.13558999999999999
sI7
F0.056500000000000002
sI8
F0.011299999999999999
sI9
F0.01695
sI10
F0.011299999999999999
ssS'GLN-ASN'
p284
(dp285
I2
F1
sI3
F0.52481999999999995
sI4
F0.64539000000000002
sI5
F0.65956999999999999
sI6
F0.75177000000000005
sI7
F0.25531999999999999
sI8
F0.22695000000000001
sI9
F0.099290000000000003
sI10
F0.070919999999999997
sI11
F0.0070899999999999999
sI12
F0.01418
sI14
F0.01418
ssS'PRO-TYR'
p286
(dp287
I2
F1
sI3
F0.83006999999999997
sI4
F0.78430999999999995
sI5
F0.55556000000000005
sI6
F0.43136999999999998
sI7
F0.37907999999999997
sI8
F0.24837000000000001
sI9
F0.13072
sI10
F0.065360000000000001
sI11
F0.065360000000000001
sI12
F0.0065399999999999998
sI13
F0.01307
ssS'SER-TYR'
p288
(dp289
I2
F1
sI3
F0.75609999999999999
sI4
F0.73984000000000005
sI5
F0.77236000000000005
sI6
F0.45528000000000002
sI7
F0.30893999999999999
sI8
F0.097559999999999994
sI9
F0.089429999999999996
sI10
F0.073169999999999999
sI12
F0.024389999999999998
sI13
F0.024389999999999998
sI14
F0.01626
ssS'MET-TYR'
p290
(dp291
I2
F1
sI3
F0.66071000000000002
sI4
F0.75
sI5
F0.48214000000000001
sI6
F0.35714000000000001
sI7
F0.32142999999999999
sI8
F0.23214000000000001
sI9
F0.071429999999999993
sI10
F0.05357
sI11
F0.071429999999999993
sI12
F0.05357
sI13
F0.017860000000000001
ssS'GLU-ILE'
p292
(dp293
I2
F1
sI3
F0.70587999999999995
sI4
F0.64705999999999997
sI5
F0.43136999999999998
sI6
F0.17646999999999999
sI7
F0.13725000000000001
sI8
F0.12418
sI9
F0.10458000000000001
sI10
F0.019609999999999999
sI11
F0.02614
sI13
F0.01307
ssS'PHE-CYS'
p294
(dp295
I2
F1
sI3
F0.93332999999999999
sI4
F0.59999999999999998
sI5
F0.10000000000000001
sI6
F0.10000000000000001
sI7
F0.13333
sI9
F0.26667000000000002
ssS'PRO-LEU'
p296
(dp297
I2
F1
sI3
F0.64931000000000005
sI4
F0.36458000000000002
sI5
F0.15972
sI6
F0.083330000000000001
sI7
F0.04514
sI8
F0.01736
sI10
F0.00347
ssS'GLY-MET'
p298
(dp299
I2
F0.84091000000000005
sI3
F1
sI4
F0.68181999999999998
sI5
F0.27272999999999997
sI6
F0.27272999999999997
sI7
F0.045449999999999997
sI8
F0.02273
ssS'HIS-THR'
p300
(dp301
I2
F1
sI3
F0.87719000000000003
sI4
F0.61404000000000003
sI5
F0.64912000000000003
sI6
F0.45613999999999999
sI7
F0.49123
sI8
F0.087720000000000006
sI9
F0.052630000000000003
sI10
F0.01754
sI11
F0.01754
sI12
F0.01754
ssS'TRP-THR'
p302
(dp303
I2
F1
sI3
F0.77778000000000003
sI4
F0.73333000000000004
sI5
F0.31111
sI6
F0.40000000000000002
sI7
F0.17777999999999999
sI8
F0.088889999999999997
sI9
F0.02222
sI11
F0.04444
ssS'ALA-LYS'
p304
(dp305
I2
F1
sI3
F0.66666999999999998
sI4
F0.76515
sI5
F0.38635999999999998
sI6
F0.19697000000000001
sI7
F0.037879999999999997
sI8
F0.037879999999999997
sI9
F0.01515
sI10
F0.01515
ssS'TYR-MET'
p306
(dp307
I2
F1
sI3
F0.66071000000000002
sI4
F0.75
sI5
F0.48214000000000001
sI6
F0.35714000000000001
sI7
F0.32142999999999999
sI8
F0.23214000000000001
sI9
F0.071429999999999993
sI10
F0.05357
sI11
F0.071429999999999993
sI12
F0.05357
sI13
F0.017860000000000001
ssS'PRO-VAL'
p308
(dp309
I2
F1
sI3
F0.59677000000000002
sI4
F0.33333000000000002
sI5
F0.14516000000000001
sI6
F0.080649999999999999
sI7
F0.037629999999999997
sI8
F0.010749999999999999
sI9
F0.0053800000000000002
ssS'MET-ASN'
p310
(dp311
I2
F1
sI3
F0.63265000000000005
sI4
F0.51019999999999999
sI5
F0.20408000000000001
sI6
F0.22449
sI7
F0.14285999999999999
sI8
F0.061219999999999997
sI9
F0.081629999999999994
sI10
F0.020410000000000001
ssS'THR-ASN'
p312
(dp313
I2
F1
sI3
F0.47020000000000001
sI4
F0.58940000000000003
sI5
F0.46357999999999999
sI6
F0.39734999999999998
sI7
F0.26490000000000002
sI8
F0.17219000000000001
sI9
F0.0596
sI10
F0.01325
sI11
F0.00662
ssS'TRP-ILE'
p314
(dp315
I2
F1
sI3
F0.58823999999999999
sI4
F0.60294000000000003
sI5
F0.38235000000000002
sI6
F0.23529
sI7
F0.088239999999999999
sI8
F0.088239999999999999
sI9
F0.073529999999999998
sI10
F0.014710000000000001
sI11
F0.014710000000000001
sI13
F0.014710000000000001
ssS'LYS-TYR'
p316
(dp317
I2
F1
sI3
F0.72726999999999997
sI4
F0.75524000000000002
sI5
F0.65734000000000004
sI6
F0.43357000000000001
sI7
F0.23776
sI8
F0.16783000000000001
sI9
F0.13286999999999999
sI10
F0.10489999999999999
sI11
F0.041959999999999997
sI12
F0.034970000000000001
ssS'SER-PHE'
p318
(dp319
I2
F0.97170000000000001
sI3
F1
sI4
F0.89622999999999997
sI5
F0.66981000000000002
sI6
F0.31131999999999999
sI7
F0.20755000000000001
sI8
F0.094339999999999993
sI9
F0.028299999999999999
sI10
F0.018870000000000001
sI11
F0.028299999999999999
ssS'THR-ASP'
p320
(dp321
I2
F1
sI3
F0.66086999999999996
sI4
F0.59999999999999998
sI5
F0.54783000000000004
sI6
F0.63478000000000001
sI7
F0.45217000000000002
sI8
F0.2087
sI9
F0.11304
sI10
F0.026089999999999999
sI12
F0.0086999999999999994
ssS'SER-CYS'
p322
(dp323
I2
F1
sI3
F0.55556000000000005
sI4
F0.55556000000000005
sI5
F0.14815
sI6
F0.18518999999999999
sI7
F0.11111
sI8
F0.11111
sI9
F0.037039999999999997
ssS'MET-ASP'
p324
(dp325
I2
F1
sI3
F0.48888999999999999
sI4
F0.42221999999999998
sI5
F0.31111
sI6
F0.13333
sI7
F0.15556
sI8
F0.11111
sI9
F0.02222
sI10
F0.02222
ssS'GLN-MET'
p326
(dp327
I2
F1
sI3
F0.83333000000000002
sI4
F0.61904999999999999
sI5
F0.38095000000000001
sI6
F0.26190000000000002
sI7
F0.21429000000000001
sI8
F0.16667000000000001
sI9
F0.047620000000000003
sI13
F0.023810000000000001
ssS'MET-TRP'
p328
(dp329
I2
F0.41666999999999998
sI3
F0.66666999999999998
sI4
F1
sI5
F0.29166999999999998
sI6
F0.20832999999999999
sI7
F0.20832999999999999
sI8
F0.29166999999999998
sI9
F0.125
sI10
F0.16667000000000001
sI11
F0.16667000000000001
sI12
F0.041669999999999999
ssS'TRP-CYS'
p330
(dp331
I2
F0.36364000000000002
sI3
F1
sI4
F0.72726999999999997
sI6
F0.090910000000000005
sI8
F0.090910000000000005
sI10
F0.090910000000000005
sI11
F0.090910000000000005
sI13
F0.18182000000000001
ssS'GLY-GLN'
p332
(dp333
I2
F1
sI3
F0.95160999999999996
sI4
F0.70160999999999996
sI5
F0.69355
sI6
F0.44355
sI7
F0.20161000000000001
sI8
F0.072580000000000006
ssS'ASN-TRP'
p334
(dp335
I2
F1
sI3
F0.96875
sI4
F0.9375
sI5
F0.8125
sI6
F0.75
sI7
F0.34375
sI8
F0.5
sI9
F0.21875
sI10
F0.15625
sI11
F0.125
sI12
F0.0625
sI13
F0.21875
sI14
F0.09375
sI15
F0.0625
sI17
F0.03125
ssS'GLY-GLU'
p336
(dp337
I2
F1
sI3
F0.98529
sI4
F0.69852999999999998
sI5
F0.72058999999999995
sI6
F0.33823999999999999
sI7
F0.14706
sI8
F0.051470000000000002
sI9
F0.029409999999999999
ssS'GLY-GLY'
p338
(dp339
I2
F0.96189999999999998
sI3
F0.80000000000000004
sI4
F1
sI5
F0.25713999999999998
sI6
F0.38095000000000001
sI7
F0.028570000000000002
sI8
F0.047620000000000003
ssS'ASN-SER'
p340
(dp341
I2
F1
sI3
F0.58570999999999995
sI4
F0.72143000000000002
sI5
F0.82857000000000003
sI6
F0.50714000000000004
sI7
F0.25713999999999998
sI8
F0.15714
sI9
F0.10714
sI10
F0.028570000000000002
ssS'ASP-ARG'
p342
(dp343
I2
F0.59128999999999998
sI3
F0.39834000000000003
sI4
F0.45435999999999999
sI5
F0.47925000000000001
sI6
F1
sI7
F0.46266000000000002
sI8
F0.30704999999999999
sI9
F0.097509999999999999
sI10
F0.072609999999999994
sI11
F0.0332
sI12
F0.012449999999999999
sI13
F0.0020699999999999998
ssS'TYR-ILE'
p344
(dp345
I2
F1
sI3
F0.79469999999999996
sI4
F0.63575999999999999
sI5
F0.45033000000000001
sI6
F0.33774999999999999
sI7
F0.29138999999999998
sI8
F0.10596
sI9
F0.039739999999999998
sI10
F0.02649
sI11
F0.033110000000000001
sI12
F0.01325
sI14
F0.00662
ssS'TRP-GLY'
p346
(dp347
I2
F0.95745000000000002
sI3
F0.78722999999999999
sI4
F1
sI5
F0.55318999999999996
sI6
F0.40426000000000001
sI7
F0.25531999999999999
sI8
F0.29787000000000002
sI9
F0.14893999999999999
sI10
F0.10638
sI11
F0.063829999999999998
sI12
F0.02128
sI13
F0.02128
sI14
F0.042549999999999998
ssS'GLY-HIS'
p348
(dp349
I2
F0.64864999999999995
sI3
F1
sI4
F0.85135000000000005
sI5
F0.55405000000000004
sI6
F0.20269999999999999
sI7
F0.25675999999999999
sI8
F0.081079999999999999
sI9
F0.04054
sI10
F0.013509999999999999
ssS'PHE-SER'
p350
(dp351
I2
F0.97170000000000001
sI3
F1
sI4
F0.89622999999999997
sI5
F0.66981000000000002
sI6
F0.31131999999999999
sI7
F0.20755000000000001
sI8
F0.094339999999999993
sI9
F0.028299999999999999
sI10
F0.018870000000000001
sI11
F0.028299999999999999
ssS'TRP-GLN'
p352
(dp353
I2
F1
sI3
F0.67567999999999995
sI4
F1
sI5
F0.59458999999999995
sI6
F0.56757000000000002
sI7
F0.35135
sI8
F0.13514000000000001
sI9
F0.29730000000000001
sI10
F0.13514000000000001
sI11
F0.027029999999999998
sI12
F0.054050000000000001
sI13
F0.054050000000000001
sI14
F0.16216
sI15
F0.054050000000000001
sI16
F0.10811
ssS'VAL-ASP'
p354
(dp355
I2
F1
sI3
F0.81081000000000003
sI4
F0.63963999999999999
sI5
F0.40540999999999999
sI6
F0.23422999999999999
sI7
F0.21622
sI8
F0.072069999999999995
sI9
F0.036040000000000003
sI10
F0.0090100000000000006
sI11
F0.0090100000000000006
ssS'THR-THR'
p356
(dp357
I2
F1
sI3
F0.27160000000000001
sI4
F0.25102999999999998
sI5
F0.1358
sI6
F0.23457
sI7
F0.069959999999999994
sI8
F0.069959999999999994
sI9
F0.053499999999999999
sI10
F0.01235
sI11
F0.0041200000000000004
sI12
F0.01235
sI13
F0.0041200000000000004
sI14
F0.01235
ssS'THR-LEU'
p358
(dp359
I2
F1
sI3
F0.45091999999999999
sI4
F0.27914
sI5
F0.16871
sI6
F0.079750000000000001
sI7
F0.055210000000000002
sI8
F0.039879999999999999
sI9
F0.01227
sI14
F0.0030699999999999998
ssS'VAL-ASN'
p360
(dp361
I2
F1
sI3
F0.66115999999999997
sI4
F0.61156999999999995
sI5
F0.55371999999999999
sI6
F0.22314000000000001
sI7
F0.20660999999999999
sI8
F0.1157
sI9
F0.01653
sI10
F0.01653
sI11
F0.00826
ssS'GLU-ASP'
p362
(dp363
I2
F1
sI3
F0.44444
sI4
F0.53332999999999997
sI5
F0.47406999999999999
sI6
F1
sI7
F0.23704
sI8
F0.17777999999999999
sI9
F0.11111
sI10
F0.04444
sI11
F0.0074099999999999999
ssS'TRP-GLU'
p364
(dp365
I2
F0.73468999999999995
sI3
F0.83672999999999997
sI4
F0.87755000000000005
sI5
F1
sI6
F0.65305999999999997
sI7
F0.51019999999999999
sI8
F0.18367
sI9
F0.081629999999999994
sI10
F0.040820000000000002
sI11
F0.10204000000000001
sI12
F0.061219999999999997
sI13
F0.020410000000000001
sI14
F0.061219999999999997
sI15
F0.061219999999999997
sI16
F0.040820000000000002
ssS'PRO-GLY'
p366
(dp367
I2
F1
sI3
F0.95774999999999999
sI4
F0.66900999999999999
sI5
F0.28872999999999999
sI6
F0.091550000000000006
sI7
F0.049299999999999997
sI8
F0.021129999999999999
ssS'GLN-THR'
p368
(dp369
I2
F1
sI3
F0.58518999999999999
sI4
F0.65925999999999996
sI5
F0.57777999999999996
sI6
F0.48148000000000002
sI7
F0.23704
sI8
F0.19259000000000001
sI9
F0.066669999999999993
sI10
F0.01481
sI11
F0.02963
ssS'MET-ALA'
p370
(dp371
I2
F1
sI3
F0.49296000000000001
sI4
F0.40844999999999998
sI5
F0.33803
sI6
F0.056340000000000001
sI7
F0.028170000000000001
sI8
F0.014080000000000001
ssS'ASP-HIS'
p372
(dp373
I2
F0.64634000000000003
sI3
F0.82926999999999995
sI4
F0.71950999999999998
sI5
F0.87805
sI6
F1
sI7
F0.48780000000000001
sI8
F0.25609999999999999
sI9
F0.13414999999999999
sI10
F0.097559999999999994
sI11
F0.060979999999999999
sI12
F0.036589999999999998
ssS'GLN-HIS'
p374
(dp375
I2
F0.89831000000000005
sI3
F1
sI4
F0.72880999999999996
sI5
F0.52542
sI6
F0.47458
sI7
F0.35593000000000002
sI8
F0.28814000000000001
sI9
F0.25424000000000002
sI10
F0.11864
sI11
F0.050849999999999999
sI12
F0.10169
sI13
F0.0339
ssS'TRP-HIS'
p376
(dp377
I2
F0.94999999999999996
sI3
F0.84999999999999998
sI4
F1
sI5
F0.40000000000000002
sI6
F0.29999999999999999
sI7
F0.34999999999999998
sI8
F0.20000000000000001
sI9
F0.14999999999999999
sI10
F0.050000000000000003
sI11
F0.050000000000000003
sI12
F0.14999999999999999
sI13
F0.25
sI14
F0.25
sI15
F0.10000000000000001
sI17
F0.10000000000000001
sI18
F0.050000000000000003
ssS'SER-VAL'
p378
(dp379
I2
F1
sI3
F0.54922000000000004
sI4
F0.44041000000000002
sI5
F0.23834
sI6
F0.10881
sI7
F0.077719999999999997
sI8
F0.041450000000000001
sI9
F0.062179999999999999
sI10
F0.010359999999999999
sI11
F0.0051799999999999997
ssS'MET-ILE'
p380
(dp381
I2
F1
sI3
F0.42157
sI4
F0.26471
sI5
F0.15686
sI6
F0.07843
sI7
F0.039219999999999998
ssS'MET-CYS'
p382
(dp383
I2
F0.66666999999999998
sI3
F1
sI4
F0.25
sI5
F0.33333000000000002
sI6
F0.16667000000000001
sI7
F0.083330000000000001
ssS'PRO-LYS'
p384
(dp385
I2
F1
sI3
F0.79103999999999997
sI4
F0.59701000000000004
sI5
F0.23880999999999999
sI6
F0.16417999999999999
sI7
F0.067159999999999997
sI8
F0.029850000000000002
sI9
F0.014930000000000001
ssS'SER-SER'
p386
(dp387
I2
F1
sI3
F0.52146999999999999
sI4
F0.88956999999999997
sI5
F0.34355999999999998
sI6
F0.33742
sI7
F0.17177999999999999
sI8
F0.18404999999999999
sI9
F0.067479999999999998
sI10
F0.042939999999999999
sI11
F0.01227
ssS'ILE-ALA'
p388
(dp389
I2
F1
sI3
F0.53137999999999996
sI4
F0.27196999999999999
sI5
F0.14226
sI6
F0.062759999999999996
sI7
F0.016740000000000001
sI8
F0.0041799999999999997
sI9
F0.0083700000000000007
ssS'ASP-SER'
p390
(dp391
I2
F0.87302000000000002
sI3
F0.64285999999999999
sI4
F0.66666999999999998
sI5
F1
sI6
F0.66666999999999998
sI7
F0.61111000000000004
sI8
F0.12698000000000001
sI9
F0.095240000000000005
sI10
F0.015869999999999999
ssS'CYS-LYS'
p392
(dp393
I2
F1
sI3
F0.46154000000000001
sI4
F0.88461999999999996
sI5
F0.46154000000000001
sI6
F0.11538
sI7
F0.11538
sI8
F0.038460000000000001
sI9
F0.076920000000000002
ssS'GLU-ALA'
p394
(dp395
I2
F1
sI3
F0.45000000000000001
sI4
F0.54500000000000004
sI5
F0.39000000000000001
sI6
F0.29499999999999998
sI7
F0.11
sI8
F0.059999999999999998
sI9
F0.01
sI10
F0.01
sI11
F0.01
sI12
F0.0050000000000000001
ssS'LYS-HIS'
p396
(dp397
I2
F0.98412999999999995
sI3
F1
sI4
F0.92062999999999995
sI5
F0.36508000000000002
sI6
F0.31746000000000002
sI7
F0.15873000000000001
sI8
F0.095240000000000005
sI9
F0.14285999999999999
sI10
F0.063490000000000005
ssS'HIS-PRO'
p398
(dp399
I2
F1
sI3
F0.94286000000000003
sI4
F0.81428999999999996
sI5
F0.57142999999999999
sI6
F0.18570999999999999
sI7
F0.17143
sI8
F0.18570999999999999
sI9
F0.085709999999999995
sI10
F0.014290000000000001
ssS'ILE-ILE'
p400
(dp401
I2
F1
sI3
F0.30725000000000002
sI4
F0.28986000000000001
sI5
F0.072459999999999997
sI6
F0.043479999999999998
sI7
F0.014489999999999999
sI8
F0.020289999999999999
sI9
F0.014489999999999999
sI10
F0.014489999999999999
sI11
F0.0028999999999999998
sI12
F0.0028999999999999998
sI14
F0.0057999999999999996
ssS'THR-MET'
p402
(dp403
I2
F1
sI3
F0.53730999999999995
sI4
F0.62687000000000004
sI5
F0.29851
sI6
F0.19403000000000001
sI7
F0.04478
sI8
F0.014930000000000001
sI10
F0.014930000000000001
sI12
F0.014930000000000001
ssS'PHE-THR'
p404
(dp405
I2
F1
sI3
F0.91729000000000005
sI4
F0.55639000000000005
sI5
F0.33834999999999998
sI6
F0.23308000000000001
sI7
F0.15038000000000001
sI8
F0.045109999999999997
sI9
F0.045109999999999997
sI10
F0.01504
sI11
F0.02256
sI12
F0.0075199999999999998
ssS'PHE-LYS'
p406
(dp407
I2
F0.89473999999999998
sI3
F1
sI4
F0.65788999999999997
sI5
F0.68420999999999998
sI6
F0.46052999999999999
sI7
F0.34211000000000003
sI8
F0.30263000000000001
sI9
F0.14474000000000001
sI10
F0.10526000000000001
sI11
F0.039469999999999998
sI12
F0.01316
sI13
F0.01316
ssS'GLY-PRO'
p408
(dp409
I2
F1
sI3
F0.95774999999999999
sI4
F0.66900999999999999
sI5
F0.28872999999999999
sI6
F0.091550000000000006
sI7
F0.049299999999999997
sI8
F0.021129999999999999
ssS'MET-MET'
p410
(dp411
I2
F1
sI3
F0.34286
sI4
F0.41428999999999999
sI5
F0.12856999999999999
sI6
F0.18570999999999999
sI7
F0.042860000000000002
sI8
F0.028570000000000002
sI9
F0.057140000000000003
sI10
F0.014290000000000001
sI12
F0.014290000000000001
ssS'HIS-TYR'
p412
(dp413
I2
F0.97143000000000002
sI3
F0.61429
sI4
F0.64285999999999999
sI5
F0.40000000000000002
sI6
F1
sI7
F0.42857000000000001
sI8
F0.31429000000000001
sI9
F0.27143
sI10
F0.17143
sI11
F0.071429999999999993
sI12
F0.042860000000000002
sI13
F0.085709999999999995
sI14
F0.085709999999999995
sI16
F0.028570000000000002
ssS'TRP-TYR'
p414
(dp415
I2
F1
sI3
F0.95121999999999995
sI4
F0.75609999999999999
sI5
F0.65854000000000001
sI6
F0.58536999999999995
sI7
F0.51219999999999999
sI8
F0.14634
sI9
F0.048779999999999997
sI10
F0.097559999999999994
sI11
F0.048779999999999997
sI12
F0.048779999999999997
sI13
F0.073169999999999999
sI14
F0.073169999999999999
sI15
F0.048779999999999997
sI16
F0.024389999999999998
sI17
F0.024389999999999998
ssS'ILE-HIS'
p416
(dp417
I2
F1
sI3
F0.78571000000000002
sI4
F0.84286000000000005
sI5
F0.27143
sI6
F0.21429000000000001
sI7
F0.20000000000000001
sI8
F0.14285999999999999
sI9
F0.014290000000000001
sI10
F0.028570000000000002
sI11
F0.042860000000000002
ssS'ASN-MET'
p418
(dp419
I2
F1
sI3
F0.63265000000000005
sI4
F0.51019999999999999
sI5
F0.20408000000000001
sI6
F0.22449
sI7
F0.14285999999999999
sI8
F0.061219999999999997
sI9
F0.081629999999999994
sI10
F0.020410000000000001
ssS'PRO-THR'
p420
(dp421
I2
F1
sI3
F0.73224
sI4
F0.4153
sI5
F0.28415000000000001
sI6
F0.087429999999999994
sI7
F0.016389999999999998
sI8
F0.021860000000000001
sI9
F0.016389999999999998
sI10
F0.0054599999999999996
ssS'TYR-GLN'
p422
(dp423
I2
F1
sI3
F0.73077000000000003
sI4
F0.66346000000000005
sI5
F0.68269000000000002
sI6
F0.625
sI7
F0.41345999999999999
sI8
F0.19231000000000001
sI9
F0.18268999999999999
sI10
F0.15384999999999999
sI11
F0.076920000000000002
sI12
F0.019230000000000001
sI13
F0.038460000000000001
sI14
F0.028850000000000001
ssS'VAL-THR'
p424
(dp425
I2
F1
sI3
F0.47944999999999999
sI4
F0.38812999999999998
sI5
F0.15525
sI6
F0.17807999999999999
sI7
F0.050229999999999997
sI8
F0.018259999999999998
sI9
F0.0091299999999999992
sI10
F0.0091299999999999992
sI11
F0.0045700000000000003
ssS'GLY-ILE'
p426
(dp427
I2
F1
sI3
F0.83672999999999997
sI4
F0.57142999999999999
sI5
F0.31633
sI6
F0.17347000000000001
sI7
F0.081629999999999994
sI8
F0.020410000000000001
sI9
F0.020410000000000001
ssS'TYR-GLU'
p428
(dp429
I2
F0.66108999999999996
sI3
F0.36402000000000001
sI4
F0.37237999999999999
sI5
F0.43096000000000001
sI6
F1
sI7
F0.21757000000000001
sI8
F0.14226
sI9
F0.087870000000000004
sI10
F0.041840000000000002
sI11
F0.020920000000000001
sI12
F0.025100000000000001
sI13
F0.01255
sI14
F0.03347
sI15
F0.01255
ssS'TYR-GLY'
p430
(dp431
I2
F1
sI3
F0.88785000000000003
sI4
F0.74765999999999999
sI5
F0.84111999999999998
sI6
F0.50466999999999995
sI7
F0.25234000000000001
sI8
F0.11215
sI9
F0.093460000000000001
sI11
F0.018689999999999998
ssS'VAL-HIS'
p432
(dp433
I2
F0.87838000000000005
sI3
F1
sI4
F0.56757000000000002
sI5
F0.36486000000000002
sI6
F0.29730000000000001
sI7
F0.10811
sI8
F0.081079999999999999
sI9
F0.04054
sI10
F0.027029999999999998
sI13
F0.013509999999999999
ssS'CYS-ARG'
p434
(dp435
I2
F1
sI3
F0.59574000000000005
sI4
F0.46809000000000001
sI5
F0.31914999999999999
sI6
F0.31914999999999999
sI7
F0.063829999999999998
sI8
F0.02128
sI9
F0.042549999999999998
ssS'HIS-ARG'
p436
(dp437
I2
F1
sI3
F0.69230999999999998
sI4
F0.55556000000000005
sI5
F0.40171000000000001
sI6
F0.44444
sI7
F0.24786
sI8
F0.18803
sI9
F0.22222
sI10
F0.13675000000000001
sI11
F0.19658
sI12
F0.017090000000000001
sI13
F0.0085500000000000003
sI14
F0.0085500000000000003
ssS'HIS-MET'
p438
(dp439
I2
F0.95833000000000002
sI3
F1
sI4
F0.83333000000000002
sI5
F0.45833000000000002
sI6
F0.16667000000000001
sI7
F0.25
sI8
F0.25
sI10
F0.083330000000000001
ssS'ASP-THR'
p440
(dp441
I2
F1
sI3
F0.66086999999999996
sI4
F0.59999999999999998
sI5
F0.54783000000000004
sI6
F0.63478000000000001
sI7
F0.45217000000000002
sI8
F0.2087
sI9
F0.11304
sI10
F0.026089999999999999
sI12
F0.0086999999999999994
ssS'GLU-PRO'
p442
(dp443
I2
F1
sI3
F0.78571000000000002
sI4
F0.54166999999999998
sI5
F0.50595000000000001
sI6
F0.29762
sI7
F0.19048000000000001
sI8
F0.035709999999999999
sI9
F0.023810000000000001
ssS'VAL-ILE'
p444
(dp445
I2
F1
sI3
F0.37159999999999999
sI4
F0.25075999999999998
sI5
F0.11178
sI6
F0.042299999999999997
sI7
F0.042299999999999997
sI8
F0.024170000000000001
sI9
F0.01511
sI10
F0.0060400000000000002
sI12
F0.0030200000000000001
ssS'ILE-THR'
p446
(dp447
I2
F1
sI3
F0.47748000000000002
sI4
F0.33783999999999997
sI5
F0.11261
sI6
F0.067570000000000005
sI7
F0.022519999999999998
sI8
F0.013509999999999999
sI9
F0.013509999999999999
sI10
F0.0090100000000000006
ssS'ARG-LEU'
p448
(dp449
I2
F1
sI3
F0.54608000000000001
sI4
F0.5
sI5
F0.36405999999999999
sI6
F0.28571000000000002
sI7
F0.15437999999999999
sI8
F0.089859999999999995
sI9
F0.032259999999999997
sI10
F0.018429999999999998
sI11
F0.0069100000000000003
sI12
F0.0069100000000000003
sI13
F0.0023
ssS'PHE-VAL'
p450
(dp451
I2
F1
sI3
F0.63083999999999996
sI4
F0.49064999999999998
sI5
F0.28037000000000001
sI6
F0.14019000000000001
sI7
F0.079439999999999997
sI8
F0.065420000000000006
sI9
F0.032710000000000003
sI10
F0.014019999999999999
sI11
F0.0046699999999999997
sI13
F0.0046699999999999997
ssS'ASN-VAL'
p452
(dp453
I2
F1
sI3
F0.66115999999999997
sI4
F0.61156999999999995
sI5
F0.55371999999999999
sI6
F0.22314000000000001
sI7
F0.20660999999999999
sI8
F0.1157
sI9
F0.01653
sI10
F0.01653
sI11
F0.00826
ssS'LEU-PRO'
p454
(dp455
I2
F1
sI3
F0.64931000000000005
sI4
F0.36458000000000002
sI5
F0.15972
sI6
F0.083330000000000001
sI7
F0.04514
sI8
F0.01736
sI10
F0.00347
ssS'LEU-SER'
p456
(dp457
I2
F1
sI3
F0.71641999999999995
sI4
F0.56716
sI5
F0.28358
sI6
F0.093280000000000002
sI7
F0.097009999999999999
sI8
F0.014930000000000001
sI9
F0.01119
ssS'ASN-ARG'
p458
(dp459
I2
F1
sI3
F0.55659999999999998
sI4
F0.50471999999999995
sI5
F0.49528
sI6
F0.45755000000000001
sI7
F0.30659999999999998
sI8
F0.25942999999999999
sI9
F0.12264
sI10
F0.070749999999999993
sI11
F0.066040000000000001
sI12
F0.0047200000000000002
sI13
F0.014149999999999999
sI14
F0.0047200000000000002
ssS'LYS-GLN'
p460
(dp461
I2
F1
sI3
F0.58282
sI4
F0.73006000000000004
sI5
F0.46011999999999997
sI6
F0.36196
sI7
F0.18404999999999999
sI8
F0.11043
sI9
F0.042939999999999999
sI10
F0.0184
sI11
F0.01227
sI12
F0.01227
sI14
F0.00613
ssS'ARG-PHE'
p462
(dp463
I2
F1
sI3
F0.84297999999999995
sI4
F0.81818000000000002
sI5
F0.73553999999999997
sI6
F0.57850999999999997
sI7
F0.37190000000000001
sI8
F0.24793000000000001
sI9
F0.34710999999999997
sI10
F0.25619999999999998
sI11
F0.14876
sI12
F0.12397
sI13
F0.090910000000000005
sI14
F0.01653
sI15
F0.02479
sI20
F0.00826
ssS'ASN-GLU'
p464
(dp465
I2
F1
sI3
F0.56172999999999995
sI4
F0.74073999999999995
sI5
F0.71604999999999996
sI6
F0.72221999999999997
sI7
F0.36420000000000002
sI8
F0.24690999999999999
sI9
F0.17901
sI10
F0.086419999999999997
sI11
F0.043209999999999998
sI12
F0.018519999999999998
ssS'CYS-GLN'
p466
(dp467
I2
F1
sI3
F0.81818000000000002
sI4
F0.63636000000000004
sI5
F0.45455000000000001
sI6
F0.22727
sI7
F0.22727
ssS'SER-ARG'
p468
(dp469
I2
F1
sI3
F0.66666999999999998
sI4
F0.65766000000000002
sI5
F0.61260999999999999
sI6
F0.40991
sI7
F0.27927999999999997
sI8
F0.11712
sI9
F0.081079999999999999
sI10
F0.04054
sI11
F0.0090100000000000006
sI12
F0.013509999999999999
ssS'CYS-GLU'
p470
(dp471
I2
F1
sI3
F1
sI4
F0.84614999999999996
sI5
F0.53846000000000005
sI6
F0.46154000000000001
sI7
F0.23077
sI8
F0.15384999999999999
sI10
F0.076920000000000002
ssS'MET-VAL'
p472
(dp473
I2
F1
sI3
F0.52222000000000002
sI4
F0.32222000000000001
sI5
F0.14444000000000001
sI6
F0.066669999999999993
sI7
F0.02222
sI8
F0.033329999999999999
ssS'CYS-GLY'
p474
(dp475
I2
F1
sI3
F0.84614999999999996
sI4
F0.76922999999999997
sI5
F0.30769000000000002
sI6
F0.11538
sI7
F0.076920000000000002
sI8
F0.11538
ssS'HIS-LYS'
p476
(dp477
I2
F0.98412999999999995
sI3
F1
sI4
F0.92062999999999995
sI5
F0.36508000000000002
sI6
F0.31746000000000002
sI7
F0.15873000000000001
sI8
F0.095240000000000005
sI9
F0.14285999999999999
sI10
F0.063490000000000005
ssS'GLU-GLY'
p478
(dp479
I2
F1
sI3
F0.98529
sI4
F0.69852999999999998
sI5
F0.72058999999999995
sI6
F0.33823999999999999
sI7
F0.14706
sI8
F0.051470000000000002
sI9
F0.029409999999999999
ssS'PRO-PRO'
p480
(dp481
I2
F1
sI3
F0.58570999999999995
sI4
F0.63571
sI5
F0.14999999999999999
sI6
F0.13571
sI7
F0.071429999999999993
sI8
F0.028570000000000002
sI9
F0.0071399999999999996
ssS'PHE-LEU'
p482
(dp483
I2
F1
sI3
F0.72340000000000004
sI4
F0.35371999999999998
sI5
F0.25797999999999999
sI6
F0.12234
sI7
F0.095740000000000006
sI8
F0.061170000000000002
sI9
F0.026599999999999999
sI10
F0.02128
sI11
F0.00266
sI12
F0.00266
ssS'GLU-GLU'
p484
(dp485
I2
F1
sI3
F0.31413999999999997
sI4
F0.46072999999999997
sI5
F0.44502999999999998
sI6
F0.81152000000000002
sI7
F0.27224999999999999
sI8
F0.18848000000000001
sI9
F0.083769999999999997
sI10
F0.094240000000000004
sI11
F0.047120000000000002
sI12
F0.015709999999999998
sI13
F0.01047
sI14
F0.015709999999999998
ssS'TYR-ASP'
p486
(dp487
I2
F0.67088999999999999
sI3
F0.39872999999999997
sI4
F0.42404999999999998
sI5
F0.41771999999999998
sI6
F1
sI7
F0.36076000000000003
sI8
F0.14557
sI9
F0.075950000000000004
sI10
F0.037969999999999997
sI11
F0.025319999999999999
sI12
F0.0063299999999999997
sI13
F0.0063299999999999997
sI14
F0.0063299999999999997
ssS'TYR-ASN'
p488
(dp489
I2
F1
sI3
F0.60784000000000005
sI4
F0.65686
sI5
F0.74509999999999998
sI6
F0.76471
sI7
F0.41176000000000001
sI8
F0.23529
sI9
F0.21568999999999999
sI10
F0.068629999999999997
sI11
F0.088239999999999999
sI12
F0.029409999999999999
sI13
F0.019609999999999999
sI14
F0.029409999999999999
sI15
F0.019609999999999999
sI16
F0.0097999999999999997
ssS'GLU-GLN'
p490
(dp491
I2
F1
sI3
F0.56000000000000005
sI4
F0.69999999999999996
sI5
F0.62666999999999995
sI6
F0.62
sI7
F0.39333000000000001
sI8
F0.17333000000000001
sI9
F0.18667
sI10
F0.033329999999999999
sI11
F0.033329999999999999
sI12
F0.0066699999999999997
ssS'TRP-ARG'
p492
(dp493
I2
F1
sI3
F0.60870000000000002
sI4
F0.57970999999999995
sI5
F0.59419999999999995
sI6
F0.34782999999999997
sI7
F0.43478
sI8
F0.26086999999999999
sI9
F0.18840999999999999
sI10
F0.18840999999999999
sI11
F0.17391000000000001
sI12
F0.18840999999999999
sI13
F0.26086999999999999
sI14
F0.15942000000000001
sI15
F0.072459999999999997
sI16
F0.14493
sI17
F0.10145
sI18
F0.043479999999999998
ssS'SER-ALA'
p494
(dp495
I2
F1
sI3
F0.66851000000000005
sI4
F0.55801000000000001
sI5
F0.26518999999999998
sI6
F0.1326
sI7
F0.11602
sI8
F0.11602
sI9
F0.0055199999999999997
sI10
F0.016570000000000001
ssS'MET-THR'
p496
(dp497
I2
F1
sI3
F0.53730999999999995
sI4
F0.62687000000000004
sI5
F0.29851
sI6
F0.19403000000000001
sI7
F0.04478
sI8
F0.014930000000000001
sI10
F0.014930000000000001
sI12
F0.014930000000000001
ssS'MET-PRO'
p498
(dp499
I2
F1
sI3
F0.81967000000000001
sI4
F0.47541
sI5
F0.24590000000000001
sI6
F0.049180000000000001
sI7
F0.03279
ssS'VAL-LEU'
p500
(dp501
I2
F1
sI3
F0.39690999999999999
sI4
F0.18040999999999999
sI5
F0.091069999999999998
sI6
F0.042959999999999998
sI7
F0.020619999999999999
sI8
F0.01031
sI9
F0.0034399999999999999
sI10
F0.0051500000000000001
sI11
F0.0051500000000000001
ssS'LEU-CYS'
p502
(dp503
I2
F1
sI3
F0.59614999999999996
sI4
F0.32691999999999999
sI5
F0.17308000000000001
sI6
F0.057689999999999998
sI7
F0.038460000000000001
sI8
F0.019230000000000001
sI12
F0.019230000000000001
ssS'VAL-ARG'
p504
(dp505
I2
F1
sI3
F0.49275000000000002
sI4
F0.48551
sI5
F0.38406000000000001
sI6
F0.21376999999999999
sI7
F0.1087
sI8
F0.06522
sI9
F0.025360000000000001
sI10
F0.00362
sI11
F0.0072500000000000004
sI12
F0.010869999999999999
ssS'LEU-THR'
p506
(dp507
I2
F1
sI3
F0.45091999999999999
sI4
F0.27914
sI5
F0.16871
sI6
F0.079750000000000001
sI7
F0.055210000000000002
sI8
F0.039879999999999999
sI9
F0.01227
sI14
F0.0030699999999999998
ssS'PHE-PRO'
p508
(dp509
I2
F0.96153999999999995
sI3
F0.93076999999999999
sI4
F1
sI5
F0.55384999999999995
sI6
F0.31537999999999999
sI7
F0.18462000000000001
sI8
F0.11538
sI9
F0.10000000000000001
sI10
F0.053850000000000002
sI11
F0.01538
ssS'ARG-TRP'
p510
(dp511
I2
F1
sI3
F0.60870000000000002
sI4
F0.57970999999999995
sI5
F0.59419999999999995
sI6
F0.34782999999999997
sI7
F0.43478
sI8
F0.26086999999999999
sI9
F0.18840999999999999
sI10
F0.18840999999999999
sI11
F0.17391000000000001
sI12
F0.18840999999999999
sI13
F0.26086999999999999
sI14
F0.15942000000000001
sI15
F0.072459999999999997
sI16
F0.14493
sI17
F0.10145
sI18
F0.043479999999999998
ssS'MET-GLN'
p512
(dp513
I2
F1
sI3
F0.83333000000000002
sI4
F0.61904999999999999
sI5
F0.38095000000000001
sI6
F0.26190000000000002
sI7
F0.21429000000000001
sI8
F0.16667000000000001
sI9
F0.047620000000000003
sI13
F0.023810000000000001
ssS'HIS-PHE'
p514
(dp515
I2
F1
sI3
F0.87143000000000004
sI4
F0.59999999999999998
sI5
F0.47143000000000002
sI6
F0.27143
sI7
F0.35714000000000001
sI8
F0.20000000000000001
sI9
F0.11429
sI10
F0.057140000000000003
sI11
F0.014290000000000001
sI12
F0.014290000000000001
sI13
F0.10000000000000001
sI15
F0.014290000000000001
ssS'ALA-CYS'
p516
(dp517
I2
F1
sI3
F0.5
sI4
F0.64705999999999997
sI5
F0.20588000000000001
sI6
F0.14706
sI7
F0.058819999999999997
ssS'CYS-ILE'
p518
(dp519
I2
F1
sI3
F0.32432
sI4
F0.24324000000000001
sI5
F0.27027000000000001
sI6
F0.027029999999999998
sI8
F0.054050000000000001
ssS'PHE-TRP'
p520
(dp521
I2
F1
sI3
F1
sI4
F0.95348999999999995
sI5
F0.62790999999999997
sI6
F0.37208999999999998
sI7
F0.23255999999999999
sI8
F0.37208999999999998
sI9
F0.37208999999999998
sI10
F0.069769999999999999
sI11
F0.069769999999999999
sI12
F0.18604999999999999
sI14
F0.023259999999999999
sI16
F0.069769999999999999
ssS'MET-GLY'
p522
(dp523
I2
F0.84091000000000005
sI3
F1
sI4
F0.68181999999999998
sI5
F0.27272999999999997
sI6
F0.27272999999999997
sI7
F0.045449999999999997
sI8
F0.02273
ssS'THR-PHE'
p524
(dp525
I2
F1
sI3
F0.91729000000000005
sI4
F0.55639000000000005
sI5
F0.33834999999999998
sI6
F0.23308000000000001
sI7
F0.15038000000000001
sI8
F0.045109999999999997
sI9
F0.045109999999999997
sI10
F0.01504
sI11
F0.02256
sI12
F0.0075199999999999998
ssS'MET-GLU'
p526
(dp527
I2
F1
sI3
F0.72414000000000001
sI4
F0.72414000000000001
sI5
F0.27585999999999999
sI6
F0.39655000000000001
sI7
F0.22414000000000001
sI8
F0.17241000000000001
sI9
F0.034479999999999997
sI10
F0.034479999999999997
sI12
F0.017239999999999998
ssS'THR-TYR'
p528
(dp529
I2
F1
sI3
F0.61806000000000005
sI4
F0.58333000000000002
sI5
F0.39583000000000002
sI6
F0.36806
sI7
F0.11806
sI8
F0.125
sI9
F0.055559999999999998
sI10
F0.034720000000000001
sI11
F0.00694
ssS'ALA-TYR'
p530
(dp531
I2
F1
sI3
F0.59116000000000002
sI4
F0.49170999999999998
sI5
F0.36464000000000002
sI6
F0.24309
sI7
F0.17127000000000001
sI8
F0.05525
sI9
F0.038670000000000003
sI10
F0.022100000000000002
ssS'ASP-PRO'
p532
(dp533
I2
F1
sI3
F0.875
sI4
F0.61765000000000003
sI5
F0.47793999999999998
sI6
F0.25
sI7
F0.16175999999999999
sI8
F0.029409999999999999
sI9
F0.029409999999999999
ssS'ARG-CYS'
p534
(dp535
I2
F1
sI3
F0.59574000000000005
sI4
F0.46809000000000001
sI5
F0.31914999999999999
sI6
F0.31914999999999999
sI7
F0.063829999999999998
sI8
F0.02128
sI9
F0.042549999999999998
ssS'GLN-ARG'
p536
(dp537
I2
F1
sI3
F0.55913999999999997
sI4
F0.67203999999999997
sI5
F0.63441000000000003
sI6
F0.44085999999999997
sI7
F0.44624000000000003
sI8
F0.26344000000000001
sI9
F0.18279999999999999
sI10
F0.075270000000000004
sI11
F0.026880000000000001
sI12
F0.032259999999999997
sI13
F0.016129999999999999
sI14
F0.021510000000000001
ssS'HIS-TRP'
p538
(dp539
I2
F0.94999999999999996
sI3
F0.84999999999999998
sI4
F1
sI5
F0.40000000000000002
sI6
F0.29999999999999999
sI7
F0.34999999999999998
sI8
F0.20000000000000001
sI9
F0.14999999999999999
sI10
F0.050000000000000003
sI11
F0.050000000000000003
sI12
F0.14999999999999999
sI13
F0.25
sI14
F0.25
sI15
F0.10000000000000001
sI17
F0.10000000000000001
sI18
F0.050000000000000003
ssS'PRO-SER'
p540
(dp541
I2
F1
sI3
F0.84472000000000003
sI4
F0.65217000000000003
sI5
F0.30435000000000001
sI6
F0.1118
sI7
F0.062109999999999999
sI8
F0.0062100000000000002
ssS'LEU-LYS'
p542
(dp543
I2
F1
sI3
F0.58909
sI4
F0.44363999999999998
sI5
F0.22181999999999999
sI6
F0.13091
sI7
F0.072730000000000003
sI8
F0.01091
sI9
F0.01455
sI10
F0.01091
ssS'THR-CYS'
p544
(dp545
I2
F1
sI3
F0.25713999999999998
sI4
F0.14285999999999999
sI5
F0.11429
sI8
F0.085709999999999995
sI9
F0.028570000000000002
ssS'ASP-TYR'
p546
(dp547
I2
F0.67088999999999999
sI3
F0.39872999999999997
sI4
F0.42404999999999998
sI5
F0.41771999999999998
sI6
F1
sI7
F0.36076000000000003
sI8
F0.14557
sI9
F0.075950000000000004
sI10
F0.037969999999999997
sI11
F0.025319999999999999
sI12
F0.0063299999999999997
sI13
F0.0063299999999999997
sI14
F0.0063299999999999997
ssS'VAL-SER'
p548
(dp549
I2
F1
sI3
F0.54922000000000004
sI4
F0.44041000000000002
sI5
F0.23834
sI6
F0.10881
sI7
F0.077719999999999997
sI8
F0.041450000000000001
sI9
F0.062179999999999999
sI10
F0.010359999999999999
sI11
F0.0051799999999999997
ssS'ARG-SER'
p550
(dp551
I2
F1
sI3
F0.66666999999999998
sI4
F0.65766000000000002
sI5
F0.61260999999999999
sI6
F0.40991
sI7
F0.27927999999999997
sI8
F0.11712
sI9
F0.081079999999999999
sI10
F0.04054
sI11
F0.0090100000000000006
sI12
F0.013509999999999999
ssS'ASN-HIS'
p552
(dp553
I2
F1
sI3
F0.96226
sI4
F0.90566000000000002
sI5
F0.73585
sI6
F0.45283000000000001
sI7
F0.54717000000000005
sI8
F0.28301999999999999
sI9
F0.22642000000000001
sI10
F0.20755000000000001
sI11
F0.11321000000000001
sI12
F0.018870000000000001
ssS'GLY-ARG'
p554
(dp555
I2
F1
sI3
F0.73092000000000001
sI4
F0.60241
sI5
F0.65059999999999996
sI6
F0.44979999999999998
sI7
F0.18071999999999999
sI8
F0.092369999999999994
sI9
F0.02811
sI10
F0.0241
sI11
F0.0040200000000000001
sI12
F0.0040200000000000001
ssS'GLN-ALA'
p556
(dp557
I2
F1
sI3
F0.49692999999999998
sI4
F0.47853000000000001
sI5
F0.38036999999999999
sI6
F0.26379999999999998
sI7
F0.13497000000000001
sI8
F0.030669999999999999
sI9
F0.0184
ssS'MET-LEU'
p558
(dp559
I2
F1
sI3
F0.50275999999999998
sI4
F0.37017
sI5
F0.1326
sI6
F0.077350000000000002
sI7
F0.044200000000000003
sI8
F0.016570000000000001
sI9
F0.0055199999999999997
sI10
F0.0055199999999999997
ssS'ASN-CYS'
p560
(dp561
I2
F1
sI3
F0.36842000000000003
sI4
F0.52632000000000001
sI5
F0.42104999999999998
sI6
F0.26316000000000001
sI7
F0.26316000000000001
sI8
F0.052630000000000003
ssS'MET-SER'
p562
(dp563
I2
F1
sI3
F0.75471999999999995
sI4
F0.69811000000000001
sI5
F0.33961999999999998
sI6
F0.13208
sI7
F0.15093999999999999
sI10
F0.037740000000000003
ssS'CYS-ALA'
p564
(dp565
I2
F1
sI3
F0.5
sI4
F0.64705999999999997
sI5
F0.20588000000000001
sI6
F0.14706
sI7
F0.058819999999999997
ssS'ASN-ASP'
p566
(dp567
I2
F1
sI3
F0.4375
sI4
F0.69443999999999995
sI5
F0.65278000000000003
sI6
F0.66666999999999998
sI7
F0.34028000000000003
sI8
F0.20832999999999999
sI9
F0.055559999999999998
sI10
F0.041669999999999999
sI11
F0.027779999999999999
ssS'LYS-TRP'
p568
(dp569
I2
F1
sI3
F0.97367999999999999
sI4
F0.63158000000000003
sI5
F0.26316000000000001
sI6
F0.31579000000000002
sI7
F0.26316000000000001
sI8
F0.21052999999999999
sI9
F0.42104999999999998
sI10
F0.23683999999999999
sI11
F0.23683999999999999
sI12
F0.15789
sI13
F0.078950000000000006
ssS'ASN-ASN'
p570
(dp571
I2
F1
sI3
F0.30534
sI4
F0.63358999999999999
sI5
F0.54198000000000002
sI6
F0.80915999999999999
sI7
F0.28244000000000002
sI8
F0.33588000000000001
sI9
F0.13739999999999999
sI10
F0.083970000000000003
sI11
F0.038170000000000003
sI12
F0.0229
sI14
F0.0076299999999999996
sI16
F0.0076299999999999996
ssS'THR-ALA'
p572
(dp573
I2
F1
sI3
F0.48603000000000002
sI4
F0.48603000000000002
sI5
F0.19553000000000001
sI6
F0.12848999999999999
sI7
F0.07263
sI8
F0.016760000000000001
sI9
F0.022349999999999998
ssS'ALA-ASP'
p574
(dp575
I2
F1
sI3
F0.43065999999999999
sI4
F0.48175000000000001
sI5
F0.38685999999999998
sI6
F0.32117000000000001
sI7
F0.10219
sI8
F0.051090000000000003
sI9
F0.0292
sI10
F0.0073000000000000001
ssS'ASP-MET'
p576
(dp577
I2
F1
sI3
F0.48888999999999999
sI4
F0.42221999999999998
sI5
F0.31111
sI6
F0.13333
sI7
F0.15556
sI8
F0.11111
sI9
F0.02222
sI10
F0.02222
ssS'CYS-TYR'
p578
(dp579
I9
F0.10526000000000001
sI2
F0.94737000000000005
sI3
F1
sI4
F0.42104999999999998
sI5
F0.63158000000000003
ssS'SER-GLU'
p580
(dp581
I2
F0.97646999999999995
sI3
F0.71175999999999995
sI4
F0.79412000000000005
sI5
F1
sI6
F0.80000000000000004
sI7
F0.59999999999999998
sI8
F0.21176
sI9
F0.07059
sI10
F0.035290000000000002
sI11
F0.0058799999999999998
ssS'ALA-ASN'
p582
(dp583
I2
F1
sI3
F0.70865999999999996
sI4
F0.45668999999999998
sI5
F0.46456999999999998
sI6
F0.31496000000000002
sI7
F0.22835
sI8
F0.078740000000000004
sI10
F0.0078700000000000003
ssS'PHE-MET'
p584
(dp585
I2
F1
sI3
F0.82894999999999996
sI4
F0.63158000000000003
sI5
F0.42104999999999998
sI6
F0.15789
sI7
F0.15789
sI8
F0.092109999999999997
sI9
F0.052630000000000003
sI10
F0.01316
ssS'SER-ILE'
p586
(dp587
I2
F1
sI3
F0.64375000000000004
sI4
F0.52500000000000002
sI5
F0.33750000000000002
sI6
F0.21249999999999999
sI7
F0.081250000000000003
sI8
F0.050000000000000003
sI9
F0.025000000000000001
sI10
F0.0062500000000000003
ssS'CYS-LEU'
p588
(dp589
I2
F1
sI3
F0.59614999999999996
sI4
F0.32691999999999999
sI5
F0.17308000000000001
sI6
F0.057689999999999998
sI7
F0.038460000000000001
sI8
F0.019230000000000001
sI12
F0.019230000000000001
ssS'LYS-MET'
p590
(dp591
I2
F1
sI3
F0.68852000000000002
sI4
F0.47541
sI5
F0.26229999999999998
sI6
F0.26229999999999998
sI7
F0.18032999999999999
sI8
F0.03279
sI9
F0.049180000000000001
sI10
F0.016389999999999998
sI11
F0.016389999999999998
ssS'HIS-ASN'
p592
(dp593
I2
F1
sI3
F0.96226
sI4
F0.90566000000000002
sI5
F0.73585
sI6
F0.45283000000000001
sI7
F0.54717000000000005
sI8
F0.28301999999999999
sI9
F0.22642000000000001
sI10
F0.20755000000000001
sI11
F0.11321000000000001
sI12
F0.018870000000000001
ssS'GLU-ASN'
p594
(dp595
I2
F1
sI3
F0.56172999999999995
sI4
F0.74073999999999995
sI5
F0.71604999999999996
sI6
F0.72221999999999997
sI7
F0.36420000000000002
sI8
F0.24690999999999999
sI9
F0.17901
sI10
F0.086419999999999997
sI11
F0.043209999999999998
sI12
F0.018519999999999998
ssS'ALA-LEU'
p596
(dp597
I2
F1
sI3
F0.43725999999999998
sI4
F0.30037999999999998
sI5
F0.13877999999999999
sI6
F0.03422
sI7
F0.01711
sI8
F0.01141
sI9
F0.0019
ssS'HIS-ASP'
p598
(dp599
I2
F0.64634000000000003
sI3
F0.82926999999999995
sI4
F0.71950999999999998
sI5
F0.87805
sI6
F1
sI7
F0.48780000000000001
sI8
F0.25609999999999999
sI9
F0.13414999999999999
sI10
F0.097559999999999994
sI11
F0.060979999999999999
sI12
F0.036589999999999998
ssS'ILE-TYR'
p600
(dp601
I2
F1
sI3
F0.79469999999999996
sI4
F0.63575999999999999
sI5
F0.45033000000000001
sI6
F0.33774999999999999
sI7
F0.29138999999999998
sI8
F0.10596
sI9
F0.039739999999999998
sI10
F0.02649
sI11
F0.033110000000000001
sI12
F0.01325
sI14
F0.00662
ssS'ALA-TRP'
p602
(dp603
I2
F1
sI3
F0.71211999999999998
sI4
F0.84848000000000001
sI5
F0.5
sI6
F0.21212
sI7
F0.15151999999999999
sI8
F0.10606
sI9
F0.060609999999999997
sI11
F0.01515
sI12
F0.01515
ssS'HIS-CYS'
p604
(dp605
I2
F1
sI3
F0.53332999999999997
sI4
F0.53332999999999997
sI5
F0.40000000000000002
sI6
F0.46666999999999997
sI7
F0.20000000000000001
sI9
F0.066669999999999993
ssS'SER-GLN'
p606
(dp607
I2
F1
sI3
F0.75373000000000001
sI4
F0.81342999999999999
sI5
F0.60448000000000002
sI6
F0.45522000000000001
sI7
F0.29851
sI8
F0.14179
sI9
F0.037310000000000003
sI10
F0.0074599999999999996
ssS'LYS-PHE'
p608
(dp609
I2
F0.89473999999999998
sI3
F1
sI4
F0.65788999999999997
sI5
F0.68420999999999998
sI6
F0.46052999999999999
sI7
F0.34211000000000003
sI8
F0.30263000000000001
sI9
F0.14474000000000001
sI10
F0.10526000000000001
sI11
F0.039469999999999998
sI12
F0.01316
sI13
F0.01316
ssS'GLU-TRP'
p610
(dp611
I2
F0.73468999999999995
sI3
F0.83672999999999997
sI4
F0.87755000000000005
sI5
F1
sI6
F0.65305999999999997
sI7
F0.51019999999999999
sI8
F0.18367
sI9
F0.081629999999999994
sI10
F0.040820000000000002
sI11
F0.10204000000000001
sI12
F0.061219999999999997
sI13
F0.020410000000000001
sI14
F0.061219999999999997
sI15
F0.061219999999999997
sI16
F0.040820000000000002
ssS'PHE-HIS'
p612
(dp613
I2
F1
sI3
F0.87143000000000004
sI4
F0.59999999999999998
sI5
F0.47143000000000002
sI6
F0.27143
sI7
F0.35714000000000001
sI8
F0.20000000000000001
sI9
F0.11429
sI10
F0.057140000000000003
sI11
F0.014290000000000001
sI12
F0.014290000000000001
sI13
F0.10000000000000001
sI15
F0.014290000000000001
ssS'SER-GLY'
p614
(dp615
I2
F0.80271999999999999
sI3
F1
sI4
F0.74150000000000005
sI5
F0.51700999999999997
sI6
F0.21768999999999999
sI7
F0.054420000000000003
sI8
F0.034009999999999999
sI9
F0.0067999999999999996
ssS'ASP-LYS'
p616
(dp617
I2
F0.78419000000000005
sI3
F0.51976
sI4
F0.65956999999999999
sI5
F1
sI6
F0.75380000000000003
sI7
F0.20061000000000001
sI8
F0.1003
sI9
F0.045589999999999999
sI10
F0.027359999999999999
sI11
F0.0060800000000000003
sI13
F0.0030400000000000002
ssS'ALA-GLU'
p618
(dp619
I2
F1
sI3
F0.45000000000000001
sI4
F0.54500000000000004
sI5
F0.39000000000000001
sI6
F0.29499999999999998
sI7
F0.11
sI8
F0.059999999999999998
sI9
F0.01
sI10
F0.01
sI11
F0.01
sI12
F0.0050000000000000001
ssS'LYS-CYS'
p620
(dp621
I2
F1
sI3
F0.46154000000000001
sI4
F0.88461999999999996
sI5
F0.46154000000000001
sI6
F0.11538
sI7
F0.11538
sI8
F0.038460000000000001
sI9
F0.076920000000000002
ssS'GLY-PHE'
p622
(dp623
I2
F0.93478000000000006
sI3
F1
sI4
F0.95652000000000004
sI5
F0.47826000000000002
sI6
F0.27173999999999998
sI7
F0.18478
sI8
F0.15217
sI9
F0.03261
ssS'ASN-THR'
p624
(dp625
I2
F1
sI3
F0.47020000000000001
sI4
F0.58940000000000003
sI5
F0.46357999999999999
sI6
F0.39734999999999998
sI7
F0.26490000000000002
sI8
F0.17219000000000001
sI9
F0.0596
sI10
F0.01325
sI11
F0.00662
ssS'VAL-ALA'
p626
(dp627
I2
F1
sI3
F0.47266000000000002
sI4
F0.33202999999999999
sI5
F0.10546999999999999
sI6
F0.070309999999999997
sI7
F0.042970000000000001
sI8
F0.03125
sI9
F0.01562
sI10
F0.0039100000000000003
ssS'SER-LEU'
p628
(dp629
I2
F1
sI3
F0.71641999999999995
sI4
F0.56716
sI5
F0.28358
sI6
F0.093280000000000002
sI7
F0.097009999999999999
sI8
F0.014930000000000001
sI9
F0.01119
ssS'ARG-THR'
p630
(dp631
I2
F1
sI3
F0.56481000000000003
sI4
F0.45833000000000002
sI5
F0.39815
sI6
F0.36574000000000001
sI7
F0.23610999999999999
sI8
F0.11111
sI9
F0.078700000000000006
sI10
F0.032410000000000001
sI11
F0.01389
sI13
F0.0046299999999999996
ssS'GLN-GLN'
p632
(dp633
I2
F1
sI3
F0.35999999999999999
sI4
F0.56000000000000005
sI5
F0.42399999999999999
sI6
F0.92000000000000004
sI7
F0.30399999999999999
sI8
F0.29599999999999999
sI9
F0.080000000000000002
sI10
F0.104
sI11
F0.024
sI12
F0.048000000000000001
sI13
F0.040000000000000001
sI14
F0.056000000000000001
sI15
F0.0080000000000000002
sI16
F0.0080000000000000002
ssS'HIS-GLN'
p634
(dp635
I2
F0.89831000000000005
sI3
F1
sI4
F0.72880999999999996
sI5
F0.52542
sI6
F0.47458
sI7
F0.35593000000000002
sI8
F0.28814000000000001
sI9
F0.25424000000000002
sI10
F0.11864
sI11
F0.050849999999999999
sI12
F0.10169
sI13
F0.0339
ssS'GLN-GLY'
p636
(dp637
I2
F1
sI3
F0.95160999999999996
sI4
F0.70160999999999996
sI5
F0.69355
sI6
F0.44355
sI7
F0.20161000000000001
sI8
F0.072580000000000006
ssS'PHE-ALA'
p638
(dp639
I2
F1
sI3
F0.74724999999999997
sI4
F0.63736000000000004
sI5
F0.44505
sI6
F0.15384999999999999
sI7
F0.12088
sI8
F0.071429999999999993
sI9
F0.016480000000000002
ssS'HIS-GLU'
p640
(dp641
I2
F0.63158000000000003
sI3
F0.71428999999999998
sI4
F0.48120000000000002
sI5
F0.84211000000000003
sI6
F1
sI7
F0.39850000000000002
sI8
F0.20301
sI9
F0.20301
sI10
F0.17293
sI11
F0.02256
sI12
F0.01504
ssS'HIS-GLY'
p642
(dp643
I2
F0.64864999999999995
sI3
F1
sI4
F0.85135000000000005
sI5
F0.55405000000000004
sI6
F0.20269999999999999
sI7
F0.25675999999999999
sI8
F0.081079999999999999
sI9
F0.04054
sI10
F0.013509999999999999
ssS'SER-ASN'
p644
(dp645
I2
F1
sI3
F0.58570999999999995
sI4
F0.72143000000000002
sI5
F0.82857000000000003
sI6
F0.50714000000000004
sI7
F0.25713999999999998
sI8
F0.15714
sI9
F0.10714
sI10
F0.028570000000000002
ssS'THR-PRO'
p646
(dp647
I2
F1
sI3
F0.73224
sI4
F0.4153
sI5
F0.28415000000000001
sI6
F0.087429999999999994
sI7
F0.016389999999999998
sI8
F0.021860000000000001
sI9
F0.016389999999999998
sI10
F0.0054599999999999996
ssS'CYS-HIS'
p648
(dp649
I2
F1
sI3
F0.53332999999999997
sI4
F0.53332999999999997
sI5
F0.40000000000000002
sI6
F0.46666999999999997
sI7
F0.20000000000000001
sI9
F0.066669999999999993
ssS'TRP-LEU'
p650
(dp651
I2
F1
sI3
F0.86614000000000002
sI4
F0.45668999999999998
sI5
F0.29920999999999998
sI6
F0.22835
sI7
F0.14172999999999999
sI8
F0.047239999999999997
sI9
F0.078740000000000004
sI10
F0.0078700000000000003
sI11
F0.0078700000000000003
sI13
F0.0078700000000000003
sI14
F0.0078700000000000003
ssS'LYS-THR'
p652
(dp653
I2
F1
sI3
F0.70130000000000003
sI4
F0.55195000000000005
sI5
F0.43506
sI6
F0.27272999999999997
sI7
F0.0974
sI8
F0.064939999999999998
sI9
F0.032469999999999999
sI10
F0.0064900000000000001
sI11
F0.01299
sI12
F0.0064900000000000001
ssS'LEU-ARG'
p654
(dp655
I2
F1
sI3
F0.54608000000000001
sI4
F0.5
sI5
F0.36405999999999999
sI6
F0.28571000000000002
sI7
F0.15437999999999999
sI8
F0.089859999999999995
sI9
F0.032259999999999997
sI10
F0.018429999999999998
sI11
F0.0069100000000000003
sI12
F0.0069100000000000003
sI13
F0.0023
ssS'TYR-ARG'
p656
(dp657
I2
F1
sI3
F0.63736000000000004
sI4
F0.70879000000000003
sI5
F0.55495000000000005
sI6
F0.47253000000000001
sI7
F0.37363000000000002
sI8
F0.26923000000000002
sI9
F0.24176
sI10
F0.13186999999999999
sI11
F0.21429000000000001
sI12
F0.1978
sI13
F0.13186999999999999
sI14
F0.049450000000000001
sI15
F0.032969999999999999
sI16
F0.0054900000000000001
ssS'ASP-PHE'
p658
(dp659
I2
F1
sI3
F0.86419999999999997
sI4
F0.81481000000000003
sI5
F0.48148000000000002
sI6
F0.41975000000000001
sI7
F0.12346
sI8
F0.1358
sI9
F0.074069999999999997
sI10
F0.06173
sI11
F0.037039999999999997
sI12
F0.037039999999999997
sI13
F0.01235
ssS'ASN-LEU'
p660
(dp661
I2
F1
sI3
F0.44214999999999999
sI4
F0.45455000000000001
sI5
F0.34710999999999997
sI6
F0.19835
sI7
F0.19008
sI8
F0.099169999999999994
sI9
F0.049590000000000002
sI10
F0.01653
ssS'SER-MET'
p662
(dp663
I2
F1
sI3
F0.75471999999999995
sI4
F0.69811000000000001
sI5
F0.33961999999999998
sI6
F0.13208
sI7
F0.15093999999999999
sI10
F0.037740000000000003
ssS'HIS-ILE'
p664
(dp665
I2
F1
sI3
F0.78571000000000002
sI4
F0.84286000000000005
sI5
F0.27143
sI6
F0.21429000000000001
sI7
F0.20000000000000001
sI8
F0.14285999999999999
sI9
F0.014290000000000001
sI10
F0.028570000000000002
sI11
F0.042860000000000002
ssS'CYS-VAL'
p666
(dp667
I2
F1
sI3
F0.61111000000000004
sI4
F0.5
sI5
F0.13889000000000001
sI6
F0.027779999999999999
ssS'THR-GLN'
p668
(dp669
I2
F1
sI3
F0.58518999999999999
sI4
F0.65925999999999996
sI5
F0.57777999999999996
sI6
F0.48148000000000002
sI7
F0.23704
sI8
F0.19259000000000001
sI9
F0.066669999999999993
sI10
F0.01481
sI11
F0.02963
ssS'LYS-LEU'
p670
(dp671
I2
F1
sI3
F0.58909
sI4
F0.44363999999999998
sI5
F0.22181999999999999
sI6
F0.13091
sI7
F0.072730000000000003
sI8
F0.01091
sI9
F0.01455
sI10
F0.01091
ssS'THR-GLY'
p672
(dp673
I2
F1
sI3
F0.88234999999999997
sI4
F0.58823999999999999
sI5
F0.18953999999999999
sI6
F0.16993
sI7
F0.039219999999999998
sI8
F0.019609999999999999
sI9
F0.032680000000000001
ssS'ASP-TRP'
p674
(dp675
I2
F0.77778000000000003
sI3
F0.77778000000000003
sI4
F0.83333000000000002
sI5
F1
sI6
F0.41666999999999998
sI7
F0.22222
sI8
F0.13889000000000001
sI9
F0.055559999999999998
sI10
F0.027779999999999999
ssS'PHE-ILE'
p676
(dp677
I2
F1
sI3
F0.78139999999999998
sI4
F0.53952999999999995
sI5
F0.20465
sI6
F0.13952999999999999
sI7
F0.079070000000000001
sI8
F0.051159999999999997
sI9
F0.03721
sI10
F0.023259999999999999
sI11
F0.0092999999999999992
sI13
F0.0046499999999999996
ssS'THR-GLU'
p678
(dp679
I2
F1
sI3
F0.56725000000000003
sI4
F0.57310000000000005
sI5
F0.50292000000000003
sI6
F0.56725000000000003
sI7
F0.41520000000000001
sI8
F0.22806999999999999
sI9
F0.11111
sI10
F0.0117
sI11
F0.0058500000000000002
sI12
F0.0058500000000000002
ssS'LEU-TYR'
p680
(dp681
I2
F1
sI3
F0.61967000000000005
sI4
F0.60328000000000004
sI5
F0.41310999999999998
sI6
F0.24590000000000001
sI7
F0.16392999999999999
sI8
F0.13442999999999999
sI9
F0.088520000000000001
sI10
F0.016389999999999998
sI11
F0.0065599999999999999
sI12
F0.0032799999999999999
sI15
F0.0065599999999999999
ssS'PRO-ASN'
p682
(dp683
I2
F1
sI3
F0.56098000000000003
sI4
F0.68293000000000004
sI5
F0.56911
sI6
F0.23577000000000001
sI7
F0.097559999999999994
sI8
F0.081299999999999997
sI9
F0.03252
sI10
F0.0081300000000000001
ssS'CYS-CYS'
p684
(dp685
I2
F0.63636000000000004
sI3
F0.21212
sI4
F0.57576000000000005
sI5
F0.33333000000000002
sI6
F1
sI7
F0.27272999999999997
sI8
F0.63636000000000004
sI9
F0.21212
sI10
F0.18182000000000001
sI12
F0.030300000000000001
ssS'SER-ASP'
p686
(dp687
I2
F0.87302000000000002
sI3
F0.64285999999999999
sI4
F0.66666999999999998
sI5
F1
sI6
F0.66666999999999998
sI7
F0.61111000000000004
sI8
F0.12698000000000001
sI9
F0.095240000000000005
sI10
F0.015869999999999999
ssS'ARG-MET'
p688
(dp689
I2
F1
sI3
F0.50685000000000002
sI4
F0.47944999999999999
sI5
F0.39726
sI6
F0.38356000000000001
sI7
F0.17807999999999999
sI8
F0.15068000000000001
sI9
F0.054789999999999998
sI10
F0.0137
sI11
F0.0137
sI12
F0.0137
ssS'ARG-LYS'
p690
(dp691
I2
F1
sI3
F0.80645
sI4
F0.60214999999999996
sI5
F0.47849000000000003
sI6
F0.27418999999999999
sI7
F0.27956999999999999
sI8
F0.1129
sI9
F0.064519999999999994
sI10
F0.021510000000000001
sI11
F0.0053800000000000002
sI12
F0.010749999999999999
ssS'ASN-LYS'
p692
(dp693
I2
F1
sI3
F0.60526000000000002
sI4
F0.64210999999999996
sI5
F0.58947000000000005
sI6
F0.33157999999999999
sI7
F0.24210999999999999
sI8
F0.11053
sI9
F0.047370000000000002
sI10
F0.015789999999999998
sI11
F0.0052599999999999999
ssS'CYS-THR'
p694
(dp695
I2
F1
sI3
F0.25713999999999998
sI4
F0.14285999999999999
sI5
F0.11429
sI8
F0.085709999999999995
sI9
F0.028570000000000002
ssS'ILE-TRP'
p696
(dp697
I2
F1
sI3
F0.58823999999999999
sI4
F0.60294000000000003
sI5
F0.38235000000000002
sI6
F0.23529
sI7
F0.088239999999999999
sI8
F0.088239999999999999
sI9
F0.073529999999999998
sI10
F0.014710000000000001
sI11
F0.014710000000000001
sI13
F0.014710000000000001
ssS'PRO-ASP'
p698
(dp699
I2
F1
sI3
F0.875
sI4
F0.61765000000000003
sI5
F0.47793999999999998
sI6
F0.25
sI7
F0.16175999999999999
sI8
F0.029409999999999999
sI9
F0.029409999999999999
ssS'HIS-LEU'
p700
(dp701
I2
F0.87178999999999995
sI3
F1
sI4
F0.73504000000000003
sI5
F0.52990999999999999
sI6
F0.26495999999999997
sI7
F0.11111
sI8
F0.076920000000000002
sI9
F0.068379999999999996
sI10
F0.02564
sI12
F0.0085500000000000003
ssS'ARG-VAL'
p702
(dp703
I2
F1
sI3
F0.49275000000000002
sI4
F0.48551
sI5
F0.38406000000000001
sI6
F0.21376999999999999
sI7
F0.1087
sI8
F0.06522
sI9
F0.025360000000000001
sI10
F0.00362
sI11
F0.0072500000000000004
sI12
F0.010869999999999999
ssS'TRP-MET'
p704
(dp705
I2
F0.41666999999999998
sI3
F0.66666999999999998
sI4
F1
sI5
F0.29166999999999998
sI6
F0.20832999999999999
sI7
F0.20832999999999999
sI8
F0.29166999999999998
sI9
F0.125
sI10
F0.16667000000000001
sI11
F0.16667000000000001
sI12
F0.041669999999999999
ssS'ARG-ARG'
p706
(dp707
I2
F1
sI3
F0.36029
sI4
F0.48897000000000002
sI5
F0.32352999999999998
sI6
F0.33823999999999999
sI7
F0.30514999999999998
sI8
F0.29779
sI9
F0.24632000000000001
sI10
F0.26838000000000001
sI11
F0.069849999999999995
sI12
F0.055149999999999998
sI13
F0.033090000000000001
sI14
F0.029409999999999999
sI15
F0.018380000000000001
sI16
F0.0036800000000000001
sI17
F0.0036800000000000001
sI18
F0.0036800000000000001
ssS'PRO-PHE'
p708
(dp709
I2
F0.96153999999999995
sI3
F0.93076999999999999
sI4
F1
sI5
F0.55384999999999995
sI6
F0.31537999999999999
sI7
F0.18462000000000001
sI8
F0.11538
sI9
F0.10000000000000001
sI10
F0.053850000000000002
sI11
F0.01538
ssS'GLU-ARG'
p710
(dp711
I2
F0.66132000000000002
sI3
F0.34759000000000001
sI4
F0.58111000000000002
sI5
F0.47949999999999998
sI6
F1
sI7
F0.40998000000000001
sI8
F0.34938000000000002
sI9
F0.16933999999999999
sI10
F0.098040000000000002
sI11
F0.044560000000000002
sI12
F0.02674
sI13
F0.0053499999999999997
sI14
F0.0089099999999999995
sI15
F0.0071300000000000001
sI16
F0.0017799999999999999
ssS'HIS-VAL'
p712
(dp713
I2
F0.87838000000000005
sI3
F1
sI4
F0.56757000000000002
sI5
F0.36486000000000002
sI6
F0.29730000000000001
sI7
F0.10811
sI8
F0.081079999999999999
sI9
F0.04054
sI10
F0.027029999999999998
sI13
F0.013509999999999999
ssS'VAL-GLN'
p714
(dp715
I2
F1
sI3
F0.67669000000000001
sI4
F0.64661999999999997
sI5
F0.49624000000000001
sI6
F0.18797
sI7
F0.10526000000000001
sI8
F0.18045
sI9
F0.01504
sI10
F0.0075199999999999998
sI11
F0.0075199999999999998
ssS'TRP-ASN'
p716
(dp717
I2
F1
sI3
F0.96875
sI4
F0.9375
sI5
F0.8125
sI6
F0.75
sI7
F0.34375
sI8
F0.5
sI9
F0.21875
sI10
F0.15625
sI11
F0.125
sI12
F0.0625
sI13
F0.21875
sI14
F0.09375
sI15
F0.0625
sI17
F0.03125
ssS'VAL-GLY'
p718
(dp719
I2
F1
sI3
F0.72316000000000003
sI4
F0.50846999999999998
sI5
F0.22599
sI6
F0.13558999999999999
sI7
F0.056500000000000002
sI8
F0.011299999999999999
sI9
F0.01695
sI10
F0.011299999999999999
ssS'TRP-ASP'
p720
(dp721
I2
F0.77778000000000003
sI3
F0.77778000000000003
sI4
F0.83333000000000002
sI5
F1
sI6
F0.41666999999999998
sI7
F0.22222
sI8
F0.13889000000000001
sI9
F0.055559999999999998
sI10
F0.027779999999999999
ssS'LEU-ALA'
p722
(dp723
I2
F1
sI3
F0.43725999999999998
sI4
F0.30037999999999998
sI5
F0.13877999999999999
sI6
F0.03422
sI7
F0.01711
sI8
F0.01141
sI9
F0.0019
ssS'VAL-GLU'
p724
(dp725
I2
F1
sI3
F0.65403
sI4
F0.41705999999999999
sI5
F0.31280000000000002
sI6
F0.19431000000000001
sI7
F0.13744000000000001
sI8
F0.094789999999999999
sI9
F0.047390000000000002
sI10
F0.0047400000000000003
ssS'ALA-HIS'
p726
(dp727
I2
F0.94999999999999996
sI3
F1
sI4
F0.625
sI5
F0.58750000000000002
sI6
F0.3125
sI7
F0.16250000000000001
sI8
F0.087499999999999994
sI9
F0.037499999999999999
sI10
F0.037499999999999999
sI12
F0.012500000000000001
ssS'TYR-CYS'
p728
(dp729
I9
F0.10526000000000001
sI2
F0.94737000000000005
sI3
F1
sI4
F0.42104999999999998
sI5
F0.63158000000000003
ssS'TYR-PHE'
p730
(dp731
I2
F0.98290999999999995
sI3
F1
sI4
F0.95726
sI5
F0.62392999999999998
sI6
F0.42735000000000001
sI7
F0.29060000000000002
sI8
F0.31624000000000002
sI9
F0.13675000000000001
sI10
F0.059830000000000001
sI11
F0.04274
sI12
F0.034189999999999998
sI13
F0.02564
sI17
F0.0085500000000000003
sI18
F0.0085500000000000003
ssS'LEU-TRP'
p732
(dp733
I2
F1
sI3
F0.86614000000000002
sI4
F0.45668999999999998
sI5
F0.29920999999999998
sI6
F0.22835
sI7
F0.14172999999999999
sI8
F0.047239999999999997
sI9
F0.078740000000000004
sI10
F0.0078700000000000003
sI11
F0.0078700000000000003
sI13
F0.0078700000000000003
sI14
F0.0078700000000000003
ssS'ILE-SER'
p734
(dp735
I2
F1
sI3
F0.64375000000000004
sI4
F0.52500000000000002
sI5
F0.33750000000000002
sI6
F0.21249999999999999
sI7
F0.081250000000000003
sI8
F0.050000000000000003
sI9
F0.025000000000000001
sI10
F0.0062500000000000003
ssS'ILE-ARG'
p736
(dp737
I2
F1
sI3
F0.53210999999999997
sI4
F0.44036999999999998
sI5
F0.35321000000000002
sI6
F0.21101
sI7
F0.15137999999999999
sI8
F0.082570000000000005
sI9
F0.01376
sI10
F0.01376
sI11
F0.01376
sI14
F0.0045900000000000003
ssS'ILE-MET'
p738
(dp739
I2
F1
sI3
F0.42157
sI4
F0.26471
sI5
F0.15686
sI6
F0.07843
sI7
F0.039219999999999998
ssS'MET-PHE'
p740
(dp741
I2
F1
sI3
F0.82894999999999996
sI4
F0.63158000000000003
sI5
F0.42104999999999998
sI6
F0.15789
sI7
F0.15789
sI8
F0.092109999999999997
sI9
F0.052630000000000003
sI10
F0.01316
ssS'PRO-ALA'
p742
(dp743
I2
F1
sI3
F0.62121000000000004
sI4
F0.36364000000000002
sI5
F0.31313000000000002
sI6
F0.10606
sI7
F0.035349999999999999
sI8
F0.0050499999999999998
sI9
F0.0050499999999999998
ssS'TRP-SER'
p744
(dp745
I2
F0.72726999999999997
sI3
F0.88636000000000004
sI4
F1
sI5
F0.54544999999999999
sI6
F0.52273000000000003
sI7
F0.56818000000000002
sI8
F0.15909000000000001
sI9
F0.11364
sI11
F0.02273
sI13
F0.02273
sI15
F0.02273
ssS'VAL-PRO'
p746
(dp747
I2
F1
sI3
F0.59677000000000002
sI4
F0.33333000000000002
sI5
F0.14516000000000001
sI6
F0.080649999999999999
sI7
F0.037629999999999997
sI8
F0.010749999999999999
sI9
F0.0053800000000000002
ssS'CYS-PRO'
p748
(dp749
I2
F1
sI3
F0.75861999999999996
sI4
F0.51724000000000003
sI5
F0.13793
sI6
F0.068970000000000004
sI7
F0.10345
ssS'LEU-LEU'
p750
(dp751
I2
F1
sI3
F0.31908999999999998
sI4
F0.18787000000000001
sI5
F0.075550000000000006
sI6
F0.05169
sI7
F0.01789
sI8
F0.01491
sI9
F0.0049699999999999996
sI10
F0.00696
sI11
F0.00098999999999999999
sI12
F0.00098999999999999999
ssS'ALA-GLN'
p752
(dp753
I2
F1
sI3
F0.49692999999999998
sI4
F0.47853000000000001
sI5
F0.38036999999999999
sI6
F0.26379999999999998
sI7
F0.13497000000000001
sI8
F0.030669999999999999
sI9
F0.0184
ssS'ASP-ASN'
p754
(dp755
I2
F1
sI3
F0.4375
sI4
F0.69443999999999995
sI5
F0.65278000000000003
sI6
F0.66666999999999998
sI7
F0.34028000000000003
sI8
F0.20832999999999999
sI9
F0.055559999999999998
sI10
F0.041669999999999999
sI11
F0.027779999999999999
ssS'PRO-MET'
p756
(dp757
I2
F1
sI3
F0.81967000000000001
sI4
F0.47541
sI5
F0.24590000000000001
sI6
F0.049180000000000001
sI7
F0.03279
ssS'ALA-PRO'
p758
(dp759
I2
F1
sI3
F0.62121000000000004
sI4
F0.36364000000000002
sI5
F0.31313000000000002
sI6
F0.10606
sI7
F0.035349999999999999
sI8
F0.0050499999999999998
sI9
F0.0050499999999999998
ssS'ASP-ASP'
p760
(dp761
I2
F1
sI3
F0.31857999999999997
sI4
F0.46903
sI5
F0.30973000000000001
sI6
F0.65486999999999995
sI7
F0.17699000000000001
sI8
F0.21239
sI9
F0.061949999999999998
sI10
F0.088499999999999995
sI11
F0.035400000000000001
sI12
F0.061949999999999998
ssS'ALA-GLY'
p762
(dp763
I2
F1
sI3
F0.85882000000000003
sI4
F0.47059000000000001
sI5
F0.24706
sI6
F0.14706
sI7
F0.0058799999999999998
sI8
F0.017649999999999999
ssS'TRP-TRP'
p764
(dp765
I2
F1
sI3
F0.25641000000000003
sI4
F0.79486999999999997
sI5
F0.30769000000000002
sI6
F0.48718
sI7
F0.25641000000000003
sI8
F0.17949000000000001
sI9
F0.10256
sI10
F0.076920000000000002
sI11
F0.10256
sI12
F0.051279999999999999
sI13
F0.051279999999999999
sI14
F0.051279999999999999
sI15
F0.051279999999999999
sI16
F0.02564
sI18
F0.051279999999999999
ssS'ASN-ILE'
p766
(dp767
I2
F1
sI3
F0.60465000000000002
sI4
F0.59689999999999999
sI5
F0.35659000000000002
sI6
F0.1938
sI7
F0.21704999999999999
sI8
F0.054260000000000003
sI9
F0.12403
sI10
F0.038760000000000003
ssS'GLN-GLU'
p768
(dp769
I2
F1
sI3
F0.56000000000000005
sI4
F0.69999999999999996
sI5
F0.62666999999999995
sI6
F0.62
sI7
F0.39333000000000001
sI8
F0.17333000000000001
sI9
F0.18667
sI10
F0.033329999999999999
sI11
F0.033329999999999999
sI12
F0.0066699999999999997
ssS'HIS-ALA'
p770
(dp771
I2
F0.94999999999999996
sI3
F1
sI4
F0.625
sI5
F0.58750000000000002
sI6
F0.3125
sI7
F0.16250000000000001
sI8
F0.087499999999999994
sI9
F0.037499999999999999
sI10
F0.037499999999999999
sI12
F0.012500000000000001
ssS'GLN-ILE'
p772
(dp773
I2
F1
sI3
F0.46762999999999999
sI4
F0.57554000000000005
sI5
F0.36691000000000001
sI6
F0.34532000000000002
sI7
F0.20144000000000001
sI8
F0.086330000000000004
sI9
F0.050360000000000002
sI10
F0.0071900000000000002
ssS'GLU-VAL'
p774
(dp775
I2
F1
sI3
F0.65403
sI4
F0.41705999999999999
sI5
F0.31280000000000002
sI6
F0.19431000000000001
sI7
F0.13744000000000001
sI8
F0.094789999999999999
sI9
F0.047390000000000002
sI10
F0.0047400000000000003
ssS'LYS-ASN'
p776
(dp777
I2
F1
sI3
F0.60526000000000002
sI4
F0.64210999999999996
sI5
F0.58947000000000005
sI6
F0.33157999999999999
sI7
F0.24210999999999999
sI8
F0.11053
sI9
F0.047370000000000002
sI10
F0.015789999999999998
sI11
F0.0052599999999999999
ssS'ASN-ALA'
p778
(dp779
I2
F1
sI3
F0.70865999999999996
sI4
F0.45668999999999998
sI5
F0.46456999999999998
sI6
F0.31496000000000002
sI7
F0.22835
sI8
F0.078740000000000004
sI10
F0.0078700000000000003
ssS'THR-ILE'
p780
(dp781
I2
F1
sI3
F0.47748000000000002
sI4
F0.33783999999999997
sI5
F0.11261
sI6
F0.067570000000000005
sI7
F0.022519999999999998
sI8
F0.013509999999999999
sI9
F0.013509999999999999
sI10
F0.0090100000000000006
ssS'ASP-CYS'
p782
(dp783
I2
F1
sI3
F0.83333000000000002
sI4
F0.16667000000000001
sI5
F0.33333000000000002
sI6
F0.22222
sI7
F0.22222
sI8
F0.11111
sI9
F0.055559999999999998
sI11
F0.055559999999999998
ssS'TYR-TYR'
p784
(dp785
I2
F1
sI3
F0.49074000000000001
sI4
F0.84258999999999995
sI5
F0.44444
sI6
F0.63888999999999996
sI7
F0.25925999999999999
sI8
F0.25
sI9
F0.13889000000000001
sI10
F0.15740999999999999
sI11
F0.092590000000000006
sI12
F0.11111
sI13
F0.055559999999999998
sI14
F0.092590000000000006
sI15
F0.027779999999999999
sI16
F0.027779999999999999
sI18
F0.0092599999999999991
sI20
F0.0092599999999999991
ssS'GLN-PRO'
p786
(dp787
I2
F1
sI3
F0.65359
sI4
F0.52288000000000001
sI5
F0.47711999999999999
sI6
F0.27450999999999998
sI7
F0.12418
sI8
F0.18301000000000001
sI9
F0.0065399999999999998
sI10
F0.01307
sI11
F0.0065399999999999998
ssS'PHE-GLU'
p788
(dp789
I2
F1
sI3
F0.88800000000000001
sI4
F0.752
sI5
F0.53600000000000003
sI6
F0.39200000000000002
sI7
F0.16800000000000001
sI8
F0.14399999999999999
sI9
F0.16
sI10
F0.080000000000000002
sI11
F0.016
sI13
F0.032000000000000001
sI14
F0.024
ssS'GLU-LEU'
p790
(dp791
I2
F1
sI3
F0.65427999999999997
sI4
F0.67286000000000001
sI5
F0.41636000000000001
sI6
F0.25279000000000001
sI7
F0.13755000000000001
sI8
F0.085500000000000007
sI9
F0.01487
sI10
F0.040890000000000003
sI11
F0.01487
ssS'PHE-GLY'
p792
(dp793
I2
F0.93478000000000006
sI3
F1
sI4
F0.95652000000000004
sI5
F0.47826000000000002
sI6
F0.27173999999999998
sI7
F0.18478
sI8
F0.15217
sI9
F0.03261
ssS'MET-HIS'
p794
(dp795
I2
F0.95833000000000002
sI3
F1
sI4
F0.83333000000000002
sI5
F0.45833000000000002
sI6
F0.16667000000000001
sI7
F0.25
sI8
F0.25
sI10
F0.083330000000000001
ssS'ALA-ARG'
p796
(dp797
I2
F1
sI3
F0.63404000000000005
sI4
F0.62553000000000003
sI5
F0.47660000000000002
sI6
F0.34893999999999997
sI7
F0.14043
sI8
F0.10213
sI9
F0.038300000000000001
sI10
F0.01277
sI11
F0.0085100000000000002
ssS'PHE-GLN'
p798
(dp799
I2
F1
sI3
F0.78000000000000003
sI4
F0.64000000000000001
sI5
F0.46000000000000002
sI6
F0.44
sI7
F0.20000000000000001
sI8
F0.17000000000000001
sI9
F0.12
sI10
F0.16
sI11
F0.089999999999999997
sI12
F0.01
sI13
F0.029999999999999999
sI14
F0.01
ssS'LEU-PHE'
p800
(dp801
I2
F1
sI3
F0.72340000000000004
sI4
F0.35371999999999998
sI5
F0.25797999999999999
sI6
F0.12234
sI7
F0.095740000000000006
sI8
F0.061170000000000002
sI9
F0.026599999999999999
sI10
F0.02128
sI11
F0.00266
sI12
F0.00266
ss.