(dp1
S'6.all.cmpd.c_ij.no.avg'
p2
F0.65700000000000003
sS'8.mm.cmpd.cifa.avg'
p3
F0.68400000000000005
sS'8.ms.cmpd.cifa.no.avg'
p4
F-0.48199999999999998
sS'4.ss.cmpd.cifa.no.avg'
p5
F0.52900000000000003
sS'4.all.cmpd.c_ij.no.avg'
p6
F-0.498
sS'4.all.norm.c_ij.no.avg'
p7
F0.63500000000000001
sS'4.ms.norm.cifa.avg'
p8
F0.60799999999999998
sS'4.ms.cmpd.c_ij.no.avg'
p9
F-0.61399999999999999
sS'6.ms.cmpd.c_ij.no.avg'
p10
F-0.38500000000000001
sS'4.mm.cmpd.cifa.no.avg'
p11
F-0.56200000000000006
sS'6.ss.cmpd.cifa.no.avg'
p12
F0.46200000000000002
sS'4.ss.cmpd.c_ij.no.avg'
p13
F0.45100000000000001
sS'6.ms.norm.cifa.no.avg'
p14
F0.40999999999999998
sS'6.all.cmpd.cifa.avg'
p15
F-0.48399999999999999
sS'4.ss.cmpd.cifa.avg'
p16
F0.44900000000000001
sS'8.ss.norm.c_ij.avg'
p17
F-0.35299999999999998
sS'8.mm.cmpd.cifa.no.avg'
p18
F0.61699999999999999
sS'4.ss.norm.cifa.avg'
p19
F-0.69099999999999995
sS'4.all.norm.c_ij.avg'
p20
F0.66000000000000003
sS'8.ms.cmpd.cifa.avg'
p21
F0.44500000000000001
sS'8.all.norm.c_ij.avg'
p22
F0.72699999999999998
sS'8.mm.norm.cifa.no.avg'
p23
F-0.316
sS'6.ss.cmpd.c_ij.avg'
p24
F-0.39200000000000002
sS'6.ms.cmpd.cifa.avg'
p25
F-0.47199999999999998
sS'6.mm.norm.c_ij.no.avg'
p26
F-0.54700000000000004
sS'8.ss.cmpd.cifa.no.avg'
p27
F0.57399999999999995
sS'6.all.cmpd.c_ij.avg'
p28
F0.56799999999999995
sS'6.ss.norm.cifa.avg'
p29
F-0.70299999999999996
sS'4.ms.cmpd.cifa.avg'
p30
F-0.46700000000000003
sS'6.ss.cmpd.c_ij.no.avg'
p31
F0.56100000000000005
sS'4.mm.norm.c_ij.avg'
p32
F0.64100000000000001
sS'4.ms.norm.cifa.no.avg'
p33
F-0.55500000000000005
sS'8.ss.norm.c_ij.no.avg'
p34
F-0.48199999999999998
sS'6.mm.norm.cifa.avg'
p35
F0.64400000000000002
sS'6.ms.norm.cifa.avg'
p36
F0.61799999999999999
sS'8.mm.cmpd.c_ij.no.avg'
p37
F-0.52400000000000002
sS'4.mm.norm.c_ij.no.avg'
p38
F0.626
sS'4.all.norm.cifa.avg'
p39
F-0.501
sS'6.all.cmpd.cifa.no.avg'
p40
F0.60899999999999999
sS'4.mm.cmpd.c_ij.no.avg'
p41
F-0.59899999999999998
sS'6.ss.cmpd.cifa.avg'
p42
F-0.66000000000000003
sS'4.mm.norm.cifa.no.avg'
p43
F0.50600000000000001
sS'4.ms.cmpd.c_ij.avg'
p44
F0.63300000000000001
sS'6.ms.cmpd.cifa.no.avg'
p45
F-0.54700000000000004
sS'6.all.norm.cifa.no.avg'
p46
F-0.495
sS'8.ss.cmpd.cifa.avg'
p47
F-0.75900000000000001
sS'8.ms.norm.c_ij.avg'
p48
F-0.49399999999999999
sS'8.ss.cmpd.c_ij.avg'
p49
F-0.48999999999999999
sS'6.mm.cmpd.c_ij.avg'
p50
F0.56299999999999994
sS'8.ss.norm.cifa.avg'
p51
F0.41499999999999998
sS'6.ss.norm.c_ij.no.avg'
p52
F-0.54300000000000004
sS'8.mm.norm.c_ij.avg'
p53
F0.67000000000000004
sS'6.ms.norm.c_ij.avg'
p54
F0.48999999999999999
sS'4.all.cmpd.c_ij.avg'
p55
F0.66100000000000003
sS'8.ms.norm.cifa.avg'
p56
F0.64900000000000002
sS'8.all.norm.c_ij.no.avg'
p57
F-0.53800000000000003
sS'8.ss.norm.cifa.no.avg'
p58
F0.61099999999999999
sS'6.all.norm.c_ij.no.avg'
p59
F0.67600000000000005
sS'8.all.cmpd.cifa.no.avg'
p60
F-0.51100000000000001
sS'4.ss.norm.c_ij.avg'
p61
F-0.54700000000000004
sS'6.mm.norm.c_ij.avg'
p62
F-0.46600000000000003
sS'8.ss.cmpd.c_ij.no.avg'
p63
F-0.51600000000000001
sS'8.ms.cmpd.c_ij.avg'
p64
F-0.45500000000000002
sS'8.all.cmpd.cifa.avg'
p65
F-0.54300000000000004
sS'4.all.cmpd.cifa.avg'
p66
F-0.52300000000000002
sS'6.ms.cmpd.c_ij.avg'
p67
F0.72399999999999998
sS'4.mm.cmpd.c_ij.avg'
p68
F-0.46500000000000002
sS'8.ms.norm.c_ij.no.avg'
p69
F-0.57499999999999996
sS'4.ss.norm.c_ij.no.avg'
p70
F-0.59199999999999997
sS'6.mm.norm.cifa.no.avg'
p71
F-0.54200000000000004
sS'8.all.cmpd.c_ij.no.avg'
p72
F-0.53000000000000003
sS'4.ms.norm.c_ij.no.avg'
p73
F-0.56899999999999995
sS'4.ms.cmpd.cifa.no.avg'
p74
F0.59599999999999997
sS'8.ms.norm.cifa.no.avg'
p75
F0.48599999999999999
sS'4.ss.norm.cifa.no.avg'
p76
F-0.55100000000000005
sS'8.mm.cmpd.c_ij.avg'
p77
F0.622
sS'8.all.norm.cifa.no.avg'
p78
F-0.36399999999999999
sS'4.all.cmpd.cifa.no.avg'
p79
F-0.50900000000000001
sS'6.mm.cmpd.cifa.avg'
p80
F-0.52500000000000002
sS'6.mm.cmpd.c_ij.no.avg'
p81
F-0.44800000000000001
sS'6.ms.norm.c_ij.no.avg'
p82
F-0.46999999999999997
sS'6.all.norm.cifa.avg'
p83
F0.55300000000000005
sS'6.mm.cmpd.cifa.no.avg'
p84
F-0.52000000000000002
sS'8.all.cmpd.c_ij.avg'
p85
F0.64400000000000002
sS'4.ms.norm.c_ij.avg'
p86
F0.58599999999999997
sS'4.all.norm.cifa.no.avg'
p87
F-0.48199999999999998
sS'6.ss.norm.c_ij.avg'
p88
F0.63200000000000001
sS'4.mm.cmpd.cifa.avg'
p89
F-0.501
sS'6.all.norm.c_ij.avg'
p90
F0.63500000000000001
sS'8.mm.norm.c_ij.no.avg'
p91
F-0.53400000000000003
sS'4.ss.cmpd.c_ij.avg'
p92
F0.73699999999999999
sS'8.mm.norm.cifa.avg'
p93
F0.70299999999999996
sS'4.mm.norm.cifa.avg'
p94
F0.58599999999999997
sS'8.ms.cmpd.c_ij.no.avg'
p95
F0.46300000000000002
sS'6.ss.norm.cifa.no.avg'
p96
F-0.67400000000000004
sS'8.all.norm.cifa.avg'
p97
F-0.439
s.