(dp1
S'ARG_HE'
p2
F0.59999999999999998
sS'TYR_HB3'
p3
F1.4870000000000001
sS'TYR_HB2'
p4
F1.4870000000000001
sS'ARG_HA'
p5
F1.387
sS'CPRO_HG2'
p6
F1.4870000000000001
sS'CPRO_HG3'
p7
F1.4870000000000001
sS'NTRP_CD2'
p8
F1.9079999999999999
sS'TRP_CD2'
p9
F1.9079999999999999
sS'TRP_CD1'
p10
F1.9079999999999999
sS'NTRP_CD1'
p11
F1.9079999999999999
sS'NILE_HD11'
p12
F1.4870000000000001
sS'NGLY_C'
p13
F1.9079999999999999
sS'ASN_HB2'
p14
F1.4870000000000001
sS'ASN_HB3'
p15
F1.4870000000000001
sS'LYS_HE3'
p16
F1.1000000000000001
sS'LYS_HE2'
p17
F1.1000000000000001
sS'NLEU_HG'
p18
F1.4870000000000001
sS'NGLY_CA'
p19
F1.9079999999999999
sS'NHIS_O'
p20
F1.6612
sS'LYN_NZ'
p21
F1.8240000000000001
sS'PHE_HA'
p22
F1.387
sS'NTHR_N'
p23
F1.8240000000000001
sS'NHIE_HD2'
p24
F1.409
sS'LEU_C'
p25
F1.9079999999999999
sS'NGLY_H2'
p26
F0.59999999999999998
sS'NGLY_H3'
p27
F0.59999999999999998
sS'TRP_HZ2'
p28
F1.4590000000000001
sS'TRP_HZ3'
p29
F1.4590000000000001
sS'NCYS_O'
p30
F1.6612
sS'LEU_H'
p31
F0.59999999999999998
sS'NPRO_HA'
p32
F1.1000000000000001
sS'LEU_N'
p33
F1.8240000000000001
sS'LEU_O'
p34
F1.6612
sS'CASN_ND2'
p35
F1.8240000000000001
sS'NGLU_O'
p36
F1.6612
sS'TRP_NE1'
p37
F1.8240000000000001
sS'NTRP_H2'
p38
F0.59999999999999998
sS'CLYS_NZ'
p39
F1.8240000000000001
sS'MET_HB2'
p40
F1.4870000000000001
sS'MET_HB3'
p41
F1.4870000000000001
sS'LEU_HB2'
p42
F1.4870000000000001
sS'LEU_HB3'
p43
F1.4870000000000001
sS'CGLN_OXT'
p44
F1.6612
sS'NGLN_H1'
p45
F0.59999999999999998
sS'CVAL_OXT'
p46
F1.6612
sS'HIS_CD2'
p47
F1.9079999999999999
sS'CMET_CG'
p48
F1.9079999999999999
sS'NMET_HB3'
p49
F1.4870000000000001
sS'NARG_HG3'
p50
F1.4870000000000001
sS'NTYR_CD1'
p51
F1.9079999999999999
sS'LYS_NZ'
p52
F1.8240000000000001
sS'CILE_CD1'
p53
F1.9079999999999999
sS'CTYR_CE1'
p54
F1.9079999999999999
sS'NPHE_CD2'
p55
F1.9079999999999999
sS'CTYR_CE2'
p56
F1.9079999999999999
sS'CARG_CZ'
p57
F1.9079999999999999
sS'NPRO_HD2'
p58
F1.1000000000000001
sS'VAL_HB'
p59
F1.4870000000000001
sS'CTHR_H'
p60
F0.59999999999999998
sS'VAL_HA'
p61
F1.387
sS'CALA_N'
p62
F1.8240000000000001
sS'CALA_O'
p63
F1.6612
sS'NARG_HH22'
p64
F0.59999999999999998
sS'CSER_CA'
p65
F1.9079999999999999
sS'CALA_H'
p66
F0.59999999999999998
sS'NARG_HH21'
p67
F0.59999999999999998
sS'CARG_CB'
p68
F1.9079999999999999
sS'NPRO_HG2'
p69
F1.4870000000000001
sS'CARG_CA'
p70
F1.9079999999999999
sS'NCYS_HA'
p71
F1.1000000000000001
sS'CALA_C'
p72
F1.9079999999999999
sS'CARG_CD'
p73
F1.9079999999999999
sS'CLYS_C'
p74
F1.9079999999999999
sS'NLYS_NZ'
p75
F1.8240000000000001
sS'CHIP_HA'
p76
F1.387
sS'NHIP_H3'
p77
F0.59999999999999998
sS'NHIP_H2'
p78
F0.59999999999999998
sS'NHIP_H1'
p79
F0.59999999999999998
sS'CHIE_CD2'
p80
F1.9079999999999999
sS'NTRP_H3'
p81
F0.59999999999999998
sS'CLYS_H'
p82
F0.59999999999999998
sS'CLYS_N'
p83
F1.8240000000000001
sS'PHE_O'
p84
F1.6612
sS'VAL_HG12'
p85
F1.4870000000000001
sS'VAL_HG13'
p86
F1.4870000000000001
sS'CHIE_HE1'
p87
F1.359
sS'THR_OG1'
p88
F1.7210000000000001
sS'NCYX_H2'
p89
F0.59999999999999998
sS'CHIP_HB3'
p90
F1.4870000000000001
sS'VAL_CG2'
p91
F1.9079999999999999
sS'CVAL_CG2'
p92
F1.9079999999999999
sS'CHIE_HA'
p93
F1.387
sS'NLYS_HG3'
p94
F1.4870000000000001
sS'NVAL_HG13'
p95
F1.4870000000000001
sS'NMET_HG2'
p96
F1.387
sS'NARG_O'
p97
F1.6612
sS'NARG_N'
p98
F1.8240000000000001
sS'NTHR_CA'
p99
F1.9079999999999999
sS'PHE_HZ'
p100
F1.4590000000000001
sS'NARG_C'
p101
F1.9079999999999999
sS'NALA_HA'
p102
F1.1000000000000001
sS'NHIE_HA'
p103
F1.1000000000000001
sS'PHE_HB3'
p104
F1.4870000000000001
sS'PHE_HB2'
p105
F1.4870000000000001
sS'CHIS_CD2'
p106
F1.9079999999999999
sS'VAL_C'
p107
F1.9079999999999999
sS'VAL_O'
p108
F1.6612
sS'VAL_N'
p109
F1.8240000000000001
sS'CTYR_HE2'
p110
F1.4590000000000001
sS'VAL_H'
p111
F0.59999999999999998
sS'NTYR_HH'
p112
F0
sS'CTYR_HE1'
p113
F1.4590000000000001
sS'NASP_C'
p114
F1.9079999999999999
sS'NHIE_ND1'
p115
F1.8240000000000001
sS'CHIP_CD2'
p116
F1.9079999999999999
sS'CGLU_N'
p117
F1.8240000000000001
sS'NASP_O'
p118
F1.6612
sS'NASP_N'
p119
F1.8240000000000001
sS'NTRP_CZ2'
p120
F1.9079999999999999
sS'NTRP_CZ3'
p121
F1.9079999999999999
sS'GLN_HG3'
p122
F1.4870000000000001
sS'CLYS_HE3'
p123
F1.1000000000000001
sS'GLH_HA'
p124
F1.387
sS'MET_SD'
p125
F2
sS'CILE_O'
p126
F1.6612
sS'CMET_CB'
p127
F1.9079999999999999
sS'NCYX_HB3'
p128
F1.387
sS'NCYX_HB2'
p129
F1.387
sS'CARG_HB2'
p130
F1.4870000000000001
sS'CARG_HB3'
p131
F1.4870000000000001
sS'NTRP_CG'
p132
F1.9079999999999999
sS'NTRP_CA'
p133
F1.9079999999999999
sS'CHIS_HA'
p134
F1.387
sS'NTRP_CB'
p135
F1.9079999999999999
sS'TYR_CE2'
p136
F1.9079999999999999
sS'TYR_CE1'
p137
F1.9079999999999999
sS'CTRP_HZ3'
p138
F1.4590000000000001
sS'NGLY_O'
p139
F1.6612
sS'NGLY_N'
p140
F1.8240000000000001
sS'CMET_CE'
p141
F1.9079999999999999
sS'LEU_HD23'
p142
F1.4870000000000001
sS'LEU_HD22'
p143
F1.4870000000000001
sS'LEU_HD21'
p144
F1.4870000000000001
sS'NHIS_CE1'
p145
F1.9079999999999999
sS'CSER_HB2'
p146
F1.387
sS'HIS_HE1'
p147
F1.359
sS'NALA_H3'
p148
F0.59999999999999998
sS'CHIE_CG'
p149
F1.9079999999999999
sS'CHIE_CA'
p150
F1.9079999999999999
sS'CHIE_CB'
p151
F1.9079999999999999
sS'SER_C'
p152
F1.9079999999999999
sS'NTRP_CH2'
p153
F1.9079999999999999
sS'SER_H'
p154
F0.59999999999999998
sS'CSER_OG'
p155
F1.7210000000000001
sS'SER_N'
p156
F1.8240000000000001
sS'SER_O'
p157
F1.6612
sS'CLYS_CB'
p158
F1.9079999999999999
sS'TRP_CG'
p159
F1.9079999999999999
sS'CLYS_CA'
p160
F1.9079999999999999
sS'TRP_CB'
p161
F1.9079999999999999
sS'CGLU_HG2'
p162
F1.4870000000000001
sS'CLYS_CD'
p163
F1.9079999999999999
sS'TRP_CA'
p164
F1.9079999999999999
sS'PHE_CE2'
p165
F1.9079999999999999
sS'PHE_CE1'
p166
F1.9079999999999999
sS'CTYR_CZ'
p167
F1.9079999999999999
sS'CTRP_HH2'
p168
F1.4590000000000001
sS'NSER_HA'
p169
F1.1000000000000001
sS'ASP_HB2'
p170
F1.4870000000000001
sS'ASP_HB3'
p171
F1.4870000000000001
sS'NGLY_H1'
p172
F0.59999999999999998
sS'CASP_HB2'
p173
F1.4870000000000001
sS'CASP_HB3'
p174
F1.4870000000000001
sS'NLYS_HB3'
p175
F1.4870000000000001
sS'NLYS_HB2'
p176
F1.4870000000000001
sS'NHIE_CE1'
p177
F1.9079999999999999
sS'TRP_HA'
p178
F1.387
sS'GLN_HA'
p179
F1.387
sS'ASP_H'
p180
F0.59999999999999998
sS'CPRO_OXT'
p181
F1.6612
sS'CLEU_CD1'
p182
F1.9079999999999999
sS'ASP_N'
p183
F1.8240000000000001
sS'ASP_O'
p184
F1.6612
sS'ARG_HG3'
p185
F1.4870000000000001
sS'ARG_HG2'
p186
F1.4870000000000001
sS'ASP_C'
p187
F1.9079999999999999
sS'MET_HA'
p188
F1.387
sS'ASH_HA'
p189
F1.387
sS'CHIE_ND1'
p190
F1.8240000000000001
sS'CVAL_HA'
p191
F1.387
sS'CPRO_HB3'
p192
F1.4870000000000001
sS'CPRO_HB2'
p193
F1.4870000000000001
sS'NASN_CB'
p194
F1.9079999999999999
sS'CMET_SD'
p195
F2
sS'CVAL_HB'
p196
F1.4870000000000001
sS'CTHR_CG2'
p197
F1.9079999999999999
sS'NHIE_C'
p198
F1.9079999999999999
sS'NTHR_HG22'
p199
F1.4870000000000001
sS'NTHR_HG21'
p200
F1.4870000000000001
sS'NPRO_HB2'
p201
F1.4870000000000001
sS'NGLU_HB2'
p202
F1.4870000000000001
sS'NVAL_HG12'
p203
F1.4870000000000001
sS'NHIE_O'
p204
F1.6612
sS'NHIE_N'
p205
F1.8240000000000001
sS'NHIP_N'
p206
F1.8240000000000001
sS'CGLU_C'
p207
F1.9079999999999999
sS'NHIP_O'
p208
F1.6612
sS'NGLN_HA'
p209
F1.1000000000000001
sS'VAL_CG1'
p210
F1.9079999999999999
sS'ALA_HB1'
p211
F1.4870000000000001
sS'ALA_HB2'
p212
F1.4870000000000001
sS'ALA_HB3'
p213
F1.4870000000000001
sS'NLEU_HD11'
p214
F1.4870000000000001
sS'ASN_HA'
p215
F1.387
sS'ASH_CG'
p216
F1.9079999999999999
sS'CGLN_OE1'
p217
F1.6612
sS'ASH_CA'
p218
F1.9079999999999999
sS'ASH_CB'
p219
F1.9079999999999999
sS'NTHR_O'
p220
F1.6612
sS'NLYS_HG2'
p221
F1.4870000000000001
sS'TRP_CH2'
p222
F1.9079999999999999
sS'NARG_H2'
p223
F0.59999999999999998
sS'NARG_H3'
p224
F0.59999999999999998
sS'GLU_HG3'
p225
F1.4870000000000001
sS'GLU_HG2'
p226
F1.4870000000000001
sS'NTRP_HA'
p227
F1.1000000000000001
sS'NGLU_N'
p228
F1.8240000000000001
sS'CTRP_HA'
p229
F1.387
sS'NGLN_CB'
p230
F1.9079999999999999
sS'LYN_HB3'
p231
F1.4870000000000001
sS'LYN_HB2'
p232
F1.4870000000000001
sS'THR_CB'
p233
F1.9079999999999999
sS'NHIP_HB2'
p234
F1.4870000000000001
sS'CMET_HB3'
p235
F1.4870000000000001
sS'THR_CA'
p236
F1.9079999999999999
sS'NGLU_H1'
p237
F0.59999999999999998
sS'CTHR_HA'
p238
F1.387
sS'NHIP_C'
p239
F1.9079999999999999
sS'NARG_HB3'
p240
F1.4870000000000001
sS'CASN_OXT'
p241
F1.6612
sS'GLH_HB3'
p242
F1.4870000000000001
sS'GLH_HB2'
p243
F1.4870000000000001
sS'NPHE_N'
p244
F1.8240000000000001
sS'NILE_HA'
p245
F1.1000000000000001
sS'CHIP_CB'
p246
F1.9079999999999999
sS'CYX_HB2'
p247
F1.387
sS'CYX_HB3'
p248
F1.387
sS'ILE_HG13'
p249
F1.4870000000000001
sS'ILE_HG12'
p250
F1.4870000000000001
sS'CTYR_HD2'
p251
F1.4590000000000001
sS'CASP_OD2'
p252
F1.6612
sS'CASP_OD1'
p253
F1.6612
sS'NALA_CB'
p254
F1.9079999999999999
sS'ILE_HA'
p255
F1.387
sS'CHIP_HE1'
p256
F1.359
sS'CHIP_HE2'
p257
F0.59999999999999998
sS'ILE_HB'
p258
F1.4870000000000001
sS'NALA_CA'
p259
F1.9079999999999999
sS'CGLN_HE21'
p260
F0.59999999999999998
sS'CHIS_CG'
p261
F1.9079999999999999
sS'CGLN_HE22'
p262
F0.59999999999999998
sS'CHIS_CB'
p263
F1.9079999999999999
sS'CASP_O'
p264
F1.6612
sS'CHIS_CA'
p265
F1.9079999999999999
sS'GLN_NE2'
p266
F1.8240000000000001
sS'NGLU_C'
p267
F1.9079999999999999
sS'GLN_HB3'
p268
F1.4870000000000001
sS'GLN_HB2'
p269
F1.4870000000000001
sS'CVAL_O'
p270
F1.6612
sS'CVAL_N'
p271
F1.8240000000000001
sS'NILE_CG2'
p272
F1.9079999999999999
sS'GLH_OE1'
p273
F1.6612
sS'NGLU_H3'
p274
F0.59999999999999998
sS'NALA_O'
p275
F1.6612
sS'GLH_OE2'
p276
F1.7210000000000001
sS'NHIP_CB'
p277
F1.9079999999999999
sS'CCYS_HSG'
p278
F0.59999999999999998
sS'NARG_HD3'
p279
F1.387
sS'ASH_OD1'
p280
F1.6612
sS'ASH_OD2'
p281
F1.7210000000000001
sS'CMET_HA'
p282
F1.387
sS'NPHE_HE2'
p283
F1.4590000000000001
sS'NHIS_H3'
p284
F0.59999999999999998
sS'PRO_O'
p285
F1.6612
sS'PRO_N'
p286
F1.8240000000000001
sS'NCYS_SG'
p287
F2
sS'PRO_C'
p288
F1.9079999999999999
sS'CALA_OXT'
p289
F1.6612
sS'NHIP_HE2'
p290
F0.59999999999999998
sS'NHIP_NE2'
p291
F1.8240000000000001
sS'NALA_N'
p292
F1.8240000000000001
sS'NARG_HA'
p293
F1.1000000000000001
sS'CPHE_C'
p294
F1.9079999999999999
sS'NASN_ND2'
p295
F1.8240000000000001
sS'CTRP_HB2'
p296
F1.4870000000000001
sS'NARG_HE'
p297
F0.59999999999999998
sS'CPHE_O'
p298
F1.6612
sS'CPHE_N'
p299
F1.8240000000000001
sS'NHIS_CG'
p300
F1.9079999999999999
sS'TRP_CZ3'
p301
F1.9079999999999999
sS'CPHE_H'
p302
F0.59999999999999998
sS'CYS_HB3'
p303
F1.387
sS'CYS_HB2'
p304
F1.387
sS'ARG_N'
p305
F1.8240000000000001
sS'ARG_O'
p306
F1.6612
sS'ARG_H'
p307
F0.59999999999999998
sS'CGLN_CD'
p308
F1.9079999999999999
sS'CGLN_CG'
p309
F1.9079999999999999
sS'NTYR_HB3'
p310
F1.4870000000000001
sS'CTRP_CA'
p311
F1.9079999999999999
sS'CTRP_CB'
p312
F1.9079999999999999
sS'CVAL_HG23'
p313
F1.4870000000000001
sS'CVAL_HG22'
p314
F1.4870000000000001
sS'CVAL_HG21'
p315
F1.4870000000000001
sS'ARG_C'
p316
F1.9079999999999999
sS'CLEU_HA'
p317
F1.387
sS'CTHR_C'
p318
F1.9079999999999999
sS'NME_HH32'
p319
F1.387
sS'CGLN_CA'
p320
F1.9079999999999999
sS'NASN_OD1'
p321
F1.6612
sS'HIS_HA'
p322
F1.387
sS'ASN_HD22'
p323
F0.59999999999999998
sS'ASN_HD21'
p324
F0.59999999999999998
sS'CCYX_OXT'
p325
F1.6612
sS'CCYS_SG'
p326
F2
sS'CHIP_C'
p327
F1.9079999999999999
sS'CTHR_N'
p328
F1.8240000000000001
sS'CTHR_O'
p329
F1.6612
sS'ARG_NH1'
p330
F1.8240000000000001
sS'ARG_NH2'
p331
F1.8240000000000001
sS'GLN_HE22'
p332
F0.59999999999999998
sS'GLN_HE21'
p333
F0.59999999999999998
sS'NHIP_HB3'
p334
F1.4870000000000001
sS'CARG_HG3'
p335
F1.4870000000000001
sS'CARG_HG2'
p336
F1.4870000000000001
sS'TRP_HB2'
p337
F1.4870000000000001
sS'TRP_HB3'
p338
F1.4870000000000001
sS'NTYR_H2'
p339
F0.59999999999999998
sS'CILE_HB'
p340
F1.4870000000000001
sS'CILE_HA'
p341
F1.387
sS'NCYX_HA'
p342
F1.1000000000000001
sS'LYS_HA'
p343
F1.387
sS'NVAL_CG1'
p344
F1.9079999999999999
sS'NCYS_HB2'
p345
F1.387
sS'NHIS_HD2'
p346
F1.409
sS'NLYS_HD2'
p347
F1.4870000000000001
sS'NPHE_CE2'
p348
F1.9079999999999999
sS'NASP_CA'
p349
F1.9079999999999999
sS'NCYS_HB3'
p350
F1.387
sS'CLYS_HZ2'
p351
F0.59999999999999998
sS'CLYS_HZ3'
p352
F0.59999999999999998
sS'CLYS_HZ1'
p353
F0.59999999999999998
sS'NHIP_CE1'
p354
F1.9079999999999999
sS'NLEU_CA'
p355
F1.9079999999999999
sS'TRP_CE2'
p356
F1.9079999999999999
sS'TRP_CE3'
p357
F1.9079999999999999
sS'NTRP_CE3'
p358
F1.9079999999999999
sS'NTRP_CE2'
p359
F1.9079999999999999
sS'LYS_HD2'
p360
F1.4870000000000001
sS'LYS_HD3'
p361
F1.4870000000000001
sS'ALA_C'
p362
F1.9079999999999999
sS'NILE_HD12'
p363
F1.4870000000000001
sS'ALA_N'
p364
F1.8240000000000001
sS'ALA_O'
p365
F1.6612
sS'ALA_H'
p366
F0.59999999999999998
sS'TRP_CZ2'
p367
F1.9079999999999999
sS'GLN_OE1'
p368
F1.6612
sS'CARG_OXT'
p369
F1.6612
sS'NILE_O'
p370
F1.6612
sS'CCYX_HA'
p371
F1.387
sS'CGLY_OXT'
p372
F1.6612
sS'CLEU_CG'
p373
F1.9079999999999999
sS'CLEU_CA'
p374
F1.9079999999999999
sS'CLEU_CB'
p375
F1.9079999999999999
sS'CGLN_CB'
p376
F1.9079999999999999
sS'CSER_OXT'
p377
F1.6612
sS'NPRO_H3'
p378
F0.59999999999999998
sS'NPRO_H2'
p379
F0.59999999999999998
sS'NPRO_HB3'
p380
F1.4870000000000001
sS'NHIE_H3'
p381
F0.59999999999999998
sS'ARG_HB2'
p382
F1.4870000000000001
sS'ARG_HB3'
p383
F1.4870000000000001
sS'CASN_HB2'
p384
F1.4870000000000001
sS'NPHE_O'
p385
F1.6612
sS'MET_HE3'
p386
F1.387
sS'MET_HE2'
p387
F1.387
sS'MET_HE1'
p388
F1.387
sS'NHIP_HD1'
p389
F0.59999999999999998
sS'NCYX_H3'
p390
F0.59999999999999998
sS'CTRP_C'
p391
F1.9079999999999999
sS'NHIS_HE1'
p392
F1.359
sS'HIS_CE1'
p393
F1.9079999999999999
sS'CPHE_CD2'
p394
F1.9079999999999999
sS'LYS_HZ1'
p395
F0.59999999999999998
sS'LYS_HZ2'
p396
F0.59999999999999998
sS'LYS_HZ3'
p397
F0.59999999999999998
sS'NILE_HG21'
p398
F1.4870000000000001
sS'NCYX_H1'
p399
F0.59999999999999998
sS'CARG_NE'
p400
F1.8240000000000001
sS'TYR_HA'
p401
F1.387
sS'ASP_HA'
p402
F1.387
sS'NHIE_CA'
p403
F1.9079999999999999
sS'NLYS_H1'
p404
F0.59999999999999998
sS'CILE_CG2'
p405
F1.9079999999999999
sS'NILE_HG23'
p406
F1.4870000000000001
sS'TYR_HH'
p407
F0
sS'CILE_CG1'
p408
F1.9079999999999999
sS'NILE_HG22'
p409
F1.4870000000000001
sS'NLEU_HD13'
p410
F1.4870000000000001
sS'NARG_HH12'
p411
F0.59999999999999998
sS'NARG_HH11'
p412
F0.59999999999999998
sS'NGLU_CD'
p413
F1.9079999999999999
sS'NASN_H3'
p414
F0.59999999999999998
sS'NGLU_CG'
p415
F1.9079999999999999
sS'CVAL_HG13'
p416
F1.4870000000000001
sS'CTRP_HZ2'
p417
F1.4590000000000001
sS'ASH_HD2'
p418
F0
sS'NPRO_HD3'
p419
F1.1000000000000001
sS'NHIS_HB3'
p420
F1.4870000000000001
sS'NHIS_HB2'
p421
F1.4870000000000001
sS'CVAL_H'
p422
F0.59999999999999998
sS'LYN_HG2'
p423
F1.4870000000000001
sS'LYN_HG3'
p424
F1.4870000000000001
sS'NCYX_CA'
p425
F1.9079999999999999
sS'NMET_HG3'
p426
F1.387
sS'NGLN_HG3'
p427
F1.4870000000000001
sS'NGLN_HG2'
p428
F1.4870000000000001
sS'NPRO_HG3'
p429
F1.4870000000000001
sS'CHIE_HB2'
p430
F1.4870000000000001
sS'CHIE_HB3'
p431
F1.4870000000000001
sS'ASN_N'
p432
F1.8240000000000001
sS'NLEU_H2'
p433
F0.59999999999999998
sS'NCYS_H1'
p434
F0.59999999999999998
sS'ASN_O'
p435
F1.6612
sS'CHIS_N'
p436
F1.8240000000000001
sS'CHIS_O'
p437
F1.6612
sS'CTRP_CD1'
p438
F1.9079999999999999
sS'CHIS_H'
p439
F0.59999999999999998
sS'NHIP_CG'
p440
F1.9079999999999999
sS'TYR_OH'
p441
F1.7210000000000001
sS'CHIS_C'
p442
F1.9079999999999999
sS'CARG_CG'
p443
F1.9079999999999999
sS'CPHE_HE2'
p444
F1.4590000000000001
sS'NMET_N'
p445
F1.8240000000000001
sS'NLYS_HZ3'
p446
F0.59999999999999998
sS'CPHE_HE1'
p447
F1.4590000000000001
sS'TRP_H'
p448
F0.59999999999999998
sS'ACE_HH33'
p449
F1.4870000000000001
sS'TYR_CD1'
p450
F1.9079999999999999
sS'GLY_HA3'
p451
F1.387
sS'GLY_HA2'
p452
F1.387
sS'GLH_HG2'
p453
F1.4870000000000001
sS'GLH_HG3'
p454
F1.4870000000000001
sS'CYM_SG'
p455
F2
sS'NTHR_H1'
p456
F0.59999999999999998
sS'CLEU_HB2'
p457
F1.4870000000000001
sS'CLEU_HB3'
p458
F1.4870000000000001
sS'NLYS_HA'
p459
F1.1000000000000001
sS'NASP_CB'
p460
F1.9079999999999999
sS'CHIP_CE1'
p461
F1.9079999999999999
sS'NHIP_CA'
p462
F1.9079999999999999
sS'NASP_CG'
p463
F1.9079999999999999
sS'GLU_HA'
p464
F1.387
sS'NILE_CD1'
p465
F1.9079999999999999
sS'CSER_C'
p466
F1.9079999999999999
sS'CVAL_C'
p467
F1.9079999999999999
sS'NHIP_HD2'
p468
F1.409
sS'CSER_N'
p469
F1.8240000000000001
sS'CSER_O'
p470
F1.6612
sS'CSER_H'
p471
F0.59999999999999998
sS'NHIP_CD2'
p472
F1.9079999999999999
sS'NVAL_H1'
p473
F0.59999999999999998
sS'ASN_H'
p474
F0.59999999999999998
sS'CGLU_HB3'
p475
F1.4870000000000001
sS'HIS_HD2'
p476
F1.409
sS'CYX_CA'
p477
F1.9079999999999999
sS'CYX_CB'
p478
F1.9079999999999999
sS'HIS_HD1'
p479
F0.59999999999999998
sS'NARG_CZ'
p480
F1.9079999999999999
sS'ASN_C'
p481
F1.9079999999999999
sS'TYR_CD2'
p482
F1.9079999999999999
sS'NMET_CB'
p483
F1.9079999999999999
sS'NGLN_H3'
p484
F0.59999999999999998
sS'NMET_CG'
p485
F1.9079999999999999
sS'NMET_H3'
p486
F0.59999999999999998
sS'CASP_CB'
p487
F1.9079999999999999
sS'NLYS_O'
p488
F1.6612
sS'CASP_CA'
p489
F1.9079999999999999
sS'LEU_HD12'
p490
F1.4870000000000001
sS'LEU_HD13'
p491
F1.4870000000000001
sS'NGLU_H2'
p492
F0.59999999999999998
sS'LEU_HD11'
p493
F1.4870000000000001
sS'NALA_HB2'
p494
F1.4870000000000001
sS'NTHR_H3'
p495
F0.59999999999999998
sS'NLYS_C'
p496
F1.9079999999999999
sS'CASP_CG'
p497
F1.9079999999999999
sS'ASN_ND2'
p498
F1.8240000000000001
sS'NPHE_HA'
p499
F1.1000000000000001
sS'CCYX_CB'
p500
F1.9079999999999999
sS'CSER_CB'
p501
F1.9079999999999999
sS'LYN_HZ3'
p502
F0.59999999999999998
sS'LYN_HZ2'
p503
F0.59999999999999998
sS'NGLN_H2'
p504
F0.59999999999999998
sS'NASP_HB2'
p505
F1.4870000000000001
sS'VAL_HG11'
p506
F1.4870000000000001
sS'PHE_CD1'
p507
F1.9079999999999999
sS'PHE_CD2'
p508
F1.9079999999999999
sS'CARG_HH12'
p509
F0.59999999999999998
sS'CARG_HH11'
p510
F0.59999999999999998
sS'CARG_NH2'
p511
F1.8240000000000001
sS'CCYX_O'
p512
F1.6612
sS'NHIS_CA'
p513
F1.9079999999999999
sS'CARG_NH1'
p514
F1.8240000000000001
sS'CMET_HE1'
p515
F1.387
sS'NILE_CB'
p516
F1.9079999999999999
sS'CCYX_H'
p517
F0.59999999999999998
sS'CMET_HE2'
p518
F1.387
sS'NCYX_C'
p519
F1.9079999999999999
sS'NCYX_N'
p520
F1.8240000000000001
sS'CCYX_C'
p521
F1.9079999999999999
sS'CLEU_HD12'
p522
F1.4870000000000001
sS'CLEU_HD13'
p523
F1.4870000000000001
sS'CYX_HA'
p524
F1.387
sS'CARG_H'
p525
F0.59999999999999998
sS'CARG_HD3'
p526
F1.387
sS'CARG_N'
p527
F1.8240000000000001
sS'CARG_O'
p528
F1.6612
sS'NGLU_HA'
p529
F1.1000000000000001
sS'CARG_C'
p530
F1.9079999999999999
sS'NGLN_HE21'
p531
F0.59999999999999998
sS'CHIE_NE2'
p532
F1.8240000000000001
sS'NCYS_CB'
p533
F1.9079999999999999
sS'CPHE_HB2'
p534
F1.4870000000000001
sS'CSER_HA'
p535
F1.387
sS'NHIS_ND1'
p536
F1.8240000000000001
sS'CSER_HG'
p537
F0
sS'ILE_H'
p538
F0.59999999999999998
sS'NTYR_HD1'
p539
F1.4590000000000001
sS'THR_H'
p540
F0.59999999999999998
sS'CASN_HB3'
p541
F1.4870000000000001
sS'THR_N'
p542
F1.8240000000000001
sS'THR_O'
p543
F1.6612
sS'ILE_N'
p544
F1.8240000000000001
sS'ILE_O'
p545
F1.6612
sS'THR_C'
p546
F1.9079999999999999
sS'ILE_C'
p547
F1.9079999999999999
sS'CCYX_HB2'
p548
F1.387
sS'CCYX_HB3'
p549
F1.387
sS'CGLY_HA3'
p550
F1.387
sS'CGLY_HA2'
p551
F1.387
sS'ILE_CG1'
p552
F1.9079999999999999
sS'ILE_CG2'
p553
F1.9079999999999999
sS'NLEU_HD21'
p554
F1.4870000000000001
sS'CHIP_OXT'
p555
F1.6612
sS'NVAL_CG2'
p556
F1.9079999999999999
sS'LYS_HG3'
p557
F1.4870000000000001
sS'LYS_HG2'
p558
F1.4870000000000001
sS'VAL_HG22'
p559
F1.4870000000000001
sS'NTYR_H3'
p560
F0.59999999999999998
sS'HIS_H'
p561
F0.59999999999999998
sS'CPRO_N'
p562
F1.8240000000000001
sS'CMET_HB2'
p563
F1.4870000000000001
sS'CLEU_O'
p564
F1.6612
sS'HIS_N'
p565
F1.8240000000000001
sS'HIS_O'
p566
F1.6612
sS'CYS_HA'
p567
F1.387
sS'HIS_C'
p568
F1.9079999999999999
sS'CPRO_C'
p569
F1.9079999999999999
sS'CYS_HG'
p570
F0.59999999999999998
sS'NTRP_H1'
p571
F0.59999999999999998
sS'NHIS_H2'
p572
F0.59999999999999998
sS'NPHE_CA'
p573
F1.9079999999999999
sS'CLEU_OXT'
p574
F1.6612
sS'NTRP_HD1'
p575
F1.409
sS'CHIP_HB2'
p576
F1.4870000000000001
sS'CHIP_NE2'
p577
F1.8240000000000001
sS'CTRP_CE2'
p578
F1.9079999999999999
sS'CGLN_H'
p579
F0.59999999999999998
sS'NCYS_CA'
p580
F1.9079999999999999
sS'CTRP_CE3'
p581
F1.9079999999999999
sS'CASP_C'
p582
F1.9079999999999999
sS'NCYS_HSG'
p583
F0.59999999999999998
sS'ASH_C'
p584
F1.9079999999999999
sS'NVAL_HG11'
p585
F1.4870000000000001
sS'NTYR_N'
p586
F1.8240000000000001
sS'ASH_H'
p587
F0.59999999999999998
sS'NME_HH33'
p588
F1.387
sS'CASP_H'
p589
F0.59999999999999998
sS'NME_HH31'
p590
F1.387
sS'CASP_N'
p591
F1.8240000000000001
sS'TYR_CZ'
p592
F1.9079999999999999
sS'ASH_N'
p593
F1.8240000000000001
sS'ASH_O'
p594
F1.6612
sS'TYR_CG'
p595
F1.9079999999999999
sS'NVAL_HA'
p596
F1.1000000000000001
sS'NASP_OD1'
p597
F1.6612
sS'CASN_C'
p598
F1.9079999999999999
sS'ILE_HG22'
p599
F1.4870000000000001
sS'ILE_HG23'
p600
F1.4870000000000001
sS'TYR_CA'
p601
F1.9079999999999999
sS'ILE_HG21'
p602
F1.4870000000000001
sS'CASN_H'
p603
F0.59999999999999998
sS'CHIE_OXT'
p604
F1.6612
sS'CHIP_HD1'
p605
F0.59999999999999998
sS'CLEU_C'
p606
F1.9079999999999999
sS'NTRP_HZ3'
p607
F1.4590000000000001
sS'CASN_N'
p608
F1.8240000000000001
sS'CASN_O'
p609
F1.6612
sS'NILE_HD13'
p610
F1.4870000000000001
sS'GLH_CD'
p611
F1.9079999999999999
sS'GLH_CG'
p612
F1.9079999999999999
sS'NTHR_CB'
p613
F1.9079999999999999
sS'GLH_CA'
p614
F1.9079999999999999
sS'NCYS_C'
p615
F1.9079999999999999
sS'GLH_CB'
p616
F1.9079999999999999
sS'CLYS_HB2'
p617
F1.4870000000000001
sS'CLYS_HB3'
p618
F1.4870000000000001
sS'LYS_N'
p619
F1.8240000000000001
sS'LYS_O'
p620
F1.6612
sS'LYS_H'
p621
F0.59999999999999998
sS'CASN_CA'
p622
F1.9079999999999999
sS'NASP_H2'
p623
F0.59999999999999998
sS'NASP_H3'
p624
F0.59999999999999998
sS'NASP_H1'
p625
F0.59999999999999998
sS'LYN_HD3'
p626
F1.4870000000000001
sS'LYN_HD2'
p627
F1.4870000000000001
sS'LYS_C'
p628
F1.9079999999999999
sS'NPHE_CE1'
p629
F1.9079999999999999
sS'CHIE_N'
p630
F1.8240000000000001
sS'CHIE_O'
p631
F1.6612
sS'CHIE_H'
p632
F0.59999999999999998
sS'CSER_HB3'
p633
F1.387
sS'NARG_HD2'
p634
F1.387
sS'NASN_CA'
p635
F1.9079999999999999
sS'CHIE_C'
p636
F1.9079999999999999
sS'CTYR_CG'
p637
F1.9079999999999999
sS'CTYR_CA'
p638
F1.9079999999999999
sS'NILE_H3'
p639
F0.59999999999999998
sS'CTYR_CB'
p640
F1.9079999999999999
sS'NGLU_HB3'
p641
F1.4870000000000001
sS'CGLU_OE1'
p642
F1.6612
sS'CASN_CG'
p643
F1.9079999999999999
sS'NMET_O'
p644
F1.6612
sS'CCYX_N'
p645
F1.8240000000000001
sS'NPRO_C'
p646
F1.9079999999999999
sS'NILE_HB'
p647
F1.4870000000000001
sS'NMET_CA'
p648
F1.9079999999999999
sS'NGLY_HA3'
p649
F1.1000000000000001
sS'SER_CB'
p650
F1.9079999999999999
sS'NSER_O'
p651
F1.6612
sS'SER_CA'
p652
F1.9079999999999999
sS'NSER_N'
p653
F1.8240000000000001
sS'CHIP_H'
p654
F0.59999999999999998
sS'CHIP_CA'
p655
F1.9079999999999999
sS'CHIP_CG'
p656
F1.9079999999999999
sS'CHIP_O'
p657
F1.6612
sS'CHIP_N'
p658
F1.8240000000000001
sS'NGLN_CA'
p659
F1.9079999999999999
sS'ASN_OD1'
p660
F1.6612
sS'CTRP_CG'
p661
F1.9079999999999999
sS'NGLN_CD'
p662
F1.9079999999999999
sS'NGLN_CG'
p663
F1.9079999999999999
sS'NARG_NE'
p664
F1.8240000000000001
sS'CCYS_C'
p665
F1.9079999999999999
sS'CMET_HE3'
p666
F1.387
sS'CTHR_OG1'
p667
F1.7210000000000001
sS'NVAL_H2'
p668
F0.59999999999999998
sS'TRP_HE3'
p669
F1.4590000000000001
sS'CCYS_H'
p670
F0.59999999999999998
sS'TRP_HE1'
p671
F0.59999999999999998
sS'NASP_HA'
p672
F1.1000000000000001
sS'NLYS_H2'
p673
F0.59999999999999998
sS'NLYS_H3'
p674
F0.59999999999999998
sS'CCYS_O'
p675
F1.6612
sS'CCYS_N'
p676
F1.8240000000000001
sS'NPHE_CD1'
p677
F1.9079999999999999
sS'NASN_H1'
p678
F0.59999999999999998
sS'NASN_H2'
p679
F0.59999999999999998
sS'CTRP_HD1'
p680
F1.409
sS'TRP_C'
p681
F1.9079999999999999
sS'ACE_C'
p682
F1.9079999999999999
sS'TRP_N'
p683
F1.8240000000000001
sS'TRP_O'
p684
F1.6612
sS'ACE_O'
p685
F1.6612
sS'NLYS_HZ1'
p686
F0.59999999999999998
sS'PRO_HB3'
p687
F1.4870000000000001
sS'PRO_HB2'
p688
F1.4870000000000001
sS'CPHE_CE1'
p689
F1.9079999999999999
sS'NPHE_CB'
p690
F1.9079999999999999
sS'CLEU_HG'
p691
F1.4870000000000001
sS'NPHE_CG'
p692
F1.9079999999999999
sS'MET_CG'
p693
F1.9079999999999999
sS'TYR_HD1'
p694
F1.4590000000000001
sS'MET_CE'
p695
F1.9079999999999999
sS'MET_CB'
p696
F1.9079999999999999
sS'CYM_HB3'
p697
F1.387
sS'MET_CA'
p698
F1.9079999999999999
sS'NLEU_CD2'
p699
F1.9079999999999999
sS'CILE_HD12'
p700
F1.4870000000000001
sS'CYM_HB2'
p701
F1.387
sS'NASP_OD2'
p702
F1.6612
sS'NGLN_HE22'
p703
F0.59999999999999998
sS'CILE_HD13'
p704
F1.4870000000000001
sS'NPHE_CZ'
p705
F1.9079999999999999
sS'NLYS_HE3'
p706
F1.1000000000000001
sS'NSER_HG'
p707
F0
sS'VAL_CB'
p708
F1.9079999999999999
sS'VAL_CA'
p709
F1.9079999999999999
sS'NHIS_N'
p710
F1.8240000000000001
sS'CILE_HD11'
p711
F1.4870000000000001
sS'CGLU_HA'
p712
F1.387
sS'CMET_OXT'
p713
F1.6612
sS'NTHR_H2'
p714
F0.59999999999999998
sS'CGLN_HB2'
p715
F1.4870000000000001
sS'SER_HA'
p716
F1.387
sS'NASN_O'
p717
F1.6612
sS'SER_HG'
p718
F0
sS'CARG_HD2'
p719
F1.387
sS'CTYR_OXT'
p720
F1.6612
sS'NPHE_HZ'
p721
F1.4590000000000001
sS'NTYR_CG'
p722
F1.9079999999999999
sS'NTYR_HE2'
p723
F1.4590000000000001
sS'CLEU_HD21'
p724
F1.4870000000000001
sS'CLEU_HD23'
p725
F1.4870000000000001
sS'CLEU_HD22'
p726
F1.4870000000000001
sS'NASN_HB3'
p727
F1.4870000000000001
sS'LYN_HA'
p728
F1.387
sS'NASN_HB2'
p729
F1.4870000000000001
sS'ASN_CB'
p730
F1.9079999999999999
sS'ARG_CZ'
p731
F1.9079999999999999
sS'ASN_CA'
p732
F1.9079999999999999
sS'NPHE_H1'
p733
F0.59999999999999998
sS'ASN_CG'
p734
F1.9079999999999999
sS'NPHE_H3'
p735
F0.59999999999999998
sS'HIS_ND1'
p736
F1.8240000000000001
sS'NASN_N'
p737
F1.8240000000000001
sS'NHIS_HD1'
p738
F0.59999999999999998
sS'NGLN_NE2'
p739
F1.8240000000000001
sS'NTRP_HB2'
p740
F1.4870000000000001
sS'NTHR_HA'
p741
F1.1000000000000001
sS'NTHR_HB'
p742
F1.387
sS'NLYS_HZ2'
p743
F0.59999999999999998
sS'ARG_CA'
p744
F1.9079999999999999
sS'ARG_CB'
p745
F1.9079999999999999
sS'CHIS_ND1'
p746
F1.8240000000000001
sS'ARG_CD'
p747
F1.9079999999999999
sS'NVAL_N'
p748
F1.8240000000000001
sS'ARG_CG'
p749
F1.9079999999999999
sS'CLYS_HA'
p750
F1.387
sS'NVAL_O'
p751
F1.6612
sS'NHIP_HE1'
p752
F1.359
sS'LYS_HB2'
p753
F1.4870000000000001
sS'LYS_HB3'
p754
F1.4870000000000001
sS'NMET_SD'
p755
F2
sS'CGLU_CA'
p756
F1.9079999999999999
sS'TYR_O'
p757
F1.6612
sS'TYR_N'
p758
F1.8240000000000001
sS'CGLU_CD'
p759
F1.9079999999999999
sS'TYR_H'
p760
F0.59999999999999998
sS'NILE_H2'
p761
F0.59999999999999998
sS'CGLU_CG'
p762
F1.9079999999999999
sS'NILE_CA'
p763
F1.9079999999999999
sS'NPHE_HB2'
p764
F1.4870000000000001
sS'TYR_C'
p765
F1.9079999999999999
sS'NVAL_CA'
p766
F1.9079999999999999
sS'ARG_HH21'
p767
F0.59999999999999998
sS'NCYX_CB'
p768
F1.9079999999999999
sS'CTHR_CA'
p769
F1.9079999999999999
sS'ARG_HH22'
p770
F0.59999999999999998
sS'NVAL_CB'
p771
F1.9079999999999999
sS'NMET_CE'
p772
F1.9079999999999999
sS'CTRP_H'
p773
F0.59999999999999998
sS'CGLN_N'
p774
F1.8240000000000001
sS'CTRP_O'
p775
F1.6612
sS'NALA_H2'
p776
F0.59999999999999998
sS'CGLY_N'
p777
F1.8240000000000001
sS'CGLY_O'
p778
F1.6612
sS'CGLY_H'
p779
F0.59999999999999998
sS'CTHR_HG1'
p780
F0
sS'CALA_HA'
p781
F1.387
sS'CLYS_HE2'
p782
F1.1000000000000001
sS'CGLN_HG3'
p783
F1.4870000000000001
sS'NPHE_HE1'
p784
F1.4590000000000001
sS'NVAL_H3'
p785
F0.59999999999999998
sS'CGLY_C'
p786
F1.9079999999999999
sS'CASN_HD21'
p787
F0.59999999999999998
sS'CASN_HD22'
p788
F0.59999999999999998
sS'NLEU_CD1'
p789
F1.9079999999999999
sS'NHE_HN2'
p790
F0.59999999999999998
sS'NHE_HN1'
p791
F0.59999999999999998
sS'CILE_OXT'
p792
F1.6612
sS'NHE_N'
p793
F1.8240000000000001
sS'NPHE_C'
p794
F1.9079999999999999
sS'NARG_H1'
p795
F0.59999999999999998
sS'GLU_HB2'
p796
F1.4870000000000001
sS'GLU_HB3'
p797
F1.4870000000000001
sS'NTHR_OG1'
p798
F1.7210000000000001
sS'CPHE_HD1'
p799
F1.4590000000000001
sS'NSER_OG'
p800
F1.7210000000000001
sS'NCYX_O'
p801
F1.6612
sS'CPHE_HD2'
p802
F1.4590000000000001
sS'PHE_HD2'
p803
F1.4590000000000001
sS'PHE_HD1'
p804
F1.4590000000000001
sS'CILE_HG23'
p805
F1.4870000000000001
sS'NTYR_HD2'
p806
F1.4590000000000001
sS'NHIS_CB'
p807
F1.9079999999999999
sS'ASP_OD1'
p808
F1.6612
sS'NARG_CB'
p809
F1.9079999999999999
sS'NARG_CA'
p810
F1.9079999999999999
sS'ASP_OD2'
p811
F1.6612
sS'CTRP_CZ3'
p812
F1.9079999999999999
sS'CTRP_CZ2'
p813
F1.9079999999999999
sS'NARG_CD'
p814
F1.9079999999999999
sS'NHIE_HE2'
p815
F0.59999999999999998
sS'LYN_H'
p816
F0.59999999999999998
sS'CLYS_HG3'
p817
F1.4870000000000001
sS'CLYS_HG2'
p818
F1.4870000000000001
sS'LYN_O'
p819
F1.6612
sS'LYN_N'
p820
F1.8240000000000001
sS'SER_OG'
p821
F1.7210000000000001
sS'LYN_C'
p822
F1.9079999999999999
sS'NHIE_HE1'
p823
F1.359
sS'PHE_CG'
p824
F1.9079999999999999
sS'NHIE_H1'
p825
F0.59999999999999998
sS'NHIE_H2'
p826
F0.59999999999999998
sS'NARG_NH2'
p827
F1.8240000000000001
sS'PHE_CB'
p828
F1.9079999999999999
sS'PHE_CA'
p829
F1.9079999999999999
sS'NGLU_OE1'
p830
F1.6612
sS'CGLN_C'
p831
F1.9079999999999999
sS'CYS_SG'
p832
F2
sS'CTRP_NE1'
p833
F1.8240000000000001
sS'GLY_CA'
p834
F1.9079999999999999
sS'GLN_HG2'
p835
F1.4870000000000001
sS'ILE_HD11'
p836
F1.4870000000000001
sS'ILE_HD12'
p837
F1.4870000000000001
sS'ILE_HD13'
p838
F1.4870000000000001
sS'NLEU_HB3'
p839
F1.4870000000000001
sS'PHE_CZ'
p840
F1.9079999999999999
sS'NPHE_H2'
p841
F0.59999999999999998
sS'CHIS_HD1'
p842
F0.59999999999999998
sS'NTYR_HA'
p843
F1.1000000000000001
sS'NPRO_CB'
p844
F1.9079999999999999
sS'CCYS_HB3'
p845
F1.387
sS'CTYR_CD2'
p846
F1.9079999999999999
sS'NLEU_HD12'
p847
F1.4870000000000001
sS'NASN_HD21'
p848
F0.59999999999999998
sS'NASN_HD22'
p849
F0.59999999999999998
sS'NTYR_OH'
p850
F1.7210000000000001
sS'NSER_HB3'
p851
F1.387
sS'CARG_HH22'
p852
F0.59999999999999998
sS'CARG_HH21'
p853
F0.59999999999999998
sS'NASP_HB3'
p854
F1.4870000000000001
sS'CTHR_HG22'
p855
F1.4870000000000001
sS'CTHR_HG23'
p856
F1.4870000000000001
sS'ARG_NE'
p857
F1.8240000000000001
sS'CTHR_HG21'
p858
F1.4870000000000001
sS'LYN_CB'
p859
F1.9079999999999999
sS'LYN_CA'
p860
F1.9079999999999999
sS'CHIS_OXT'
p861
F1.6612
sS'LYN_CG'
p862
F1.9079999999999999
sS'LYN_CE'
p863
F1.9079999999999999
sS'LYN_CD'
p864
F1.9079999999999999
sS'NME_H'
p865
F0.59999999999999998
sS'THR_HG1'
p866
F0
sS'NLEU_HD22'
p867
F1.4870000000000001
sS'NLEU_HD23'
p868
F1.4870000000000001
sS'NMET_C'
p869
F1.9079999999999999
sS'NME_N'
p870
F1.8240000000000001
sS'NTYR_HB2'
p871
F1.4870000000000001
sS'NLYS_HD3'
p872
F1.4870000000000001
sS'CGLU_CB'
p873
F1.9079999999999999
sS'NGLU_HG2'
p874
F1.4870000000000001
sS'PRO_HG2'
p875
F1.4870000000000001
sS'PRO_HG3'
p876
F1.4870000000000001
sS'NTRP_HB3'
p877
F1.4870000000000001
sS'NSER_HB2'
p878
F1.387
sS'NASN_C'
p879
F1.9079999999999999
sS'NHIE_CG'
p880
F1.9079999999999999
sS'NTYR_O'
p881
F1.6612
sS'CHIE_HE2'
p882
F0.59999999999999998
sS'NHIP_HA'
p883
F1.1000000000000001
sS'NTYR_CZ'
p884
F1.9079999999999999
sS'NHIE_CB'
p885
F1.9079999999999999
sS'NLEU_H1'
p886
F0.59999999999999998
sS'NLEU_HB2'
p887
F1.4870000000000001
sS'NTYR_C'
p888
F1.9079999999999999
sS'NILE_HG12'
p889
F1.4870000000000001
sS'NILE_HG13'
p890
F1.4870000000000001
sS'CHIS_HE1'
p891
F1.359
sS'NGLN_N'
p892
F1.8240000000000001
sS'LEU_CB'
p893
F1.9079999999999999
sS'CGLU_HB2'
p894
F1.4870000000000001
sS'LEU_CA'
p895
F1.9079999999999999
sS'LEU_CG'
p896
F1.9079999999999999
sS'NTYR_CB'
p897
F1.9079999999999999
sS'CPRO_CA'
p898
F1.9079999999999999
sS'CPRO_CB'
p899
F1.9079999999999999
sS'ILE_CD1'
p900
F1.9079999999999999
sS'CPRO_CD'
p901
F1.9079999999999999
sS'CPRO_CG'
p902
F1.9079999999999999
sS'CTRP_CH2'
p903
F1.9079999999999999
sS'NTYR_H1'
p904
F0.59999999999999998
sS'NHIS_NE2'
p905
F1.8240000000000001
sS'CLEU_N'
p906
F1.8240000000000001
sS'CYX_C'
p907
F1.9079999999999999
sS'CLEU_H'
p908
F0.59999999999999998
sS'CHIS_HD2'
p909
F1.409
sS'CYX_H'
p910
F0.59999999999999998
sS'NILE_CG1'
p911
F1.9079999999999999
sS'NTRP_HZ2'
p912
F1.4590000000000001
sS'CYX_N'
p913
F1.8240000000000001
sS'CYX_O'
p914
F1.6612
sS'NSER_C'
p915
F1.9079999999999999
sS'NTHR_CG2'
p916
F1.9079999999999999
sS'CILE_HG13'
p917
F1.4870000000000001
sS'CILE_HG12'
p918
F1.4870000000000001
sS'GLH_C'
p919
F1.9079999999999999
sS'NLEU_H3'
p920
F0.59999999999999998
sS'GLH_O'
p921
F1.6612
sS'GLH_N'
p922
F1.8240000000000001
sS'CPHE_CZ'
p923
F1.9079999999999999
sS'NPRO_CA'
p924
F1.9079999999999999
sS'NALA_C'
p925
F1.9079999999999999
sS'GLH_H'
p926
F0.59999999999999998
sS'CPHE_CA'
p927
F1.9079999999999999
sS'NPRO_CD'
p928
F1.9079999999999999
sS'CPHE_CB'
p929
F1.9079999999999999
sS'NTRP_HE3'
p930
F1.4590000000000001
sS'CPHE_CG'
p931
F1.9079999999999999
sS'ILE_CD'
p932
F1.9079999999999999
sS'NPHE_HD1'
p933
F1.4590000000000001
sS'NTYR_CA'
p934
F1.9079999999999999
sS'CTYR_CD1'
p935
F1.9079999999999999
sS'CHIP_ND1'
p936
F1.8240000000000001
sS'ILE_CA'
p937
F1.9079999999999999
sS'ILE_CB'
p938
F1.9079999999999999
sS'CPRO_O'
p939
F1.6612
sS'NPRO_CG'
p940
F1.9079999999999999
sS'NCYS_H3'
p941
F0.59999999999999998
sS'NCYS_H2'
p942
F0.59999999999999998
sS'CGLN_HG2'
p943
F1.4870000000000001
sS'CGLN_HA'
p944
F1.387
sS'NTYR_CE2'
p945
F1.9079999999999999
sS'CYM_O'
p946
F1.6612
sS'CYM_N'
p947
F1.8240000000000001
sS'LYN_HE2'
p948
F1.1000000000000001
sS'NARG_NH1'
p949
F1.8240000000000001
sS'LEU_HA'
p950
F1.387
sS'CTHR_CB'
p951
F1.9079999999999999
sS'LEU_HG'
p952
F1.4870000000000001
sS'CYM_C'
p953
F1.9079999999999999
sS'NGLU_OE2'
p954
F1.6612
sS'NVAL_HG22'
p955
F1.4870000000000001
sS'CHIE_CE1'
p956
F1.9079999999999999
sS'CTYR_HA'
p957
F1.387
sS'NHIE_HB2'
p958
F1.4870000000000001
sS'NTRP_HH2'
p959
F1.4590000000000001
sS'ARG_HH11'
p960
F0.59999999999999998
sS'ARG_HH12'
p961
F0.59999999999999998
sS'NHIS_CD2'
p962
F1.9079999999999999
sS'NTRP_HE1'
p963
F0.59999999999999998
sS'NLYS_N'
p964
F1.8240000000000001
sS'NVAL_HG21'
p965
F1.4870000000000001
sS'CTRP_N'
p966
F1.8240000000000001
sS'NMET_HE3'
p967
F1.387
sS'GLN_CG'
p968
F1.9079999999999999
sS'GLN_CD'
p969
F1.9079999999999999
sS'CHIE_HD2'
p970
F1.409
sS'GLN_CB'
p971
F1.9079999999999999
sS'GLN_CA'
p972
F1.9079999999999999
sS'LYN_HE3'
p973
F1.1000000000000001
sS'NPHE_HB3'
p974
F1.4870000000000001
sS'NVAL_HG23'
p975
F1.4870000000000001
sS'NHIS_C'
p976
F1.9079999999999999
sS'NILE_C'
p977
F1.9079999999999999
sS'CLEU_HD11'
p978
F1.4870000000000001
sS'NGLY_HA2'
p979
F1.1000000000000001
sS'CCYS_CB'
p980
F1.9079999999999999
sS'CCYS_CA'
p981
F1.9079999999999999
sS'NILE_N'
p982
F1.8240000000000001
sS'CASN_CB'
p983
F1.9079999999999999
sS'CPHE_HA'
p984
F1.387
sS'GLY_C'
p985
F1.9079999999999999
sS'CGLU_H'
p986
F0.59999999999999998
sS'CILE_C'
p987
F1.9079999999999999
sS'CVAL_CA'
p988
F1.9079999999999999
sS'CALA_CB'
p989
F1.9079999999999999
sS'CHIS_CE1'
p990
F1.9079999999999999
sS'GLN_C'
p991
F1.9079999999999999
sS'CALA_CA'
p992
F1.9079999999999999
sS'TYR_HD2'
p993
F1.4590000000000001
sS'CGLU_HG3'
p994
F1.4870000000000001
sS'GLN_O'
p995
F1.6612
sS'GLN_N'
p996
F1.8240000000000001
sS'CCYS_OXT'
p997
F1.6612
sS'GLN_H'
p998
F0.59999999999999998
sS'CLYS_CG'
p999
F1.9079999999999999
sS'ACE_HH31'
p1000
F1.4870000000000001
sS'GLU_H'
p1001
F0.59999999999999998
sS'CTRP_HB3'
p1002
F1.4870000000000001
sS'GLU_N'
p1003
F1.8240000000000001
sS'GLU_O'
p1004
F1.6612
sS'NHIE_NE2'
p1005
F1.8240000000000001
sS'GLU_C'
p1006
F1.9079999999999999
sS'LYS_CB'
p1007
F1.9079999999999999
sS'CLYS_CE'
p1008
F1.9079999999999999
sS'LYS_CD'
p1009
F1.9079999999999999
sS'LYS_CE'
p1010
F1.9079999999999999
sS'CGLN_NE2'
p1011
F1.8240000000000001
sS'LYS_CG'
p1012
F1.9079999999999999
sS'NGLN_HB2'
p1013
F1.4870000000000001
sS'NGLN_HB3'
p1014
F1.4870000000000001
sS'NCYS_N'
p1015
F1.8240000000000001
sS'CASP_OXT'
p1016
F1.6612
sS'CLYS_HD2'
p1017
F1.4870000000000001
sS'CLYS_HD3'
p1018
F1.4870000000000001
sS'CLYS_O'
p1019
F1.6612
sS'TRP_HD1'
p1020
F1.409
sS'CTRP_HE1'
p1021
F0.59999999999999998
sS'CTRP_HE3'
p1022
F1.4590000000000001
sS'CLYS_OXT'
p1023
F1.6612
sS'GLU_OE1'
p1024
F1.6612
sS'GLU_OE2'
p1025
F1.6612
sS'NLEU_CB'
p1026
F1.9079999999999999
sS'THR_HB'
p1027
F1.387
sS'THR_HA'
p1028
F1.387
sS'PHE_N'
p1029
F1.8240000000000001
sS'PHE_H'
p1030
F0.59999999999999998
sS'CVAL_CG1'
p1031
F1.9079999999999999
sS'NTRP_C'
p1032
F1.9079999999999999
sS'TYR_HE1'
p1033
F1.4590000000000001
sS'TYR_HE2'
p1034
F1.4590000000000001
sS'CGLU_O'
p1035
F1.6612
sS'PHE_C'
p1036
F1.9079999999999999
sS'NARG_HB2'
p1037
F1.4870000000000001
sS'NTYR_CE1'
p1038
F1.9079999999999999
sS'CYM_HA'
p1039
F1.387
sS'CYM_HN'
p1040
F0.59999999999999998
sS'NILE_H1'
p1041
F0.59999999999999998
sS'CTRP_CD2'
p1042
F1.9079999999999999
sS'CILE_H'
p1043
F0.59999999999999998
sS'GLU_CB'
p1044
F1.9079999999999999
sS'GLU_CA'
p1045
F1.9079999999999999
sS'GLU_CG'
p1046
F1.9079999999999999
sS'GLU_CD'
p1047
F1.9079999999999999
sS'NHIE_CD2'
p1048
F1.9079999999999999
sS'CILE_N'
p1049
F1.8240000000000001
sS'CTHR_HB'
p1050
F1.387
sS'PRO_HA'
p1051
F1.387
sS'CMET_HG3'
p1052
F1.387
sS'CMET_HG2'
p1053
F1.387
sS'CGLU_OXT'
p1054
F1.6612
sS'NME_CH3'
p1055
F1.9079999999999999
sS'NGLN_C'
p1056
F1.9079999999999999
sS'NLYS_CG'
p1057
F1.9079999999999999
sS'NSER_H3'
p1058
F0.59999999999999998
sS'HIS_CG'
p1059
F1.9079999999999999
sS'HIS_CA'
p1060
F1.9079999999999999
sS'HIS_CB'
p1061
F1.9079999999999999
sS'NGLN_O'
p1062
F1.6612
sS'NGLU_HG3'
p1063
F1.4870000000000001
sS'NASN_CG'
p1064
F1.9079999999999999
sS'NLYS_HE2'
p1065
F1.1000000000000001
sS'CPHE_CE2'
p1066
F1.9079999999999999
sS'ACE_CH3'
p1067
F1.9079999999999999
sS'NLEU_CG'
p1068
F1.9079999999999999
sS'NSER_CB'
p1069
F1.9079999999999999
sS'ALA_HA'
p1070
F1.387
sS'CASP_HA'
p1071
F1.387
sS'MET_HG3'
p1072
F1.387
sS'MET_HG2'
p1073
F1.387
sS'ACE_HH32'
p1074
F1.4870000000000001
sS'NVAL_HB'
p1075
F1.4870000000000001
sS'CTYR_HH'
p1076
F0
sS'NGLU_CA'
p1077
F1.9079999999999999
sS'CARG_HA'
p1078
F1.387
sS'NGLU_CB'
p1079
F1.9079999999999999
sS'CHIS_HB2'
p1080
F1.4870000000000001
sS'CHIS_HB3'
p1081
F1.4870000000000001
sS'CARG_HE'
p1082
F0.59999999999999998
sS'CHIS_NE2'
p1083
F1.8240000000000001
sS'NARG_HG2'
p1084
F1.4870000000000001
sS'CYS_C'
p1085
F1.9079999999999999
sS'NMET_H1'
p1086
F0.59999999999999998
sS'NMET_H2'
p1087
F0.59999999999999998
sS'CTYR_OH'
p1088
F1.7210000000000001
sS'CYS_O'
p1089
F1.6612
sS'CYS_N'
p1090
F1.8240000000000001
sS'NHIE_HB3'
p1091
F1.4870000000000001
sS'CYS_H'
p1092
F0.59999999999999998
sS'ALA_CA'
p1093
F1.9079999999999999
sS'ALA_CB'
p1094
F1.9079999999999999
sS'CASN_OD1'
p1095
F1.6612
sS'CYM_CB'
p1096
F1.9079999999999999
sS'CYM_CA'
p1097
F1.9079999999999999
sS'LYS_CA'
p1098
F1.9079999999999999
sS'CGLU_OE2'
p1099
F1.6612
sS'NCYX_SG'
p1100
F2
sS'ASH_HB2'
p1101
F1.4870000000000001
sS'ASH_HB3'
p1102
F1.4870000000000001
sS'CASN_HA'
p1103
F1.387
sS'CPRO_HD3'
p1104
F1.387
sS'CPRO_HD2'
p1105
F1.387
sS'CPHE_HB3'
p1106
F1.4870000000000001
sS'CLEU_CD2'
p1107
F1.9079999999999999
sS'NPRO_N'
p1108
F1.8240000000000001
sS'NPRO_O'
p1109
F1.6612
sS'VAL_HG21'
p1110
F1.4870000000000001
sS'VAL_HG23'
p1111
F1.4870000000000001
sS'ARG_HD3'
p1112
F1.387
sS'CGLN_O'
p1113
F1.6612
sS'PRO_HD3'
p1114
F1.387
sS'CCYS_HA'
p1115
F1.387
sS'THR_CG2'
p1116
F1.9079999999999999
sS'CPHE_HZ'
p1117
F1.4590000000000001
sS'PRO_HD2'
p1118
F1.387
sS'NSER_H1'
p1119
F0.59999999999999998
sS'NSER_H2'
p1120
F0.59999999999999998
sS'CMET_C'
p1121
F1.9079999999999999
sS'NMET_HA'
p1122
F1.1000000000000001
sS'CILE_HG21'
p1123
F1.4870000000000001
sS'CMET_H'
p1124
F0.59999999999999998
sS'NLEU_O'
p1125
F1.6612
sS'CPHE_CD1'
p1126
F1.9079999999999999
sS'CILE_HG22'
p1127
F1.4870000000000001
sS'CMET_N'
p1128
F1.8240000000000001
sS'CMET_O'
p1129
F1.6612
sS'CILE_CB'
p1130
F1.9079999999999999
sS'NTYR_HE1'
p1131
F1.4590000000000001
sS'CILE_CA'
p1132
F1.9079999999999999
sS'GLH_HE2'
p1133
F0
sS'CTHR_OXT'
p1134
F1.6612
sS'NTYR_CD2'
p1135
F1.9079999999999999
sS'CYS_CB'
p1136
F1.9079999999999999
sS'NALA_H1'
p1137
F0.59999999999999998
sS'CGLN_HB3'
p1138
F1.4870000000000001
sS'CCYX_SG'
p1139
F2
sS'CYX_SG'
p1140
F2
sS'CTYR_HB3'
p1141
F1.4870000000000001
sS'CTYR_HB2'
p1142
F1.4870000000000001
sS'NVAL_C'
p1143
F1.9079999999999999
sS'PHE_HE1'
p1144
F1.4590000000000001
sS'PHE_HE2'
p1145
F1.4590000000000001
sS'ASP_CG'
p1146
F1.9079999999999999
sS'NTHR_C'
p1147
F1.9079999999999999
sS'ASP_CA'
p1148
F1.9079999999999999
sS'ASP_CB'
p1149
F1.9079999999999999
sS'CTYR_HD1'
p1150
F1.4590000000000001
sS'NMET_HB2'
p1151
F1.4870000000000001
sS'CPRO_HA'
p1152
F1.387
sS'CVAL_CB'
p1153
F1.9079999999999999
sS'CALA_HB2'
p1154
F1.4870000000000001
sS'CALA_HB3'
p1155
F1.4870000000000001
sS'CALA_HB1'
p1156
F1.4870000000000001
sS'MET_N'
p1157
F1.8240000000000001
sS'MET_O'
p1158
F1.6612
sS'NHIS_HA'
p1159
F1.1000000000000001
sS'CTRP_OXT'
p1160
F1.6612
sS'MET_H'
p1161
F0.59999999999999998
sS'CCYS_HB2'
p1162
F1.387
sS'NPHE_HD2'
p1163
F1.4590000000000001
sS'NARG_CG'
p1164
F1.9079999999999999
sS'NLEU_N'
p1165
F1.8240000000000001
sS'NTHR_HG23'
p1166
F1.4870000000000001
sS'MET_C'
p1167
F1.9079999999999999
sS'TRP_HH2'
p1168
F1.4590000000000001
sS'CMET_CA'
p1169
F1.9079999999999999
sS'CTYR_C'
p1170
F1.9079999999999999
sS'NHIP_ND1'
p1171
F1.8240000000000001
sS'HIS_HB2'
p1172
F1.4870000000000001
sS'HIS_HB3'
p1173
F1.4870000000000001
sS'NTRP_N'
p1174
F1.8240000000000001
sS'CTYR_H'
p1175
F0.59999999999999998
sS'CTYR_O'
p1176
F1.6612
sS'CTYR_N'
p1177
F1.8240000000000001
sS'GLY_N'
p1178
F1.8240000000000001
sS'GLY_O'
p1179
F1.6612
sS'CCYX_CA'
p1180
F1.9079999999999999
sS'NTRP_NE1'
p1181
F1.8240000000000001
sS'GLY_H'
p1182
F0.59999999999999998
sS'NMET_HE2'
p1183
F1.387
sS'NALA_HB1'
p1184
F1.4870000000000001
sS'CPHE_OXT'
p1185
F1.6612
sS'NMET_HE1'
p1186
F1.387
sS'NTRP_O'
p1187
F1.6612
sS'LEU_CD2'
p1188
F1.9079999999999999
sS'LEU_CD1'
p1189
F1.9079999999999999
sS'TYR_CB'
p1190
F1.9079999999999999
sS'NASN_HA'
p1191
F1.1000000000000001
sS'NALA_HB3'
p1192
F1.4870000000000001
sS'CVAL_HG12'
p1193
F1.4870000000000001
sS'PRO_CB'
p1194
F1.9079999999999999
sS'PRO_CA'
p1195
F1.9079999999999999
sS'CVAL_HG11'
p1196
F1.4870000000000001
sS'PRO_CG'
p1197
F1.9079999999999999
sS'CGLY_CA'
p1198
F1.9079999999999999
sS'PRO_CD'
p1199
F1.9079999999999999
sS'NSER_CA'
p1200
F1.9079999999999999
sS'CHIP_HD2'
p1201
F1.409
sS'ARG_HD2'
p1202
F1.387
sS'HIS_NE2'
p1203
F1.8240000000000001
sS'NHIS_H1'
p1204
F0.59999999999999998
sS'CYS_CA'
p1205
F1.9079999999999999
sS'THR_HG21'
p1206
F1.4870000000000001
sS'THR_HG22'
p1207
F1.4870000000000001
sS'THR_HG23'
p1208
F1.4870000000000001
sS'NLEU_C'
p1209
F1.9079999999999999
sS'NLYS_CE'
p1210
F1.9079999999999999
sS'NLYS_CD'
p1211
F1.9079999999999999
sS'NLYS_CB'
p1212
F1.9079999999999999
sS'NLYS_CA'
p1213
F1.9079999999999999
sS'NGLN_OE1'
p1214
F1.6612
sS'NTHR_HG1'
p1215
F0
sS'NLEU_HA'
p1216
F1.1000000000000001
sS'SER_HB2'
p1217
F1.387
sS'SER_HB3'
p1218
F1.387
s.